ARM GAS  C:\Users\JEFFSN~1\AppData\Local\Temp\ccXOvjnY.s 			page 1


   1              		.syntax unified
   2              		.cpu cortex-m3
   3              		.fpu softvfp
   4              		.eabi_attribute 20, 1
   5              		.eabi_attribute 21, 1
   6              		.eabi_attribute 23, 3
   7              		.eabi_attribute 24, 1
   8              		.eabi_attribute 25, 1
   9              		.eabi_attribute 26, 1
  10              		.eabi_attribute 30, 1
  11              		.eabi_attribute 34, 1
  12              		.eabi_attribute 18, 4
  13              		.thumb
  14              		.syntax unified
  15              		.file	"ADC_SAR_Seq_1_SAR_PM.c"
  16              		.text
  17              	.Ltext0:
  18              		.section	.gnu.lto_.profile.4235bc77,"",%progbits
  19 0000 789C6361 		.ascii	"x\234ca`d`a`\000\222\026\222\000\000\363\000\\"
  19      60646061 
  19      60009216 
  19      920000F3 
  19      005C
  20              		.text
  21              		.section	.gnu.lto_.inline.4235bc77,"",%progbits
  22 0000 789C6361 		.ascii	"x\234ca`d\000\201h\006\004`a``fbd`\0022\331\026\310"
  22      60640081 
  22      68060460 
  22      61606066 
  22      62646002 
  23 0018 8328A022 		.ascii	"\203(\240\"t\021&\006~>\240\210\330\206\\\204\".\260"
  23      74112606 
  23      7E3EA088 
  23      D8865C84 
  23      222EB0
  24 002b 661E1EA0 		.ascii	"f\036\036\2408\337\014wTq0\301\000\000 \024\006\024"
  24      38DF0C77 
  24      547130C1 
  24      00002014 
  24      0614
  25              		.text
  26              		.section	.gnu.lto_.jmpfuncs.4235bc77,"",%progbits
  27 0000 789C6361 		.ascii	"x\234ca`d\000\001A\006\004`\001b\240(\023\224\311\300"
  27      60640001 
  27      41060460 
  27      0162A028 
  27      1394C9C0 
  28 0014 00000346 		.ascii	"\000\000\003F\000\""
  28      0022
  29              		.text
  30              		.section	.gnu.lto_.pureconst.4235bc77,"",%progbits
  31 0000 789C6361 		.ascii	"x\234ca`d\340d```a\0002\230\244X$\000\001y\000L"
  31      6064E064 
  31      60606061 
  31      003298A4 
  31      58240001 
  32              		.text
ARM GAS  C:\Users\JEFFSN~1\AppData\Local\Temp\ccXOvjnY.s 			page 2


  33              		.section	.gnu.lto_ADC_SAR_Seq_1_SAR_SaveConfig.4235bc77,"",%progbits
  34 0000 789C6361 		.ascii	"x\234ca`d\000\201j 6\000bi fdf`d\232p\216\201\241\221"
  34      60640081 
  34      6A203600 
  34      62692066 
  34      64666064 
  35 001a 83899111 		.ascii	"\203\211\221\021\304h\340`d\250gb\254g\374\312\364\227"
  35      C468E060 
  35      64A86762 
  35      AC67FCCA 
  35      F497
  36 002c 89F150FB 		.ascii	"\211\361P\373\263\235L\232\313\033\200\340A\353t\346"
  36      B39D4C9A 
  36      CB1B80E0 
  36      41EB74E6 
  37 003c 86150718 		.ascii	"\206\025\007\030[\231\031\030\3763\201Mb`\\\316\250"
  37      5B991918 
  37      FE33814D 
  37      62605CCE 
  37      A8
  38 004d C90054F6 		.ascii	"\311\000T\366h\343\277\251\274l- e\012\020I\306\025"
  38      68E3BFA9 
  38      BC6C2D20 
  38      650A1049 
  38      C615
  39 005f 8C6C20EB 		.ascii	"\214l \353\326\007\035h\370\377\277\271\341\300n\326"
  39      D6071D68 
  39      F8FFBFB9 
  39      E1C06ED6 
  40 006f BF4C4089 		.ascii	"\277L@\211\017@\014\262\346#\220\003\244\231_12\201"
  40      0F400CB2 
  40      E6239003 
  40      A4995F31 
  40      3281
  41 0081 94824DFB 		.ascii	"\224\202M\373\300\304\010\022\003\252\320sO\315K-J,"
  41      C0C40812 
  41      03AAD073 
  41      4FCD4B2D 
  41      4A2C
  42 0093 494D890F 		.ascii	"IM\211\017\316/-JN\215\011\010\316w6\215qtq\216\017"
  42      CE2F2D4A 
  42      4E8D0908 
  42      CE77368D 
  42      7174718E 
  43 00a8 760C8A0F 		.ascii	"v\014\212\017N-\2147\004\263\002|\365\222\031\000\207"
  43      4E2D8C37 
  43      04B3027C 
  43      F5921900 
  43      87
  44 00b9 E93C49   		.ascii	"\351<I"
  45              		.text
  46              		.section	.gnu.lto_ADC_SAR_Seq_1_SAR_RestoreConfig.4235bc77,"",%progbits
  47 0000 789C6361 		.ascii	"x\234ca`d\000\201\032 6\000bi fdf`d\232p\216\201\241"
  47      60640081 
  47      1A203600 
  47      62692066 
  47      64666064 
ARM GAS  C:\Users\JEFFSN~1\AppData\Local\Temp\ccXOvjnY.s 			page 3


  48 0019 91838991 		.ascii	"\221\203\211\221\021\304h\340`d\250gb\254g\374\312\364"
  48      11C468E0 
  48      6064A867 
  48      62AC67FC 
  48      CAF4
  49 002b 9789F150 		.ascii	"\227\211\361P\373\263\235L\232\313\033\200\340A\353"
  49      FBB39D4C 
  49      9ACB1B80 
  49      E041EB
  50 003a 23838615 		.ascii	"#\203\206\025\007\030[\231\031\030\3763\201Mb`\\\316"
  50      07185B99 
  50      1918FE33 
  50      814D6260 
  50      5CCE
  51 004c A8C90054 		.ascii	"\250\311\000T\366h\343\277\251\274l- e\012\020I\306"
  51      F668E3BF 
  51      A9BC6C2D 
  51      20650A10 
  51      49C6
  52 005e 158C6C20 		.ascii	"\025\214l \353\326\007\035h\370\377\277\271\341\300"
  52      EBD6071D 
  52      68F8FFBF 
  52      B9E1C0
  53 006d 64B683D3 		.ascii	"d\266\203\323\330\2002\037\200\030d\317G&&\020\315\374"
  53      D880321F 
  53      801864CF 
  53      47262610 
  53      CDFC
  54 007f 8A9109A4 		.ascii	"\212\221\011\244\026l\334\007&F\220\030P\205\236{j^"
  54      166CDC07 
  54      26469018 
  54      50859E7B 
  54      6A5E
  55 0091 6A516249 		.ascii	"jQbIjJ|p~iQrjL@p\276\263i\214\243\213s|\260cP|pja\274"
  55      6A4A7C70 
  55      7E695172 
  55      6A4C4070 
  55      BEB3698C 
  56 00b1 219815E0 		.ascii	"!\230\025\340\253\227\314\000\000\007W<\371"
  56      AB97CC00 
  56      0007573C 
  56      F9
  57              		.text
  58              		.section	.gnu.lto_ADC_SAR_Seq_1_SAR_Sleep.4235bc77,"",%progbits
  59 0000 789C9593 		.ascii	"x\234\225\223OHTA\034\307\347;\363\376\265\256\030t"
  59      4F485441 
  59      1CC7E73B 
  59      F3FEB5AE 
  59      1874
  60 0012 95E8265E 		.ascii	"\225\350&^\324\202.\335\304\310S \356UX\304\366\252"
  60      D4822EDD 
  60      C4C85320 
  60      EE5558C4 
  60      F6AA
  61 0024 24D5759F 		.ascii	"$\325u\237\373\334\334\355 R\024\304&K\035\322Zm]\323"
  61      FBDCDCED 
  61      205214C4 
ARM GAS  C:\Users\JEFFSN~1\AppData\Local\Temp\ccXOvjnY.s 			page 4


  61      264B1DD2 
  61      5A6D5DD3 
  62 0038 F2F54736 		.ascii	"\362\365G6Y\361\220\024\035\272$AF-!\026\012\226\024"
  62      59F19014 
  62      1DBA2441 
  62      462D2116 
  62      0A9614
  63 004b E9F69B19 		.ascii	"\351\366\233\031w]\210\242\006v\336o~\363\375\315\367"
  63      775D88A2 
  63      0676DE6F 
  63      7EF3FDCD 
  63      F7
  64 005c B3EF37CF 		.ascii	"\263\3577\317``r\\\020\214\265\320\263\233~8\300\300"
  64      6060725C 
  64      108CB5D0 
  64      B39B7E38 
  64      C0C0
  65 006e 475E3036 		.ascii	"G^06\340p.\022\015\314\015\330r\016\012n\250\225\251"
  65      E0702E12 
  65      0DCC0DD8 
  65      720E0A6E 
  65      A895A9
  66 0081 56062C2D 		.ascii	"V\006,-2\313\201\005G\007v9p\000\031\270\016X\224\013"
  66      32CB8105 
  66      47077639 
  66      700019B8 
  66      0E58940B 
  67 0095 C3B46C07 		.ascii	"\303\264l\007Q|\345;\034\013CE\2377\216\2714\336-~i"
  67      517CE53B 
  67      1C0B4345 
  67      9F378EB9 
  67      34DE2D7E 
  68 00aa 71C7F388 		.ascii	"q\307\363\210\023D\211+\036\206142\222\275\317\355^"
  68      1344892B 
  68      1E863134 
  68      3292BDCF 
  68      ED5E
  69 00bc ADB506A5 		.ascii	"\255\265\006\245\354\210\336\3048,\011\235\355\314\273"
  69      EC88DEC4 
  69      382C099D 
  69      EDCCBB
  70 00cb A592E7E6 		.ascii	"\245\222\347\346\267\255gsvP\260\270\200)'KN\266\234"
  70      B7AD6773 
  70      7650B0B8 
  70      8029274B 
  70      4EB69C
  71 00de 18DBA00A 		.ascii	"\030\333\240\012I\260\311\271|\212\"\026~\\*\246\216"
  71      49B0C9B9 
  71      7C8A2216 
  71      7E5C2AA6 
  71      8E
  72 00ef C9433C61 		.ascii	"\311C<a\222\301\265\370\302K{\213\307\005\207\364{\025"
  72      92C1B5F8 
  72      C24B7B8B 
  72      C70587F4 
  72      7B15
  73 0101 2BDC825E 		.ascii	"+\334\202^f\206\006\\\203R\037\323\323\267\3554F\007"
ARM GAS  C:\Users\JEFFSN~1\AppData\Local\Temp\ccXOvjnY.s 			page 5


  73      6686065C 
  73      83521FD3 
  73      D3B7ED34 
  73      4607
  74 0113 068950E0 		.ascii	"\006\211P\340.\352q\007\365\004\222A\032\254\010\357"
  74      2EEA7107 
  74      F5049241 
  74      1AAC08EF 
  75 0123 E729E609 		.ascii	"\347)\346\011\241\217[,m\347\353d=\3001A\262U\014\256"
  75      A18F5B2C 
  75      6DE7EB64 
  75      3DC03141 
  75      B2550CAE 
  76 0137 7887B59F 		.ascii	"x\207\265\237 Av\335\377^\253\005\014\223\362\034&\361"
  76      204176DD 
  76      FF5EAB05 
  76      0C93F21C 
  76      26F1
  77 0149 044B3468 		.ascii	"\004K4h\272o\251\023Zm\223z\346\371\360\333\032\215"
  77      BA6FA913 
  77      5A6D937A 
  77      E6F9F0DB 
  77      1A8D
  78 015b 9398D638 		.ascii	"\223\230\3268\023o\346/\327\355\343\334\253\340d\253"
  78      136FE62F 
  78      D7EDE3DC 
  78      ABE064AB 
  79 016b 71CAF585 		.ascii	"q\312\365\205\245\213\216v\003\246\3128\275\332\300"
  79      A58B8E76 
  79      03A6CA38 
  79      BDDAC0
  80 017a AAF23758 		.ascii	"\252\3627X\341\020\371\307\266\246>\334\254\225\333"
  80      E110F9C7 
  80      B6A63EDC 
  80      AC95DB
  81 0189 D5AFC650 		.ascii	"\325\257\306P\257\306\367\327W\354\350\216\233p\335"
  81      AFC6F7D7 
  81      57ECE88E 
  81      9B70DD
  82 0198 83944B52 		.ascii	"\203\224KR\267dzm\371u! y\\\22571M-\316\311\203isxn"
  82      B7647A6D 
  82      F9752120 
  82      795C9537 
  82      314D2DCE 
  83 01b2 2AE9344F 		.ascii	"*\3514O\312\366\271)\342\265p\237(wU\2231\203f\222$"
  83      CAF6B929 
  83      E2B5709F 
  83      28775593 
  83      31836692 
  84 01c7 6F5CCF28 		.ascii	"o\\\317(\027\013\002\263\012h\223\233\025\234b\005\347"
  84      170B02B3 
  84      0A68939B 
  84      159C6205 
  84      E7
  85 01d8 5FFD1FFC 		.ascii	"_\375\037\374\325\377\341\276\377\234\362\237\035Z\316"
  85      D5FFE1BE 
  85      FF9CF29F 
ARM GAS  C:\Users\JEFFSN~1\AppData\Local\Temp\ccXOvjnY.s 			page 6


  85      1D5ACE
  86 01e7 05B43FE0 		.ascii	"\005\264?\340\357\371[\262\035\237\340\345G\227\202"
  86      EFF95BB2 
  86      1D9FE0E5 
  86      479782
  87 01f6 D2FEF7FF 		.ascii	"\322\376\367\377o\227\350\3020<B\224n\232\243\212l\335"
  87      6F97E8C2 
  87      303C4294 
  87      6E9AA38A 
  87      6CDD
  88 0208 4382FEBC 		.ascii	"C\202\376\274Z\363\237\320\217\377\000}EA?\331\207~"
  88      5AF39FD0 
  88      8FFF007D 
  88      45413FD9 
  88      877E
  89 021a AAA02BAD 		.ascii	"\252\240+\255\241O\001\363{\320\216\272\342k\210\345"
  89      A14F01F3 
  89      7BD08EBA 
  89      E26B88E5 
  90 022a FD76052D 		.ascii	"\375v\005-\307\006aR\232\212\233\332#\275\221\376\356"
  90      C7066152 
  90      9A8A9BDA 
  90      23BD91FE 
  90      EE
  91 023b 739133E1 		.ascii	"s\2213\341P\337\371\376\236HWG\250\257\355xW\353\311"
  91      50DFF9FE 
  91      9E485747 
  91      A8AFED78 
  91      57EBC9
  92 024e B670A8B5 		.ascii	"\266p\250\2653\034\212\234\015\037UQ\307\351\246\036"
  92      331C8A9C 
  92      0D1F5551 
  92      C7E9A61E 
  93 025e F60B9C61 		.ascii	"\366\013\234aE\""
  93      4522
  94              		.text
  95              		.section	.gnu.lto_ADC_SAR_Seq_1_SAR_backup.4235bc77,"",%progbits
  96 0000 789C6361 		.ascii	"x\234ca`d\000\001] \206\260\030\030\37621\256\177\263"
  96      60640001 
  96      5D2086B0 
  96      1818FE32 
  96      31AE7FB3 
  97 0014 F327EF17 		.ascii	"\363'\357\027\246Vf\240 \220\273sn\373m>\213m\015\035"
  97      A65666A0 
  97      2090BB73 
  97      6EFB6D3E 
  97      8B6D0D1D 
  98 0028 0B1A045A 		.ascii	"\013\032\004Z\231\031\377110.g\224a`\\\301h\301\000"
  98      9919FF31 
  98      31302E67 
  98      9461605C 
  98      C168C100 
  99 003c 00C3A010 		.ascii	"\000\303\240\020)"
  99      29
 100              		.text
 101              		.section	.gnu.lto_ADC_SAR_Seq_1_SAR_Wakeup.4235bc77,"",%progbits
 102 0000 789C9551 		.ascii	"x\234\225Q\317KTQ\030\375\316\275\357\315\233FE\027"
ARM GAS  C:\Users\JEFFSN~1\AppData\Local\Temp\ccXOvjnY.s 			page 7


 102      CF4B5451 
 102      18FDCEBD 
 102      EFCD9B46 
 102      4517
 103 0012 2D656899 		.ascii	"-eh\231\213\234\\\364\007\310\210\202\020\210\263\025"
 103      8B9C5CF4 
 103      07C88882 
 103      1088B315 
 104 0022 86B0B74D 		.ascii	"\206\260\267M\222\3346\327y>\322\215H\220\033\021\027"
 104      92DC36D7 
 104      793ED28D 
 104      48901B11 
 104      17
 105 0033 2EFC558D 		.ascii	".\374U\215S\233\336\254^R\004\322\317En\334T\213!D\310"
 105      539BDEAC 
 105      5E5204D2 
 105      CF456EDC 
 105      548B2144 
 106 0048 A088207D 		.ascii	"\240\210 }}\337}\201B\272\360\203\373\343}\367\234\357"
 106      7DDF7D81 
 106      42BAF083 
 106      FBE37DF7 
 106      9CEF
 107 005a 9CC37308 		.ascii	"\234\303s\010$uY\021]\345\263\310\013\031\202\232{K"
 107      24755911 
 107      5DE5B3C8 
 107      0B19829A 
 107      7B4B
 108 006c 3499554A 		.ascii	"4\231UJ7\362dr\356N\201L\253V\316\211/\007n\012r\001"
 108      37F26472 
 108      EE4E814C 
 108      AB56CE89 
 108      2F076E0A 
 109 0082 B9982CA8 		.ascii	"\271\230,\250\242\264\343\242\202\237\352Pa\353^3R]"
 109      A2B4E3A2 
 109      829FEA50 
 109      61EB5E33 
 109      525D
 110 0094 2B86EB53 		.ascii	"+\206\353S\270\334cVc\204\232(QV\221\260\202.b\330\227"
 110      B8DC6356 
 110      63849A28 
 110      515691B0 
 110      822E62D8 
 111 00a9 FAD183B6 		.ascii	"\372\321\203\266\314\224\300.\245\217XEFl\325\206c\223"
 111      CC94C02E 
 111      A58F5845 
 111      466CD586 
 111      6393
 112 00bb 24818917 		.ascii	"$\201\211\027r\317\337\347\262\232B\015W6O6\242\003"
 112      72CFDFE7 
 112      B29A420D 
 112      57364F36 
 112      A203
 113 00cd 068BF277 		.ascii	"\006\213\362w\245\344\324MT\033\365W\325\013\302\017"
 113      A5E4D44D 
 113      541BF557 
 113      D50BC20F 
ARM GAS  C:\Users\JEFFSN~1\AppData\Local\Temp\ccXOvjnY.s 			page 8


 114 00dd B4E6D9F3 		.ascii	"\264\346\331\363\341\326;\357\207\012\265\202HE\321"
 114      E1D63BEF 
 114      870AB582 
 114      4845D1
 115 00ec FEAE5739 		.ascii	"\376\256W94\323\306tpo\206\335H{\357\365\307\027\271"
 115      34D3C674 
 115      706F86DD 
 115      487BEFF5 
 115      C717B9
 116 00ff 252C4E1A 		.ascii	"%,N\032\333\327X\347\010k\350\264\217\263\3176g\262"
 116      DBD758E7 
 116      086BE8B4 
 116      8FB3CF36 
 116      67B2
 117 0111 852BA176 		.ascii	"\205+\241v\260\201%\034Y\367x\210\002}\306\324n\220"
 117      B081251C 
 117      59F77888 
 117      027DC6D4 
 117      6E90
 118 0123 3F16ABED 		.ascii	"?\026\253\355G\277\333D\014 <\022:\2117M\215\274\376"
 118      47BFDB44 
 118      0C203C12 
 118      3A89374D 
 118      8DBCFE
 119 0136 8A20AE6F 		.ascii	"\212 \256o\267\012\370\177#n\302\366\010\217Q\341\\"
 119      B70AF87F 
 119      236EC2F6 
 119      088F51E1 
 119      5C
 120 0147 19B231DE 		.ascii	"\031\2621\336\334oI'\273\347\360];\335\367\346\261\357"
 120      DC6F4927 
 120      BBE7F05D 
 120      3BDDF7E6 
 120      B1EF
 121 0159 3AFB6E22 		.ascii	":\373n\"\370\323O\201\366\322\341/\223_q{j[\341\011"
 121      F8D34F81 
 121      F6D2E12F 
 121      935F717B 
 121      6A5BE109 
 122 016d B36DAEBB 		.ascii	"\263m\256\273\251\272w\"\210C\337Zl\220h\373\342\231"
 122      A9BA7722 
 122      8843DF5A 
 122      6C9068FB 
 122      E299
 123 017f 4158064F 		.ascii	"AX\006O\377\005\021\222k\377\314\036\252\361\207AK\222"
 123      FF051192 
 123      6BFFCC1E 
 123      AAF18741 
 123      4B92
 124 0191 3AE0BCDC 		.ascii	":\340\274\334fl\367\200\177\313\037\277q\307\277Y.\215"
 124      666CF780 
 124      7FCB1FBF 
 124      71C7BF59 
 124      2E8D
 125 01a3 4D8C8FFA 		.ascii	"M\214\217\372#C\245\261\342\265\221\336\276b\271\324"
 125      2343A5B1 
 125      E2B591DE 
ARM GAS  C:\Users\JEFFSN~1\AppData\Local\Temp\ccXOvjnY.s 			page 9


 125      BE62B9D4 
 126 01b3 3B5C2EF9 		.ascii	";\\.\371\267\313=\3666t\275{\224\376\002\372\301\316"
 126      B7CB3DF6 
 126      3674BD7B 
 126      94FE02FA 
 126      C1CE
 127 01c5 36       		.ascii	"6"
 128              		.text
 129              		.section	.gnu.lto_.symbol_nodes.4235bc77,"",%progbits
 130 0000 789C558A 		.ascii	"x\234U\212\253\021\200@\020C\263\277;\317\014\036z\240"
 130      AB118040 
 130      1043B3BF 
 130      3BCF0C1E 
 130      7AA0
 131 0012 BF3D8546 		.ascii	"\277=\205FP\002\012\215\245\005\252\240\0064;(6&\363"
 131      50020A8D 
 131      A505AAA0 
 131      06343B28 
 131      3626F3
 132 0025 5EA220AC 		.ascii	"^\242 \254\21009\260\\@\324\336\306\020\354\224\205"
 132      883039B0 
 132      5C40D4DE 
 132      C610EC94 
 132      85
 133 0036 38276140 		.ascii	"8'a@\353\000auI\003\231\353'\342\320\206\340\352\226"
 133      EB006175 
 133      490399EB 
 133      27E2D086 
 133      E0EA96
 134 0049 B878F9B3 		.ascii	"\270x\371\263\260a\233\237*Zq\037\223h\301}\366x\001"
 134      B0619B9F 
 134      2A5A711F 
 134      9368C17D 
 134      F67801
 135 005c EE8E1ED1 		.ascii	"\356\216\036\321"
 136              		.text
 137              		.section	.gnu.lto_.refs.4235bc77,"",%progbits
 138 0000 789C05C1 		.ascii	"x\234\005\301A\016\000 \014\303\260t\251\004\332\231"
 138      410E0020 
 138      0CC3B074 
 138      A904DA99 
 139 0010 FFBF15BB 		.ascii	"\377\277\025\273\204\0078\361\304\033w\212\301\362\001"
 139      840738F1 
 139      C41B778A 
 139      C1F201
 140 001f 05290055 		.ascii	"\005)\000U"
 141              		.text
 142              		.section	.gnu.lto_.decls.4235bc77,"",%progbits
 143 0000 789C8D94 		.ascii	"x\234\215\224\177L[U\024\307\337y\267\320Z\212K\206"
 143      7F4C5B55 
 143      14C7DF79 
 143      B7D05A8A 
 143      4B86
 144 0012 99FCD128 		.ascii	"\231\374\321(.[\322\304\244\212F\263\377\024\253n\306"
 144      2E5BD2C4 
 144      A48A46B3 
 144      FF14AB6E 
ARM GAS  C:\Users\JEFFSN~1\AppData\Local\Temp\ccXOvjnY.s 			page 10


 144      C6
 145 0023 680885ED 		.ascii	"h\010\205\355\237%Ma\317\271\214\320\332\225\231\375"
 145      9F254D61 
 145      CFB98CD0 
 145      DA9599FD 
 146 0033 77076C1A 		.ascii	"w\007l\032LFg\266i[\302\330f&l@\313\030\243\270\342"
 146      4C4667B6 
 146      695BC2D8 
 146      66266C40 
 146      CB18A3B8 
 147 0048 5A3AC606 		.ascii	"Z:\306\006+J0$\313f\354\302bB\324\005\0245\230\260z"
 147      2B4A3024 
 147      CB66ECC2 
 147      6242D405 
 147      143598B0 
 148 005d EE7DEFF5 		.ascii	"\356}\357\365\025y\230\335\344\364\275{\357\367\373"
 148      157998DD 
 148      E4F4BD7B 
 148      EFF7FB
 149 006c 39E7FEE8 		.ascii	"9\347\376\3503\010 \260\366W\201 \234\300\327=\030Y"
 149      330820B0 
 149      F6578120 
 149      9CC0D73D 
 149      1859
 150 007e 6C8538B6 		.ascii	"l\2058\266S\320\232\021\243\027#\202\321\2171\2001\210"
 150      53D09A11 
 150      A3172382 
 150      D18F3180 
 150      3188
 151 0090 3184318C 		.ascii	"1\2041\214\301(\343\302\352\326\253\214\253\034P\306"
 151      C128E3C2 
 151      EAD6AB8C 
 151      AB1C50C6 
 152 00a0 FEDB223A 		.ascii	"\376\333\":\272\210\216\216\345}B\321Y1ncL`\2441\306"
 152      BA888E8E 
 152      E57D42D1 
 152      59316E63 
 152      4C60A431 
 153 00b5 30121853 		.ascii	"0\022\030S\030=\012#\211!*\276\301uj\034W4V\205\241"
 153      183D0A23 
 153      89212ABE 
 153      C1756A1C 
 153      57345685 
 154 00ca FAF41A5B 		.ascii	"\372\364\032[\2631/\377\377\345%\212\236\355\315\320"
 154      B3312FFF 
 154      FFE5258A 
 154      9EEDCDD0 
 155 00da 3AB95744 		.ascii	":\271WDhOv\244\012\356\302\035\000\001x\023\224\363"
 155      684F76A4 
 155      0AEEC21D 
 155      00017813 
 155      94F3
 156 00ec 10D888F2 		.ascii	"\020\330\210\362d/ wDu\177@\025\251[\306\345 \210\\"
 156      642F2077 
 156      44757F40 
 156      15A95BC6 
 156      E520885C 
ARM GAS  C:\Users\JEFFSN~1\AppData\Local\Temp\ccXOvjnY.s 			page 11


 157 0100 9F1B5775 		.ascii	"\237\033Wu\271\234Y\265iC\220k\252\022VC\031U\353b_"
 157      B99C59B5 
 157      6943906B 
 157      AA125643 
 157      1955EB62 
 158 0115 D40C793C 		.ascii	"\324\014y<\245z%?\344\247\345h\242.:t\342\2731 \310"
 158      A57A253F 
 158      E4A7E568 
 158      A22E3A74 
 158      E2BB3120 
 159 012a C4F79F96 		.ascii	"\304\367\237\226\273\336\266\367Pl\001J\305\327\264"
 159      BBDEB6F7 
 159      506C014A 
 159      C5D7B4
 160 0139 9D996E89 		.ascii	"\235\231n\211\266\223%\0216\232\301\200\335\305th\356"
 160      B6932511 
 160      369AC180 
 160      DDC57468 
 160      EE
 161 014a 49EC3E65 		.ascii	"I\354>e\2062\354\256\334\012\207\304\322S\334\327L\313"
 161      8632ECAE 
 161      DC0A87C4 
 161      D253DCD7 
 161      4CCB
 162 015c 0CB07313 		.ascii	"\014\260s\023\\\004+\\\000<\030\350\201R\374\2555\310"
 162      5C042B5C 
 162      003C18E8 
 162      8152FCAD 
 162      35C8
 163 016e A4E599A6 		.ascii	"\244\345\231\246\266\242\315\2354\032\245\231\376\305"
 163      B6A2CD9D 
 163      341AA599 
 163      FEC5
 164 017c 978234D1 		.ascii	"\227\2024\321\2026\221\251\240\013\010t\203\235\225"
 164      823691A9 
 164      A00B0874 
 164      839D95
 165 018b 88AFECF1 		.ascii	"\210\257\354\3615\334\305\342{a3:O\207\243\211\015d"
 165      35DCC5E2 
 165      7B61333A 
 165      4F87A389 
 165      0D64
 166 019d 172FF4E8 		.ascii	"\027/\364\350\354\310\317&\231\222\010\334\260\320\300"
 166      ECC8CF26 
 166      999208DC 
 166      B0D0C0
 167 01ac 614A5FE7 		.ascii	"aJ_\347\214>\215\321\227\317\210pFph\276K$\037sF\370"
 167      8C3E8DD1 
 167      97CF8870 
 167      467068BE 
 167      4B241F73 
 168 01c2 61C7DF22 		.ascii	"a\307\337\"2:\221\261\264\212\021\325\030\321|F?g\304"
 168      323A91B1 
 168      B48A11D5 
 168      18D17C46 
 168      3F67C4
 169 01d5 63D78F10 		.ascii	"c\327\217\020\322\006\034\222L\237\217\030\024\310\227"
ARM GAS  C:\Users\JEFFSN~1\AppData\Local\Temp\ccXOvjnY.s 			page 12


 169      D2061C92 
 169      4C9F8F18 
 169      14C897
 170 01e4 13F9904B 		.ascii	"\023\371\220K\032\344R>d\200C2\277O\3373\221.\031\362"
 170      1AE4523E 
 170      64804332 
 170      BF4FDF33 
 170      912E19F2 
 171 01f8 636C3A61 		.ascii	"cl:aAH\206\322\314\243\311W\203t\324\300\021\2275\304"
 171      414886D2 
 171      CCA3C957 
 171      8374D4C0 
 171      119735C4 
 172 020c 65900F0C 		.ascii	"e\220\017\014\006\271}45\265`$\277\310\366\350\324\342"
 172      06B97D34 
 172      35B56024 
 172      BFC8F6E8 
 172      D4E2
 173 021e 34C8F6C4 		.ascii	"4\310\366\304\314\261\342\234\375\212f\277\242\332\207"
 173      CCB1E29C 
 173      FD8A66BF 
 173      A2DA87
 174 022d B89DB67D 		.ascii	"\270\235\266}\0257\223V\371\320\223\241k\255\242b\017"
 174      15379356 
 174      F9D093A1 
 174      6BADA262 
 174      0F
 175 023e 1E25397B 		.ascii	"\036%9{L\263\307T\3730\267\337\217\365\306\015\344\234"
 175      4CB3C754 
 175      FB30B7DF 
 175      8FF5C60D 
 175      E49C
 176 0250 6C1F3D75 		.ascii	"l\037=u\357\007\013\211\313\235\310\221\007\335&\274"
 176      EF070B89 
 176      CB9DC891 
 176      07DD26BC 
 177 0260 18563364 		.ascii	"\030V3d\201\365\177\035^.\226\373l:x|\356Q\021\271\311"
 177      81F57F1D 
 177      5E2E96FB 
 177      6C3A787C 
 177      EE5111B9 
 178 0275 B5E2CCDC 		.ascii	"\265\342\314\334\305y\003\330\314\347\331\275\311\214"
 178      C57903D8 
 178      CCE7D9BD 
 178      C98C
 179 0283 CCD67FF1 		.ascii	"\314\326\177\361\011\273\010\0110\303\267Zj\253\031"
 179      09BB0809 
 179      30C3B75A 
 179      6AAB19
 180 0292 7F3FA5B4 		.ascii	"\177?\245\264\211.\234\245\205\245\002\274l\205\027"
 180      892E9CA5 
 180      85A502BC 
 180      6C8517
 181 02a1 AD025C03 		.ascii	"\255\002\\\003\033\2432\025\214\340]\213\343][\021\311"
 181      1BA33215 
 181      8CE05D8B 
 181      E35D5B11 
ARM GAS  C:\Users\JEFFSN~1\AppData\Local\Temp\ccXOvjnY.s 			page 13


 181      C9
 182 02b2 99E6D97A 		.ascii	"\231\346\331z\330Rb;\313\034\231\354g\366p\037\245\315"
 182      D852623B 
 182      CB1C99EC 
 182      67F6701F 
 182      A5CD
 183 02c4 859C7A15 		.ascii	"\205\234z\025\251\243P\242\022^`\227\263\234}:\216\263"
 183      A9A350A2 
 183      125E6097 
 183      B39C7D3A 
 183      8EB3
 184 02d6 0A169A28 		.ascii	"\012\026\232(e\377\024yV\340J\244C\012\023%a\013_?/"
 184      65FF1479 
 184      56E04AA4 
 184      430A1325 
 184      610B5F3F 
 185 02eb 35312851 		.ascii	"51(Qjb\363\202R\244\362'\031[\376>\005dA^]\340\301\261"
 185      6A62F382 
 185      52A4F227 
 185      195BFE3E 
 185      0564415E 
 186 0303 B4094A6C 		.ascii	"\264\011Jl:l\270\201\310\365\361W\213q\027\306p\372"
 186      3A6CB881 
 186      C8F5F157 
 186      8B7117C6 
 186      70FA
 187 0315 BAB60B2C 		.ascii	"\272\266\013,\031\317\361\317L\370B\361\326s\224\342"
 187      19CFF1CF 
 187      4CF842F1 
 187      D67394E2 
 188 0325 79F5DF7F 		.ascii	"y\365\337\177\347\317&\272\203k\277\221\265\271\352"
 188      E7CF26BA 
 188      836BBF91 
 188      B5B9EA
 189 0334 59BF5A14 		.ascii	"Y\277Z\024`\034\266\242k\251\345\217\331B3\356b\363"
 189      601CB6A2 
 189      6BA9E58F 
 189      D94233EE 
 189      62F3
 190 0346 63ED22A4 		.ascii	"c\355\"\244\347\317d\215$@\370J\006N\006O\032\301l\323"
 190      E7CF648D 
 190      2440F84A 
 190      064E064F 
 190      1AC16CD3 
 191 035a B14FEAD8 		.ascii	"\261O\352\330\325\343\254\011}~\230\226\301\004n\374"
 191      D5E3AC09 
 191      7D7E9896 
 191      C1046EFC 
 192 036a 2D6D2137 		.ascii	"-m!7\301,/\244\373a*\001\226VvL\370\315\330\270\203"
 192      C12C2FA4 
 192      FB612A01 
 192      9656764C 
 192      F8CDD8B8 
 193 037f 0BB58FC6 		.ascii	"\013\265\217\306m\260\360\013\207O\024w\234\356\374"
 193      6DB0F00B 
 193      874F1477 
 193      9CEEFC
ARM GAS  C:\Users\JEFFSN~1\AppData\Local\Temp\ccXOvjnY.s 			page 14


 194 038e 6D43BE98 		.ascii	"mC\276\230-Y\023\247\025q\232\213Cw\332'M\371bv\231"
 194      2D5913A7 
 194      15719A8B 
 194      4377DA27 
 194      4DF96276 
 195 03a3 35F11458 		.ascii	"5\361\024X\324b\360U\260V\274\351p9+\252\\N\351#W\271"
 195      D462F055 
 195      B056BCE9 
 195      70392BAA 
 195      5C4EE923 
 196 03b9 FCE63E28 		.ascii	"\374\346>(9<\015\037\354\333k\332\376~M\231\243\274"
 196      393C0D1F 
 196      ECDB6BDA 
 196      FE7E4D99 
 196      A3BC
 197 03cb 5CB06F97 		.ascii	"\\\260o\227\032$\237\333/\355q9=\215\276:iw\245\323"
 197      1A249FDB 
 197      2FED7139 
 197      3D8DBE3A 
 197      6977A5D3 
 198 03df E37865F7 		.ascii	"\343xe\367Zs\345{\366:\341\331\265\343U\322\001\277"
 198      5A73E57B 
 198      F63AE1D9 
 198      B5E355D2 
 198      01BF
 199 03f1 C7A7709F 		.ascii	"\307\247p\237\326IZ/I\336\322\265\343\273\334\373\245"
 199      D6495A2F 
 199      49DED2B5 
 199      E3BBDCFB 
 199      A5
 200 0402 46EF261D 		.ascii	"F\357&\035\203\337\343}\376q\313\262\177(<\243\207p"
 200      83DFE37D 
 200      FE71CBB2 
 200      7F283CA3 
 200      8770
 201 0414 FBFC58D1 		.ascii	"\373\374X\321A\311\347\327I\375V\203\273\266^\322\231"
 201      41C9E7D7 
 201      49FD5683 
 201      BBB65ED2 
 201      99
 202 0425 A875D7ED 		.ascii	"\250u\327\355o\364\026I|\036!~\251\240q_\203\177\333"
 202      6FF41649 
 202      7C1E217E 
 202      A9A0715F 
 202      837FDB
 203 0438 73EB9453 		.ascii	"s\353\224Sw\310\177\310+\035\300\"t6\346\215\012\307"
 203      77C87FC8 
 203      2B1DC022 
 203      7436E68D 
 203      0AC7
 204 044a BB35952E 		.ascii	"\2735\225.guU\215\243\332\340\223\366n\373\027\326\304"
 204      6775558D 
 204      A3DAE093 
 204      F66EFB17 
 204      D6C4
 205 045c 4364     		.ascii	"Cd"
 206              		.text
ARM GAS  C:\Users\JEFFSN~1\AppData\Local\Temp\ccXOvjnY.s 			page 15


 207              		.section	.gnu.lto_.symtab.4235bc77,"",%progbits
 208 0000 4144435F 		.ascii	"ADC_SAR_Seq_1_SAR_SaveConfig\000"
 208      5341525F 
 208      5365715F 
 208      315F5341 
 208      525F5361 
 209 001d 00       		.ascii	"\000"
 210 001e 00       		.ascii	"\000"
 211 001f 00       		.ascii	"\000"
 212 0020 00000000 		.ascii	"\000\000\000\000\000\000\000\000"
 212      00000000 
 213 0028 AD000000 		.ascii	"\255\000\000\000"
 214 002c 4144435F 		.ascii	"ADC_SAR_Seq_1_SAR_RestoreConfig\000"
 214      5341525F 
 214      5365715F 
 214      315F5341 
 214      525F5265 
 215 004c 00       		.ascii	"\000"
 216 004d 00       		.ascii	"\000"
 217 004e 00       		.ascii	"\000"
 218 004f 00000000 		.ascii	"\000\000\000\000\000\000\000\000"
 218      00000000 
 219 0057 AF000000 		.ascii	"\257\000\000\000"
 220 005b 4144435F 		.ascii	"ADC_SAR_Seq_1_SAR_Sleep\000"
 220      5341525F 
 220      5365715F 
 220      315F5341 
 220      525F536C 
 221 0073 00       		.ascii	"\000"
 222 0074 00       		.ascii	"\000"
 223 0075 00       		.ascii	"\000"
 224 0076 00000000 		.ascii	"\000\000\000\000\000\000\000\000"
 224      00000000 
 225 007e B1000000 		.ascii	"\261\000\000\000"
 226 0082 4144435F 		.ascii	"ADC_SAR_Seq_1_SAR_Wakeup\000"
 226      5341525F 
 226      5365715F 
 226      315F5341 
 226      525F5761 
 227 009b 00       		.ascii	"\000"
 228 009c 00       		.ascii	"\000"
 229 009d 00       		.ascii	"\000"
 230 009e 00000000 		.ascii	"\000\000\000\000\000\000\000\000"
 230      00000000 
 231 00a6 B3000000 		.ascii	"\263\000\000\000"
 232 00aa 4144435F 		.ascii	"ADC_SAR_Seq_1_SAR_Stop\000"
 232      5341525F 
 232      5365715F 
 232      315F5341 
 232      525F5374 
 233 00c1 00       		.ascii	"\000"
 234 00c2 02       		.ascii	"\002"
 235 00c3 00       		.ascii	"\000"
 236 00c4 00000000 		.ascii	"\000\000\000\000\000\000\000\000"
 236      00000000 
 237 00cc B5000000 		.ascii	"\265\000\000\000"
 238 00d0 4144435F 		.ascii	"ADC_SAR_Seq_1_SAR_StartConvert\000"
ARM GAS  C:\Users\JEFFSN~1\AppData\Local\Temp\ccXOvjnY.s 			page 16


 238      5341525F 
 238      5365715F 
 238      315F5341 
 238      525F5374 
 239 00ef 00       		.ascii	"\000"
 240 00f0 02       		.ascii	"\002"
 241 00f1 00       		.ascii	"\000"
 242 00f2 00000000 		.ascii	"\000\000\000\000\000\000\000\000"
 242      00000000 
 243 00fa B7000000 		.ascii	"\267\000\000\000"
 244 00fe 4144435F 		.ascii	"ADC_SAR_Seq_1_SAR_Enable\000"
 244      5341525F 
 244      5365715F 
 244      315F5341 
 244      525F456E 
 245 0117 00       		.ascii	"\000"
 246 0118 02       		.ascii	"\002"
 247 0119 00       		.ascii	"\000"
 248 011a 00000000 		.ascii	"\000\000\000\000\000\000\000\000"
 248      00000000 
 249 0122 B9000000 		.ascii	"\271\000\000\000"
 250              		.text
 251              		.section	.gnu.lto_.opts,"",%progbits
 252 0000 272D666D 		.ascii	"'-fmath-errno' '-fsigned-zeros' '-ftrapping-math' '"
 252      6174682D 
 252      6572726E 
 252      6F272027 
 252      2D667369 
 253 0033 2D666E6F 		.ascii	"-fno-trapv' '-fno-strict-overflow' '-fno-openmp' '-"
 253      2D747261 
 253      70762720 
 253      272D666E 
 253      6F2D7374 
 254 0066 666E6F2D 		.ascii	"fno-openacc' '-mcpu=cortex-m3' '-mthumb' '-g' '-Og'"
 254      6F70656E 
 254      61636327 
 254      20272D6D 
 254      6370753D 
 255 0099 20272D66 		.ascii	" '-ffunction-sections' '-ffat-lto-objects' '-finlin"
 255      66756E63 
 255      74696F6E 
 255      2D736563 
 255      74696F6E 
 256 00cc 652D6675 		.ascii	"e-functions' '-flto'\000"
 256      6E637469 
 256      6F6E7327 
 256      20272D66 
 256      6C746F27 
 257              		.text
 258              		.cfi_sections	.debug_frame
 259              		.section	.text.ADC_SAR_Seq_1_SAR_SaveConfig,"ax",%progbits
 260              		.align	2
 261              		.global	ADC_SAR_Seq_1_SAR_SaveConfig
 262              		.thumb
 263              		.thumb_func
 264              		.type	ADC_SAR_Seq_1_SAR_SaveConfig, %function
 265              	ADC_SAR_Seq_1_SAR_SaveConfig:
ARM GAS  C:\Users\JEFFSN~1\AppData\Local\Temp\ccXOvjnY.s 			page 17


 266              	.LFB0:
 267              		.file 1 "Generated_Source\\PSoC5\\ADC_SAR_Seq_1_SAR_PM.c"
   1:Generated_Source\PSoC5/ADC_SAR_Seq_1_SAR_PM.c **** /*******************************************************************************
   2:Generated_Source\PSoC5/ADC_SAR_Seq_1_SAR_PM.c **** * File Name: ADC_SAR_Seq_1_SAR_PM.c
   3:Generated_Source\PSoC5/ADC_SAR_Seq_1_SAR_PM.c **** * Version 3.10
   4:Generated_Source\PSoC5/ADC_SAR_Seq_1_SAR_PM.c **** *
   5:Generated_Source\PSoC5/ADC_SAR_Seq_1_SAR_PM.c **** * Description:
   6:Generated_Source\PSoC5/ADC_SAR_Seq_1_SAR_PM.c **** *  This file provides Sleep/WakeUp APIs functionality.
   7:Generated_Source\PSoC5/ADC_SAR_Seq_1_SAR_PM.c **** *
   8:Generated_Source\PSoC5/ADC_SAR_Seq_1_SAR_PM.c **** * Note:
   9:Generated_Source\PSoC5/ADC_SAR_Seq_1_SAR_PM.c **** *
  10:Generated_Source\PSoC5/ADC_SAR_Seq_1_SAR_PM.c **** ********************************************************************************
  11:Generated_Source\PSoC5/ADC_SAR_Seq_1_SAR_PM.c **** * Copyright 2008-2015, Cypress Semiconductor Corporation.  All rights reserved.
  12:Generated_Source\PSoC5/ADC_SAR_Seq_1_SAR_PM.c **** * You may use this file only in accordance with the license, terms, conditions,
  13:Generated_Source\PSoC5/ADC_SAR_Seq_1_SAR_PM.c **** * disclaimers, and limitations in the end user license agreement accompanying
  14:Generated_Source\PSoC5/ADC_SAR_Seq_1_SAR_PM.c **** * the software package with which this file was provided.
  15:Generated_Source\PSoC5/ADC_SAR_Seq_1_SAR_PM.c **** *******************************************************************************/
  16:Generated_Source\PSoC5/ADC_SAR_Seq_1_SAR_PM.c **** 
  17:Generated_Source\PSoC5/ADC_SAR_Seq_1_SAR_PM.c **** #include "ADC_SAR_Seq_1_SAR.h"
  18:Generated_Source\PSoC5/ADC_SAR_Seq_1_SAR_PM.c **** 
  19:Generated_Source\PSoC5/ADC_SAR_Seq_1_SAR_PM.c **** 
  20:Generated_Source\PSoC5/ADC_SAR_Seq_1_SAR_PM.c **** /***************************************
  21:Generated_Source\PSoC5/ADC_SAR_Seq_1_SAR_PM.c **** * Local data allocation
  22:Generated_Source\PSoC5/ADC_SAR_Seq_1_SAR_PM.c **** ***************************************/
  23:Generated_Source\PSoC5/ADC_SAR_Seq_1_SAR_PM.c **** 
  24:Generated_Source\PSoC5/ADC_SAR_Seq_1_SAR_PM.c **** static ADC_SAR_Seq_1_SAR_BACKUP_STRUCT  ADC_SAR_Seq_1_SAR_backup =
  25:Generated_Source\PSoC5/ADC_SAR_Seq_1_SAR_PM.c **** {
  26:Generated_Source\PSoC5/ADC_SAR_Seq_1_SAR_PM.c ****     ADC_SAR_Seq_1_SAR_DISABLED
  27:Generated_Source\PSoC5/ADC_SAR_Seq_1_SAR_PM.c **** };
  28:Generated_Source\PSoC5/ADC_SAR_Seq_1_SAR_PM.c **** 
  29:Generated_Source\PSoC5/ADC_SAR_Seq_1_SAR_PM.c **** 
  30:Generated_Source\PSoC5/ADC_SAR_Seq_1_SAR_PM.c **** /*******************************************************************************
  31:Generated_Source\PSoC5/ADC_SAR_Seq_1_SAR_PM.c **** * Function Name: ADC_SAR_Seq_1_SAR_SaveConfig
  32:Generated_Source\PSoC5/ADC_SAR_Seq_1_SAR_PM.c **** ********************************************************************************
  33:Generated_Source\PSoC5/ADC_SAR_Seq_1_SAR_PM.c **** *
  34:Generated_Source\PSoC5/ADC_SAR_Seq_1_SAR_PM.c **** * Summary:
  35:Generated_Source\PSoC5/ADC_SAR_Seq_1_SAR_PM.c **** *  Saves the current user configuration.
  36:Generated_Source\PSoC5/ADC_SAR_Seq_1_SAR_PM.c **** *
  37:Generated_Source\PSoC5/ADC_SAR_Seq_1_SAR_PM.c **** * Parameters:
  38:Generated_Source\PSoC5/ADC_SAR_Seq_1_SAR_PM.c **** *  None.
  39:Generated_Source\PSoC5/ADC_SAR_Seq_1_SAR_PM.c **** *
  40:Generated_Source\PSoC5/ADC_SAR_Seq_1_SAR_PM.c **** * Return:
  41:Generated_Source\PSoC5/ADC_SAR_Seq_1_SAR_PM.c **** *  None.
  42:Generated_Source\PSoC5/ADC_SAR_Seq_1_SAR_PM.c **** *
  43:Generated_Source\PSoC5/ADC_SAR_Seq_1_SAR_PM.c **** *******************************************************************************/
  44:Generated_Source\PSoC5/ADC_SAR_Seq_1_SAR_PM.c **** void ADC_SAR_Seq_1_SAR_SaveConfig(void)
  45:Generated_Source\PSoC5/ADC_SAR_Seq_1_SAR_PM.c **** {
 268              		.loc 1 45 0
 269              		.cfi_startproc
 270              		@ args = 0, pretend = 0, frame = 0
 271              		@ frame_needed = 0, uses_anonymous_args = 0
 272              		@ link register save eliminated.
 273 0000 7047     		bx	lr
 274              		.cfi_endproc
 275              	.LFE0:
 276              		.size	ADC_SAR_Seq_1_SAR_SaveConfig, .-ADC_SAR_Seq_1_SAR_SaveConfig
 277 0002 00BF     		.section	.text.ADC_SAR_Seq_1_SAR_RestoreConfig,"ax",%progbits
ARM GAS  C:\Users\JEFFSN~1\AppData\Local\Temp\ccXOvjnY.s 			page 18


 278              		.align	2
 279              		.global	ADC_SAR_Seq_1_SAR_RestoreConfig
 280              		.thumb
 281              		.thumb_func
 282              		.type	ADC_SAR_Seq_1_SAR_RestoreConfig, %function
 283              	ADC_SAR_Seq_1_SAR_RestoreConfig:
 284              	.LFB1:
  46:Generated_Source\PSoC5/ADC_SAR_Seq_1_SAR_PM.c ****     /* All configuration registers are marked as [reset_all_retention] */
  47:Generated_Source\PSoC5/ADC_SAR_Seq_1_SAR_PM.c **** }
  48:Generated_Source\PSoC5/ADC_SAR_Seq_1_SAR_PM.c **** 
  49:Generated_Source\PSoC5/ADC_SAR_Seq_1_SAR_PM.c **** 
  50:Generated_Source\PSoC5/ADC_SAR_Seq_1_SAR_PM.c **** /*******************************************************************************
  51:Generated_Source\PSoC5/ADC_SAR_Seq_1_SAR_PM.c **** * Function Name: ADC_SAR_Seq_1_SAR_RestoreConfig
  52:Generated_Source\PSoC5/ADC_SAR_Seq_1_SAR_PM.c **** ********************************************************************************
  53:Generated_Source\PSoC5/ADC_SAR_Seq_1_SAR_PM.c **** *
  54:Generated_Source\PSoC5/ADC_SAR_Seq_1_SAR_PM.c **** * Summary:
  55:Generated_Source\PSoC5/ADC_SAR_Seq_1_SAR_PM.c **** *  Restores the current user configuration.
  56:Generated_Source\PSoC5/ADC_SAR_Seq_1_SAR_PM.c **** *
  57:Generated_Source\PSoC5/ADC_SAR_Seq_1_SAR_PM.c **** * Parameters:
  58:Generated_Source\PSoC5/ADC_SAR_Seq_1_SAR_PM.c **** *  None.
  59:Generated_Source\PSoC5/ADC_SAR_Seq_1_SAR_PM.c **** *
  60:Generated_Source\PSoC5/ADC_SAR_Seq_1_SAR_PM.c **** * Return:
  61:Generated_Source\PSoC5/ADC_SAR_Seq_1_SAR_PM.c **** *  None.
  62:Generated_Source\PSoC5/ADC_SAR_Seq_1_SAR_PM.c **** *
  63:Generated_Source\PSoC5/ADC_SAR_Seq_1_SAR_PM.c **** *******************************************************************************/
  64:Generated_Source\PSoC5/ADC_SAR_Seq_1_SAR_PM.c **** void ADC_SAR_Seq_1_SAR_RestoreConfig(void)
  65:Generated_Source\PSoC5/ADC_SAR_Seq_1_SAR_PM.c **** {
 285              		.loc 1 65 0
 286              		.cfi_startproc
 287              		@ args = 0, pretend = 0, frame = 0
 288              		@ frame_needed = 0, uses_anonymous_args = 0
 289              		@ link register save eliminated.
 290 0000 7047     		bx	lr
 291              		.cfi_endproc
 292              	.LFE1:
 293              		.size	ADC_SAR_Seq_1_SAR_RestoreConfig, .-ADC_SAR_Seq_1_SAR_RestoreConfig
 294 0002 00BF     		.section	.text.ADC_SAR_Seq_1_SAR_Sleep,"ax",%progbits
 295              		.align	2
 296              		.global	ADC_SAR_Seq_1_SAR_Sleep
 297              		.thumb
 298              		.thumb_func
 299              		.type	ADC_SAR_Seq_1_SAR_Sleep, %function
 300              	ADC_SAR_Seq_1_SAR_Sleep:
 301              	.LFB2:
  66:Generated_Source\PSoC5/ADC_SAR_Seq_1_SAR_PM.c ****     /* All congiguration registers are marked as [reset_all_retention] */
  67:Generated_Source\PSoC5/ADC_SAR_Seq_1_SAR_PM.c **** }
  68:Generated_Source\PSoC5/ADC_SAR_Seq_1_SAR_PM.c **** 
  69:Generated_Source\PSoC5/ADC_SAR_Seq_1_SAR_PM.c **** 
  70:Generated_Source\PSoC5/ADC_SAR_Seq_1_SAR_PM.c **** /*******************************************************************************
  71:Generated_Source\PSoC5/ADC_SAR_Seq_1_SAR_PM.c **** * Function Name: ADC_SAR_Seq_1_SAR_Sleep
  72:Generated_Source\PSoC5/ADC_SAR_Seq_1_SAR_PM.c **** ********************************************************************************
  73:Generated_Source\PSoC5/ADC_SAR_Seq_1_SAR_PM.c **** *
  74:Generated_Source\PSoC5/ADC_SAR_Seq_1_SAR_PM.c **** * Summary:
  75:Generated_Source\PSoC5/ADC_SAR_Seq_1_SAR_PM.c **** *  This is the preferred routine to prepare the component for sleep.
  76:Generated_Source\PSoC5/ADC_SAR_Seq_1_SAR_PM.c **** *  The ADC_SAR_Seq_1_SAR_Sleep() routine saves the current component state,
  77:Generated_Source\PSoC5/ADC_SAR_Seq_1_SAR_PM.c **** *  then it calls the ADC_Stop() function.
  78:Generated_Source\PSoC5/ADC_SAR_Seq_1_SAR_PM.c **** *
ARM GAS  C:\Users\JEFFSN~1\AppData\Local\Temp\ccXOvjnY.s 			page 19


  79:Generated_Source\PSoC5/ADC_SAR_Seq_1_SAR_PM.c **** * Parameters:
  80:Generated_Source\PSoC5/ADC_SAR_Seq_1_SAR_PM.c **** *  None.
  81:Generated_Source\PSoC5/ADC_SAR_Seq_1_SAR_PM.c **** *
  82:Generated_Source\PSoC5/ADC_SAR_Seq_1_SAR_PM.c **** * Return:
  83:Generated_Source\PSoC5/ADC_SAR_Seq_1_SAR_PM.c **** *  None.
  84:Generated_Source\PSoC5/ADC_SAR_Seq_1_SAR_PM.c **** *
  85:Generated_Source\PSoC5/ADC_SAR_Seq_1_SAR_PM.c **** * Global Variables:
  86:Generated_Source\PSoC5/ADC_SAR_Seq_1_SAR_PM.c **** *  ADC_SAR_Seq_1_SAR_backup - The structure field 'enableState' is modified
  87:Generated_Source\PSoC5/ADC_SAR_Seq_1_SAR_PM.c **** *  depending on the enable state of the block before entering to sleep mode.
  88:Generated_Source\PSoC5/ADC_SAR_Seq_1_SAR_PM.c **** *
  89:Generated_Source\PSoC5/ADC_SAR_Seq_1_SAR_PM.c **** *******************************************************************************/
  90:Generated_Source\PSoC5/ADC_SAR_Seq_1_SAR_PM.c **** void ADC_SAR_Seq_1_SAR_Sleep(void)
  91:Generated_Source\PSoC5/ADC_SAR_Seq_1_SAR_PM.c **** {
 302              		.loc 1 91 0
 303              		.cfi_startproc
 304              		@ args = 0, pretend = 0, frame = 0
 305              		@ frame_needed = 0, uses_anonymous_args = 0
 306              		.loc 1 91 0
 307 0000 08B5     		push	{r3, lr}
 308              		.cfi_def_cfa_offset 8
 309              		.cfi_offset 3, -8
 310              		.cfi_offset 14, -4
  92:Generated_Source\PSoC5/ADC_SAR_Seq_1_SAR_PM.c ****     if((ADC_SAR_Seq_1_SAR_PWRMGR_SAR_REG  & ADC_SAR_Seq_1_SAR_ACT_PWR_SAR_EN) != 0u)
 311              		.loc 1 92 0
 312 0002 0C4B     		ldr	r3, .L9
 313 0004 1B78     		ldrb	r3, [r3]	@ zero_extendqisi2
 314 0006 13F0020F 		tst	r3, #2
 315 000a 0ED0     		beq	.L4
  93:Generated_Source\PSoC5/ADC_SAR_Seq_1_SAR_PM.c ****     {
  94:Generated_Source\PSoC5/ADC_SAR_Seq_1_SAR_PM.c ****         if((ADC_SAR_Seq_1_SAR_SAR_CSR0_REG & ADC_SAR_Seq_1_SAR_SAR_SOF_START_CONV) != 0u)
 316              		.loc 1 94 0
 317 000c 0A4B     		ldr	r3, .L9+4
 318 000e 1B78     		ldrb	r3, [r3]	@ zero_extendqisi2
 319 0010 13F0010F 		tst	r3, #1
 320 0014 03D0     		beq	.L5
  95:Generated_Source\PSoC5/ADC_SAR_Seq_1_SAR_PM.c ****         {
  96:Generated_Source\PSoC5/ADC_SAR_Seq_1_SAR_PM.c ****             ADC_SAR_Seq_1_SAR_backup.enableState = ADC_SAR_Seq_1_SAR_ENABLED | ADC_SAR_Seq_1_SAR_ST
 321              		.loc 1 96 0
 322 0016 0322     		movs	r2, #3
 323 0018 084B     		ldr	r3, .L9+8
 324 001a 1A70     		strb	r2, [r3]
 325 001c 02E0     		b	.L6
 326              	.L5:
  97:Generated_Source\PSoC5/ADC_SAR_Seq_1_SAR_PM.c ****         }
  98:Generated_Source\PSoC5/ADC_SAR_Seq_1_SAR_PM.c ****         else
  99:Generated_Source\PSoC5/ADC_SAR_Seq_1_SAR_PM.c ****         {
 100:Generated_Source\PSoC5/ADC_SAR_Seq_1_SAR_PM.c ****             ADC_SAR_Seq_1_SAR_backup.enableState = ADC_SAR_Seq_1_SAR_ENABLED;
 327              		.loc 1 100 0
 328 001e 0122     		movs	r2, #1
 329 0020 064B     		ldr	r3, .L9+8
 330 0022 1A70     		strb	r2, [r3]
 331              	.L6:
 101:Generated_Source\PSoC5/ADC_SAR_Seq_1_SAR_PM.c ****         }
 102:Generated_Source\PSoC5/ADC_SAR_Seq_1_SAR_PM.c ****         ADC_SAR_Seq_1_SAR_Stop();
 332              		.loc 1 102 0
 333 0024 FFF7FEFF 		bl	ADC_SAR_Seq_1_SAR_Stop
 334              	.LVL0:
ARM GAS  C:\Users\JEFFSN~1\AppData\Local\Temp\ccXOvjnY.s 			page 20


 335 0028 08BD     		pop	{r3, pc}
 336              	.L4:
 103:Generated_Source\PSoC5/ADC_SAR_Seq_1_SAR_PM.c ****     }
 104:Generated_Source\PSoC5/ADC_SAR_Seq_1_SAR_PM.c ****     else
 105:Generated_Source\PSoC5/ADC_SAR_Seq_1_SAR_PM.c ****     {
 106:Generated_Source\PSoC5/ADC_SAR_Seq_1_SAR_PM.c ****         ADC_SAR_Seq_1_SAR_backup.enableState = ADC_SAR_Seq_1_SAR_DISABLED;
 337              		.loc 1 106 0
 338 002a 0022     		movs	r2, #0
 339 002c 034B     		ldr	r3, .L9+8
 340 002e 1A70     		strb	r2, [r3]
 341 0030 08BD     		pop	{r3, pc}
 342              	.L10:
 343 0032 00BF     		.align	2
 344              	.L9:
 345 0034 AB430040 		.word	1073759147
 346 0038 08590040 		.word	1073764616
 347 003c 00000000 		.word	.LANCHOR0
 348              		.cfi_endproc
 349              	.LFE2:
 350              		.size	ADC_SAR_Seq_1_SAR_Sleep, .-ADC_SAR_Seq_1_SAR_Sleep
 351              		.section	.text.ADC_SAR_Seq_1_SAR_Wakeup,"ax",%progbits
 352              		.align	2
 353              		.global	ADC_SAR_Seq_1_SAR_Wakeup
 354              		.thumb
 355              		.thumb_func
 356              		.type	ADC_SAR_Seq_1_SAR_Wakeup, %function
 357              	ADC_SAR_Seq_1_SAR_Wakeup:
 358              	.LFB3:
 107:Generated_Source\PSoC5/ADC_SAR_Seq_1_SAR_PM.c ****     }
 108:Generated_Source\PSoC5/ADC_SAR_Seq_1_SAR_PM.c **** }
 109:Generated_Source\PSoC5/ADC_SAR_Seq_1_SAR_PM.c **** 
 110:Generated_Source\PSoC5/ADC_SAR_Seq_1_SAR_PM.c **** 
 111:Generated_Source\PSoC5/ADC_SAR_Seq_1_SAR_PM.c **** /*******************************************************************************
 112:Generated_Source\PSoC5/ADC_SAR_Seq_1_SAR_PM.c **** * Function Name: ADC_SAR_Seq_1_SAR_Wakeup
 113:Generated_Source\PSoC5/ADC_SAR_Seq_1_SAR_PM.c **** ********************************************************************************
 114:Generated_Source\PSoC5/ADC_SAR_Seq_1_SAR_PM.c **** *
 115:Generated_Source\PSoC5/ADC_SAR_Seq_1_SAR_PM.c **** * Summary:
 116:Generated_Source\PSoC5/ADC_SAR_Seq_1_SAR_PM.c **** *  This is the preferred routine to restore the component to the state when
 117:Generated_Source\PSoC5/ADC_SAR_Seq_1_SAR_PM.c **** *  ADC_SAR_Seq_1_SAR_Sleep() was called. If the component was enabled before the
 118:Generated_Source\PSoC5/ADC_SAR_Seq_1_SAR_PM.c **** *  ADC_SAR_Seq_1_SAR_Sleep() function was called, the
 119:Generated_Source\PSoC5/ADC_SAR_Seq_1_SAR_PM.c **** *  ADC_SAR_Seq_1_SAR_Wakeup() function also re-enables the component.
 120:Generated_Source\PSoC5/ADC_SAR_Seq_1_SAR_PM.c **** *
 121:Generated_Source\PSoC5/ADC_SAR_Seq_1_SAR_PM.c **** * Parameters:
 122:Generated_Source\PSoC5/ADC_SAR_Seq_1_SAR_PM.c **** *  None.
 123:Generated_Source\PSoC5/ADC_SAR_Seq_1_SAR_PM.c **** *
 124:Generated_Source\PSoC5/ADC_SAR_Seq_1_SAR_PM.c **** * Return:
 125:Generated_Source\PSoC5/ADC_SAR_Seq_1_SAR_PM.c **** *  None.
 126:Generated_Source\PSoC5/ADC_SAR_Seq_1_SAR_PM.c **** *
 127:Generated_Source\PSoC5/ADC_SAR_Seq_1_SAR_PM.c **** * Global Variables:
 128:Generated_Source\PSoC5/ADC_SAR_Seq_1_SAR_PM.c **** *  ADC_SAR_Seq_1_SAR_backup - The structure field 'enableState' is used to
 129:Generated_Source\PSoC5/ADC_SAR_Seq_1_SAR_PM.c **** *  restore the enable state of block after wakeup from sleep mode.
 130:Generated_Source\PSoC5/ADC_SAR_Seq_1_SAR_PM.c **** *
 131:Generated_Source\PSoC5/ADC_SAR_Seq_1_SAR_PM.c **** *******************************************************************************/
 132:Generated_Source\PSoC5/ADC_SAR_Seq_1_SAR_PM.c **** void ADC_SAR_Seq_1_SAR_Wakeup(void)
 133:Generated_Source\PSoC5/ADC_SAR_Seq_1_SAR_PM.c **** {
 359              		.loc 1 133 0
 360              		.cfi_startproc
ARM GAS  C:\Users\JEFFSN~1\AppData\Local\Temp\ccXOvjnY.s 			page 21


 361              		@ args = 0, pretend = 0, frame = 0
 362              		@ frame_needed = 0, uses_anonymous_args = 0
 363 0000 08B5     		push	{r3, lr}
 364              		.cfi_def_cfa_offset 8
 365              		.cfi_offset 3, -8
 366              		.cfi_offset 14, -4
 134:Generated_Source\PSoC5/ADC_SAR_Seq_1_SAR_PM.c ****     if(ADC_SAR_Seq_1_SAR_backup.enableState != ADC_SAR_Seq_1_SAR_DISABLED)
 367              		.loc 1 134 0
 368 0002 064B     		ldr	r3, .L14
 369 0004 1B78     		ldrb	r3, [r3]	@ zero_extendqisi2
 370 0006 43B1     		cbz	r3, .L11
 135:Generated_Source\PSoC5/ADC_SAR_Seq_1_SAR_PM.c ****     {
 136:Generated_Source\PSoC5/ADC_SAR_Seq_1_SAR_PM.c ****         ADC_SAR_Seq_1_SAR_Enable();
 371              		.loc 1 136 0
 372 0008 FFF7FEFF 		bl	ADC_SAR_Seq_1_SAR_Enable
 373              	.LVL1:
 137:Generated_Source\PSoC5/ADC_SAR_Seq_1_SAR_PM.c ****         #if(ADC_SAR_Seq_1_SAR_DEFAULT_CONV_MODE != ADC_SAR_Seq_1_SAR__HARDWARE_TRIGGER)
 138:Generated_Source\PSoC5/ADC_SAR_Seq_1_SAR_PM.c ****             if((ADC_SAR_Seq_1_SAR_backup.enableState & ADC_SAR_Seq_1_SAR_STARTED) != 0u)
 374              		.loc 1 138 0
 375 000c 034B     		ldr	r3, .L14
 376 000e 1B78     		ldrb	r3, [r3]	@ zero_extendqisi2
 377 0010 13F0020F 		tst	r3, #2
 378 0014 01D0     		beq	.L11
 139:Generated_Source\PSoC5/ADC_SAR_Seq_1_SAR_PM.c ****             {
 140:Generated_Source\PSoC5/ADC_SAR_Seq_1_SAR_PM.c ****                 ADC_SAR_Seq_1_SAR_StartConvert();
 379              		.loc 1 140 0
 380 0016 FFF7FEFF 		bl	ADC_SAR_Seq_1_SAR_StartConvert
 381              	.LVL2:
 382              	.L11:
 383 001a 08BD     		pop	{r3, pc}
 384              	.L15:
 385              		.align	2
 386              	.L14:
 387 001c 00000000 		.word	.LANCHOR0
 388              		.cfi_endproc
 389              	.LFE3:
 390              		.size	ADC_SAR_Seq_1_SAR_Wakeup, .-ADC_SAR_Seq_1_SAR_Wakeup
 391              		.bss
 392              		.align	2
 393              		.set	.LANCHOR0,. + 0
 394              		.type	ADC_SAR_Seq_1_SAR_backup, %object
 395              		.size	ADC_SAR_Seq_1_SAR_backup, 1
 396              	ADC_SAR_Seq_1_SAR_backup:
 397 0000 00       		.space	1
 398              		.text
 399              	.Letext0:
 400              		.file 2 "Generated_Source\\PSoC5\\cytypes.h"
 401              		.file 3 "Generated_Source\\PSoC5\\ADC_SAR_Seq_1_SAR.h"