ARM GAS  C:\Users\JEFFSN~1\AppData\Local\Temp\cc3zReEs.s 			page 1


   1              		.syntax unified
   2              		.cpu cortex-m3
   3              		.fpu softvfp
   4              		.eabi_attribute 20, 1
   5              		.eabi_attribute 21, 1
   6              		.eabi_attribute 23, 3
   7              		.eabi_attribute 24, 1
   8              		.eabi_attribute 25, 1
   9              		.eabi_attribute 26, 1
  10              		.eabi_attribute 30, 2
  11              		.eabi_attribute 34, 1
  12              		.eabi_attribute 18, 4
  13              		.thumb
  14              		.syntax unified
  15              		.file	"ADC_SAR_Seq_1_FinalBuf_dma.c"
  16              		.text
  17              	.Ltext0:
  18              		.section	.gnu.lto_.profile.807cbc9f,"",%progbits
  19 0000 789C6361 		.ascii	"x\234ca`d`a`\000\222\266\342\000\000\373\000_"
  19      60646061 
  19      600092B6 
  19      E20000FB 
  19      005F
  20              		.text
  21              		.section	.gnu.lto_.icf.807cbc9f,"",%progbits
  22 0000 789C6361 		.ascii	"x\234ca`d\000\001\021\006\004`fx\367\361\312&n\306\356"
  22      60640001 
  22      11060460 
  22      6678F7F1 
  22      CA266EC6 
  23 0015 396D3758 		.ascii	"9m7X\231n\256\3765\235\223\001\000e*\0118"
  23      996EAEFE 
  23      359D9301 
  23      00652A09 
  23      38
  24              		.text
  25              		.section	.gnu.lto_.jmpfuncs.807cbc9f,"",%progbits
  26 0000 789C6361 		.ascii	"x\234ca`d\000\201V\006\004`b`a\004\002~\020\301\002"
  26      60640081 
  26      56060460 
  26      62606104 
  26      027E10C1 
  27 0015 E433FE65 		.ascii	"\3443\376eb<\372\377\373\001\376/L\255\314\014\214L"
  27      623CFAFF 
  27      FB01FE2F 
  27      4CADCC0C 
  27      8C4C
  28 0027 8CCB1965 		.ascii	"\214\313\031e\030\030\330@*+\231\300$3\220\344\001)"
  28      1818D840 
  28      2A2B99C0 
  28      243390E4 
  28      0129
  29 0039 7BF27BED 		.ascii	"{\362{\355.>\21026\306\025 eL\225`#+A\3260B\204@\012"
  29      2E3E8832 
  29      36C61520 
  29      654C9560 
  29      232B41D6 
ARM GAS  C:\Users\JEFFSN~1\AppData\Local\Temp\cc3zReEs.s 			page 2


  30 0052 D7BFD9F9 		.ascii	"\327\277\331\371\223\027\242\220\201q%X\024B1\201\021"
  30      9317A290 
  30      81712558 
  30      14423181 
  30      11
  31 0063 0303009F 		.ascii	"\003\003\000\237&\030U"
  31      261855
  32              		.text
  33              		.section	.gnu.lto_.inline.807cbc9f,"",%progbits
  34 0000 789C6361 		.ascii	"x\234ca`d\000\001\177\006\004`b`\020\325gd`\3428`\307"
  34      60640001 
  34      7F060460 
  34      626010D5 
  34      676460E2 
  35 0017 C0B6409E 		.ascii	"\300\266@\236\011$\306\314\003\024\237\340\307\300\302"
  35      0924C6CC 
  35      03149FE0 
  35      C7C0C2
  36 0026 0B644FF0 		.ascii	"\013dO\360\003Av\001\006\0066\006\020\013\254\207\215"
  36      03417601 
  36      06063606 
  36      100BAC87 
  36      8D
  37 0037 0FA885E9 		.ascii	"\017\250\205\351\002?\\\013\0237\003\003#P\022\000\264"
  37      023F5C0B 
  37      13370303 
  37      23501200 
  37      B4
  38 0048 960A8E   		.ascii	"\226\012\216"
  39              		.text
  40              		.section	.gnu.lto_.pureconst.807cbc9f,"",%progbits
  41 0000 789C6361 		.ascii	"x\234ca`d`e```b\220`\222\000\000\000\347\000?"
  41      60646065 
  41      60606062 
  41      90609200 
  41      0000E700 
  42              		.text
  43              		.section	.gnu.lto_ADC_SAR_Seq_1_FinalBuf_DmaInitialize.807cbc9f,"",%progbits
  44 0000 789C9592 		.ascii	"x\234\225\222KL\023Q\024\206\357\271\267\355\224i)\354"
  44      4B4C1351 
  44      1486EFB9 
  44      B7ED9469 
  44      29EC
  45 0012 5CC8C21D 		.ascii	"\\\310\302\035\2621\0305\272\345\021\335\"\215;L\323"
  45      B2311835 
  45      BAE511DD 
  45      228D3B4C 
  45      D3
  46 0023 B46362A2 		.ascii	"\264cb\242-L\333u/\324\252$.$\001\224\005\0225\004T"
  46      2D4CDB75 
  46      2FD4AA24 
  46      2E240194 
  46      05123504 
  47 0038 A0E2BB55 		.ascii	"\240\342\273U\261\365\235H$(\304\205.\324\030b\010\011"
  47      B1F59D48 
  47      2428C485 
  47      2ED41862 
ARM GAS  C:\Users\JEFFSN~1\AppData\Local\Temp\cc3zReEs.s 			page 3


  47      0809
  48 004a 8F14881A 		.ascii	"\217\024\210\032\034\317\271\255h\002\033&\231\314\235"
  48      1CCFB9AD 
  48      68021B26 
  48      99CC9D
  49 0059 33E7FFFF 		.ascii	"3\347\377\377\357\334\2716\006\214\256\021\301X\013"
  49      EFDCB936 
  49      068CAE11 
  49      C1580B
  50 0068 3EB7E30D 		.ascii	">\267\343\015\202\001?\377\226\261V'\007\240\205t\002"
  50      82013FFF 
  50      96B15627 
  50      07A08574 
  50      02
  51 0079 8B7388C3 		.ascii	"\213s\210\3032_\343\360f\365\3659\275j@\3126\371\271"
  51      325FE3F0 
  51      66F5F539 
  51      BD6A40CA 
  51      36F9B9
  52 008c 7FE9C085 		.ascii	"\177\351\300\205\301,$Qnq\006{*\240\272\202,\006\240"
  52      C12C2451 
  52      6E71067B 
  52      2AA0BA82 
  52      2C06A0
  53 009f 0A3BA786 		.ascii	"\012;\247\206&\332=b?0\\_\352\034\317\213\312~R\311"
  53      26DA3D62 
  53      3F305C5F 
  53      EA1CCF8B 
  53      CA7E52C9 
  54 00b3 E9A352A0 		.ascii	"\351\243R\240\004\006A\374S\221\007\\\203J\354\235\177"
  54      040641FC 
  54      5391075C 
  54      834AEC9D 
  54      7F
  55 00c4 7F659BA8 		.ascii	"\177e\233\250U\262\216\276W\263\366\242\254\347\245"
  55      55B28EBE 
  55      57B3F6A2 
  55      ACE7A5
  56 00d3 4B5693EE 		.ascii	"KV\223\356\372\006\335\015\245{a\255f\313\362<)\000"
  56      FA06DD0D 
  56      A57B61AD 
  56      66CBF23C 
  56      2900
  57 00e5 08F4DDC2 		.ascii	"\010\364\335\302x\257\213^9\224\343\353\334\325\313"
  57      78AF8B5E 
  57      3994E3EB 
  57      DCD5CB
  58 00f4 536E7158 		.ascii	"SnqX\331\266\255-\215y\212\266\253\247\335\262!)\004"
  58      D9B6AD2D 
  58      8D798AB6 
  58      ABA7DDB2 
  58      212904
  59 0107 8C146C87 		.ascii	"\214\024l\207\241\002\206\200\2141*\245\2143?g\346="
  59      A1028680 
  59      8C312AA5 
  59      8C333F67 
  59      E63D
ARM GAS  C:\Users\JEFFSN~1\AppData\Local\Temp\cc3zReEs.s 			page 4


  60 0119 C2AFA49D 		.ascii	"\302\257\244\235\317\322\326_\242\017g\212\322\233\233"
  60      CFD2D65F 
  60      A20F678A 
  60      D29B9B
  61 0128 4847A192 		.ascii	"HG\241\222\372\277\216\376\356*u\234\222x\355\240MB"
  61      FABF8EFE 
  61      EE2A759C 
  61      9278EDA0 
  61      4D42
  62 013a DA5BE0A0 		.ascii	"\332[\340\240mO5f\245e%d\266K\313}\322J\221\032\307"
  62      6D4F3566 
  62      A5652564 
  62      B64BCB7D 
  62      D24A911A 
  63 014f B7010DE3 		.ascii	"\267\001\015\343@\013\233\006\024\357\004r\322\251\340"
  63      400B9B06 
  63      14EF0472 
  63      D2A9E0
  64 015e 56C3B205 		.ascii	"V\303\262\0054\241\337\262\3109=\305\014\264\345\027"
  64      34A1DFB2 
  64      C8393DC5 
  64      0CB4E517 
  65 016e 66BE9490 		.ascii	"f\276\224\220/\006v'\237Nh4\266]\361\246\323s\037\265"
  65      2F067627 
  65      9F4E6834 
  65      B65DF1A6 
  65      D3731FB5 
  66 0182 F89A3C2B 		.ascii	"\370\232<+e9\326\332\311\001\313\263\343\323\317\365"
  66      6539D6DA 
  66      C901CBB3 
  66      E3D3CFF5 
  67 0192 3EE86D95 		.ascii	">\350m\225\252\316\340\016\376\337\333\310\316\340."
  67      AACEE00E 
  67      FEDFDBC8 
  67      CEE02E
  68 01a1 F401767C 		.ascii	"\364\001v|\3735\234\361\220\217\015q\357\341\227\357"
  68      FB359CF1 
  68      908F0D71 
  68      EFE197EF 
  69 01b1 D0232FAE 		.ascii	"\320#/\256\354\244\230\215\306\016\213\343Lp\037\342"
  69      ECA4988D 
  69      C60E8BE3 
  69      4C701FE2 
  70 01c1 8C9A1342 		.ascii	"\214\232\023B$P\210+\354L\315\245\177\224\026\234\030"
  70      2450882B 
  70      EC4CCDA5 
  70      7F94169C 
  70      18
  71 01d2 3CC03DC2 		.ascii	"<\300=\302;)4\206\340\335\035y \303\204pl\2015\275\316"
  71      3B293486 
  71      E0DD1D79 
  71      20C38470 
  71      6C8135BD 
  72 01e7 9A415604 		.ascii	"\232AV\004sl\016\345\264p\213\030<D(\014H\010-!\234"
  72      736C0EE5 
  72      B4708B18 
  72      3C44280C 
ARM GAS  C:\Users\JEFFSN~1\AppData\Local\Temp\cc3zReEs.s 			page 5


  72      48082D21 
  73 01fc 4951A282 		.ascii	"IQ\242\202'\227\213\301\372\026\202\037\255\007?.\004"
  73      27978BC1 
  73      FA16821F 
  73      AD073F2E 
  73      04
  74 020d DB370FD6 		.ascii	"\3337\017\326-N\307rL\005\353\377\037M\033pxB\343\273"
  74      2D4EC772 
  74      4C05EBFF 
  74      1F4D1B70 
  74      7842E3BB 
  75 0221 14C5E24A 		.ascii	"\024\305\342JN\0240\334[\300\310\256c\344\010c\026="
  75      4E1430DC 
  75      5BC0C8AE 
  75      63E40863 
  75      163D
  76 0233 0B1E4C1D 		.ascii	"\013\036L\035\017\240c\201\203\357=d\204\014\323\037"
  76      0FA06381 
  76      83EF3D64 
  76      840CD31F 
  77 0243 35823E6F 		.ascii	"5\202>o8f\006\214\246\006o\270n_SM}\235\317[\323\350"
  77      3866068C 
  77      A6066FB8 
  77      6E5F534D 
  77      7D9DCF5B 
  78 0259 F31A2DBE 		.ascii	"\363\032-\276\335\276\203\307C\376\023\265\261c\276"
  78      DDBE83C7 
  78      43FE13B5 
  78      B163BE
  79 0268 E049FFAE 		.ascii	"\340I\377\256\000\323kcf$Z\027\216\205\242\236F\243"
  79      00D36B63 
  79      66245A17 
  79      8E85A29E 
  79      46A3
  80 027a C588441B 		.ascii	"\305\210D\033\014S\325\312\21647\033\246\327\014\324"
  80      0C53D5CA 
  80      8E34371B 
  80      A6D70CD4 
  81 028a 0483A611 		.ascii	"\004\203\246\021\211\224\253\367z\354(\026\376\000\203"
  81      8994ABF7 
  81      7AEC2816 
  81      FE0083
  82 0299 F563F5   		.ascii	"\365c\365"
  83              		.text
  84              		.section	.gnu.lto_ADC_SAR_Seq_1_FinalBuf_DmaRelease.807cbc9f,"",%progbits
  85 0000 789C654E 		.ascii	"x\234eN;H\003A\024|\263{&\341@\260\327\3026\215\020"
  85      3B480341 
  85      147CB37B 
  85      26E140B0 
  85      D7C2368D 
  86 0015 50FB1851 		.ascii	"P\373\030Q\260\222\\\0338\216\344\004A\023\014\246\276"
  86      B0925C1B 
  86      388EE404 
  86      41130CA6 
  86      BE
  87 0026 4DE2A176 		.ascii	"M\342\241v6\246\223t&~@\304\306\353\316`\351\247\262"
  87      36A69374 
ARM GAS  C:\Users\JEFFSN~1\AppData\Local\Temp\cc3zReEs.s 			page 6


  87      267E40C4 
  87      C6EBCE60 
  87      E9A7B2
  88 0039 B2118B20 		.ascii	"\262\021\213 \301\"\001-\343\371\366,\035X\3362o\336"
  88      C122012D 
  88      E3F9F62C 
  88      1D58DE32 
  88      6FDE
  89 004b CC1804D2 		.ascii	"\314\030\004\322H\360X\3449\315\017\222 \216\236\210"
  89      48F058E4 
  89      39CD0F92 
  89      208E9E88 
  90 005b EA2901E8 		.ascii	"\352)\001\350\217J\201<\001\017\337b,\320\333\357\007"
  90      8F4A813C 
  90      010FDF62 
  90      2CD0DBEF 
  90      07
  91 006c 22DD518C 		.ascii	"\"\335Q\2147\3774\243\272!|I\024\211\330\211\320A\232"
  91      37FF34A3 
  91      BA217C49 
  91      1489D889 
  91      D0419A
  92 007f 58F67EFD 		.ascii	"X\366~\375s<\231\330\323\262\331\277%\272\3209t\225"
  92      733C99D8 
  92      D3B2D9BF 
  92      25BAD039 
  92      7495
  93 0091 0F551435 		.ascii	"\017U\0245Uxc\336\335\232\206 _2=d\211\016\033\011\241"
  93      557863DE 
  93      DD9A8620 
  93      5F323D64 
  93      890E1B09 
  94 00a6 A7ECA3D1 		.ascii	"\247\354\243\321\032=\346\365QS\352\334\226\337{N~\011"
  94      1A3DE6F5 
  94      5153EADC 
  94      96DF7B4E 
  94      7E09
  95 00b8 5F0A68FF 		.ascii	"_\012h\377 \370|Mzcu\240\324\024s\207\\A\323\203\207"
  95      20F87C4D 
  95      7A6375A0 
  95      D4147387 
  95      5C41D383 
  96 00cd 977BB38D 		.ascii	"\227{\263\215\223\272\212y\211s\356}\206\031\216\277"
  96      93BA8A79 
  96      8973EE7D 
  96      86198EBF 
  97 00dd 401BF401 		.ascii	"@\033\364\001C[\376w0\"\366%\\\302#\316\363\345\004"
  97      435BFE77 
  97      3022F625 
  97      5CC223CE 
  97      F3E504
  98 00f0 0DD00883 		.ascii	"\015\320\010\203\265X\2551\344=\027\343\232\363\253"
  98      B558AD31 
  98      E43D17E3 
  98      9AF3AB
  99 00ff 6ED9AD3A 		.ascii	"n\331\255:\273n\311\266*\265j\321-\254[\225\334B!\273"
  99      BB6EC9B6 
ARM GAS  C:\Users\JEFFSN~1\AppData\Local\Temp\cc3zReEs.s 			page 7


  99      2AB56AD1 
  99      2DAC5B95 
  99      DC4221BB 
 100 0113 9CB3AD6C 		.ascii	"\234\263\255l\336\266\334\035;c\257l\226\235\255\245"
 100      DEB6DC1D 
 100      3B63AF6C 
 100      969DADA5 
 101 0123 DA865DDA 		.ascii	"\332\206]\332v\346\212\364\013\376\361n<"
 101      76E68AF4 
 101      0BFEF16E 
 101      3C
 102              		.text
 103              		.section	.gnu.lto_.symbol_nodes.807cbc9f,"",%progbits
 104 0000 789C558C 		.ascii	"x\234U\214\261\015\2000\014\004\317q\222\001\230\000"
 104      B10D8030 
 104      0C04CF71 
 104      92019800 
 105 0010 26759028 		.ascii	"&u\220()\230\207:53\300\"\010'\025\371\346t\377\322"
 105      2998873A 
 105      3533C022 
 105      082715F9 
 105      E674FFD2 
 106 0024 47841D4F 		.ascii	"G\204\035O\020\203\343\002\307Y\026H\260Nm\010&\303"
 106      1083E302 
 106      C7591648 
 106      B04E6D08 
 106      26C3
 107 0036 20C9422F 		.ascii	" \311B/\240\224\331=\232\016\256\026\007\317\226\376"
 107      A094D93D 
 107      9A0EAE16 
 107      07CF96FE 
 108 0046 AE7E5DEF 		.ascii	"\256~]\357W\224\310\3664*\2651\344\336\363\001\314\364"
 108      5794C8F6 
 108      342AB531 
 108      E4DEF301 
 108      CCF4
 109 0058 1F26     		.ascii	"\037&"
 110              		.text
 111              		.section	.gnu.lto_.refs.807cbc9f,"",%progbits
 112 0000 789C0DC7 		.ascii	"x\234\015\307I\021\000 \000\000!\326c,`\377\254\312"
 112      49110020 
 112      000021D6 
 112      632C60FF 
 112      ACCA
 113 0012 8F25174B 		.ascii	"\217%\027K\245\251\255\323\370\365\000\003\311\0008"
 113      A5A9ADD3 
 113      F8F50003 
 113      C90038
 114              		.text
 115              		.section	.gnu.lto_.decls.807cbc9f,"",%progbits
 116 0000 789C8D54 		.ascii	"x\234\215TkL\024W\024\2363\263.\313\202`\214ii\262I"
 116      6B4C1457 
 116      149E33B3 
 116      2ECB8260 
 116      8C6969B2 
 117 0015 D154E1D7 		.ascii	"\321T\341\327V\322G\372\253\011]\252\366\207\255\225"
 117      56D247FA 
ARM GAS  C:\Users\JEFFSN~1\AppData\Local\Temp\cc3zReEs.s 			page 8


 117      AB095DAA 
 117      F687AD95 
 118 0025 96C4C494 		.ascii	"\226\304\304\224,\354X7\301\245e\227\244\364\327T1\012"
 118      2CEC5837 
 118      C1A56597 
 118      A4F4D754 
 118      310A
 119 0037 F68109A1 		.ascii	"\366\201\011\241J5\"Z\004\025y\212\200\212k\253\260"
 119      4A35225A 
 119      0415798A 
 119      808A6BAB 
 119      B0
 120 0048 80C85379 		.ascii	"\200\310Sy\013\262\340#\305\026D\323\"\245\364\334\307"
 120      0BB2E023 
 120      C51644D3 
 120      22A5F4DC 
 120      C7
 121 0059 ECEC9A6E 		.ascii	"\354\354\232n\333\233=;\367\236\373\235\363\235\357"
 121      DB9B3D3B 
 121      F79EFB9D 
 121      F39DEF
 122 0068 DC3BA313 		.ascii	"\334;\243\023@ \343A\210 |\210\323i\234/\341\220\360"
 122      4020E341 
 122      88207C88 
 122      D3699C2F 
 122      E190F0
 123 007b 99844676 		.ascii	"\231\204FvM\002\033z\264\313hn\2646\264.\264A\264Q\216"
 123      4D021B7A 
 123      B4CB686E 
 123      B436B42E 
 123      B441B451 
 124 0090 1B170207 		.ascii	"\033\027\002\007\301\206\243]@[\211\266\012\255\202"
 124      C186A35D 
 124      405B89B6 
 124      0AAD82
 125 009f E7BB8B36 		.ascii	"\347\273\2136\2016\200\346E\353D\233Dk\345\261:\036"
 125      813680E6 
 125      45EB449B 
 125      446BE5B1 
 125      3A1E
 126 00b1 3FC879DA 		.ascii	"?\310y\332\202p\270y]I~y\011\337\024\332\010\307\210"
 126      8270B879 
 126      5D497E79 
 126      09DF14DA 
 126      08C788
 127 00c4 1C17ACCE 		.ascii	"\034\027\254\316E\021\226\216\325~g\030\206A\220\004"
 127      4511968E 
 127      D57E6718 
 127      86419004 
 128 00d4 DE100180 		.ascii	"\336\020\001\200\375\0035\201\031]\342D\024\330Du\371"
 128      FD033581 
 128      195DE244 
 128      14D84475 
 128      F9
 129 00e5 86C021A2 		.ascii	"\206\300!\242:\325\222\321\037\217\207%u\320$Zv\340"
 129      3AD592D1 
 129      1F8F8725 
ARM GAS  C:\Users\JEFFSN~1\AppData\Local\Temp\cc3zReEs.s 			page 9


 129      75D0245A 
 129      76E0
 130 00f7 416CCD83 		.ascii	"Al\315\203\005\036\004\242F\000l\251F\370\345{\256\""
 130      051E04A2 
 130      46006CA9 
 130      46F8E57B 
 130      AE22
 131 0109 B5669586 		.ascii	"\265f\225\206\266\203\212\316\3616\315\204J\"\220\371"
 131      B6838ACE 
 131      F136CD84 
 131      4A2290F9 
 132 0119 D87CE906 		.ascii	"\330|\351\006\363Y\005G\236\242\210\037h\235\371\361"
 132      F3590547 
 132      9EA2881F 
 132      689DF9F1 
 133 0129 D9C28CF4 		.ascii	"\331\302\214\364D\204uF\254YBG\305t\303\374r\346 \373"
 133      44847546 
 133      AC594247 
 133      C574C3FC 
 133      72E620FB 
 134 013d A5C79B6B 		.ascii	"\245\307\233k\214\322z:\277\276\364\273;\022\267V\032"
 134      8CD27A3A 
 134      BFBEF4BB 
 134      3B12B756 
 134      1A
 135 014e 41C465CF 		.ascii	"A\304e\317\314\215\243a\270\\e\204\025\213\242x$\377"
 135      CC8DA361 
 135      B85C6584 
 135      158BA278 
 135      24FF
 136 0160 6AB91E8C 		.ascii	"j\271\036\214\261\373\025e\267\242\354Q\214\245\021"
 136      B1FB1565 
 136      B7A2EC51 
 136      8CA511
 137 016f 029C0313 		.ascii	"\002\234\003\023\224\203I\200J\210%)\313\300,\300\031"
 137      94834980 
 137      4A882529 
 137      CBC02CC0 
 137      19
 138 0180 749E4667 		.ascii	"t\236Fg\011\251g|\354\374\333\015\212\262\002*\300\010"
 138      09A9677C 
 138      ECFCDB0D 
 138      8AB2022A 
 138      C008
 139 0192 6741A210 		.ascii	"gA\242\020\024\263\316\310\012,\350}2\017:\024E\001"
 139      14B3CEC8 
 139      0A2CE87D 
 139      320F3A14 
 139      4501
 140 01a4 293AE22B 		.ascii	"):\342+\376m\356\240\301\347\253\002\352\254\330;Yf"
 140      FE6DEEA0 
 140      C1E7AB02 
 140      EAACD83B 
 140      5966
 141 01b6 C0724CA8 		.ascii	"\300rL\250\004\374\204\230\230\220\303\007\275\177\205"
 141      04FC8498 
 141      9890C307 
ARM GAS  C:\Users\JEFFSN~1\AppData\Local\Temp\cc3zReEs.s 			page 10


 141      BD7F85
 142 01c5 49DBC85C 		.ascii	"I\333\310\\\354\365\236y\250\203X#-\300}\350eE\204\013"
 142      ECF59E79 
 142      A8835823 
 142      2DC07DE8 
 142      6545840B 
 143 01d9 98E8BCC6 		.ascii	"\230\350\274\306n\"\354T\311L\261\242\217\022\3405\023"
 143      6E22EC54 
 143      C94CB1A2 
 143      8F12E035 
 143      13
 144 01ea AC471975 		.ascii	"\254G\031u(\303\304e\324\242\214\032\224\201\311\275"
 144      28C3C465 
 144      D4A28C1A 
 144      9481C9BD 
 145 01fa 8307E7C2 		.ascii	"\203\007\347\302hA$O5+\250\177\266\272 \322\347\254"
 145      6841244F 
 145      352BA87F 
 145      B6BA20D2 
 145      E7AC
 146 020c 67CEEEEC 		.ascii	"g\316\356\354\312#\022\353\241\016\227\263\035\205\336"
 146      CA2312EB 
 146      A10E97B3 
 146      1D85DE
 147 021b 08D6C368 		.ascii	"\010\326\303h\"\354\253\007\217B\243\012\3509\355Q\242"
 147      22ECAB07 
 147      8F42A30A 
 147      E839ED51 
 147      A2
 148 022c 7534F222 		.ascii	"u4\362\"\3624\"\217\000\227 \012\377\033@\307Z\263/"
 148      F234228F 
 148      0097200A 
 148      FF1B40C7 
 148      5AB32F
 149 023f A7AF2F64 		.ascii	"\247\257/dM\221RT\251\214/5\333f\253\025%\007#u\004"
 149      4D915254 
 149      A98C2F35 
 149      DB66AB15 
 149      25072375 
 150 0254 07A59A98 		.ascii	"\007\245\232\230Rr\355\0058\005\303xE.\303\032\014\255"
 150      5272ED05 
 150      3805C378 
 150      452EC31A 
 150      0CAD
 151 0266 CE3BF92C 		.ascii	"\316;\371,B\312\007\332\232\305\326\037\012E\177\326"
 151      42CA07DA 
 151      9AC5D61F 
 151      0A457FD6 
 152 0276 A417FC48 		.ascii	"\244\027\374H\257P\322\024\316\231_\262\373\3002\306"
 152      AF50D214 
 152      CE995FB2 
 152      FBC032C6 
 153 0286 E9AECA95 		.ascii	"\351\256\312\225\016+\356l\014\023\011\012\2324\312"
 153      0E2BEE6C 
 153      0C13090A 
 153      9A34CA
 154 0295 267F4A37 		.ascii	"&\177J7\245\364\034>]\243\223\352\030\345\324\367\307"
ARM GAS  C:\Users\JEFFSN~1\AppData\Local\Temp\cc3zReEs.s 			page 11


 154      A5F41C3E 
 154      5DA393EA 
 154      18E5D4F7 
 154      C7
 155 02a6 7ED1FB7A 		.ascii	"~\321\373z\303N\365\217KG\207D\237\357'\326\257QO\331"
 155      C34EF58F 
 155      4B478744 
 155      9FEF27D6 
 155      AF514FD9 
 156 02ba 19D2AF18 		.ascii	"\031\322\257\030#}\247\"\375\0166\206\035\354\255\272"
 156      237DA722 
 156      FD0E3686 
 156      1DECADBA 
 157 02ca BDD36152 		.ascii	"\275\323aR3\315+\226\037\377\272\302w\011Q\314J\017"
 157      33CD2B96 
 157      1FFFBAC2 
 157      770951CC 
 157      4A0F
 158 02dc 5E42550B 		.ascii	"^BU\013x\360\364b\370\351]G\3475\355\0226|T\265\217"
 158      78F0F462 
 158      F8E95D47 
 158      E735ED12 
 158      367C54B5 
 159 02f1 E86841EA 		.ascii	"\350hA\352fMG\014\277\205\323}w\024\203\177\213Z\002"
 159      664D470C 
 159      BF85D37D 
 159      7714837F 
 159      8B5A02
 160 0304 0EA695F6 		.ascii	"\016\246\225\366\350g\365`\352\207\276)\020\261I\343"
 160      E867F560 
 160      EA87BE29 
 160      10B149E3 
 161 0314 98F9CAB7 		.ascii	"\230\371\312\267\346\302j%;\224`\340\252\226\371*\355"
 161      E6C26A25 
 161      3B9460E0 
 161      AA96F92A 
 161      ED
 162 0325 104EDA68 		.ascii	"\020N\332hw\356M=\035\014\221fXw\376\373\316\337`\335"
 162      77EE4D3D 
 162      1D0C9166 
 162      5877FEFB 
 162      CEDF60DD 
 163 0339 09BC771D 		.ascii	"\011\274w\035\314\331\3362R.\005\257\265\223\326zS\255"
 163      CCD9DE32 
 163      522E05AF 
 163      B593D67A 
 163      53AD
 164 034b 75777F7D 		.ascii	"uw\177}\243\216\325\352n\224\261N\334\207v\255\316v"
 164      A38ED5EA 
 164      6E94B14E 
 164      DC8776AD 
 164      CE76
 165 035d B5CE2E5A 		.ascii	"\265\316.Zg\331\375\207\217\226K\271\342\377<\305\036"
 165      67D9FD87 
 165      8F964BB9 
 165      E2FF3CC5 
 165      1E
ARM GAS  C:\Users\JEFFSN~1\AppData\Local\Temp\cc3zReEs.s 			page 12


 166 036e 5652CE9E 		.ascii	"VR\316\236\271\"\243\317\331\313\234\236\241\263\013"
 166      B922A3CF 
 166      D9CB9C9E 
 166      A1B30B
 167 037d 1AB28F39 		.ascii	"\032\262\2179;\312\3637\373|\267\230o\304\223sQ\213"
 167      3BCAF337 
 167      FB7CB798 
 167      6FC49373 
 167      518B
 168 038f BECD5FF7 		.ascii	"\276\315_\367S\205\365\377\242r\200\252\354WU\236\310"
 168      5385F5FF 
 168      A27280AA 
 168      EC57559E 
 168      C8
 169 03a0 3B9417C9 		.ascii	";\224\027\311U\336&*q\037\2725\225\335\252\312A\252"
 169      55DE262A 
 169      711FBA35 
 169      95DDAACA 
 169      41AA
 170 03b2 B2A5AAEB 		.ascii	"\262\245\252\353Q\230T\034\\\345\302\315\312sbp\366"
 170      5198541C 
 170      5CE5C2CD 
 170      CA736270 
 170      F6
 171 03c3 11CA3EAC 		.ascii	"\021\312>\254\262?n\235\273\037\302\331k\011;\356\303"
 171      B23F6E9D 
 171      BB1FC2D9 
 171      6B093BEE 
 171      C3
 172 03d4 90C63EA4 		.ascii	"\220\306>\244\262\217R\366\261\003\023%\372'\354\233"
 172      B28F52F6 
 172      B1031325 
 172      FA27EC9B 
 173 03e4 443F65BD 		.ascii	"D?e\2753\217?\221\252X5\015\277\236\034\012_{B)*&/\375"
 173      338F3F91 
 173      AA58350D 
 173      BF9E1C0A 
 173      5F7B4229 
 174 03fc 86D9738A 		.ascii	"\206\331s\212\"Q\344\030\313\307\277T\002]\337!\267"
 174      2251E418 
 174      CBC7BF54 
 174      025DDF21 
 174      B7
 175 040d 7E1CD662 		.ascii	"~\034\326b\334\201\276?\343\303s\265\327\342\271O\313"
 175      DC81BE3F 
 175      E3C373B5 
 175      D7E2B94F 
 175      CB
 176 041e 5D08A715 		.ascii	"]\010\247\025\340\023\301\373\213\207;\226\007\240I"
 176      E013C1FB 
 176      8B873B96 
 176      07A049
 177 042d BF34F404 		.ascii	"\2774\364\004GOP\364\265\247\003M\372\000tg\000\332"
 177      474F50F4 
 177      B5A7034D 
 177      FA007467 
 177      00DA
ARM GAS  C:\Users\JEFFSN~1\AppData\Local\Temp\cc3zReEs.s 			page 13


 178 043f CBD15E8A 		.ascii	"\313\321^\212\236\317\316}\030\210n\015@Or\364$E\337"
 178      9ECFCE7D 
 178      18886E0D 
 178      404F72F4 
 178      2445DF
 179 0452 6BED5934 		.ascii	"k\355Y4\004\240G\002\320S\034M\236\257\304'X\222\023"
 179      04A04702 
 179      D0531C4D 
 179      9EAFC427 
 179      589213
 180 0465 E3B72627 		.ascii	"\343\267&'\312\237'\307%o\260;\254i\357d\356HN\330e"
 180      CA9F27C7 
 180      256FB03B 
 180      AC69EF64 
 180      EE484ED8 
 181 047a 7DCF6177 		.ascii	"}\317aw\331\255i\366/e\303\306\367?\216\266\304\305"
 181      D9AD69F6 
 181      2F65C3C6 
 181      F73F8EB6 
 181      C4C5
 182 048c 09FA4CBB 		.ascii	"\011\372L\273\303\025\367\346\352\215\262C\316\260\272"
 182      C315F7E6 
 182      EA8DB243 
 182      CEB0BA
 183 049b 645B7262 		.ascii	"d[rbzfF\252\274}Kb\272\345\215WS\263\\Y\237\311N\363"
 183      7A6646AA 
 183      BC7D4B62 
 183      BAE58D57 
 183      53B35C59 
 184 04b3 4E611901 		.ascii	"Na\031\001\276\365\372?\343\266\007\341\264\355\262"
 184      BEF5FA3F 
 184      E3B607E1 
 184      B4EDB2
 185 04c2 9A5385D5 		.ascii	"\232S\205\325\301+\332*\247\311V\247\034i\311\302\205"
 185      C12BDA2A 
 185      A7C956A7 
 185      1C69C9C2 
 185      85
 186 04d3 65E7960C 		.ascii	"e\347\226\014{z\206\335\225eH\315r\272\254\256Lgt\220"
 186      7B7A86DD 
 186      956548CD 
 186      72BAACAE 
 186      4C677490 
 187 04e7 BA2CDB12 		.ascii	"\272,\333\0226\307[\314\233\204\227xd\242\354z\367\013"
 187      36C75BCC 
 187      9B849778 
 187      64A2EC7A 
 187      F70B
 188 04f9 97ECB0C9 		.ascii	"\227\354\260\311\266x\233-Cv:_\324v,\351\216\035\366"
 188      B6789B2D 
 188      43763A5F 
 188      D4762CE9 
 188      8E1DF6
 189 050c 4F33318F 		.ascii	"O31\217=\335\021\301\375\011v\2475%M\216\016^\334&\253"
 189      3DDD11C1 
 189      FD0976A7 
 189      35254D8E 
ARM GAS  C:\Users\JEFFSN~1\AppData\Local\Temp\cc3zReEs.s 			page 14


 189      0E5EDC26 
 190 0521 C39626FF 		.ascii	"\303\226&\377\015N)\306\034"
 190      0D4E29C6 
 190      1C
 191              		.text
 192              		.section	.gnu.lto_.symtab.807cbc9f,"",%progbits
 193 0000 4144435F 		.ascii	"ADC_SAR_Seq_1_FinalBuf_DmaInitialize\000"
 193      5341525F 
 193      5365715F 
 193      315F4669 
 193      6E616C42 
 194 0025 00       		.ascii	"\000"
 195 0026 00       		.ascii	"\000"
 196 0027 00       		.ascii	"\000"
 197 0028 00000000 		.ascii	"\000\000\000\000\000\000\000\000"
 197      00000000 
 198 0030 BD000000 		.ascii	"\275\000\000\000"
 199 0034 4144435F 		.ascii	"ADC_SAR_Seq_1_FinalBuf_DmaHandle\000"
 199      5341525F 
 199      5365715F 
 199      315F4669 
 199      6E616C42 
 200 0055 00       		.ascii	"\000"
 201 0056 00       		.ascii	"\000"
 202 0057 00       		.ascii	"\000"
 203 0058 00000000 		.ascii	"\000\000\000\000\000\000\000\000"
 203      00000000 
 204 0060 E0000000 		.ascii	"\340\000\000\000"
 205 0064 4144435F 		.ascii	"ADC_SAR_Seq_1_FinalBuf_DmaRelease\000"
 205      5341525F 
 205      5365715F 
 205      315F4669 
 205      6E616C42 
 206 0086 00       		.ascii	"\000"
 207 0087 00       		.ascii	"\000"
 208 0088 00       		.ascii	"\000"
 209 0089 00000000 		.ascii	"\000\000\000\000\000\000\000\000"
 209      00000000 
 210 0091 C0000000 		.ascii	"\300\000\000\000"
 211 0095 4379446D 		.ascii	"CyDmaChPriority\000"
 211      61436850 
 211      72696F72 
 211      69747900 
 212 00a5 00       		.ascii	"\000"
 213 00a6 02       		.ascii	"\002"
 214 00a7 00       		.ascii	"\000"
 215 00a8 00000000 		.ascii	"\000\000\000\000\000\000\000\000"
 215      00000000 
 216 00b0 CA000000 		.ascii	"\312\000\000\000"
 217 00b4 4379446D 		.ascii	"CyDmaChSetExtendedAddress\000"
 217      61436853 
 217      65744578 
 217      74656E64 
 217      65644164 
 218 00ce 00       		.ascii	"\000"
 219 00cf 02       		.ascii	"\002"
 220 00d0 00       		.ascii	"\000"
ARM GAS  C:\Users\JEFFSN~1\AppData\Local\Temp\cc3zReEs.s 			page 15


 221 00d1 00000000 		.ascii	"\000\000\000\000\000\000\000\000"
 221      00000000 
 222 00d9 D0000000 		.ascii	"\320\000\000\000"
 223 00dd 4379446D 		.ascii	"CyDmaChSetConfiguration\000"
 223      61436853 
 223      6574436F 
 223      6E666967 
 223      75726174 
 224 00f5 00       		.ascii	"\000"
 225 00f6 02       		.ascii	"\002"
 226 00f7 00       		.ascii	"\000"
 227 00f8 00000000 		.ascii	"\000\000\000\000\000\000\000\000"
 227      00000000 
 228 0100 D9000000 		.ascii	"\331\000\000\000"
 229 0104 4379446D 		.ascii	"CyDmaChDisable\000"
 229      61436844 
 229      69736162 
 229      6C6500
 230 0113 00       		.ascii	"\000"
 231 0114 02       		.ascii	"\002"
 232 0115 00       		.ascii	"\000"
 233 0116 00000000 		.ascii	"\000\000\000\000\000\000\000\000"
 233      00000000 
 234 011e DD000000 		.ascii	"\335\000\000\000"
 235              		.text
 236              		.section	.gnu.lto_.opts,"",%progbits
 237 0000 272D666D 		.ascii	"'-fmath-errno' '-fsigned-zeros' '-ftrapping-math' '"
 237      6174682D 
 237      6572726E 
 237      6F272027 
 237      2D667369 
 238 0033 2D666E6F 		.ascii	"-fno-trapv' '-fno-openmp' '-fno-openacc' '-mcpu=cor"
 238      2D747261 
 238      70762720 
 238      272D666E 
 238      6F2D6F70 
 239 0066 7465782D 		.ascii	"tex-m3' '-mthumb' '-g' '-O3' '-ffunction-sections' "
 239      6D332720 
 239      272D6D74 
 239      68756D62 
 239      2720272D 
 240 0099 272D6666 		.ascii	"'-ffat-lto-objects' '-finline-functions' '-flto'\000"
 240      61742D6C 
 240      746F2D6F 
 240      626A6563 
 240      74732720 
 241              		.text
 242              		.cfi_sections	.debug_frame
 243              		.section	.text.ADC_SAR_Seq_1_FinalBuf_DmaInitialize,"ax",%progbits
 244              		.align	2
 245              		.global	ADC_SAR_Seq_1_FinalBuf_DmaInitialize
 246              		.thumb
 247              		.thumb_func
 248              		.type	ADC_SAR_Seq_1_FinalBuf_DmaInitialize, %function
 249              	ADC_SAR_Seq_1_FinalBuf_DmaInitialize:
 250              	.LFB0:
 251              		.file 1 "Generated_Source\\PSoC5\\ADC_SAR_Seq_1_FinalBuf_dma.c"
ARM GAS  C:\Users\JEFFSN~1\AppData\Local\Temp\cc3zReEs.s 			page 16


   1:Generated_Source\PSoC5/ADC_SAR_Seq_1_FinalBuf_dma.c **** /***************************************************************************
   2:Generated_Source\PSoC5/ADC_SAR_Seq_1_FinalBuf_dma.c **** * File Name: ADC_SAR_Seq_1_FinalBuf_dma.c  
   3:Generated_Source\PSoC5/ADC_SAR_Seq_1_FinalBuf_dma.c **** * Version 1.70
   4:Generated_Source\PSoC5/ADC_SAR_Seq_1_FinalBuf_dma.c **** *
   5:Generated_Source\PSoC5/ADC_SAR_Seq_1_FinalBuf_dma.c **** *  Description:
   6:Generated_Source\PSoC5/ADC_SAR_Seq_1_FinalBuf_dma.c **** *   Provides an API for the DMAC component. The API includes functions
   7:Generated_Source\PSoC5/ADC_SAR_Seq_1_FinalBuf_dma.c **** *   for the DMA controller, DMA channels and Transfer Descriptors.
   8:Generated_Source\PSoC5/ADC_SAR_Seq_1_FinalBuf_dma.c **** *
   9:Generated_Source\PSoC5/ADC_SAR_Seq_1_FinalBuf_dma.c **** *
  10:Generated_Source\PSoC5/ADC_SAR_Seq_1_FinalBuf_dma.c **** *   Note:
  11:Generated_Source\PSoC5/ADC_SAR_Seq_1_FinalBuf_dma.c **** *     This module requires the developer to finish or fill in the auto
  12:Generated_Source\PSoC5/ADC_SAR_Seq_1_FinalBuf_dma.c **** *     generated funcions and setup the dma channel and TD's.
  13:Generated_Source\PSoC5/ADC_SAR_Seq_1_FinalBuf_dma.c **** *
  14:Generated_Source\PSoC5/ADC_SAR_Seq_1_FinalBuf_dma.c **** ********************************************************************************
  15:Generated_Source\PSoC5/ADC_SAR_Seq_1_FinalBuf_dma.c **** * Copyright 2008-2010, Cypress Semiconductor Corporation.  All rights reserved.
  16:Generated_Source\PSoC5/ADC_SAR_Seq_1_FinalBuf_dma.c **** * You may use this file only in accordance with the license, terms, conditions, 
  17:Generated_Source\PSoC5/ADC_SAR_Seq_1_FinalBuf_dma.c **** * disclaimers, and limitations in the end user license agreement accompanying 
  18:Generated_Source\PSoC5/ADC_SAR_Seq_1_FinalBuf_dma.c **** * the software package with which this file was provided.
  19:Generated_Source\PSoC5/ADC_SAR_Seq_1_FinalBuf_dma.c **** ********************************************************************************/
  20:Generated_Source\PSoC5/ADC_SAR_Seq_1_FinalBuf_dma.c **** #include <CYLIB.H>
  21:Generated_Source\PSoC5/ADC_SAR_Seq_1_FinalBuf_dma.c **** #include <CYDMAC.H>
  22:Generated_Source\PSoC5/ADC_SAR_Seq_1_FinalBuf_dma.c **** #include <ADC_SAR_Seq_1_FinalBuf_dma.H>
  23:Generated_Source\PSoC5/ADC_SAR_Seq_1_FinalBuf_dma.c **** 
  24:Generated_Source\PSoC5/ADC_SAR_Seq_1_FinalBuf_dma.c **** 
  25:Generated_Source\PSoC5/ADC_SAR_Seq_1_FinalBuf_dma.c **** 
  26:Generated_Source\PSoC5/ADC_SAR_Seq_1_FinalBuf_dma.c **** /****************************************************************************
  27:Generated_Source\PSoC5/ADC_SAR_Seq_1_FinalBuf_dma.c **** * 
  28:Generated_Source\PSoC5/ADC_SAR_Seq_1_FinalBuf_dma.c **** * The following defines are available in Cyfitter.h
  29:Generated_Source\PSoC5/ADC_SAR_Seq_1_FinalBuf_dma.c **** * 
  30:Generated_Source\PSoC5/ADC_SAR_Seq_1_FinalBuf_dma.c **** * 
  31:Generated_Source\PSoC5/ADC_SAR_Seq_1_FinalBuf_dma.c **** * 
  32:Generated_Source\PSoC5/ADC_SAR_Seq_1_FinalBuf_dma.c **** * ADC_SAR_Seq_1_FinalBuf__DRQ_CTL_REG
  33:Generated_Source\PSoC5/ADC_SAR_Seq_1_FinalBuf_dma.c **** * 
  34:Generated_Source\PSoC5/ADC_SAR_Seq_1_FinalBuf_dma.c **** * 
  35:Generated_Source\PSoC5/ADC_SAR_Seq_1_FinalBuf_dma.c **** * ADC_SAR_Seq_1_FinalBuf__DRQ_NUMBER
  36:Generated_Source\PSoC5/ADC_SAR_Seq_1_FinalBuf_dma.c **** * 
  37:Generated_Source\PSoC5/ADC_SAR_Seq_1_FinalBuf_dma.c **** * Number of TD's used by this channel.
  38:Generated_Source\PSoC5/ADC_SAR_Seq_1_FinalBuf_dma.c **** * ADC_SAR_Seq_1_FinalBuf__NUMBEROF_TDS
  39:Generated_Source\PSoC5/ADC_SAR_Seq_1_FinalBuf_dma.c **** * 
  40:Generated_Source\PSoC5/ADC_SAR_Seq_1_FinalBuf_dma.c **** * Priority of this channel.
  41:Generated_Source\PSoC5/ADC_SAR_Seq_1_FinalBuf_dma.c **** * ADC_SAR_Seq_1_FinalBuf__PRIORITY
  42:Generated_Source\PSoC5/ADC_SAR_Seq_1_FinalBuf_dma.c **** * 
  43:Generated_Source\PSoC5/ADC_SAR_Seq_1_FinalBuf_dma.c **** * True if ADC_SAR_Seq_1_FinalBuf_TERMIN_SEL is used.
  44:Generated_Source\PSoC5/ADC_SAR_Seq_1_FinalBuf_dma.c **** * ADC_SAR_Seq_1_FinalBuf__TERMIN_EN
  45:Generated_Source\PSoC5/ADC_SAR_Seq_1_FinalBuf_dma.c **** * 
  46:Generated_Source\PSoC5/ADC_SAR_Seq_1_FinalBuf_dma.c **** * TERMIN interrupt line to signal terminate.
  47:Generated_Source\PSoC5/ADC_SAR_Seq_1_FinalBuf_dma.c **** * ADC_SAR_Seq_1_FinalBuf__TERMIN_SEL
  48:Generated_Source\PSoC5/ADC_SAR_Seq_1_FinalBuf_dma.c **** * 
  49:Generated_Source\PSoC5/ADC_SAR_Seq_1_FinalBuf_dma.c **** * 
  50:Generated_Source\PSoC5/ADC_SAR_Seq_1_FinalBuf_dma.c **** * True if ADC_SAR_Seq_1_FinalBuf_TERMOUT0_SEL is used.
  51:Generated_Source\PSoC5/ADC_SAR_Seq_1_FinalBuf_dma.c **** * ADC_SAR_Seq_1_FinalBuf__TERMOUT0_EN
  52:Generated_Source\PSoC5/ADC_SAR_Seq_1_FinalBuf_dma.c **** * 
  53:Generated_Source\PSoC5/ADC_SAR_Seq_1_FinalBuf_dma.c **** * 
  54:Generated_Source\PSoC5/ADC_SAR_Seq_1_FinalBuf_dma.c **** * TERMOUT0 interrupt line to signal completion.
  55:Generated_Source\PSoC5/ADC_SAR_Seq_1_FinalBuf_dma.c **** * ADC_SAR_Seq_1_FinalBuf__TERMOUT0_SEL
  56:Generated_Source\PSoC5/ADC_SAR_Seq_1_FinalBuf_dma.c **** * 
  57:Generated_Source\PSoC5/ADC_SAR_Seq_1_FinalBuf_dma.c **** * 
ARM GAS  C:\Users\JEFFSN~1\AppData\Local\Temp\cc3zReEs.s 			page 17


  58:Generated_Source\PSoC5/ADC_SAR_Seq_1_FinalBuf_dma.c **** * True if ADC_SAR_Seq_1_FinalBuf_TERMOUT1_SEL is used.
  59:Generated_Source\PSoC5/ADC_SAR_Seq_1_FinalBuf_dma.c **** * ADC_SAR_Seq_1_FinalBuf__TERMOUT1_EN
  60:Generated_Source\PSoC5/ADC_SAR_Seq_1_FinalBuf_dma.c **** * 
  61:Generated_Source\PSoC5/ADC_SAR_Seq_1_FinalBuf_dma.c **** * 
  62:Generated_Source\PSoC5/ADC_SAR_Seq_1_FinalBuf_dma.c **** * TERMOUT1 interrupt line to signal completion.
  63:Generated_Source\PSoC5/ADC_SAR_Seq_1_FinalBuf_dma.c **** * ADC_SAR_Seq_1_FinalBuf__TERMOUT1_SEL
  64:Generated_Source\PSoC5/ADC_SAR_Seq_1_FinalBuf_dma.c **** * 
  65:Generated_Source\PSoC5/ADC_SAR_Seq_1_FinalBuf_dma.c **** ****************************************************************************/
  66:Generated_Source\PSoC5/ADC_SAR_Seq_1_FinalBuf_dma.c **** 
  67:Generated_Source\PSoC5/ADC_SAR_Seq_1_FinalBuf_dma.c **** 
  68:Generated_Source\PSoC5/ADC_SAR_Seq_1_FinalBuf_dma.c **** /* Zero based index of ADC_SAR_Seq_1_FinalBuf dma channel */
  69:Generated_Source\PSoC5/ADC_SAR_Seq_1_FinalBuf_dma.c **** uint8 ADC_SAR_Seq_1_FinalBuf_DmaHandle = DMA_INVALID_CHANNEL;
  70:Generated_Source\PSoC5/ADC_SAR_Seq_1_FinalBuf_dma.c **** 
  71:Generated_Source\PSoC5/ADC_SAR_Seq_1_FinalBuf_dma.c **** /*********************************************************************
  72:Generated_Source\PSoC5/ADC_SAR_Seq_1_FinalBuf_dma.c **** * Function Name: uint8 ADC_SAR_Seq_1_FinalBuf_DmaInitalize
  73:Generated_Source\PSoC5/ADC_SAR_Seq_1_FinalBuf_dma.c **** **********************************************************************
  74:Generated_Source\PSoC5/ADC_SAR_Seq_1_FinalBuf_dma.c **** * Summary:
  75:Generated_Source\PSoC5/ADC_SAR_Seq_1_FinalBuf_dma.c **** *   Allocates and initialises a channel of the DMAC to be used by the
  76:Generated_Source\PSoC5/ADC_SAR_Seq_1_FinalBuf_dma.c **** *   caller.
  77:Generated_Source\PSoC5/ADC_SAR_Seq_1_FinalBuf_dma.c **** *
  78:Generated_Source\PSoC5/ADC_SAR_Seq_1_FinalBuf_dma.c **** * Parameters:
  79:Generated_Source\PSoC5/ADC_SAR_Seq_1_FinalBuf_dma.c **** *   BurstCount.
  80:Generated_Source\PSoC5/ADC_SAR_Seq_1_FinalBuf_dma.c **** *       
  81:Generated_Source\PSoC5/ADC_SAR_Seq_1_FinalBuf_dma.c **** *       
  82:Generated_Source\PSoC5/ADC_SAR_Seq_1_FinalBuf_dma.c **** *   ReqestPerBurst.
  83:Generated_Source\PSoC5/ADC_SAR_Seq_1_FinalBuf_dma.c **** *       
  84:Generated_Source\PSoC5/ADC_SAR_Seq_1_FinalBuf_dma.c **** *       
  85:Generated_Source\PSoC5/ADC_SAR_Seq_1_FinalBuf_dma.c **** *   UpperSrcAddress.
  86:Generated_Source\PSoC5/ADC_SAR_Seq_1_FinalBuf_dma.c **** *       
  87:Generated_Source\PSoC5/ADC_SAR_Seq_1_FinalBuf_dma.c **** *       
  88:Generated_Source\PSoC5/ADC_SAR_Seq_1_FinalBuf_dma.c **** *   UpperDestAddress.
  89:Generated_Source\PSoC5/ADC_SAR_Seq_1_FinalBuf_dma.c **** *       
  90:Generated_Source\PSoC5/ADC_SAR_Seq_1_FinalBuf_dma.c **** *
  91:Generated_Source\PSoC5/ADC_SAR_Seq_1_FinalBuf_dma.c **** * Return:
  92:Generated_Source\PSoC5/ADC_SAR_Seq_1_FinalBuf_dma.c **** *   The channel that can be used by the caller for DMA activity.
  93:Generated_Source\PSoC5/ADC_SAR_Seq_1_FinalBuf_dma.c **** *   DMA_INVALID_CHANNEL (0xFF) if there are no channels left. 
  94:Generated_Source\PSoC5/ADC_SAR_Seq_1_FinalBuf_dma.c **** *
  95:Generated_Source\PSoC5/ADC_SAR_Seq_1_FinalBuf_dma.c **** *
  96:Generated_Source\PSoC5/ADC_SAR_Seq_1_FinalBuf_dma.c **** *******************************************************************/
  97:Generated_Source\PSoC5/ADC_SAR_Seq_1_FinalBuf_dma.c **** uint8 ADC_SAR_Seq_1_FinalBuf_DmaInitialize(uint8 BurstCount, uint8 ReqestPerBurst, uint16 UpperSrcA
  98:Generated_Source\PSoC5/ADC_SAR_Seq_1_FinalBuf_dma.c **** {
 252              		.loc 1 98 0
 253              		.cfi_startproc
 254              		@ args = 0, pretend = 0, frame = 0
 255              		@ frame_needed = 0, uses_anonymous_args = 0
 256              	.LVL0:
 257 0000 2DE9F041 		push	{r4, r5, r6, r7, r8, lr}
 258              		.cfi_def_cfa_offset 24
 259              		.cfi_offset 4, -24
 260              		.cfi_offset 5, -20
 261              		.cfi_offset 6, -16
 262              		.cfi_offset 7, -12
 263              		.cfi_offset 8, -8
 264              		.cfi_offset 14, -4
 265 0004 1746     		mov	r7, r2
 266 0006 9846     		mov	r8, r3
 267 0008 82B0     		sub	sp, sp, #8
ARM GAS  C:\Users\JEFFSN~1\AppData\Local\Temp\cc3zReEs.s 			page 18


 268              		.cfi_def_cfa_offset 32
  99:Generated_Source\PSoC5/ADC_SAR_Seq_1_FinalBuf_dma.c **** 
 100:Generated_Source\PSoC5/ADC_SAR_Seq_1_FinalBuf_dma.c ****     /* Allocate a DMA channel. */
 101:Generated_Source\PSoC5/ADC_SAR_Seq_1_FinalBuf_dma.c ****     ADC_SAR_Seq_1_FinalBuf_DmaHandle = (uint8)ADC_SAR_Seq_1_FinalBuf__DRQ_NUMBER;
 269              		.loc 1 101 0
 270 000a 0C4C     		ldr	r4, .L3
 271 000c 0625     		movs	r5, #6
 102:Generated_Source\PSoC5/ADC_SAR_Seq_1_FinalBuf_dma.c **** 
 103:Generated_Source\PSoC5/ADC_SAR_Seq_1_FinalBuf_dma.c ****     /* Configure the channel. */
 104:Generated_Source\PSoC5/ADC_SAR_Seq_1_FinalBuf_dma.c ****     (void)CyDmaChSetConfiguration(ADC_SAR_Seq_1_FinalBuf_DmaHandle,
 272              		.loc 1 104 0
 273 000e 0026     		movs	r6, #0
 274 0010 2B46     		mov	r3, r5
 275              	.LVL1:
 276 0012 0A46     		mov	r2, r1
 277              	.LVL2:
 278 0014 0196     		str	r6, [sp, #4]
 279 0016 0146     		mov	r1, r0
 280              	.LVL3:
 281 0018 0096     		str	r6, [sp]
 282 001a 2846     		mov	r0, r5
 283              	.LVL4:
 101:Generated_Source\PSoC5/ADC_SAR_Seq_1_FinalBuf_dma.c **** 
 284              		.loc 1 101 0
 285 001c 2570     		strb	r5, [r4]
 286              		.loc 1 104 0
 287 001e FFF7FEFF 		bl	CyDmaChSetConfiguration
 288              	.LVL5:
 105:Generated_Source\PSoC5/ADC_SAR_Seq_1_FinalBuf_dma.c ****                                   BurstCount,
 106:Generated_Source\PSoC5/ADC_SAR_Seq_1_FinalBuf_dma.c ****                                   ReqestPerBurst,
 107:Generated_Source\PSoC5/ADC_SAR_Seq_1_FinalBuf_dma.c ****                                   (uint8)ADC_SAR_Seq_1_FinalBuf__TERMOUT0_SEL,
 108:Generated_Source\PSoC5/ADC_SAR_Seq_1_FinalBuf_dma.c ****                                   (uint8)ADC_SAR_Seq_1_FinalBuf__TERMOUT1_SEL,
 109:Generated_Source\PSoC5/ADC_SAR_Seq_1_FinalBuf_dma.c ****                                   (uint8)ADC_SAR_Seq_1_FinalBuf__TERMIN_SEL);
 110:Generated_Source\PSoC5/ADC_SAR_Seq_1_FinalBuf_dma.c **** 
 111:Generated_Source\PSoC5/ADC_SAR_Seq_1_FinalBuf_dma.c ****     /* Set the extended address for the transfers */
 112:Generated_Source\PSoC5/ADC_SAR_Seq_1_FinalBuf_dma.c ****     (void)CyDmaChSetExtendedAddress(ADC_SAR_Seq_1_FinalBuf_DmaHandle, UpperSrcAddress, UpperDestAdd
 289              		.loc 1 112 0
 290 0022 4246     		mov	r2, r8
 291 0024 3946     		mov	r1, r7
 292 0026 2078     		ldrb	r0, [r4]	@ zero_extendqisi2
 293 0028 FFF7FEFF 		bl	CyDmaChSetExtendedAddress
 294              	.LVL6:
 113:Generated_Source\PSoC5/ADC_SAR_Seq_1_FinalBuf_dma.c **** 
 114:Generated_Source\PSoC5/ADC_SAR_Seq_1_FinalBuf_dma.c ****     /* Set the priority for this channel */
 115:Generated_Source\PSoC5/ADC_SAR_Seq_1_FinalBuf_dma.c ****     (void)CyDmaChPriority(ADC_SAR_Seq_1_FinalBuf_DmaHandle, (uint8)ADC_SAR_Seq_1_FinalBuf__PRIORITY
 295              		.loc 1 115 0
 296 002c 2078     		ldrb	r0, [r4]	@ zero_extendqisi2
 297 002e 0221     		movs	r1, #2
 298 0030 FFF7FEFF 		bl	CyDmaChPriority
 299              	.LVL7:
 116:Generated_Source\PSoC5/ADC_SAR_Seq_1_FinalBuf_dma.c ****     
 117:Generated_Source\PSoC5/ADC_SAR_Seq_1_FinalBuf_dma.c ****     return ADC_SAR_Seq_1_FinalBuf_DmaHandle;
 118:Generated_Source\PSoC5/ADC_SAR_Seq_1_FinalBuf_dma.c **** }
 300              		.loc 1 118 0
 301 0034 2078     		ldrb	r0, [r4]	@ zero_extendqisi2
 302 0036 02B0     		add	sp, sp, #8
 303              		.cfi_def_cfa_offset 24
ARM GAS  C:\Users\JEFFSN~1\AppData\Local\Temp\cc3zReEs.s 			page 19


 304              		@ sp needed
 305 0038 BDE8F081 		pop	{r4, r5, r6, r7, r8, pc}
 306              	.L4:
 307              		.align	2
 308              	.L3:
 309 003c 00000000 		.word	.LANCHOR0
 310              		.cfi_endproc
 311              	.LFE0:
 312              		.size	ADC_SAR_Seq_1_FinalBuf_DmaInitialize, .-ADC_SAR_Seq_1_FinalBuf_DmaInitialize
 313              		.section	.text.ADC_SAR_Seq_1_FinalBuf_DmaRelease,"ax",%progbits
 314              		.align	2
 315              		.global	ADC_SAR_Seq_1_FinalBuf_DmaRelease
 316              		.thumb
 317              		.thumb_func
 318              		.type	ADC_SAR_Seq_1_FinalBuf_DmaRelease, %function
 319              	ADC_SAR_Seq_1_FinalBuf_DmaRelease:
 320              	.LFB1:
 119:Generated_Source\PSoC5/ADC_SAR_Seq_1_FinalBuf_dma.c **** 
 120:Generated_Source\PSoC5/ADC_SAR_Seq_1_FinalBuf_dma.c **** /*********************************************************************
 121:Generated_Source\PSoC5/ADC_SAR_Seq_1_FinalBuf_dma.c **** * Function Name: void ADC_SAR_Seq_1_FinalBuf_DmaRelease
 122:Generated_Source\PSoC5/ADC_SAR_Seq_1_FinalBuf_dma.c **** **********************************************************************
 123:Generated_Source\PSoC5/ADC_SAR_Seq_1_FinalBuf_dma.c **** * Summary:
 124:Generated_Source\PSoC5/ADC_SAR_Seq_1_FinalBuf_dma.c **** *   Frees the channel associated with ADC_SAR_Seq_1_FinalBuf.
 125:Generated_Source\PSoC5/ADC_SAR_Seq_1_FinalBuf_dma.c **** *
 126:Generated_Source\PSoC5/ADC_SAR_Seq_1_FinalBuf_dma.c **** *
 127:Generated_Source\PSoC5/ADC_SAR_Seq_1_FinalBuf_dma.c **** * Parameters:
 128:Generated_Source\PSoC5/ADC_SAR_Seq_1_FinalBuf_dma.c **** *   void.
 129:Generated_Source\PSoC5/ADC_SAR_Seq_1_FinalBuf_dma.c **** *
 130:Generated_Source\PSoC5/ADC_SAR_Seq_1_FinalBuf_dma.c **** *
 131:Generated_Source\PSoC5/ADC_SAR_Seq_1_FinalBuf_dma.c **** *
 132:Generated_Source\PSoC5/ADC_SAR_Seq_1_FinalBuf_dma.c **** * Return:
 133:Generated_Source\PSoC5/ADC_SAR_Seq_1_FinalBuf_dma.c **** *   void.
 134:Generated_Source\PSoC5/ADC_SAR_Seq_1_FinalBuf_dma.c **** *
 135:Generated_Source\PSoC5/ADC_SAR_Seq_1_FinalBuf_dma.c **** *******************************************************************/
 136:Generated_Source\PSoC5/ADC_SAR_Seq_1_FinalBuf_dma.c **** void ADC_SAR_Seq_1_FinalBuf_DmaRelease(void) 
 137:Generated_Source\PSoC5/ADC_SAR_Seq_1_FinalBuf_dma.c **** {
 321              		.loc 1 137 0
 322              		.cfi_startproc
 323              		@ args = 0, pretend = 0, frame = 0
 324              		@ frame_needed = 0, uses_anonymous_args = 0
 325              		@ link register save eliminated.
 138:Generated_Source\PSoC5/ADC_SAR_Seq_1_FinalBuf_dma.c ****     /* Disable the channel */
 139:Generated_Source\PSoC5/ADC_SAR_Seq_1_FinalBuf_dma.c ****     (void)CyDmaChDisable(ADC_SAR_Seq_1_FinalBuf_DmaHandle);
 326              		.loc 1 139 0
 327 0000 014B     		ldr	r3, .L6
 328 0002 1878     		ldrb	r0, [r3]	@ zero_extendqisi2
 329 0004 FFF7FEBF 		b	CyDmaChDisable
 330              	.LVL8:
 331              	.L7:
 332              		.align	2
 333              	.L6:
 334 0008 00000000 		.word	.LANCHOR0
 335              		.cfi_endproc
 336              	.LFE1:
 337              		.size	ADC_SAR_Seq_1_FinalBuf_DmaRelease, .-ADC_SAR_Seq_1_FinalBuf_DmaRelease
 338              		.global	ADC_SAR_Seq_1_FinalBuf_DmaHandle
 339              		.data
ARM GAS  C:\Users\JEFFSN~1\AppData\Local\Temp\cc3zReEs.s 			page 20


 340              		.set	.LANCHOR0,. + 0
 341              		.type	ADC_SAR_Seq_1_FinalBuf_DmaHandle, %object
 342              		.size	ADC_SAR_Seq_1_FinalBuf_DmaHandle, 1
 343              	ADC_SAR_Seq_1_FinalBuf_DmaHandle:
 344 0000 FF       		.byte	-1
 345              		.text
 346              	.Letext0:
 347              		.file 2 "Generated_Source\\PSoC5/cytypes.h"
 348              		.file 3 "Generated_Source\\PSoC5/CYDMAC.H"