ARM GAS  C:\Users\JEFFSN~1\AppData\Local\Temp\ccGYBxLy.s 			page 1


   1              		.syntax unified
   2              		.cpu cortex-m3
   3              		.fpu softvfp
   4              		.eabi_attribute 20, 1
   5              		.eabi_attribute 21, 1
   6              		.eabi_attribute 23, 3
   7              		.eabi_attribute 24, 1
   8              		.eabi_attribute 25, 1
   9              		.eabi_attribute 26, 1
  10              		.eabi_attribute 30, 1
  11              		.eabi_attribute 34, 1
  12              		.eabi_attribute 18, 4
  13              		.thumb
  14              		.syntax unified
  15              		.file	"ADC_SAR_Seq_1_IRQ.c"
  16              		.text
  17              	.Ltext0:
  18              		.section	.gnu.lto_.profile.c7d73030,"",%progbits
  19 0000 789C6361 		.ascii	"x\234ca`d`e`\000\222\223\031u\000\002e\000\314"
  19      60646065 
  19      60009293 
  19      19750002 
  19      6500CC
  20              		.text
  21              		.section	.gnu.lto_.inline.c7d73030,"",%progbits
  22 0000 789C6361 		.ascii	"x\234ca`d\000\001]\010\005\006\274\014\014\314L\214"
  22      60640001 
  22      5D080506 
  22      BC0C0CCC 
  22      4C8C
  23 0012 0C4C4026 		.ascii	"\014L@&\333\002y\020\005T\304\312\002\024aY \017\027"
  23      DB027910 
  23      0554C4CA 
  23      02146159 
  23      200F17
  24 0025 62C21462 		.ascii	"b\302\024b\306\024b\301\024be`a\006\0121]\340\207\013"
  24      C61462C1 
  24      14626560 
  24      61060A31 
  24      5DE0870B 
  25 0039 B131B0B3 		.ascii	"\2611\260\263\001\2058\016\330\301\205\3301Uq0p\352"
  25      0185380E 
  25      D8C185D8 
  25      31557130 
  25      70EA
  26 004b A0398B0B 		.ascii	"\2409\213\013\344\020n\220\373 $X\200\223\240\272\011"
  26      E4106E90 
  26      FB202458 
  26      8093A0BA 
  26      09
  27 005c 7E60112E 		.ascii	"~`\021.\0066qT\205H\246\360`:\200\027S\210\001\000\334"
  27      06367154 
  27      8548A6F0 
  27      603A8017 
  27      53880100 
  28 0071 94149D   		.ascii	"\224\024\235"
  29              		.text
ARM GAS  C:\Users\JEFFSN~1\AppData\Local\Temp\ccGYBxLy.s 			page 2


  30              		.section	.gnu.lto_.jmpfuncs.c7d73030,"",%progbits
  31 0000 789C458A 		.ascii	"x\234E\212\333\015\000 \014\002O\255\317\3504\356\277"
  31      DB0D0020 
  31      0C024FAD 
  31      CFE834EE 
  31      BF
  32 0011 9B6DF8F0 		.ascii	"\233m\370\360\022 \001\214Dp\371\034\227\267\031\012"
  32      1220018C 
  32      4470F91C 
  32      97B7190A 
  33 0021 185468D0 		.ascii	"\030Th\320ah\237\212\025\266u\177\027\033\000\226"
  33      61689F8A 
  33      15B6757F 
  33      171B0096 
  34              		.text
  35              		.section	.gnu.lto_.pureconst.c7d73030,"",%progbits
  36 0000 789C05C1 		.ascii	"x\234\005\301I\022\000 \010\004\261A\301\255\344N\265"
  36      49120020 
  36      0804B141 
  36      C1ADE44E 
  36      B5
  37 0011 FFFFA789 		.ascii	"\377\377\247\211\313\364$\245d\264\3508\301`\262j\327"
  37      CBF424A5 
  37      64B4E838 
  37      C160B26A 
  37      D7
  38 0022 A94BF201 		.ascii	"\251K\362\001\025\017\001\233"
  38      150F019B 
  39              		.text
  40              		.section	.gnu.lto_ADC_SAR_Seq_1_IRQ_Interrupt.c7d73030,"",%progbits
  41 0000 789C6361 		.ascii	"x\234ca`d\000\201j \326\005bi fdf`d\232p\216\201\241"
  41      60640081 
  41      6A20D605 
  41      62692066 
  41      64666064 
  42 0019 91838991 		.ascii	"\221\203\211\221\021\304h\340`d\250gb\254g\374\312\364"
  42      11C468E0 
  42      6064A867 
  42      62AC67FC 
  42      CAF4
  43 002b 9789F150 		.ascii	"\227\211\361P\373\263\235L\232\313\033\200\340A\353"
  43      FBB39D4C 
  43      9ACB1B80 
  43      E041EB
  44 003a 26CE8615 		.ascii	"&\316\206\025\007\030[\231\031\030\3763\201Mb`\\\316"
  44      07185B99 
  44      1918FE33 
  44      814D6260 
  44      5CCE
  45 004c A8C90054 		.ascii	"\250\311\000T\366h\343\277\251\274l- e\012\020I\306"
  45      F668E3BF 
  45      A9BC6C2D 
  45      20650A10 
  45      49C6
  46 005e 158C6C20 		.ascii	"\025\214l \353\326\007\035h\370\377\277\271\341\300"
  46      EBD6071D 
  46      68F8FFBF 
ARM GAS  C:\Users\JEFFSN~1\AppData\Local\Temp\ccGYBxLy.s 			page 3


  46      B9E1C0
  47 006d 24EE9762 		.ascii	"$\356\227b@\211\017@\014\262\346#\023\023\210f~\305"
  47      40890F40 
  47      0CB2E623 
  47      13138866 
  47      7EC5
  48 007f C804520A 		.ascii	"\310\004R\0126\355\003\023#H\014\250B\333=5/\265(\261"
  48      36ED0313 
  48      23480CA8 
  48      42DB3D35 
  48      2FB528B1 
  49 0093 2435253E 		.ascii	"$5%>8\277\264(95& 8\337\3314\306\321\3059>\3301(>8\265"
  49      38BFB428 
  49      39352620 
  49      38DFD934 
  49      C6D1C539 
  50 00ae 30DE30DE 		.ascii	"0\3360\3363(P/\231\001\000\326\343;K"
  50      3328502F 
  50      990100D6 
  50      E33B4B
  51              		.text
  52              		.section	.gnu.lto_ADC_SAR_Seq_1_IRQ_SetVector.c7d73030,"",%progbits
  53 0000 789C5550 		.ascii	"x\234UPAHTQ\024\275\347\275\321\231\212~\2736\272\230"
  53      41485451 
  53      14BDE7BD 
  53      D1998A7E 
  53      BB36BA98 
  54 0014 8D880882 		.ascii	"\215\210\010\202D\356E!\332\204\315D\031\030\237i\346"
  54      44EE4521 
  54      DA84CD44 
  54      19189F69 
  54      E6
  55 0025 EDAAC1AF 		.ascii	"\355\252\301\257\255}\316\314'\011\2246J\231b\020\246"
  55      AD7DCECC 
  55      27099436 
  55      4A996210 
  55      A6
  56 0036 65A6D310 		.ascii	"e\246\323\020\341&\277R\255\246\021\231V-\"\014fQP\012"
  56      E126BF52 
  56      ADA61199 
  56      562D220C 
  56      6651500A 
  57 004a 0921D574 		.ascii	"\011!\325t\357\227\026]x\334w/\367\234{\356\211\020"
  57      EF97165D 
  57      78DC772F 
  57      F79C7BEE 
  57      8910
  58 005c 48A2C2A9 		.ascii	"H\242\302\251\227s\023?h\202\272S!\032\215)@>6\006\032"
  58      9773133F 
  58      6882BA53 
  58      211A8D29 
  58      403E3606 
  59 0071 5118C1BE 		.ascii	"Q\030\301\276\372\255\260y\253\266\246\332\026,\307"
  59      FAADB079 
  59      ABB6A6DA 
  59      162CC7
  60 0080 27BFD669 		.ascii	"'\277\326i\027\003\370\232\250\256B&\302\002\332xj\273"
ARM GAS  C:\Users\JEFFSN~1\AppData\Local\Temp\ccGYBxLy.s 			page 4


  60      1703F89A 
  60      A8AE4226 
  60      C202DA78 
  60      6ABB
  61 0092 B03AA37F 		.ascii	"\260:\243\177(_\003\021.\367\336M\177v\244T\210s\371"
  61      285F0311 
  61      2EF7DE4D 
  61      7F76A454 
  61      8873F9
  62 00a5 BEF8BDA2 		.ascii	"\276\370\275\242t\007\210\377K\337\336Vc\255\363\326"
  62      740788FF 
  62      4BDFDE56 
  62      63ADF3D6 
  63 00b5 E6AC5D37 		.ascii	"\346\254]7\366\210\2575\236@3\037\036\243\031\213h&"
  63      F688AF35 
  63      9E40331F 
  63      1EA3198B 
  63      6826
  64 00c7 6E1196D0 		.ascii	"n\021\226\320*\343?\357\277|\020\325]!t\371\321\266"
  64      2AE33FEF 
  64      BF7C10D5 
  64      5D2174F9 
  64      D1B6
  65 00d9 7FA2E5A1 		.ascii	"\177\242\345\241@\203\027\023'\357\331\240\020\367u"
  65      40831713 
  65      27EFD9A0 
  65      10F775
  66 00e8 044FFF87 		.ascii	"\004O\377\207K\360\364N\361\317\344\361\306\202\010"
  66      4BF0F44E 
  66      F1CFE4F1 
  66      C68208
  67 00f7 8F63192D 		.ascii	"\217c\031-\207\222\361\014\215|=\244\263\222\010l\275"
  67      8792F10C 
  67      8D7C3DA4 
  67      B392086C 
  67      BD
  68 0108 9EB741C9 		.ascii	"\236\267A\311\331x\34540\0057\371\002YM\273<-n\354)"
  68      D978E534 
  68      300537F9 
  68      02594DBB 
  68      3C2D6EEC 
  69 011d 2559D790 		.ascii	"%Y\327\220;\270][\353\027\202\274\026g\246\374\315\255"
  69      3BB85D5B 
  69      EB1782BC 
  69      1667A6FC 
  69      CDAD
  70 012f A81CD910 		.ascii	"\250\034\331\020\252+\377\252~\215\035\226c\037\362"
  70      AA2BFFAA 
  70      7E8D1D96 
  70      631FF2
  71 013e D6E1D658 		.ascii	"\326\341\326Xy\343\343\3219\314\216\212\210+$ZWY\344"
  71      79E3E3D1 
  71      39CC8E8A 
  71      882B245A 
  71      5759E4
  72 0151 8A884411 		.ascii	"\212\210D\021s\240\035\344\354\345P\023\257fZ\3425\323"
  72      73A01DE4 
ARM GAS  C:\Users\JEFFSN~1\AppData\Local\Temp\ccGYBxLy.s 			page 5


  72      ECE55013 
  72      AF665AE2 
  72      35D3
  73 0163 C5ADEA29 		.ascii	"\305\255\352)\3511\303\233\361R\371\230\220F\360Z\226"
  73      E931C39B 
  73      F152F998 
  73      9046F05A 
  73      96
  74 0174 DC3DB0ED 		.ascii	"\334=\260\355\377\010/\211Q\214\301\363\220\257\304"
  74      FF082F89 
  74      518CC1F3 
  74      90AFC4
  75 0183 7C7976EE 		.ascii	"|yv\356\013r\301\3729\301\207N\354*\210~\276\246\375"
  75      0B72C1FA 
  75      39C1874E 
  75      EC2A887E 
  75      BEA6FD
  76 0196 8CB961BC 		.ascii	"\214\271a\274\324\260\311\270\311\354M/m\006\372\222"
  76      D4B0C9B8 
  76      C9EC4D2F 
  76      6D06FA92 
  77 01a6 D99ED303 		.ascii	"\331\236\323\003\335\275=n\262;\341&\315\240\333\351"
  77      DDBD3D6E 
  77      B23BE126 
  77      CDA0DBE9 
  78 01b6 9E4D9CEF 		.ascii	"\236M\234\357HS4\225\311xfh\310\361R\327/\232\364p\326"
  78      48533495 
  78      C9786668 
  78      C8F152D7 
  78      2F9AF470 
  79 01cb BB90BA7A 		.ascii	"\273\220\272z\315\374\005\302a\2664"
  79      CDFC05C2 
  79      61B634
  80              		.text
  81              		.section	.gnu.lto_ADC_SAR_Seq_1_IRQ_GetVector.c7d73030,"",%progbits
  82 0000 789C5550 		.ascii	"x\234UPK(\204Q\024\276\337\275\223\231\310\214\225\015"
  82      4B288451 
  82      14BEDFBD 
  82      9399C88C 
  82      950D
  83 0012 8BD95848 		.ascii	"\213\331XH)\013ea#\012;f$\212\376\306\370w\230L\254"
  83      290B6561 
  83      230A3B66 
  83      248AFEC6 
  83      F877984C 
  84 0027 DD79FC85 		.ascii	"\335y\374\205\022\022yS\312\373\231\205\215\305\020"
  84      12127953 
  84      CAFB9985 
  84      8DC510
  85 0036 BB41D859 		.ascii	"\273A\330YH\324,\330 $a\2343l\334\272\235{N\347{]\233"
  85      48D42CD8 
  85      2024619C 
  85      336CDCBA 
  85      9D7B4EE7 
  86 004d 80E03346 		.ascii	"\200\3403F\245\224j\016](\0019t*D\310!\001~h\007D\217"
  86      A5946A0E 
  86      5D280139 
ARM GAS  C:\Users\JEFFSN~1\AppData\Local\Temp\ccGYBxLy.s 			page 6


  86      742A44C8 
  86      21017E68 
  87 0064 440F5EE5 		.ascii	"D\017^\345\227\304yt{Z\275H\213\326l\324>\235L\3369"
  87      97C47974 
  87      7B5ABD48 
  87      8BD66CD4 
  87      3E9D4CDE 
  88 0079 B905DCD4 		.ascii	"\271\005\334\324N\351\213>{\376\222\326a}c=w\016G\254"
  88      4EE98B3E 
  88      7BFE92D6 
  88      617D633D 
  88      770E47AC 
  89 008d 2A4B4991 		.ascii	"*KI\221\224\002\313\310\305\022rYb\005\371\202\226\337"
  89      9402CBC8 
  89      C5127259 
  89      6205F982 
  89      96DF
  90 009f A7F6E6ED 		.ascii	"\247\366\346\355\252\020\374\336X<\267\\y\013\014\214"
  90      AA10FCDE 
  90      583CB75C 
  90      790B0C8C 
  91 00af 8D0E664F 		.ascii	"\215\016fO\350X\324m)\205U\250\377`\301\333\267;\337"
  91      E858D46D 
  91      298555A8 
  91      FF60C1DB 
  91      B73BDF
  92 00c2 A3996951 		.ascii	"\243\231iQM\307\2155\344\261\000\361\256#\215\222\200"
  92      4DC78D35 
  92      E4B100F1 
  92      AE238D92 
  92      80
  93 00d3 275B9E98 		.ascii	"'[\236\230N&#:6\342:\230u\331\210\202\206J\260\031\361"
  93      4E26233A 
  93      36E23A98 
  93      75D98882 
  93      864AB019 
  94 00e8 4897833D 		.ascii	"H\227\203=I\311U%\020\376\350O\35470>\2428\344\230u"
  94      49C95525 
  94      10FEE84F 
  94      EC37303E 
  94      A238E498 
  95 00fd 7866E754 		.ascii	"xf\347T\266\224\271\370\347\345\203\343\267\355\275"
  95      B694B9F8 
  95      E7E583E3 
  95      B7EDBD
  96 010c 8A68278D 		.ascii	"\212h'\215z\343\007\327\351s\230\011\261\207f\301V7"
  96      7AE307D7 
  96      E9739809 
  96      B18766C1 
  96      5637
  97 011e C9E3067B 		.ascii	"\311\343\006{\304\026\346 n\021\326\215)K\244L\264\""
  97      C416E620 
  97      6E11D68D 
  97      294BA44C 
  97      B422
  98 0130 25F3B65F 		.ascii	"%\363\266_\362+\243\210\344x`7\236\301\274\012G\254"
  98      F22BA388 
ARM GAS  C:\Users\JEFFSN~1\AppData\Local\Temp\ccGYBxLy.s 			page 7


  98      E4786037 
  98      9EC1BC0A 
  98      47AC
  99 0142 33FEA10B 		.ascii	"3\376\241\013\3768\263\310)\201\260\235\"\334a\302{"
  99      FE38B3C8 
  99      2981B09D 
  99      22DC61C2 
  99      7B
 100 0153 C83F28FF 		.ascii	"\310?(\377\302\243\004\233\247(\005\225f\207\031\364"
 100      C2A3049B 
 100      A7280595 
 100      668719F4 
 101 0163 7599AD86 		.ascii	"u\231\255\2067\320\035\364\233M5\336@yqSYE\271\341-"
 101      37D01DF4 
 101      9B4D35DE 
 101      40797153 
 101      5945B9E1 
 102 0178 F3185EB3 		.ascii	"\363\030^\263\323(2\252=\265\205~\341\014\372\332\353"
 102      D32832AA 
 102      3DB5857E 
 102      E10CFADA 
 102      EB
 103 0189 4D7F5720 		.ascii	"M\177W X\347ki3\177\000T0\236\212"
 103      58E76B69 
 103      337F0054 
 103      309E8A
 104              		.text
 105              		.section	.gnu.lto_ADC_SAR_Seq_1_IRQ_SetPriority.c7d73030,"",%progbits
 106 0000 789C2550 		.ascii	"x\234%P=H\202Q\024}\347=5\303rp\315\241M$\220~\250\245"
 106      3D488251 
 106      147DE73D 
 106      35C37270 
 106      CDA14D24 
 107 0018 490CA2AD 		.ascii	"I\014\242\255t5>\302\276\301%Klh\362\351\347gKCK\006"
 107      74353EC2 
 107      BEC1254B 
 107      6C68F2E9 
 107      E7674B43 
 108 002e 8508A168 		.ascii	"\205\010\241h\277\322\320\220\223\031\2055\324\326\034"
 108      BFD2D090 
 108      93198535 
 108      D4D61C
 109 003d 0D0E4D06 		.ascii	"\015\016M\006I\020\225\335\247\027.\367\276{\3179\367"
 109      491095DD 
 109      A7172EF7 
 109      BE7BCF39 
 109      F7
 110 004e F02C0C4C 		.ascii	"\360,\014L\305,\225\031\252#\224\020\014|\367\211\261"
 110      C52C9519 
 110      AA239410 
 110      0C7CF789 
 110      B1
 111 005f 949D03AA 		.ascii	"\224\235\003\252\221v\260$G\022\035\376\313\321\330"
 111      9176B024 
 111      47121DFE 
 111      CBD1D8
 112 006e 6E5D736F 		.ascii	"n]soYR\274\336\035M\312J\035\246`\254\313{J\014ex\011"
ARM GAS  C:\Users\JEFFSN~1\AppData\Local\Temp\ccGYBxLy.s 			page 8


 112      5952BCDE 
 112      1D4DCA4A 
 112      1DA660AC 
 112      CB7B4A0C 
 113 0085 F5755FCD 		.ascii	"\365u_\315Z\205\017\214\372|\251X\034\364\224\244LK"
 113      5A850F8C 
 113      FA7CA958 
 113      1CF494A4 
 113      4C4B
 114 0097 79B52C85 		.ascii	"y\265,\205)\200\012\00410\345\306\270\233\321\200\341"
 114      29800A04 
 114      3130E5C6 
 114      B89BD180 
 114      E1
 115 00a8 181E057E 		.ascii	"\030\036\005~\273\374\333\033\266e\224\374h_\024'\260"
 115      BBFCDB1B 
 115      B66594FC 
 115      685F1427 
 115      B0
 116 00b9 299BD560 		.ascii	")\233\325`]v\273\206\254\357\273n\016\\V@Q8\221\011"
 116      5D76BB86 
 116      ACEFBB6E 
 116      0E5C5640 
 116      51389109 
 117 00cd D4A65456 		.ascii	"\324\246TV?8WU\264`\264\263\255f\016\212l\010n\010\220"
 117      3F385755 
 117      B460B4B3 
 117      AD660E8A 
 117      6C086E08 
 118 00e2 F643B1F6 		.ascii	"\366C\261\3663\364\311M!`\305)\334\254\205F\037B\313"
 118      33F4C94D 
 118      2160C529 
 118      DCAC8546 
 118      1F42CB
 119 00f5 9CD9781E 		.ascii	"\234\331x\036PKK\317\364\343\213\2549\373\317T\323\220"
 119      504B4BCF 
 119      F4E38BAC 
 119      39FBCF54 
 119      D390
 120 0107 4E1A7576 		.ascii	"N\032uv\276o\035\005\344S\231\224\224\016SXq\0167\316"
 120      BE6F1D05 
 120      E4539994 
 120      940E5358 
 120      710E37CE 
 121 011b 4887E102 		.ascii	"H\207\341\002\005\320\035\366\216t\3750\250${\277\321"
 121      05D01DF6 
 121      8E74FD30 
 121      A8247BBF 
 121      D1
 122 012c E6507EC8 		.ascii	"\346P~\310\335\330\274\276\246\307W\022\372\252\026"
 122      DDD8BCBE 
 122      A6C75712 
 122      FAAA16
 123 013b 8A6DC623 		.ascii	"\212m\306#zx1\024\013L\207\375s\001-\344\017j!}C\233"
 123      7A783114 
 123      0B4C87FD 
 123      73012DE4 
ARM GAS  C:\Users\JEFFSN~1\AppData\Local\Temp\ccGYBxLy.s 			page 9


 123      0F6A217D 
 124 0151 D016824B 		.ascii	"\320\026\202K\276\010\263\257\307\243\261x4\261\365"
 124      BE08B3AF 
 124      C7A3B178 
 124      34B1F5
 125 0160 0F63147D 		.ascii	"\017c\024}7"
 125      37
 126              		.text
 127              		.section	.gnu.lto_ADC_SAR_Seq_1_IRQ_GetPriority.c7d73030,"",%progbits
 128 0000 789C4D8F 		.ascii	"x\234M\217?HBQ\024\306\357w\357\253\244?\0165\346\340"
 128      3F484251 
 128      14C6EF77 
 128      EFABA43F 
 128      0E35E6E0 
 129 0014 E2208114 		.ascii	"\342 \201\024QC[\024D[\351\320\"<\302\336\340\222\365"
 129      51435B14 
 129      445BE9D0 
 129      223CC2DE 
 129      E092F5
 130 0027 A8A1A96B 		.ascii	"\250\241\251k\257\327\020\016R\224S4\024h\377\224V\247"
 130      AFD7100E 
 130      52945334 
 130      1468FF94 
 130      56A7
 131 0039 97415842 		.ascii	"\227AXBACs884\204\225\022De\347fC\007.\347\334\313\367"
 131      41437338 
 131      38348495 
 131      124465E7 
 131      6643072E 
 132 0051 7DF77734 		.ascii	"}\367w4\006\246j\206\3320\365^:\020\014<y\313X\334\305"
 132      06A66A86 
 132      DA30F55E 
 132      3A100C3C 
 132      79CB58DC 
 133 0066 01354817 		.ascii	"\0015H\027\330*\307*\352\374\213\243\364^L\264\373\323"
 133      D82AC72A 
 133      EAFC8BA3 
 133      F45E4CB4 
 133      FBD3
 134 0078 52AEC947 		.ascii	"R\256\311G;;\222\3128\260\005c\015\3160\350A\277GE\244"
 134      3B3B92CA 
 134      38B00563 
 134      0DCE30E8 
 134      41BF4745 
 135 008d E167247D 		.ascii	"\341g$}\277\312m\264\210\000\324\234y\333\2664\337\201"
 135      BFCA6DB4 
 135      8800D49C 
 135      79DBB634 
 135      DF81
 136 009f B239F5FB 		.ascii	"\2629\365\373\256\224t\342^\362!\003\361\337\312\224"
 136      AE9474E2 
 136      5EF22103 
 136      F1DFCA94 
 137 00af B67CFEBD 		.ascii	"\266|\376\275\323\325\272.\251\2748\202O\205S\3521Z"
 137      D3D5BA2E 
 137      A9BC3882 
 137      4F8553EA 
ARM GAS  C:\Users\JEFFSN~1\AppData\Local\Temp\ccGYBxLy.s 			page 10


 137      315A
 138 00c1 8913EA25 		.ascii	"\211\023\352%\027td\243aI\347\255\373\"\331\243qf\013"
 138      177464A3 
 138      6149E7AD 
 138      FB22D9A3 
 138      71660B
 139 00d4 C5ADB4AC 		.ascii	"\305\255\264\254Jb\205\375\302\271\352\242\202\302\307"
 139      4A6285FD 
 139      C2B9EAA2 
 139      82C2C7
 140 00e3 E673694A 		.ascii	"\346siJ\371-\241V\330\265\013wm5n\013\376\213v\363 "
 140      F92DA156 
 140      D8B50B77 
 140      6D356E0B 
 140      FE8B76F3 
 141 00f8 F3EEE635 		.ascii	"\363\356\3465^\264\244\233\236\352\211\217\313\216}"
 141      5EB4A49B 
 141      9EEA898F 
 141      CB8E7D
 142 0107 ECC5D769 		.ascii	"\354\305\327i9\201Sxp\002\342\303\031\366\301*\260^"
 142      39815378 
 142      7002E2C3 
 142      19F6C12A 
 142      B05E
 143 0119 376A6806 		.ascii	"7jh\006\212f\346\365a\376\263S\205hhA\226\264e\360_"
 143      8A66E6F5 
 143      61FEB353 
 143      85686841 
 143      96B465F0 
 144 012e 62622211 		.ascii	"bb\"\021{\302\232\323\330r\377y\324\242U\372\235\370"
 144      7BC29AD3 
 144      D872FF79 
 144      D4A255FA 
 144      9DF8
 145 0140 88B66FC2 		.ascii	"\210\266o\302\2307\314\331%cN\017\305\226\315\210\021"
 145      9837CCD9 
 145      25634E0F 
 145      C596CD88 
 145      11
 146 0151 9E0AC5C6 		.ascii	"\236\012\305\306\206\302\243\343czh4\250\207\214E}@"
 146      86C2A3E3 
 146      637A6834 
 146      A8878C45 
 146      7D40
 147 0163 9F0C4E07 		.ascii	"\237\014N\007\"\314\265`Fcfti\345\007\302\356\206\002"
 147      22CCB560 
 147      46636674 
 147      69E507C2 
 147      EE8602
 148              		.text
 149              		.section	.gnu.lto_ADC_SAR_Seq_1_IRQ_Enable.c7d73030,"",%progbits
 150 0000 789C6361 		.ascii	"x\234ca`d\000\201'@\254\013\304\322@\314\310\314\300"
 150      60640081 
 150      2740AC0B 
 150      C4D240CC 
 150      C8CCC0
 151 0013 C834E11C 		.ascii	"\3104\341\034\003C#\007\023##\210\321\300\301\310P\317"
ARM GAS  C:\Users\JEFFSN~1\AppData\Local\Temp\ccGYBxLy.s 			page 11


 151      03432307 
 151      13232388 
 151      D1C0C1C8 
 151      50CF
 152 0025 C458CFF8 		.ascii	"\304X\317\370\225\351/\023\343\241\366g;\2314\2277\000"
 152      95E92F13 
 152      E3A1F667 
 152      3B993497 
 152      3700
 153 0037 C183A7BB 		.ascii	"\301\203\247\273\214\032V\034`lef`\370\317\0046\211"
 153      8C1A561C 
 153      606C6566 
 153      60F8CF04 
 153      3689
 154 0049 817139A3 		.ascii	"\201q9\243&\003P\331\243\215\377\246\362\262\265\200"
 154      260350D9 
 154      A38DFFA6 
 154      F2B2B580 
 155 0059 94294024 		.ascii	"\224)@$\031W0\262\201\254[\037t\240\341\377\377\346"
 155      195730B2 
 155      81AC5B1F 
 155      74A0E1FF 
 155      FFE6
 156 006b 86033785 		.ascii	"\206\0037\205\017\336\023\006j\375\000\224\005\331\363"
 156      0FDE1306 
 156      6AFD0094 
 156      05D9F3
 157 007a 91890944 		.ascii	"\221\211\011D3?c<\364e\303\367#\234 \015@\223\246\265"
 157      333F633C 
 157      F465C3F7 
 157      239C200D 
 157      4093A6B5 
 158 008e 1E3ACFFE 		.ascii	"\036:\317\376\205\251\225\231\221\021d\360\226\205\357"
 158      85A99599 
 158      911164F0 
 158      9685EF
 159 009d 7EF040B8 		.ascii	"~\360@\270\015\207\232\033\370\200B\267_\177{\316:\237"
 159      0D879A1B 
 159      F88042B7 
 159      5F7F7BCE 
 159      3A9F
 160 00af 716E634B 		.ascii	"qncKcC\003w+3\023\343*F\031\306\225\2142@KW3\316g\004"
 160      63430377 
 160      2B3313E3 
 160      2A4619C6 
 160      958C3240 
 161 00c9 2AD933BF 		.ascii	"*\3313\277g%\027H\027\023#\023\343\032\240\314+\306"
 161      67251748 
 161      17132313 
 161      E31AA0CC 
 161      2BC6
 162 00db A603F783 		.ascii	"\246\003\367\203AV\200\235\375\201\211\021d7\320%\332"
 162      4156809D 
 162      FD818911 
 162      6437D025 
 162      DA
 163 00ec EEA979A9 		.ascii	"\356\251y\251E\211%\251)\361\301\371\245E\311\2511\001"
ARM GAS  C:\Users\JEFFSN~1\AppData\Local\Temp\ccGYBxLy.s 			page 12


 163      458925A9 
 163      29F1C1F9 
 163      A545C9A9 
 163      3101
 164 00fe C1F9CEA6 		.ascii	"\301\371\316\2461\216.\316\361\301\216A\361\301\251"
 164      318E2ECE 
 164      F1C18E41 
 164      F1C1A9
 165 010d 85F186F1 		.ascii	"\205\361\206\361\236A\201z\311\014\000\032\356d\213"
 165      9E41817A 
 165      C90C001A 
 165      EE648B
 166              		.text
 167              		.section	.gnu.lto_ADC_SAR_Seq_1_IRQ_GetState.c7d73030,"",%progbits
 168 0000 789C4D91 		.ascii	"x\234M\221M(DQ\030\206\277\367\234;h\362\263\263\272"
 168      4D284451 
 168      1886BFF7 
 168      9C3B68F2 
 168      B3B3BA
 169 0013 C956F217 		.ascii	"\311V\362\0276\262\021%;f\266\352&\356\302\206L\254"
 169      36B21125 
 169      3B66B6EA 
 169      26EEC286 
 169      4CAC
 170 0025 1DEE0C25 		.ascii	"\035\356\014%\013\033\254$+\377&\241(\2131\245\024\261"
 170      0B1BAC24 
 170      2BFF26A1 
 170      288B31A5 
 170      14B1
 171 0037 B1911216 		.ascii	"\261\221\022\026\243\220\220\3770\276\317\265p\352\236"
 171      A39090FF 
 171      30BECFB5 
 171      70EA9E
 172 0046 EF9E73DE 		.ascii	"\357\236s\336\3679\357\327\261\010$\243\223K\011\327"
 172      F739EFD7 
 172      B10824A3 
 172      934B09D7 
 173 0056 2AFE1020 		.ascii	"*\376\020 \250\261C\242\201,\245\254\355\0022A}\\F&"
 173      A8B143A2 
 173      812CA5AC 
 173      ED023241 
 173      7D5C4626 
 174 006a 5BC3F2B7 		.ascii	"[\303\362\267-@~L\026\250_i\013\375xV_\012\373\257{"
 174      2D407E4C 
 174      16A85F69 
 174      0BFD7856 
 174      5F0AFBAF 
 175 007f A3C1A259 		.ascii	"\243\301\242Yc\006\315y,U39\227@L\023\245\025\241\322"
 175      6306CD79 
 175      2C553339 
 175      97404C13 
 175      A515A1D2 
 176 0093 46B92DEC 		.ascii	"F\271-\354Y\024\021K/W\277\307s2\242\206G\241\010\370"
 176      5914114B 
 176      2F57BFC7 
 176      7332A286 
 176      47A108F8 
ARM GAS  C:\Users\JEFFSN~1\AppData\Local\Temp\ccGYBxLy.s 			page 13


 177 00a7 640E1992 		.ascii	"d\016\031\222%\036J\230t\3323\211\265\374\235\315\374"
 177      251E4A98 
 177      74DA3389 
 177      B5FC9DCD 
 177      FC
 178 00b8 0088119A 		.ascii	"\000\210\021\232'X2\021\335\263X.\177PJ\252N!\3711r"
 178      27583211 
 178      DDB3582E 
 178      7F504AAA 
 178      4E21F931 
 179 00cd 76522B7E 		.ascii	"vR+~OkfO\304\222G\231O*\246\025\344\252\365\231\273"
 179      4F6B664F 
 179      C4924799 
 179      4F2AA615 
 179      E4AAF599 
 180 00e2 B76C7F69 		.ascii	"\267l\177i\222\236\311\345\255\323\233\227\253\3004"
 180      929EC9E5 
 180      ADD39B97 
 180      ABC034
 181 00f1 A606A21C 		.ascii	"\246\006\242\034Pc\0016\346\301\361\260\210iP\012\336"
 181      50630136 
 181      E6C1F1B0 
 181      8869500A 
 181      DE
 182 0102 E7D06DC0 		.ascii	"\347\320m\300\007Z>s7\375\232\310\023\010\240\260\304"
 182      075A3E73 
 182      37FD9AC8 
 182      1308A0B0 
 182      C4
 183 0113 DA0B444F 		.ascii	"\332\013DO\275\310\237\206\005\361\333\255\367\034_"
 183      BDC89F86 
 183      05F1DBAD 
 183      F71C5F
 184 0122 40581618 		.ascii	"@X\026\030IVM\307e\372AY\277Q\257\331\373k\220>\037"
 184      49564DC7 
 184      65FA4159 
 184      BF51AFD9 
 184      FB6B903E 
 185 0137 01B66D0C 		.ascii	"\001\266m\014\037\254\006\305F\000V`+\372\337\000?\016"
 185      1FAC06C5 
 185      46005660 
 185      2BFADF00 
 185      3F0E
 186 0149 E2B0B590 		.ascii	"\342\260\265\220 \010\356\275\270\321\355r#m\275n\207"
 186      2008EEBD 
 186      B8D1ED72 
 186      236DBD6E 
 186      87
 187 015a 13EEEE8B 		.ascii	"\023\356\356\213\264\273\255\315\341\356\372\352\326"
 187      B4BBADCD 
 187      E1EEFAEA 
 187      D6
 188 0167 BA867A27 		.ascii	"\272\206z'\\\027r\302n\217S\3414\205ZJ\333\351\007\026"
 188      5C1772C2 
 188      6E8F53E1 
 188      34855A4A 
 188      DBE90716 
ARM GAS  C:\Users\JEFFSN~1\AppData\Local\Temp\ccGYBxLy.s 			page 14


 189 017b 768B63   		.ascii	"v\213c"
 190              		.text
 191              		.section	.gnu.lto_ADC_SAR_Seq_1_IRQ_Disable.c7d73030,"",%progbits
 192 0000 789C254E 		.ascii	"x\234%N\277K\002a\030~\237\367\312\254\250\261\206\034"
 192      BF4B0261 
 192      187E9FF7 
 192      CAACA8B1 
 192      861C
 193 0012 5A250A0A 		.ascii	"Z%\012\012\372\003\304 \332\352nh\021\216\260[\223\244"
 193      FA03C420 
 193      DAEA6E68 
 193      118EB05B 
 193      93A4
 194 0024 66BF4BAF 		.ascii	"f\277K\257\226\240Hr\213\233B\255\240\032\005\211\353"
 194      96A04872 
 194      8B9B42AD 
 194      A01A0589 
 194      EB
 195 0035 A2B5B6E6 		.ascii	"\242\265\266\346\010qh\311\300F\275\336O_x\370~<\277"
 195      087168C9 
 195      C046BDDE 
 195      4F5F78F8 
 195      7E3CBF
 196 0048 DE1102E9 		.ascii	"\336\021\002\351i\011\026\005s\002\030\004>\177#r\343"
 196      69091605 
 196      73021804 
 196      3E7F2372 
 196      E3
 197 0059 0CE88B8A 		.ascii	"\014\350\213\212\203\012\214\002\376\270\307\010O\332"
 197      830A8C02 
 197      FEB8C708 
 197      4FDA
 198 0067 0D4E5695 		.ascii	"\015NV\225\314\347\365\317\212\252\005\360\014\242\210"
 198      CCE7F5CF 
 198      8AAA05F0 
 198      0CA288
 199 0076 0749842A 		.ascii	"\007I\204*\222$\262\257\307\376\345T\254\244e\363C\022"
 199      9224B2AF 
 199      C7FEE554 
 199      ACA465F3 
 199      4312
 200 0088 35C474DD 		.ascii	"5\304t\335\275\031\250(*\252\2407\363|1+\326\216\260"
 200      BD19A828 
 200      2AAAA037 
 200      F37C312B 
 200      D68EB0
 201 009b BAE79759 		.ascii	"\272\347\227Y\237F\033a\367\241\365:\256\015\222T\361"
 201      9F461B61 
 201      F7A1F53A 
 201      AE0D9254 
 201      F1
 202 00ac C2F7B12E 		.ascii	"\302\367\261.{\006\240\203\217\233Og<|\252\227\242\232"
 202      7B06A083 
 202      8F9B4F67 
 202      3C7CAA97 
 202      A29A
 203 00be 96AF46F9 		.ascii	"\226\257F\371\243?\352\343\312-\271JMz\006\343\006\011"
ARM GAS  C:\Users\JEFFSN~1\AppData\Local\Temp\ccGYBxLy.s 			page 15


 203      A33FEAE3 
 203      CA2DB94A 
 203      4D7A06E3 
 203      0609
 204 00d0 D49190D2 		.ascii	"\324\221\220\322[\370\020I\323?\255Oh\027\203q'\314"
 204      5BF81049 
 204      D33FAD4F 
 204      68178371 
 204      27CC
 205 00e2 378E82F2 		.ascii	"7\216\202\362\266\256\030\254\335a\350n\331da\335\331"
 205      B6AE18AC 
 205      DD61E86E 
 205      D96461DD 
 205      D9
 206 00f3 73F23B07 		.ascii	"s\362;\007\316\256m\345\016\363Y'\263i\345\322\253\231"
 206      CEAE6DE5 
 206      0EF35927 
 206      B369E5D2 
 206      AB99
 207 0105 D45ADAB6 		.ascii	"\324Z\332\266R\246m9\373\366\262\275an-e\351\037:\232"
 207      52A66D39 
 207      FBF6B2BD 
 207      616E2D65 
 207      E91F3A9A 
 208 0119 62CD     		.ascii	"b\315"
 209              		.text
 210              		.section	.gnu.lto_ADC_SAR_Seq_1_IRQ_Start.c7d73030,"",%progbits
 211 0000 789C758F 		.ascii	"x\234u\217?K\003A\020\305\347\315&\227+\024\354\265"
 211      3F4B0341 
 211      10C5E7CD 
 211      26972B14 
 211      ECB5
 212 0012 B00DA260 		.ascii	"\260\015\242`\341\007\010\021\305Ns\225\0208$^k0h}\253"
 212      E1070811 
 212      C54E7395 
 212      1038245E 
 212      6B30687D 
 213 0027 C9A25869 		.ascii	"\311\242Xi\241\225`%\211\377Q\260HwXX\372\005l\304B"
 213      A1956025 
 213      89FF51B0 
 213      48775858 
 213      FA056CC4 
 214 003c A2584488 		.ascii	"\242XD\210X\305s\366baa\006\226Y\230\367~\363&E [\213"
 214      58C573F6 
 214      62616106 
 214      965998F7 
 214      7EF32645 
 215 0053 D2C6A50F 		.ascii	"\322\306\245\017\313\203\"\360\356\003\321\206\313\200"
 215      CB8322F0 
 215      EE03D186 
 215      CB80
 216 0061 FD681714 		.ascii	"\375h\027\0242B|r\227q\267\365\322\344l]K=\035\037)"
 216      32427C72 
 216      9771B7F5 
 216      D2E46C5D 
 216      4B3D1D1F 
 217 0076 DD886014 		.ascii	"\335\210`\024Q\314\011\211PG\226D\366|\375\275?\350"
ARM GAS  C:\Users\JEFFSN~1\AppData\Local\Temp\ccGYBxLy.s 			page 16


 217      51CC0989 
 217      50479644 
 217      F67CFDBD 
 217      3FE8
 218 0088 D4AC6CB4 		.ascii	"\324\254l\2647D\003\216]wU\210t\034Wu\324M\277\0168"
 218      3744038E 
 218      5D775588 
 218      741C5775 
 218      D44DBF0E 
 219 009d 446D19DA 		.ascii	"Dm\031\3325\037\314\266\253\026\252\321\336=[\271\005"
 219      351FCCB6 
 219      AB16AAD1 
 219      DE3D5BB9 
 219      05
 220 00ae 359BEF8F 		.ascii	"5\233\357\217\231\260\253\267\265\0362\0121\013\003"
 220      99B0ABB7 
 220      B51E320A 
 220      310B03
 221 00bd 2708C928 		.ascii	"'\010\311(\246\026j\321\201\363\277T\305\002$\234\212"
 221      A6166AD1 
 221      81F3BF54 
 221      C502249C 
 221      8A
 222 00ce F4CFCC4D 		.ascii	"\364\317\314M\030*\261\340\014\241Q\251\204r\330\207"
 222      182AB1E0 
 222      0CA151A9 
 222      8472D887 
 223 00de 928E3925 		.ascii	"\222\2169%\224\363\036\245\263c\276T\207\215r\220\301"
 223      94F31EA5 
 223      B363BE54 
 223      878D7290 
 223      C1
 224 00ef 05468CCA 		.ascii	"\005F\214\312\220\315{\323\307-\253\322\342\276\374"
 224      90CD7BD3 
 224      C72DABD2 
 224      E2BEFC
 225 00fe 8DFB86CD 		.ascii	"\215\373\206\315\350v&\221\332j\313-r\261\244\034\233"
 225      E8762691 
 225      DA6ACB2D 
 225      72B1A41C 
 225      9B
 226 010f 0D5682CA 		.ascii	"\015V\202\312\322Z\260\354{\345\365J)(\316{\345\374"
 226      D25AB0EC 
 226      7BE5F54A 
 226      2928CE7B 
 226      E5FC
 227 0121 5431379D 		.ascii	"T17\235\367\275\\\301\367\202U\177\322\237+,L\224\350"
 227      F7BD5CC1 
 227      F782557F 
 227      D29F2B2C 
 227      4C94E8
 228 0134 07B9C188 		.ascii	"\007\271\301\210\367"
 228      F7
 229              		.text
 230              		.section	.gnu.lto_ADC_SAR_Seq_1_IRQ_StartEx.c7d73030,"",%progbits
 231 0000 789C7590 		.ascii	"x\234u\220\275K\003A\020\305\347\355\306\334EP\354M"
 231      BD4B0341 
ARM GAS  C:\Users\JEFFSN~1\AppData\Local\Temp\ccGYBxLy.s 			page 17


 231      10C5E7ED 
 231      C6DC4550 
 231      EC4D
 232 0012 61272204 		.ascii	"a'\"\004-\362\007\204\010b\247I\0338\304\\\253\230h"
 232      2DF20784 
 232      0862A749 
 232      1B38C45C 
 232      AB9868
 233 0025 9DD5E450 		.ascii	"\235\325\344P\254ll\304\302F\214\306\257`!A\213\323"
 233      AC6C6CC4 
 233      C2468CC6 
 233      AF602141 
 233      8BD3
 234 0037 422B037E 		.ascii	"B+\003~\024b\032Q\220 \242\006\242V\361\234\215\226"
 234      14621A51 
 234      9020A206 
 234      A256F19C 
 234      8D96
 235 0049 3AB0CCCE 		.ascii	":\260\314\316\335o\336\274Y\037\201t\254r\012s\356\344"
 235      DD6FDEBC 
 235      591F8174 
 235      AC720A73 
 235      EEE4
 236 005b 0349108B 		.ascii	"\003I\020\213e\242\031S\000\372\242LPF \203w\321\020"
 236      65A21953 
 236      00FAA24C 
 236      50462083 
 236      77D110
 237 006e 38997B2C 		.ascii	"8\231{,\211\236u\305q\347|\364\251\274\013G\022y\242"
 237      899E75C5 
 237      71E77CF4 
 237      A9BC0B47 
 237      1279A2
 238 0081 A9445847 		.ascii	"\251DXG\017S\027\271\275\025Y\027\216\004|\\\326\316"
 238      0F5317B9 
 238      BD155917 
 238      8E047C5C 
 238      D6CE
 239 0093 971FDA75 		.ascii	"\227\037\332u)\320\305\345u\361\265,d\010\304\367\302"
 239      29D0C5E5 
 239      75F1B52C 
 239      6408C4F7 
 239      C2
 240 00a4 CBE995D9 		.ascii	"\313\351\225\331\275\246\324\254R\207\266\0128Rb\023"
 240      BDA6D4AC 
 240      5287B60A 
 240      38526213 
 241 00b4 92F5B081 		.ascii	"\222\365\260\201 \362\010\022\177\"\024\320\255\361"
 241      20F20812 
 241      7F2214D0 
 241      ADF1
 242 00c2 FBE2D752 		.ascii	"\373\342\327R\233?\247\307w\375\014\305\026\374z\215"
 242      9B3FA7C7 
 242      77FD0CC5 
 242      16FC7A8D 
 243 00d2 DD98AB3C 		.ascii	"\335\230\253</\253\334}\343\370\3260x\262n\2417f\364"
 243      2FABDC7D 
ARM GAS  C:\Users\JEFFSN~1\AppData\Local\Temp\ccGYBxLy.s 			page 18


 243      E3F8D630 
 243      78B26EA1 
 243      3766F4
 244 00e5 16352174 		.ascii	"\0265!t\226Ud\335\2033\241\273\264^\251\364\\12\015"
 244      965564DD 
 244      8333A1BB 
 244      B45EA9F4 
 244      5C31320D 
 245 00f9 35AF5487 		.ascii	"5\257T\207#}\236`)l#\303C[\250\212\234{d\374\215\372"
 245      237D9E60 
 245      296C23C3 
 245      435BA88A 
 245      9C7B64FC 
 246 010f 3D1624EC 		.ascii	"=\026$\3540\232\225\322\221F\223\276\374\2076=\301\217"
 246      309A95D2 
 246      914693BE 
 246      FC87363D 
 246      C18F
 247 0121 845DA6F9 		.ascii	"\204]\246\371_}\301\371l\276N\000\006\366\020td+i_7"
 247      5F7DC1F9 
 247      6CBE4E00 
 247      06F61074 
 247      642B695F 
 248 0136 FF74B32D 		.ascii	"\377t\263-\037w\027\177m=a\326\255\0146Q\035o\354\231"
 248      1F77177F 
 248      6D3D61D6 
 248      AD0C3651 
 248      1D6FEC99 
 249 014a 376337BD 		.ascii	"7c7\275\203\366\270\235\032\235\262\223V|b:5f'\206\343"
 249      83F6B89D 
 249      1A9DB293 
 249      567C623A 
 249      35662786 
 250 015f 13D17022 		.ascii	"\023\321p\"2\020\265\342\221\230\025\267'\255~k(6\022"
 250      3210B5E2 
 250      919815B7 
 250      27AD7E6B 
 250      283612
 251 0172 1A236334 		.ascii	"\032#c4\231L\331\351\3647\011N\243\246"
 251      994CD9E9 
 251      F437094E 
 251      A3A6
 252              		.text
 253              		.section	.gnu.lto_ADC_SAR_Seq_1_IRQ_Stop.c7d73030,"",%progbits
 254 0000 789C6361 		.ascii	"x\234ca`d\000\201\217@\254\013\304\322@\314\310\314"
 254      60640081 
 254      8F40AC0B 
 254      C4D240CC 
 254      C8CC
 255 0012 C0C834E1 		.ascii	"\300\3104\341\034\003C#\007\023##\210\321\300\301\310"
 255      1C034323 
 255      07132323 
 255      88D1C0C1 
 255      C8
 256 0023 50CFC458 		.ascii	"P\317\304X\317\370\225\351/\023\343\241\366g;\2314\227"
 256      CFF895E9 
 256      2F13E3A1 
ARM GAS  C:\Users\JEFFSN~1\AppData\Local\Temp\ccGYBxLy.s 			page 19


 256      F6673B99 
 256      3497
 257 0035 3700C183 		.ascii	"7\000\301\203\243\213\015\033V\034`lef`\370\317\004"
 257      A38B0D1B 
 257      561C606C 
 257      656660F8 
 257      CF04
 258 0047 36898171 		.ascii	"6\211\201q9\243&\003P\331\243\215\377\246\362\262\265"
 258      39A32603 
 258      50D9A38D 
 258      FFA6F2B2 
 258      B5
 259 0058 80942940 		.ascii	"\200\224)@$\031W0\262\201\254[\037t\240\341\377\377"
 259      24195730 
 259      B281AC5B 
 259      1F74A0E1 
 259      FFFF
 260 006a E68603F3 		.ascii	"\346\206\003\363\271\016\356\342ba`\370\000\224\005"
 260      B90EEEE2 
 260      626160F8 
 260      009405
 261 0079 D9F39189 		.ascii	"\331\363\221\211\011D3\277`l>\260\371\024\023H=\310"
 261      094433BF 
 261      606C3EB0 
 261      F9141348 
 261      3DC8
 262 008b A49D3BDF 		.ascii	"\244\235;\337\334f\257\377\333\320\321\320 \320\312"
 262      DC66AFFF 
 262      DBD0D1D0 
 262      20D0CA
 263 009a CCF89F09 		.ascii	"\314\370\237\011h\010\343J\306z\206Vf&\206\027\214-"
 263      6808E34A 
 263      C67A8656 
 263      66268617 
 263      8C2D
 264 00ac 07767061 		.ascii	"\007vpaW\312\374\037h \003\343*\240R$9\016\260\031\314"
 264      57CAFC1F 
 264      682003E3 
 264      2AA05224 
 264      390EB019 
 265 00c1 602D8CAB 		.ascii	"`-\214\253\031\353[\231Y\030^16\035\330\355\005\026"
 265      19EB5B99 
 265      59185E31 
 265      361DD8ED 
 265      0516
 266 00d3 02810F40 		.ascii	"\002\201\017@+\200\016\001j\326vO\315K-J,IM\211\017"
 266      2B800E01 
 266      6AD6764F 
 266      CD4B2D4A 
 266      2C494D89 
 267 00e8 CE2F2D4A 		.ascii	"\316/-JN\215\011\010\316w6\215qtq\216\017v\014\212\017"
 267      4E8D0908 
 267      CE77368D 
 267      7174718E 
 267      0F760C8A 
 268 00fd 4E2D8C37 		.ascii	"N-\2147\214\367\014\012\324Kf\000\000\324\370f\306"
 268      8CF70C0A 
ARM GAS  C:\Users\JEFFSN~1\AppData\Local\Temp\ccGYBxLy.s 			page 20


 268      D44B6600 
 268      00D4F866 
 268      C6
 269              		.text
 270              		.section	.gnu.lto_ADC_SAR_Seq_1_IRQ_SetPending.c7d73030,"",%progbits
 271 0000 789C6361 		.ascii	"x\234ca`d\000\201'@\254\013\304\322@\314\310\314\300"
 271      60640081 
 271      2740AC0B 
 271      C4D240CC 
 271      C8CCC0
 272 0013 C834E11C 		.ascii	"\3104\341\034\003C#\007\023##\210\321\300\301\310P\317"
 272      03432307 
 272      13232388 
 272      D1C0C1C8 
 272      50CF
 273 0025 C458CFF8 		.ascii	"\304X\317\370\225\351/\023\343\241\366g;\2314\2277\000"
 273      95E92F13 
 273      E3A1F667 
 273      3B993497 
 273      3700
 274 0037 C183D67F 		.ascii	"\301\203\326\177F\015+\0160\266230\374g\002\233\304"
 274      460D2B0E 
 274      30B63233 
 274      30FC6702 
 274      9BC4
 275 0049 C0B89C51 		.ascii	"\300\270\234Q\223\001\250\354\321\306\177Sy\331Z@\312"
 275      9301A8EC 
 275      D1C67F53 
 275      79D95A40 
 275      CA
 276 005a 1420928C 		.ascii	"\024 \222\214+\030\331@\326\255\017:\320\360\377\177"
 276      2B18D940 
 276      D6AD0F3A 
 276      D0F0FF7F 
 277 006a 73C381CF 		.ascii	"s\303\201\317\342\007\277\211\003\265~\000\312\202\354"
 277      E207BF89 
 277      03B57E00 
 277      CA82EC
 278 0079 F9C8C404 		.ascii	"\371\310\304\004\242\231\2371\036\372\262\341\357QN"
 278      A2999F31 
 278      1EFAB2E1 
 278      EF514E
 279 0088 9006A049 		.ascii	"\220\006\240I\323Z\017\235g\377\302\324\312\314\310"
 279      D35A0F9D 
 279      67FFC2D4 
 279      CACCC8
 280 0097 083278C6 		.ascii	"\0102x\306\201\3169L\020n\303\221\346\006>\240\320\273"
 280      81CE394C 
 280      106EC391 
 280      E6063EA0 
 280      D0BB
 281 00a9 9D9F97F1 		.ascii	"\235\237\227\361\317g\234\333\330\322\330\320\300\335"
 281      CF679CDB 
 281      D8D2D8D0 
 281      C0DD
 282 00b7 CACCC4B8 		.ascii	"\312\314\304\270\212Q\206q%\243\014\320\322\325\214"
 282      8A518671 
ARM GAS  C:\Users\JEFFSN~1\AppData\Local\Temp\ccGYBxLy.s 			page 21


 282      25A30CD0 
 282      D2D58C
 283 00c6 F319814A 		.ascii	"\363\031\201J\366\314\357Y\311\005\322\305\304\310\304"
 283      F6CCEF59 
 283      C905D2C5 
 283      C4C8C4
 284 00d5 B80628F3 		.ascii	"\270\006(\363\212\261\351\300\367p\220\025`g\177`b\004"
 284      8AB1E9C0 
 284      F7709015 
 284      60677F60 
 284      6204
 285 00e7 D90D7489 		.ascii	"\331\015t\211\266{j^jQbIjJ|p~iQrjL@p\276\263i\214\243"
 285      B67B6A5E 
 285      6A516249 
 285      6A4A7C70 
 285      7E695172 
 286 0104 8B737CB0 		.ascii	"\213s|\260cP|pja\274a\274gP\240^2\003\000\242\026c\255"
 286      63507C70 
 286      6A61BC61 
 286      BC6750A0 
 286      5E320300 
 287              		.text
 288              		.section	.gnu.lto_ADC_SAR_Seq_1_IRQ_ClearPending.c7d73030,"",%progbits
 289 0000 789C6361 		.ascii	"x\234ca`d\000\201'@\254\013\304\322@\314\310\314\300"
 289      60640081 
 289      2740AC0B 
 289      C4D240CC 
 289      C8CCC0
 290 0013 C834E11C 		.ascii	"\3104\341\034\003C#\007\023##\210\321\300\301\310P\317"
 290      03432307 
 290      13232388 
 290      D1C0C1C8 
 290      50CF
 291 0025 C458CFF8 		.ascii	"\304X\317\370\225\351/\023\343\241\366g;\2314\2277\000"
 291      95E92F13 
 291      E3A1F667 
 291      3B993497 
 291      3700
 292 0037 C183A5AB 		.ascii	"\301\203\245\253\214\033V\034`lef`\370\317\0046\211"
 292      8C1B561C 
 292      606C6566 
 292      60F8CF04 
 292      3689
 293 0049 817139A3 		.ascii	"\201q9\243&\003P\331\243\215\377\246\362\262\265\200"
 293      260350D9 
 293      A38DFFA6 
 293      F2B2B580 
 294 0059 94294024 		.ascii	"\224)@$\031W0\262\201\254[\037t\240\341\377\377\346"
 294      195730B2 
 294      81AC5B1F 
 294      74A0E1FF 
 294      FFE6
 295 006b 860357A5 		.ascii	"\206\003W\245\016\336\220\002j\375\000\224\005\331\363"
 295      0EDE9002 
 295      6AFD0094 
 295      05D9F3
 296 007a 91890944 		.ascii	"\221\211\011D3?c<\364\345\303\325c\234 \015@\223\246"
ARM GAS  C:\Users\JEFFSN~1\AppData\Local\Temp\ccGYBxLy.s 			page 22


 296      333F633C 
 296      F4E5C3D5 
 296      639C200D 
 296      4093A6
 297 008d B51E3ACF 		.ascii	"\265\036:\317\376\205\251\225\231\221\021d\360\256_"
 297      FE85A995 
 297      99911164 
 297      F0AE5F
 298 009c BDCDCC10 		.ascii	"\275\315\314\020n\303\321\346\006>\240\320\226\203\267"
 298      6EC3D1E6 
 298      063EA0D0 
 298      9683B7
 299 00ab FB99E733 		.ascii	"\373\231\3473\316mlilh\340nefb\\\305(\303\270\222Q\006"
 299      CE6D6C69 
 299      6C68E06E 
 299      6566625C 
 299      C528C3B8 
 300 00c2 68E96AC6 		.ascii	"h\351j\306\371\214@%{\346\367\254\344\002\351bbdb\\"
 300      F98C4025 
 300      7BE6F7AC 
 300      E402E962 
 300      6264625C 
 301 00d6 039479C5 		.ascii	"\003\224y\305\330t\340f\024\310\012\260\263?01\202\354"
 301      D874E066 
 301      14C80AB0 
 301      B33F3031 
 301      82EC
 302 00e8 06BA44DB 		.ascii	"\006\272D\333=5/\265(\261$5%>8\277\264(95& 8\337\331"
 302      3D352FB5 
 302      28B12435 
 302      253E38BF 
 302      B4283935 
 303 0101 34C6D1C5 		.ascii	"4\306\321\3059>\3301(>8\2650\3360\3363(P/\231\001\000"
 303      393ED831 
 303      283E38B5 
 303      30DE30DE 
 303      3328502F 
 304 0118 4542631E 		.ascii	"EBc\036"
 305              		.text
 306              		.section	.gnu.lto_.symbol_nodes.c7d73030,"",%progbits
 307 0000 789C55CB 		.ascii	"x\234U\313\333\015\3020\020D\321Y?b\257\223\364@*\241"
 307      DB0DC230 
 307      1044D159 
 307      3F62AF93 
 307      F4402AA1 
 308 0014 B489A820 		.ascii	"\264\211\250 %D|R\006\005P\003P\010\3021\026\322~\215"
 308      25447C52 
 308      06055003 
 308      5008C231 
 308      16D27E8D 
 309 0028 74EE6E80 		.ascii	"t\356n\200\340,\000\234'\260=\200:\267}\251\020(\177"
 309      E02C009C 
 309      27B03D80 
 309      3AB77DA9 
 309      10287F
 310 003b 580F8874 		.ascii	"X\017\210t\026\006z\013\211\301Bf\264\240\034,\024&"
 310      16067A0B 
ARM GAS  C:\Users\JEFFSN~1\AppData\Local\Temp\ccGYBxLy.s 			page 23


 310      89C14266 
 310      B4A01C2C 
 310      1426
 311 004d 0B60B620 		.ascii	"\013`\266 T\013\216\305\200\314\034\033\000\353~\252"
 311      540B8EC5 
 311      80CC1C1B 
 311      00EB7EAA 
 312 005d 072327FB 		.ascii	"\007#'\3731q6\340s\302\365\371\021\237\005\367\266\036"
 312      317136E0 
 312      73C2F5F9 
 312      119F05F7 
 312      B61E
 313 006f EFB61197 		.ascii	"\357\266\021\227W]\355]{\327\336\265\367\322{\371u|"
 313      575DED5D 
 313      7BD7DEB5 
 313      F7D27BF9 
 313      757C
 314 0081 01CE034E 		.ascii	"\001\316\003N\031"
 314      19
 315              		.text
 316              		.section	.gnu.lto_.refs.c7d73030,"",%progbits
 317 0000 789C6361 		.ascii	"x\234ca`d\340f```\344`b`b\344b\342fb\000\000\001\365"
 317      6064E066 
 317      606060E4 
 317      60626062 
 317      E462E266 
 318 0019 0038     		.ascii	"\0008"
 319              		.text
 320              		.section	.gnu.lto_.decls.c7d73030,"",%progbits
 321 0000 789C8D55 		.ascii	"x\234\215UkL\024W\024\236\263\263\273\300\262BJ\214"
 321      6B4C1457 
 321      149EB3B3 
 321      BBC0B242 
 321      4A8C
 322 0012 A5EDB6A1 		.ascii	"\245\355\266\241\246\011$M\260j\232\372\253\251A\213"
 322      A609244D 
 322      B06A9AFA 
 322      ABA9418B 
 323 0022 FE69AD44 		.ascii	"\376i\255D\177\231\020\204\321\222\022\260\313\222\224"
 323      7F991084 
 323      D19212B0 
 323      CB9294
 324 0031 7F83F842 		.ascii	"\177\203\370Bm\204Z\240 Ql\343\003AX\312S\332\342.\357"
 324      6D845AA0 
 324      20516CE3 
 324      034158CA 
 324      53DAE22E 
 325 0046 87286F10 		.ascii	"\207(o\020\344%\017\301b\013J\255\210J\317\275s\207"
 325      E4250FC1 
 325      620B4AAD 
 325      884ACFBD 
 325      7387
 326 0058 992D837A 		.ascii	"\231-\203z\223\2633\367\316w\276\357\334\357>V\317\001"
 326      93B333F7 
 326      CE77BEEF 
 326      DCEF3E56 
 326      CF01
ARM GAS  C:\Users\JEFFSN~1\AppData\Local\Temp\ccGYBxLy.s 			page 24


 327 006a 475A8307 		.ascii	"GZ\203\007\307=\304\327=<\307-b\363\302\261\335\234"
 327      C73DC4D7 
 327      3D3CC72D 
 327      62F3C2B1 
 327      DD9C
 328 007c D248FF2A 		.ascii	"\322H\377*F\011F9\206\023\243\006\243\216\344b4a\334"
 328      46094639 
 328      8613A306 
 328      A38EE462 
 328      3461DC
 329 008f C0B889D1 		.ascii	"\300\270\211\321\212\321\216\321\211\321\315-o\204\007"
 329      8AD18ED1 
 329      89D1CD2D 
 329      6F8407
 330 009e 54FCC0C6 		.ascii	"T\374\300\306\376\337\210\226\221\341|0Vc\024b\364`"
 330      FEDF8896 
 330      91E17C30 
 330      56631462 
 330      F460
 331 00b0 F4AA724B 		.ascii	"\364\252rK4rI\215\206W\344\225k\3449U\232\225\030\026"
 331      3472498D 
 331      8657E495 
 331      6BE43955 
 331      9A951816 
 332 00c4 8C2F3106 		.ascii	"\214/1\0060\372U\271N\215\334\032\246)\347\3119;Ty5"
 332      30FA55B9 
 332      4E8DDC1A 
 332      A629E7C9 
 332      393B5479 
 333 00d9 1A79C443 		.ascii	"\032y\304C\236i\336\303\230P\341\3534\360\304o=\323"
 333      9E69DEC3 
 333      9850E1EB 
 333      34F0C46F 
 333      3DD3
 334 00eb F1D7C869 		.ascii	"\361\327\310i\320\310iz\211F\223\006\236\254\245;\303"
 334      D0C8697A 
 334      89469306 
 334      9EACA53B 
 334      C3
 335 00fc 1760E461 		.ascii	"\027`\344aLb\024cL\261\3719\030\326\310\360\204\207"
 335      4C621463 
 335      4CB1F939 
 335      18D6C8F0 
 335      8487
 336 010e AC05594B 		.ascii	"\254\005YK\347\012\265\223\375\341\311-_\323Wi\030X"
 336      E70AB593 
 336      FDE1C92D 
 336      5FD35769 
 336      1858
 337 0120 AEACB112 		.ascii	"\256\254\261\022\177+\303j\325M\232\236ad\236v\015\016"
 337      7F2BC36A 
 337      D54D9A9E 
 337      61649E76 
 337      0D0E
 338 0132 B26F57F2 		.ascii	"\262oW\362\252S\003\337\375\022\274\326\376\177\256"
 338      AA5303DF 
 338      FD12BCD6 
ARM GAS  C:\Users\JEFFSN~1\AppData\Local\Temp\ccGYBxLy.s 			page 25


 338      FE7FAE
 339 0141 832CE7D9 		.ascii	"\203,\347\331jC?\334\006\340\2006\216\235C\216\214\260"
 339      6A433FDC 
 339      06E08036 
 339      8E9D438E 
 339      8CB0
 340 0153 277901A9 		.ascii	"'y\001\251\243\223\371@\006\311\022\024\016\234\216"
 340      A393F940 
 340      06C91214 
 340      0E9C8E
 341 0162 E297C665 		.ascii	"\342\227\306e\334\222\346\242\334\224!Xj2\022\\I\011"
 341      DC92E6A2 
 341      DC942158 
 341      6A32125C 
 341      4909
 342 0174 ABD2C5BE 		.ascii	"\253\322\305\276NIP\361\261\352\231>\250e)5/O\372\372"
 342      4E4950F1 
 342      B1EA993E 
 342      A8652935 
 342      2F4FFAFA 
 343 0188 5CE98237 		.ascii	"\\\351\2027\217\234\370>4\177\371\363\300<\021[\262"
 343      8F9CF83E 
 343      347FF9F3 
 343      C03C115B 
 343      B2
 344 0199 28EA3E55 		.ascii	"(\352>U\234i;d\317\342\347t\340c\002=vg[2G\275\260\273"
 344      9C693B64 
 344      CFE2E774 
 344      E063023D 
 344      76675B32 
 345 01b1 DA047ED8 		.ascii	"\332\004~\330}\336x&S\347\233F\363\022E?=\354^\003\271"
 345      7DDE7826 
 345      53E79B46 
 345      F312453F 
 345      3DEC5E03 
 346 01c6 60812B80 		.ascii	"`\201+\200\233\005\362\300\027\177\367\352%\246\241"
 346      9B05F2C0 
 346      177FF7EA 
 346      25A6A1
 347 01d5 929E0E8F 		.ascii	"\222\236\016\217\265\331\342\214]\034>w~MJ\242\330\200"
 347      B5D9E28C 
 347      5D1C3E77 
 347      7E4D4AA2 
 347      D880
 348 01e7 697E0405 		.ascii	"i~\004\005\227\201\207\034\010$%\342+y\\\202~,\376*"
 348      9781871C 
 348      082425E2 
 348      2B795C82 
 348      7E2CFE2A 
 349 01fb ACC5CC8E 		.ascii	"\254\305\314\216\271\177\332\334\370\020Zh\346\355\254"
 349      B97FDADC 
 349      F8105A68 
 349      E6EDAC
 350 020a 6677F371 		.ascii	"fw\363qQ<H\024}\266\321tE\262\000\314\214\010\261\017"
 350      513C4814 
 350      7DB6D174 
 350      45B200CC 
ARM GAS  C:\Users\JEFFSN~1\AppData\Local\Temp\ccGYBxLy.s 			page 26


 350      8C08B10F 
 351 021e C60F1779 		.ascii	"\306\017\027y\3621$O775\361\275\036\314\001+d\302\257"
 351      F231244F 
 351      373735F1 
 351      BD1ECC01 
 351      2B64C2AF 
 352 0232 10A04ABE 		.ascii	"\020\240J\276Hf4<_\277/\263\217\224X\210\037\354J\211"
 352      4866343C 
 352      5FBF2FB3 
 352      8F945888 
 352      1FEC4A89 
 353 0246 8893048E 		.ascii	"\210\223\004\216\327fW\230\364\270\031(\002'\212c\317"
 353      D7665798 
 353      F4B81928 
 353      02278A63 
 353      CF
 354 0257 524BBF59 		.ascii	"RK\277Y\321\221b\352H\0210KNf\337\271`FK\206\211%#\226"
 354      D19162EA 
 354      4811304B 
 354      4E66DFB9 
 354      60464B86 
 355 026f 34D91284 		.ascii	"4\331\022\204A\276\242\227\257\266\244\204ZR\373T\314"
 355      41BEA297 
 355      AFB6A484 
 355      5A52FB54 
 355      CC
 356 0280 00FE2C50 		.ascii	"\000\376,PO\216\217T]\342\325\232\244\032E\264\314e"
 356      4F8E8F54 
 356      5DE2D59A 
 356      A41A45B4 
 356      CC65
 357 0292 192A47AF 		.ascii	"\031*G\257\257C\311l\273\350H9\345\235!:\016a\232\017"
 357      AF43C96C 
 357      BBE84839 
 357      E59D213A 
 357      0E619A0F 
 358 02a6 0141A922 		.ascii	"\001A\251\"Y\252\226,\247\222\316\3723\235\236|\205"
 358      59AA962C 
 358      A792CEFA 
 358      339D9E7C 
 358      85
 359 02b7 24597078 		.ascii	"$Ypx,\307\035\367\201\305\004\213@\372\323\327\346W"
 359      2CC71DF7 
 359      81C5048B 
 359      40FAD3D7 
 359      E657
 360 02c9 497DF239 		.ascii	"I}\3629#e\364\205'\337K\261\272\216\321\334)=\004\230"
 360      2365F485 
 360      27DF4BB1 
 360      BA8ED1DC 
 360      293D0498 
 361 02dd 6453A3D2 		.ascii	"dS\243\322\217\342\036\203J0\301\357\212\242\305\204"
 361      8FE21E83 
 361      4A30C1EF 
 361      8AA2C584 
 362 02ed BFC7C8EA 		.ascii	"\277\307\310\352\314\374,\032}9\330h\201\217pa\376\300"
 362      CCFC2C1A 
ARM GAS  C:\Users\JEFFSN~1\AppData\Local\Temp\ccGYBxLy.s 			page 27


 362      7D39D868 
 362      818F7061 
 362      FEC0
 363 02ff 85415682 		.ascii	"\205AV\202\202\337pN\0258'T\030O?\367\247\221ZOx$\353"
 363      82DF704E 
 363      15382754 
 363      184F3FF7 
 363      A7915A4F 
 364 0316 F32AEE4C 		.ascii	"\363*\356L\033W\364\336Am\270.{_\374\360\310\025w\331"
 364      1B57F4DE 
 364      416DB82E 
 364      7B5FFCF0 
 364      C81577D9 
 365 032a FB9C0F96 		.ascii	"\373\234\017\226\274G\030\\S\312\272\2466\302I\215x"
 365      BC47185C 
 365      53CABAA6 
 365      36C2498D 
 365      78
 366 033b 52F04B8F 		.ascii	"R\360K\2177?(\031\321z\2426\321[\255I\312QD\253]\274"
 366      373F2819 
 366      D17AA236 
 366      D15BAD49 
 366      CA5144AB 
 367 0351 3F987BA2 		.ascii	"?\230{\242N\317\314\237m\347\231\371:\202\202*E\263"
 367      4ECFCC9F 
 367      6DE799F9 
 367      3A82822A 
 367      45B3
 368 0363 4AAD5943 		.ascii	"J\255YC5\363\177\034\317\367\346\237I\232\263\005]O"
 368      35F37F1C 
 368      CFF7E69F 
 368      499AB305 
 368      5D4F
 369 0375 3CA5D21D 		.ascii	"<\245\322\035=\247\025\032\262\241k\025\232Z5M\035\245"
 369      3DA7151A 
 369      B2A16B15 
 369      9A5A354D 
 369      1DA5
 370 0387 492B1BAE 		.ascii	"I+\033\256\366\342S\2453\357(\357\373\033X5\205\335"
 370      F6E253A5 
 370      33EF28EF 
 370      FB1B5835 
 370      85DD
 371 0399 AED5D42B 		.ascii	"\256\325\324+4\365j\232\006J\223\336Y+z\361v\211f\352"
 371      34F56A9A 
 371      064A93DE 
 371      592B7AF1 
 371      768966EA 
 372 03ad E2E28C9E 		.ascii	"\342\342\214\236U\263\220\346ZM\243B\323\250\246i\242"
 372      55B390E6 
 372      5A4DA342 
 372      D3A8A669 
 372      A2
 373 03be 3483D315 		.ascii	"4\203\323\025\375:\276I\242\311iyt\237g\325<\025\304"
 373      FD3ABE49 
 373      A2C96979 
 373      749F67D5 
ARM GAS  C:\Users\JEFFSN~1\AppData\Local\Temp\ccGYBxLy.s 			page 28


 373      3C15C4
 374 03d1 24E4D053 		.ascii	"$\344\320S\216f\205\243Y\315qC\342H9\222\340\305\337"
 374      8E6685A3 
 374      59CD7143 
 374      E2483992 
 374      E0C5DF
 375 03e4 95382A17 		.ascii	"\2258*\027\222Zd\177\355\365f19A\024?\243\247\251E!"
 375      925A647F 
 375      EDF56631 
 375      3941143F 
 375      A3A7A945 
 376 03f9 695193DC 		.ascii	"iQ\223\334\244$\223\263G\307\364\3743\211\244\257<\367"
 376      A42493B3 
 376      47C7F4FC 
 376      3389A4AF 
 376      3CF7
 377 040b 13C691D5 		.ascii	"\023\306\221\325$s\220Bn)\034\267\324\034\255\224\343"
 377      24739042 
 377      6E291CB7 
 377      D41CAD94 
 377      E3
 378 041c 70656F91 		.ascii	"peo\221\201?\315S\216\244\236d;\335\\\242\350(\2525"
 378      813FCD53 
 378      8EA49E64 
 378      3BDD5CA2 
 378      E828AA35 
 379 0430 3B928132 		.ascii	";\222\2012\264)\014m \335\303\320N\263O\275\310}\352"
 379      B4290C6D 
 379      20DDC3D0 
 379      4EB34FBD 
 379      C87DEA
 380 0443 C15F90B2 		.ascii	"\301_\220\262\357\216\315Ox\310\333$\335\325\321\016"
 380      EF8ECD4F 
 380      78C8DB24 
 380      DDD5D10E 
 381 0453 85A2435D 		.ascii	"\205\242C]D'\2459Z\370\357\005\003_%\321\244\017Ng{"
 381      4427A539 
 381      5AF8EF05 
 381      035F25D1 
 381      A40F4E67 
 382 0468 319AF63E 		.ascii	"1\232\366>\365L\272\024\222.5I7%9\226Z\271\260J}\305"
 382      F54CBA14 
 382      922E3549 
 382      37253996 
 382      5AB9B04A 
 383 047e BA5E273D 		.ascii	"\272^'=\364\366\243O\004?\036n>\345\246\006\367\270"
 383      F4F6A34F 
 383      043F1E6E 
 383      3EE5A606 
 383      F7B8
 384 0490 807B19B8 		.ascii	"\200{\031\270\227\202\347\016=\3526\232\360\220'\276"
 384      9782E70E 
 384      3DEA369A 
 384      F09027BE 
 385 04a0 DE216F99 		.ascii	"\336!o\231:\277\350\306\217\320\351\350\212R3R\335\300"
 385      3ABFE8C6 
 385      8FD0E9E8 
ARM GAS  C:\Users\JEFFSN~1\AppData\Local\Temp\ccGYBxLy.s 			page 29


 385      8A523352 
 385      DDC0
 386 04b2 14A0917E 		.ascii	"\024\240\221~G#]\276mve\376\220\200\307\272\037\217"
 386      47235DBE 
 386      6D7665FE 
 386      9080C7BA 
 386      1F8F
 387 04c4 659F32ED 		.ascii	"e\2372\355\333`\222\216d\316_\325\016P\327\337\357r"
 387      DB60928E 
 387      64CE5FD5 
 387      0E50D7DF 
 387      EF72
 388 04d6 7E0758FD 		.ascii	"~\007X\375\003\264\376\201\206\234\\\362g\350\217\267"
 388      03B4FE81 
 388      869C5CF2 
 388      67E88FB7 
 389 04e6 1E366FD5 		.ascii	"\0366o\325\305\347/]|MC\343\017=\370\011\251\342\366"
 389      C5E72F5D 
 389      7C4D43E3 
 389      0F3DF809 
 389      A9E2F6
 390 04f9 8CE921A3 		.ascii	"\214\351!\243T1c\347\224?\234\273X\263?\253y\010\007"
 390      543163E7 
 390      943F9CBB 
 390      58B33FAB 
 390      790807
 391 050c 07E59A1D 		.ascii	"\007\345\232\035eC\026Qt\207\021,dX\251\330\237\025"
 391      65431651 
 391      7487112C 
 391      6458A9D8 
 391      9F15
 392 051e 9C3492DA 		.ascii	"\2344\222\332g\220<|\035J\314\250\030\024\263\014\374"
 392      67903C7C 
 392      1D4ACCA8 
 392      1814B30C 
 392      FC
 393 052f 03A9A6AE 		.ascii	"\003\251\246\256\023e?\361\362e\354\350\277\277\015"
 393      13653FF1 
 393      F265ECE8 
 393      BFBF0D
 394 053e B716C004 		.ascii	"\267\026\300\004j\215)Z\243\300.\343\345\032\343\332"
 394      6A8D295A 
 394      A3C02EE3 
 394      E51AE3DA 
 395 054e 1A8F9F34 		.ascii	"\032\217\2374\2364\253m\234p\261\361\036\263\361\036"
 395      9E34AB6D 
 395      9C70B1F1 
 395      1EB3F11E 
 396 055e B5F15C79 		.ascii	"\265\361\\yB\216\213\347\305.\377\341\223\014<I\301"
 396      428E8BE7 
 396      C52EFFE1 
 396      930C3C49 
 396      C1
 397 056f 33CE866A 		.ascii	"3\316\206jo5\330\341\002\236b`\362|g\363\226\240\320"
 397      6F35D8E1 
 397      029E6260 
 397      F27C67F3 
ARM GAS  C:\Users\JEFFSN~1\AppData\Local\Temp\ccGYBxLy.s 			page 30


 397      96A0D0
 398 0582 90CD3B43 		.ascii	"\220\315;CC\204oC\327\207n\337\371U\350\366h\233`\265"
 398      43846F43 
 398      D7876EDF 
 398      F955E8F6 
 398      689B60B5 
 399 0596 C61DB0B9 		.ascii	"\306\035\260\271\007\177\261\313/h\375z\356\303`!Z\260"
 399      077FB1CB 
 399      2F68FD7A 
 399      EEC36021 
 399      5AB0
 400 05a8 86D98488 		.ascii	"\206\331\204\210\320\220\2308k\270\260gGHL\320\307{"
 400      D0909838 
 400      6BB8B067 
 400      47484CD0 
 400      C77B
 401 05ba 96E50686 		.ascii	"\226\345\006\206k\021\206\010\266\335B\270-\306j\016"
 401      6B118608 
 401      B6DD42B8 
 401      2DC66A0E 
 402 05ca 8F8F8CB5 		.ascii	"\217\217\214\265\206EDX\205\330\330\367\265I\327\205"
 402      86454458 
 402      85D8D8F7 
 402      B549D785 
 403 05da C7DBE20F 		.ascii	"\307\333\342\017\010\261\201_kQ\005\313T\357j\312\354"
 403      08B1815F 
 403      6B5105CB 
 403      54EF6ACA 
 403      EC
 404 05eb B046C658 		.ascii	"\260F\306X#m\361\206\270\310h\333&\015L\260\202\361"
 404      236DF186 
 404      B8C868DB 
 404      260D4CB0 
 404      82F1
 405 05fd 5DFE756B 		.ascii	"]\376ukt\330\336(\341m\315\264\020\033\226\372\326\362"
 405      74D8DE28 
 405      E16DCDB4 
 405      101B96FA 
 405      D6F2
 406 060f 4F5B2263 		.ascii	"O[\"cI\322\233\032\365\330\302\2546\215\014:\276\365"
 406      49D29B1A 
 406      F5D8C2AC 
 406      368D0C3A 
 406      BEF5
 407 0621 BB355A5F 		.ascii	"\2735Z_b\016\274\201\366o\021\366\205\305E\331\266\205"
 407      620EBC81 
 407      F66F11F6 
 407      85C545D9 
 407      B685
 408 0633 45474409 		.ascii	"EGD\011V\213\366T\205\350\210\310\350\375\357-\377\030"
 408      568BF654 
 408      85E888C8 
 408      E8FDEF2D 
 408      FF18
 409 0645 14258459 		.ascii	"\024%\204Y\331g\275U\330\277\311H\334\330\270\301\200"
 409      D967BD55 
 409      D8BFC948 
ARM GAS  C:\Users\JEFFSN~1\AppData\Local\Temp\ccGYBxLy.s 			page 31


 409      DCD8B8C1 
 409      80
 410 0656 EF1B37FC 		.ascii	"\357\0337\374\007/\343\321("
 410      072FE3D1 
 410      28
 411              		.text
 412              		.section	.gnu.lto_.symtab.c7d73030,"",%progbits
 413 0000 4144435F 		.ascii	"ADC_SAR_Seq_1_IRQ_Interrupt\000"
 413      5341525F 
 413      5365715F 
 413      315F4952 
 413      515F496E 
 414 001c 00       		.ascii	"\000"
 415 001d 00       		.ascii	"\000"
 416 001e 00       		.ascii	"\000"
 417 001f 00000000 		.ascii	"\000\000\000\000\000\000\000\000"
 417      00000000 
 418 0027 AD000000 		.ascii	"\255\000\000\000"
 419 002b 4144435F 		.ascii	"ADC_SAR_Seq_1_IRQ_SetVector\000"
 419      5341525F 
 419      5365715F 
 419      315F4952 
 419      515F5365 
 420 0047 00       		.ascii	"\000"
 421 0048 00       		.ascii	"\000"
 422 0049 00       		.ascii	"\000"
 423 004a 00000000 		.ascii	"\000\000\000\000\000\000\000\000"
 423      00000000 
 424 0052 B5000000 		.ascii	"\265\000\000\000"
 425 0056 4144435F 		.ascii	"ADC_SAR_Seq_1_IRQ_GetVector\000"
 425      5341525F 
 425      5365715F 
 425      315F4952 
 425      515F4765 
 426 0072 00       		.ascii	"\000"
 427 0073 00       		.ascii	"\000"
 428 0074 00       		.ascii	"\000"
 429 0075 00000000 		.ascii	"\000\000\000\000\000\000\000\000"
 429      00000000 
 430 007d B8000000 		.ascii	"\270\000\000\000"
 431 0081 4144435F 		.ascii	"ADC_SAR_Seq_1_IRQ_SetPriority\000"
 431      5341525F 
 431      5365715F 
 431      315F4952 
 431      515F5365 
 432 009f 00       		.ascii	"\000"
 433 00a0 00       		.ascii	"\000"
 434 00a1 00       		.ascii	"\000"
 435 00a2 00000000 		.ascii	"\000\000\000\000\000\000\000\000"
 435      00000000 
 436 00aa C1000000 		.ascii	"\301\000\000\000"
 437 00ae 4144435F 		.ascii	"ADC_SAR_Seq_1_IRQ_GetPriority\000"
 437      5341525F 
 437      5365715F 
 437      315F4952 
 437      515F4765 
 438 00cc 00       		.ascii	"\000"
ARM GAS  C:\Users\JEFFSN~1\AppData\Local\Temp\ccGYBxLy.s 			page 32


 439 00cd 00       		.ascii	"\000"
 440 00ce 00       		.ascii	"\000"
 441 00cf 00000000 		.ascii	"\000\000\000\000\000\000\000\000"
 441      00000000 
 442 00d7 C4000000 		.ascii	"\304\000\000\000"
 443 00db 4144435F 		.ascii	"ADC_SAR_Seq_1_IRQ_Enable\000"
 443      5341525F 
 443      5365715F 
 443      315F4952 
 443      515F456E 
 444 00f4 00       		.ascii	"\000"
 445 00f5 00       		.ascii	"\000"
 446 00f6 00       		.ascii	"\000"
 447 00f7 00000000 		.ascii	"\000\000\000\000\000\000\000\000"
 447      00000000 
 448 00ff C6000000 		.ascii	"\306\000\000\000"
 449 0103 4144435F 		.ascii	"ADC_SAR_Seq_1_IRQ_GetState\000"
 449      5341525F 
 449      5365715F 
 449      315F4952 
 449      515F4765 
 450 011e 00       		.ascii	"\000"
 451 011f 00       		.ascii	"\000"
 452 0120 00       		.ascii	"\000"
 453 0121 00000000 		.ascii	"\000\000\000\000\000\000\000\000"
 453      00000000 
 454 0129 C8000000 		.ascii	"\310\000\000\000"
 455 012d 4144435F 		.ascii	"ADC_SAR_Seq_1_IRQ_Disable\000"
 455      5341525F 
 455      5365715F 
 455      315F4952 
 455      515F4469 
 456 0147 00       		.ascii	"\000"
 457 0148 00       		.ascii	"\000"
 458 0149 00       		.ascii	"\000"
 459 014a 00000000 		.ascii	"\000\000\000\000\000\000\000\000"
 459      00000000 
 460 0152 CA000000 		.ascii	"\312\000\000\000"
 461 0156 4144435F 		.ascii	"ADC_SAR_Seq_1_IRQ_Start\000"
 461      5341525F 
 461      5365715F 
 461      315F4952 
 461      515F5374 
 462 016e 00       		.ascii	"\000"
 463 016f 00       		.ascii	"\000"
 464 0170 00       		.ascii	"\000"
 465 0171 00000000 		.ascii	"\000\000\000\000\000\000\000\000"
 465      00000000 
 466 0179 CC000000 		.ascii	"\314\000\000\000"
 467 017d 4144435F 		.ascii	"ADC_SAR_Seq_1_IRQ_StartEx\000"
 467      5341525F 
 467      5365715F 
 467      315F4952 
 467      515F5374 
 468 0197 00       		.ascii	"\000"
 469 0198 00       		.ascii	"\000"
 470 0199 00       		.ascii	"\000"
ARM GAS  C:\Users\JEFFSN~1\AppData\Local\Temp\ccGYBxLy.s 			page 33


 471 019a 00000000 		.ascii	"\000\000\000\000\000\000\000\000"
 471      00000000 
 472 01a2 CE000000 		.ascii	"\316\000\000\000"
 473 01a6 4144435F 		.ascii	"ADC_SAR_Seq_1_IRQ_Stop\000"
 473      5341525F 
 473      5365715F 
 473      315F4952 
 473      515F5374 
 474 01bd 00       		.ascii	"\000"
 475 01be 00       		.ascii	"\000"
 476 01bf 00       		.ascii	"\000"
 477 01c0 00000000 		.ascii	"\000\000\000\000\000\000\000\000"
 477      00000000 
 478 01c8 D0000000 		.ascii	"\320\000\000\000"
 479 01cc 4144435F 		.ascii	"ADC_SAR_Seq_1_IRQ_SetPending\000"
 479      5341525F 
 479      5365715F 
 479      315F4952 
 479      515F5365 
 480 01e9 00       		.ascii	"\000"
 481 01ea 00       		.ascii	"\000"
 482 01eb 00       		.ascii	"\000"
 483 01ec 00000000 		.ascii	"\000\000\000\000\000\000\000\000"
 483      00000000 
 484 01f4 D4000000 		.ascii	"\324\000\000\000"
 485 01f8 4144435F 		.ascii	"ADC_SAR_Seq_1_IRQ_ClearPending\000"
 485      5341525F 
 485      5365715F 
 485      315F4952 
 485      515F436C 
 486 0217 00       		.ascii	"\000"
 487 0218 00       		.ascii	"\000"
 488 0219 00       		.ascii	"\000"
 489 021a 00000000 		.ascii	"\000\000\000\000\000\000\000\000"
 489      00000000 
 490 0222 D6000000 		.ascii	"\326\000\000\000"
 491 0226 496E7444 		.ascii	"IntDefaultHandler\000"
 491      65666175 
 491      6C744861 
 491      6E646C65 
 491      7200
 492 0238 00       		.ascii	"\000"
 493 0239 02       		.ascii	"\002"
 494 023a 00       		.ascii	"\000"
 495 023b 00000000 		.ascii	"\000\000\000\000\000\000\000\000"
 495      00000000 
 496 0243 D2000000 		.ascii	"\322\000\000\000"
 497              		.text
 498              		.section	.gnu.lto_.opts,"",%progbits
 499 0000 272D666D 		.ascii	"'-fmath-errno' '-fsigned-zeros' '-ftrapping-math' '"
 499      6174682D 
 499      6572726E 
 499      6F272027 
 499      2D667369 
 500 0033 2D666E6F 		.ascii	"-fno-trapv' '-fno-strict-overflow' '-fno-openmp' '-"
 500      2D747261 
 500      70762720 
ARM GAS  C:\Users\JEFFSN~1\AppData\Local\Temp\ccGYBxLy.s 			page 34


 500      272D666E 
 500      6F2D7374 
 501 0066 666E6F2D 		.ascii	"fno-openacc' '-mcpu=cortex-m3' '-mthumb' '-g' '-Og'"
 501      6F70656E 
 501      61636327 
 501      20272D6D 
 501      6370753D 
 502 0099 20272D66 		.ascii	" '-ffunction-sections' '-ffat-lto-objects' '-finlin"
 502      66756E63 
 502      74696F6E 
 502      2D736563 
 502      74696F6E 
 503 00cc 652D6675 		.ascii	"e-functions' '-flto'\000"
 503      6E637469 
 503      6F6E7327 
 503      20272D66 
 503      6C746F27 
 504              		.text
 505              		.cfi_sections	.debug_frame
 506              		.section	.text.ADC_SAR_Seq_1_IRQ_Interrupt,"ax",%progbits
 507              		.align	2
 508              		.global	ADC_SAR_Seq_1_IRQ_Interrupt
 509              		.thumb
 510              		.thumb_func
 511              		.type	ADC_SAR_Seq_1_IRQ_Interrupt, %function
 512              	ADC_SAR_Seq_1_IRQ_Interrupt:
 513              	.LFB3:
 514              		.file 1 "Generated_Source\\PSoC5\\ADC_SAR_Seq_1_IRQ.c"
   1:Generated_Source\PSoC5/ADC_SAR_Seq_1_IRQ.c **** /*******************************************************************************
   2:Generated_Source\PSoC5/ADC_SAR_Seq_1_IRQ.c **** * File Name: ADC_SAR_Seq_1_IRQ.c  
   3:Generated_Source\PSoC5/ADC_SAR_Seq_1_IRQ.c **** * Version 1.70
   4:Generated_Source\PSoC5/ADC_SAR_Seq_1_IRQ.c **** *
   5:Generated_Source\PSoC5/ADC_SAR_Seq_1_IRQ.c **** *  Description:
   6:Generated_Source\PSoC5/ADC_SAR_Seq_1_IRQ.c **** *   API for controlling the state of an interrupt.
   7:Generated_Source\PSoC5/ADC_SAR_Seq_1_IRQ.c **** *
   8:Generated_Source\PSoC5/ADC_SAR_Seq_1_IRQ.c **** *
   9:Generated_Source\PSoC5/ADC_SAR_Seq_1_IRQ.c **** *  Note:
  10:Generated_Source\PSoC5/ADC_SAR_Seq_1_IRQ.c **** *
  11:Generated_Source\PSoC5/ADC_SAR_Seq_1_IRQ.c **** ********************************************************************************
  12:Generated_Source\PSoC5/ADC_SAR_Seq_1_IRQ.c **** * Copyright 2008-2015, Cypress Semiconductor Corporation.  All rights reserved.
  13:Generated_Source\PSoC5/ADC_SAR_Seq_1_IRQ.c **** * You may use this file only in accordance with the license, terms, conditions, 
  14:Generated_Source\PSoC5/ADC_SAR_Seq_1_IRQ.c **** * disclaimers, and limitations in the end user license agreement accompanying 
  15:Generated_Source\PSoC5/ADC_SAR_Seq_1_IRQ.c **** * the software package with which this file was provided.
  16:Generated_Source\PSoC5/ADC_SAR_Seq_1_IRQ.c **** *******************************************************************************/
  17:Generated_Source\PSoC5/ADC_SAR_Seq_1_IRQ.c **** 
  18:Generated_Source\PSoC5/ADC_SAR_Seq_1_IRQ.c **** 
  19:Generated_Source\PSoC5/ADC_SAR_Seq_1_IRQ.c **** #include <cydevice_trm.h>
  20:Generated_Source\PSoC5/ADC_SAR_Seq_1_IRQ.c **** #include <CyLib.h>
  21:Generated_Source\PSoC5/ADC_SAR_Seq_1_IRQ.c **** #include <ADC_SAR_Seq_1_IRQ.h>
  22:Generated_Source\PSoC5/ADC_SAR_Seq_1_IRQ.c **** 
  23:Generated_Source\PSoC5/ADC_SAR_Seq_1_IRQ.c **** 
  24:Generated_Source\PSoC5/ADC_SAR_Seq_1_IRQ.c **** #if !defined(ADC_SAR_Seq_1_IRQ__REMOVED) /* Check for removal by optimization */
  25:Generated_Source\PSoC5/ADC_SAR_Seq_1_IRQ.c **** 
  26:Generated_Source\PSoC5/ADC_SAR_Seq_1_IRQ.c **** /*******************************************************************************
  27:Generated_Source\PSoC5/ADC_SAR_Seq_1_IRQ.c **** *  Place your includes, defines and code here 
  28:Generated_Source\PSoC5/ADC_SAR_Seq_1_IRQ.c **** ********************************************************************************/
  29:Generated_Source\PSoC5/ADC_SAR_Seq_1_IRQ.c **** /* `#START ADC_SAR_Seq_1_IRQ_intc` */
ARM GAS  C:\Users\JEFFSN~1\AppData\Local\Temp\ccGYBxLy.s 			page 35


  30:Generated_Source\PSoC5/ADC_SAR_Seq_1_IRQ.c **** 
  31:Generated_Source\PSoC5/ADC_SAR_Seq_1_IRQ.c **** /* `#END` */
  32:Generated_Source\PSoC5/ADC_SAR_Seq_1_IRQ.c **** 
  33:Generated_Source\PSoC5/ADC_SAR_Seq_1_IRQ.c **** #ifndef CYINT_IRQ_BASE
  34:Generated_Source\PSoC5/ADC_SAR_Seq_1_IRQ.c **** #define CYINT_IRQ_BASE      16
  35:Generated_Source\PSoC5/ADC_SAR_Seq_1_IRQ.c **** #endif /* CYINT_IRQ_BASE */
  36:Generated_Source\PSoC5/ADC_SAR_Seq_1_IRQ.c **** #ifndef CYINT_VECT_TABLE
  37:Generated_Source\PSoC5/ADC_SAR_Seq_1_IRQ.c **** #define CYINT_VECT_TABLE    ((cyisraddress **) CYREG_NVIC_VECT_OFFSET)
  38:Generated_Source\PSoC5/ADC_SAR_Seq_1_IRQ.c **** #endif /* CYINT_VECT_TABLE */
  39:Generated_Source\PSoC5/ADC_SAR_Seq_1_IRQ.c **** 
  40:Generated_Source\PSoC5/ADC_SAR_Seq_1_IRQ.c **** /* Declared in startup, used to set unused interrupts to. */
  41:Generated_Source\PSoC5/ADC_SAR_Seq_1_IRQ.c **** CY_ISR_PROTO(IntDefaultHandler);
  42:Generated_Source\PSoC5/ADC_SAR_Seq_1_IRQ.c **** 
  43:Generated_Source\PSoC5/ADC_SAR_Seq_1_IRQ.c **** 
  44:Generated_Source\PSoC5/ADC_SAR_Seq_1_IRQ.c **** /*******************************************************************************
  45:Generated_Source\PSoC5/ADC_SAR_Seq_1_IRQ.c **** * Function Name: ADC_SAR_Seq_1_IRQ_Start
  46:Generated_Source\PSoC5/ADC_SAR_Seq_1_IRQ.c **** ********************************************************************************
  47:Generated_Source\PSoC5/ADC_SAR_Seq_1_IRQ.c **** *
  48:Generated_Source\PSoC5/ADC_SAR_Seq_1_IRQ.c **** * Summary:
  49:Generated_Source\PSoC5/ADC_SAR_Seq_1_IRQ.c **** *  Set up the interrupt and enable it. This function disables the interrupt, 
  50:Generated_Source\PSoC5/ADC_SAR_Seq_1_IRQ.c **** *  sets the default interrupt vector, sets the priority from the value in the
  51:Generated_Source\PSoC5/ADC_SAR_Seq_1_IRQ.c **** *  Design Wide Resources Interrupt Editor, then enables the interrupt to the 
  52:Generated_Source\PSoC5/ADC_SAR_Seq_1_IRQ.c **** *  interrupt controller.
  53:Generated_Source\PSoC5/ADC_SAR_Seq_1_IRQ.c **** *
  54:Generated_Source\PSoC5/ADC_SAR_Seq_1_IRQ.c **** * Parameters:  
  55:Generated_Source\PSoC5/ADC_SAR_Seq_1_IRQ.c **** *   None
  56:Generated_Source\PSoC5/ADC_SAR_Seq_1_IRQ.c **** *
  57:Generated_Source\PSoC5/ADC_SAR_Seq_1_IRQ.c **** * Return:
  58:Generated_Source\PSoC5/ADC_SAR_Seq_1_IRQ.c **** *   None
  59:Generated_Source\PSoC5/ADC_SAR_Seq_1_IRQ.c **** *
  60:Generated_Source\PSoC5/ADC_SAR_Seq_1_IRQ.c **** *******************************************************************************/
  61:Generated_Source\PSoC5/ADC_SAR_Seq_1_IRQ.c **** void ADC_SAR_Seq_1_IRQ_Start(void)
  62:Generated_Source\PSoC5/ADC_SAR_Seq_1_IRQ.c **** {
  63:Generated_Source\PSoC5/ADC_SAR_Seq_1_IRQ.c ****     /* For all we know the interrupt is active. */
  64:Generated_Source\PSoC5/ADC_SAR_Seq_1_IRQ.c ****     ADC_SAR_Seq_1_IRQ_Disable();
  65:Generated_Source\PSoC5/ADC_SAR_Seq_1_IRQ.c **** 
  66:Generated_Source\PSoC5/ADC_SAR_Seq_1_IRQ.c ****     /* Set the ISR to point to the ADC_SAR_Seq_1_IRQ Interrupt. */
  67:Generated_Source\PSoC5/ADC_SAR_Seq_1_IRQ.c ****     ADC_SAR_Seq_1_IRQ_SetVector(&ADC_SAR_Seq_1_IRQ_Interrupt);
  68:Generated_Source\PSoC5/ADC_SAR_Seq_1_IRQ.c **** 
  69:Generated_Source\PSoC5/ADC_SAR_Seq_1_IRQ.c ****     /* Set the priority. */
  70:Generated_Source\PSoC5/ADC_SAR_Seq_1_IRQ.c ****     ADC_SAR_Seq_1_IRQ_SetPriority((uint8)ADC_SAR_Seq_1_IRQ_INTC_PRIOR_NUMBER);
  71:Generated_Source\PSoC5/ADC_SAR_Seq_1_IRQ.c **** 
  72:Generated_Source\PSoC5/ADC_SAR_Seq_1_IRQ.c ****     /* Enable it. */
  73:Generated_Source\PSoC5/ADC_SAR_Seq_1_IRQ.c ****     ADC_SAR_Seq_1_IRQ_Enable();
  74:Generated_Source\PSoC5/ADC_SAR_Seq_1_IRQ.c **** }
  75:Generated_Source\PSoC5/ADC_SAR_Seq_1_IRQ.c **** 
  76:Generated_Source\PSoC5/ADC_SAR_Seq_1_IRQ.c **** 
  77:Generated_Source\PSoC5/ADC_SAR_Seq_1_IRQ.c **** /*******************************************************************************
  78:Generated_Source\PSoC5/ADC_SAR_Seq_1_IRQ.c **** * Function Name: ADC_SAR_Seq_1_IRQ_StartEx
  79:Generated_Source\PSoC5/ADC_SAR_Seq_1_IRQ.c **** ********************************************************************************
  80:Generated_Source\PSoC5/ADC_SAR_Seq_1_IRQ.c **** *
  81:Generated_Source\PSoC5/ADC_SAR_Seq_1_IRQ.c **** * Summary:
  82:Generated_Source\PSoC5/ADC_SAR_Seq_1_IRQ.c **** *  Sets up the interrupt and enables it. This function disables the interrupt,
  83:Generated_Source\PSoC5/ADC_SAR_Seq_1_IRQ.c **** *  sets the interrupt vector based on the address passed in, sets the priority 
  84:Generated_Source\PSoC5/ADC_SAR_Seq_1_IRQ.c **** *  from the value in the Design Wide Resources Interrupt Editor, then enables 
  85:Generated_Source\PSoC5/ADC_SAR_Seq_1_IRQ.c **** *  the interrupt to the interrupt controller.
  86:Generated_Source\PSoC5/ADC_SAR_Seq_1_IRQ.c **** *  
ARM GAS  C:\Users\JEFFSN~1\AppData\Local\Temp\ccGYBxLy.s 			page 36


  87:Generated_Source\PSoC5/ADC_SAR_Seq_1_IRQ.c **** *  When defining ISR functions, the CY_ISR and CY_ISR_PROTO macros should be 
  88:Generated_Source\PSoC5/ADC_SAR_Seq_1_IRQ.c **** *  used to provide consistent definition across compilers:
  89:Generated_Source\PSoC5/ADC_SAR_Seq_1_IRQ.c **** *  
  90:Generated_Source\PSoC5/ADC_SAR_Seq_1_IRQ.c **** *  Function definition example:
  91:Generated_Source\PSoC5/ADC_SAR_Seq_1_IRQ.c **** *   CY_ISR(MyISR)
  92:Generated_Source\PSoC5/ADC_SAR_Seq_1_IRQ.c **** *   {
  93:Generated_Source\PSoC5/ADC_SAR_Seq_1_IRQ.c **** *   }
  94:Generated_Source\PSoC5/ADC_SAR_Seq_1_IRQ.c **** *   Function prototype example:
  95:Generated_Source\PSoC5/ADC_SAR_Seq_1_IRQ.c **** *   CY_ISR_PROTO(MyISR);
  96:Generated_Source\PSoC5/ADC_SAR_Seq_1_IRQ.c **** *
  97:Generated_Source\PSoC5/ADC_SAR_Seq_1_IRQ.c **** * Parameters:  
  98:Generated_Source\PSoC5/ADC_SAR_Seq_1_IRQ.c **** *   address: Address of the ISR to set in the interrupt vector table.
  99:Generated_Source\PSoC5/ADC_SAR_Seq_1_IRQ.c **** *
 100:Generated_Source\PSoC5/ADC_SAR_Seq_1_IRQ.c **** * Return:
 101:Generated_Source\PSoC5/ADC_SAR_Seq_1_IRQ.c **** *   None
 102:Generated_Source\PSoC5/ADC_SAR_Seq_1_IRQ.c **** *
 103:Generated_Source\PSoC5/ADC_SAR_Seq_1_IRQ.c **** *******************************************************************************/
 104:Generated_Source\PSoC5/ADC_SAR_Seq_1_IRQ.c **** void ADC_SAR_Seq_1_IRQ_StartEx(cyisraddress address)
 105:Generated_Source\PSoC5/ADC_SAR_Seq_1_IRQ.c **** {
 106:Generated_Source\PSoC5/ADC_SAR_Seq_1_IRQ.c ****     /* For all we know the interrupt is active. */
 107:Generated_Source\PSoC5/ADC_SAR_Seq_1_IRQ.c ****     ADC_SAR_Seq_1_IRQ_Disable();
 108:Generated_Source\PSoC5/ADC_SAR_Seq_1_IRQ.c **** 
 109:Generated_Source\PSoC5/ADC_SAR_Seq_1_IRQ.c ****     /* Set the ISR to point to the ADC_SAR_Seq_1_IRQ Interrupt. */
 110:Generated_Source\PSoC5/ADC_SAR_Seq_1_IRQ.c ****     ADC_SAR_Seq_1_IRQ_SetVector(address);
 111:Generated_Source\PSoC5/ADC_SAR_Seq_1_IRQ.c **** 
 112:Generated_Source\PSoC5/ADC_SAR_Seq_1_IRQ.c ****     /* Set the priority. */
 113:Generated_Source\PSoC5/ADC_SAR_Seq_1_IRQ.c ****     ADC_SAR_Seq_1_IRQ_SetPriority((uint8)ADC_SAR_Seq_1_IRQ_INTC_PRIOR_NUMBER);
 114:Generated_Source\PSoC5/ADC_SAR_Seq_1_IRQ.c **** 
 115:Generated_Source\PSoC5/ADC_SAR_Seq_1_IRQ.c ****     /* Enable it. */
 116:Generated_Source\PSoC5/ADC_SAR_Seq_1_IRQ.c ****     ADC_SAR_Seq_1_IRQ_Enable();
 117:Generated_Source\PSoC5/ADC_SAR_Seq_1_IRQ.c **** }
 118:Generated_Source\PSoC5/ADC_SAR_Seq_1_IRQ.c **** 
 119:Generated_Source\PSoC5/ADC_SAR_Seq_1_IRQ.c **** 
 120:Generated_Source\PSoC5/ADC_SAR_Seq_1_IRQ.c **** /*******************************************************************************
 121:Generated_Source\PSoC5/ADC_SAR_Seq_1_IRQ.c **** * Function Name: ADC_SAR_Seq_1_IRQ_Stop
 122:Generated_Source\PSoC5/ADC_SAR_Seq_1_IRQ.c **** ********************************************************************************
 123:Generated_Source\PSoC5/ADC_SAR_Seq_1_IRQ.c **** *
 124:Generated_Source\PSoC5/ADC_SAR_Seq_1_IRQ.c **** * Summary:
 125:Generated_Source\PSoC5/ADC_SAR_Seq_1_IRQ.c **** *   Disables and removes the interrupt.
 126:Generated_Source\PSoC5/ADC_SAR_Seq_1_IRQ.c **** *
 127:Generated_Source\PSoC5/ADC_SAR_Seq_1_IRQ.c **** * Parameters:  
 128:Generated_Source\PSoC5/ADC_SAR_Seq_1_IRQ.c **** *   None
 129:Generated_Source\PSoC5/ADC_SAR_Seq_1_IRQ.c **** *
 130:Generated_Source\PSoC5/ADC_SAR_Seq_1_IRQ.c **** * Return:
 131:Generated_Source\PSoC5/ADC_SAR_Seq_1_IRQ.c **** *   None
 132:Generated_Source\PSoC5/ADC_SAR_Seq_1_IRQ.c **** *
 133:Generated_Source\PSoC5/ADC_SAR_Seq_1_IRQ.c **** *******************************************************************************/
 134:Generated_Source\PSoC5/ADC_SAR_Seq_1_IRQ.c **** void ADC_SAR_Seq_1_IRQ_Stop(void)
 135:Generated_Source\PSoC5/ADC_SAR_Seq_1_IRQ.c **** {
 136:Generated_Source\PSoC5/ADC_SAR_Seq_1_IRQ.c ****     /* Disable this interrupt. */
 137:Generated_Source\PSoC5/ADC_SAR_Seq_1_IRQ.c ****     ADC_SAR_Seq_1_IRQ_Disable();
 138:Generated_Source\PSoC5/ADC_SAR_Seq_1_IRQ.c **** 
 139:Generated_Source\PSoC5/ADC_SAR_Seq_1_IRQ.c ****     /* Set the ISR to point to the passive one. */
 140:Generated_Source\PSoC5/ADC_SAR_Seq_1_IRQ.c ****     ADC_SAR_Seq_1_IRQ_SetVector(&IntDefaultHandler);
 141:Generated_Source\PSoC5/ADC_SAR_Seq_1_IRQ.c **** }
 142:Generated_Source\PSoC5/ADC_SAR_Seq_1_IRQ.c **** 
 143:Generated_Source\PSoC5/ADC_SAR_Seq_1_IRQ.c **** 
ARM GAS  C:\Users\JEFFSN~1\AppData\Local\Temp\ccGYBxLy.s 			page 37


 144:Generated_Source\PSoC5/ADC_SAR_Seq_1_IRQ.c **** /*******************************************************************************
 145:Generated_Source\PSoC5/ADC_SAR_Seq_1_IRQ.c **** * Function Name: ADC_SAR_Seq_1_IRQ_Interrupt
 146:Generated_Source\PSoC5/ADC_SAR_Seq_1_IRQ.c **** ********************************************************************************
 147:Generated_Source\PSoC5/ADC_SAR_Seq_1_IRQ.c **** *
 148:Generated_Source\PSoC5/ADC_SAR_Seq_1_IRQ.c **** * Summary:
 149:Generated_Source\PSoC5/ADC_SAR_Seq_1_IRQ.c **** *   The default Interrupt Service Routine for ADC_SAR_Seq_1_IRQ.
 150:Generated_Source\PSoC5/ADC_SAR_Seq_1_IRQ.c **** *
 151:Generated_Source\PSoC5/ADC_SAR_Seq_1_IRQ.c **** *   Add custom code between the coments to keep the next version of this file
 152:Generated_Source\PSoC5/ADC_SAR_Seq_1_IRQ.c **** *   from over writting your code.
 153:Generated_Source\PSoC5/ADC_SAR_Seq_1_IRQ.c **** *
 154:Generated_Source\PSoC5/ADC_SAR_Seq_1_IRQ.c **** * Parameters:  
 155:Generated_Source\PSoC5/ADC_SAR_Seq_1_IRQ.c **** *
 156:Generated_Source\PSoC5/ADC_SAR_Seq_1_IRQ.c **** * Return:
 157:Generated_Source\PSoC5/ADC_SAR_Seq_1_IRQ.c **** *   None
 158:Generated_Source\PSoC5/ADC_SAR_Seq_1_IRQ.c **** *
 159:Generated_Source\PSoC5/ADC_SAR_Seq_1_IRQ.c **** *******************************************************************************/
 160:Generated_Source\PSoC5/ADC_SAR_Seq_1_IRQ.c **** CY_ISR(ADC_SAR_Seq_1_IRQ_Interrupt)
 161:Generated_Source\PSoC5/ADC_SAR_Seq_1_IRQ.c **** {
 515              		.loc 1 161 0
 516              		.cfi_startproc
 517              		@ args = 0, pretend = 0, frame = 0
 518              		@ frame_needed = 0, uses_anonymous_args = 0
 519              		@ link register save eliminated.
 520 0000 7047     		bx	lr
 521              		.cfi_endproc
 522              	.LFE3:
 523              		.size	ADC_SAR_Seq_1_IRQ_Interrupt, .-ADC_SAR_Seq_1_IRQ_Interrupt
 524 0002 00BF     		.section	.text.ADC_SAR_Seq_1_IRQ_SetVector,"ax",%progbits
 525              		.align	2
 526              		.global	ADC_SAR_Seq_1_IRQ_SetVector
 527              		.thumb
 528              		.thumb_func
 529              		.type	ADC_SAR_Seq_1_IRQ_SetVector, %function
 530              	ADC_SAR_Seq_1_IRQ_SetVector:
 531              	.LFB4:
 162:Generated_Source\PSoC5/ADC_SAR_Seq_1_IRQ.c ****     #ifdef ADC_SAR_Seq_1_IRQ_INTERRUPT_INTERRUPT_CALLBACK
 163:Generated_Source\PSoC5/ADC_SAR_Seq_1_IRQ.c ****         ADC_SAR_Seq_1_IRQ_Interrupt_InterruptCallback();
 164:Generated_Source\PSoC5/ADC_SAR_Seq_1_IRQ.c ****     #endif /* ADC_SAR_Seq_1_IRQ_INTERRUPT_INTERRUPT_CALLBACK */ 
 165:Generated_Source\PSoC5/ADC_SAR_Seq_1_IRQ.c **** 
 166:Generated_Source\PSoC5/ADC_SAR_Seq_1_IRQ.c ****     /*  Place your Interrupt code here. */
 167:Generated_Source\PSoC5/ADC_SAR_Seq_1_IRQ.c ****     /* `#START ADC_SAR_Seq_1_IRQ_Interrupt` */
 168:Generated_Source\PSoC5/ADC_SAR_Seq_1_IRQ.c **** 
 169:Generated_Source\PSoC5/ADC_SAR_Seq_1_IRQ.c ****     /* `#END` */
 170:Generated_Source\PSoC5/ADC_SAR_Seq_1_IRQ.c **** }
 171:Generated_Source\PSoC5/ADC_SAR_Seq_1_IRQ.c **** 
 172:Generated_Source\PSoC5/ADC_SAR_Seq_1_IRQ.c **** 
 173:Generated_Source\PSoC5/ADC_SAR_Seq_1_IRQ.c **** /*******************************************************************************
 174:Generated_Source\PSoC5/ADC_SAR_Seq_1_IRQ.c **** * Function Name: ADC_SAR_Seq_1_IRQ_SetVector
 175:Generated_Source\PSoC5/ADC_SAR_Seq_1_IRQ.c **** ********************************************************************************
 176:Generated_Source\PSoC5/ADC_SAR_Seq_1_IRQ.c **** *
 177:Generated_Source\PSoC5/ADC_SAR_Seq_1_IRQ.c **** * Summary:
 178:Generated_Source\PSoC5/ADC_SAR_Seq_1_IRQ.c **** *   Change the ISR vector for the Interrupt. Note calling ADC_SAR_Seq_1_IRQ_Start
 179:Generated_Source\PSoC5/ADC_SAR_Seq_1_IRQ.c **** *   will override any effect this method would have had. To set the vector 
 180:Generated_Source\PSoC5/ADC_SAR_Seq_1_IRQ.c **** *   before the component has been started use ADC_SAR_Seq_1_IRQ_StartEx instead.
 181:Generated_Source\PSoC5/ADC_SAR_Seq_1_IRQ.c **** * 
 182:Generated_Source\PSoC5/ADC_SAR_Seq_1_IRQ.c **** *   When defining ISR functions, the CY_ISR and CY_ISR_PROTO macros should be 
 183:Generated_Source\PSoC5/ADC_SAR_Seq_1_IRQ.c **** *   used to provide consistent definition across compilers:
ARM GAS  C:\Users\JEFFSN~1\AppData\Local\Temp\ccGYBxLy.s 			page 38


 184:Generated_Source\PSoC5/ADC_SAR_Seq_1_IRQ.c **** *
 185:Generated_Source\PSoC5/ADC_SAR_Seq_1_IRQ.c **** *   Function definition example:
 186:Generated_Source\PSoC5/ADC_SAR_Seq_1_IRQ.c **** *   CY_ISR(MyISR)
 187:Generated_Source\PSoC5/ADC_SAR_Seq_1_IRQ.c **** *   {
 188:Generated_Source\PSoC5/ADC_SAR_Seq_1_IRQ.c **** *   }
 189:Generated_Source\PSoC5/ADC_SAR_Seq_1_IRQ.c **** *
 190:Generated_Source\PSoC5/ADC_SAR_Seq_1_IRQ.c **** *   Function prototype example:
 191:Generated_Source\PSoC5/ADC_SAR_Seq_1_IRQ.c **** *     CY_ISR_PROTO(MyISR);
 192:Generated_Source\PSoC5/ADC_SAR_Seq_1_IRQ.c **** *
 193:Generated_Source\PSoC5/ADC_SAR_Seq_1_IRQ.c **** * Parameters:
 194:Generated_Source\PSoC5/ADC_SAR_Seq_1_IRQ.c **** *   address: Address of the ISR to set in the interrupt vector table.
 195:Generated_Source\PSoC5/ADC_SAR_Seq_1_IRQ.c **** *
 196:Generated_Source\PSoC5/ADC_SAR_Seq_1_IRQ.c **** * Return:
 197:Generated_Source\PSoC5/ADC_SAR_Seq_1_IRQ.c **** *   None
 198:Generated_Source\PSoC5/ADC_SAR_Seq_1_IRQ.c **** *
 199:Generated_Source\PSoC5/ADC_SAR_Seq_1_IRQ.c **** *******************************************************************************/
 200:Generated_Source\PSoC5/ADC_SAR_Seq_1_IRQ.c **** void ADC_SAR_Seq_1_IRQ_SetVector(cyisraddress address)
 201:Generated_Source\PSoC5/ADC_SAR_Seq_1_IRQ.c **** {
 532              		.loc 1 201 0
 533              		.cfi_startproc
 534              		@ args = 0, pretend = 0, frame = 0
 535              		@ frame_needed = 0, uses_anonymous_args = 0
 536              		@ link register save eliminated.
 537              	.LVL0:
 202:Generated_Source\PSoC5/ADC_SAR_Seq_1_IRQ.c ****     cyisraddress * ramVectorTable;
 203:Generated_Source\PSoC5/ADC_SAR_Seq_1_IRQ.c **** 
 204:Generated_Source\PSoC5/ADC_SAR_Seq_1_IRQ.c ****     ramVectorTable = (cyisraddress *) *CYINT_VECT_TABLE;
 538              		.loc 1 204 0
 539 0000 014B     		ldr	r3, .L3
 540 0002 1B68     		ldr	r3, [r3]
 541              	.LVL1:
 205:Generated_Source\PSoC5/ADC_SAR_Seq_1_IRQ.c **** 
 206:Generated_Source\PSoC5/ADC_SAR_Seq_1_IRQ.c ****     ramVectorTable[CYINT_IRQ_BASE + (uint32)ADC_SAR_Seq_1_IRQ__INTC_NUMBER] = address;
 542              		.loc 1 206 0
 543 0004 5864     		str	r0, [r3, #68]
 544 0006 7047     		bx	lr
 545              	.L4:
 546              		.align	2
 547              	.L3:
 548 0008 08ED00E0 		.word	-536810232
 549              		.cfi_endproc
 550              	.LFE4:
 551              		.size	ADC_SAR_Seq_1_IRQ_SetVector, .-ADC_SAR_Seq_1_IRQ_SetVector
 552              		.section	.text.ADC_SAR_Seq_1_IRQ_GetVector,"ax",%progbits
 553              		.align	2
 554              		.global	ADC_SAR_Seq_1_IRQ_GetVector
 555              		.thumb
 556              		.thumb_func
 557              		.type	ADC_SAR_Seq_1_IRQ_GetVector, %function
 558              	ADC_SAR_Seq_1_IRQ_GetVector:
 559              	.LFB5:
 207:Generated_Source\PSoC5/ADC_SAR_Seq_1_IRQ.c **** }
 208:Generated_Source\PSoC5/ADC_SAR_Seq_1_IRQ.c **** 
 209:Generated_Source\PSoC5/ADC_SAR_Seq_1_IRQ.c **** 
 210:Generated_Source\PSoC5/ADC_SAR_Seq_1_IRQ.c **** /*******************************************************************************
 211:Generated_Source\PSoC5/ADC_SAR_Seq_1_IRQ.c **** * Function Name: ADC_SAR_Seq_1_IRQ_GetVector
 212:Generated_Source\PSoC5/ADC_SAR_Seq_1_IRQ.c **** ********************************************************************************
ARM GAS  C:\Users\JEFFSN~1\AppData\Local\Temp\ccGYBxLy.s 			page 39


 213:Generated_Source\PSoC5/ADC_SAR_Seq_1_IRQ.c **** *
 214:Generated_Source\PSoC5/ADC_SAR_Seq_1_IRQ.c **** * Summary:
 215:Generated_Source\PSoC5/ADC_SAR_Seq_1_IRQ.c **** *   Gets the "address" of the current ISR vector for the Interrupt.
 216:Generated_Source\PSoC5/ADC_SAR_Seq_1_IRQ.c **** *
 217:Generated_Source\PSoC5/ADC_SAR_Seq_1_IRQ.c **** * Parameters:
 218:Generated_Source\PSoC5/ADC_SAR_Seq_1_IRQ.c **** *   None
 219:Generated_Source\PSoC5/ADC_SAR_Seq_1_IRQ.c **** *
 220:Generated_Source\PSoC5/ADC_SAR_Seq_1_IRQ.c **** * Return:
 221:Generated_Source\PSoC5/ADC_SAR_Seq_1_IRQ.c **** *   Address of the ISR in the interrupt vector table.
 222:Generated_Source\PSoC5/ADC_SAR_Seq_1_IRQ.c **** *
 223:Generated_Source\PSoC5/ADC_SAR_Seq_1_IRQ.c **** *******************************************************************************/
 224:Generated_Source\PSoC5/ADC_SAR_Seq_1_IRQ.c **** cyisraddress ADC_SAR_Seq_1_IRQ_GetVector(void)
 225:Generated_Source\PSoC5/ADC_SAR_Seq_1_IRQ.c **** {
 560              		.loc 1 225 0
 561              		.cfi_startproc
 562              		@ args = 0, pretend = 0, frame = 0
 563              		@ frame_needed = 0, uses_anonymous_args = 0
 564              		@ link register save eliminated.
 226:Generated_Source\PSoC5/ADC_SAR_Seq_1_IRQ.c ****     cyisraddress * ramVectorTable;
 227:Generated_Source\PSoC5/ADC_SAR_Seq_1_IRQ.c **** 
 228:Generated_Source\PSoC5/ADC_SAR_Seq_1_IRQ.c ****     ramVectorTable = (cyisraddress *) *CYINT_VECT_TABLE;
 565              		.loc 1 228 0
 566 0000 014B     		ldr	r3, .L6
 567 0002 1B68     		ldr	r3, [r3]
 568              	.LVL2:
 229:Generated_Source\PSoC5/ADC_SAR_Seq_1_IRQ.c **** 
 230:Generated_Source\PSoC5/ADC_SAR_Seq_1_IRQ.c ****     return ramVectorTable[CYINT_IRQ_BASE + (uint32)ADC_SAR_Seq_1_IRQ__INTC_NUMBER];
 231:Generated_Source\PSoC5/ADC_SAR_Seq_1_IRQ.c **** }
 569              		.loc 1 231 0
 570 0004 586C     		ldr	r0, [r3, #68]
 571 0006 7047     		bx	lr
 572              	.L7:
 573              		.align	2
 574              	.L6:
 575 0008 08ED00E0 		.word	-536810232
 576              		.cfi_endproc
 577              	.LFE5:
 578              		.size	ADC_SAR_Seq_1_IRQ_GetVector, .-ADC_SAR_Seq_1_IRQ_GetVector
 579              		.section	.text.ADC_SAR_Seq_1_IRQ_SetPriority,"ax",%progbits
 580              		.align	2
 581              		.global	ADC_SAR_Seq_1_IRQ_SetPriority
 582              		.thumb
 583              		.thumb_func
 584              		.type	ADC_SAR_Seq_1_IRQ_SetPriority, %function
 585              	ADC_SAR_Seq_1_IRQ_SetPriority:
 586              	.LFB6:
 232:Generated_Source\PSoC5/ADC_SAR_Seq_1_IRQ.c **** 
 233:Generated_Source\PSoC5/ADC_SAR_Seq_1_IRQ.c **** 
 234:Generated_Source\PSoC5/ADC_SAR_Seq_1_IRQ.c **** /*******************************************************************************
 235:Generated_Source\PSoC5/ADC_SAR_Seq_1_IRQ.c **** * Function Name: ADC_SAR_Seq_1_IRQ_SetPriority
 236:Generated_Source\PSoC5/ADC_SAR_Seq_1_IRQ.c **** ********************************************************************************
 237:Generated_Source\PSoC5/ADC_SAR_Seq_1_IRQ.c **** *
 238:Generated_Source\PSoC5/ADC_SAR_Seq_1_IRQ.c **** * Summary:
 239:Generated_Source\PSoC5/ADC_SAR_Seq_1_IRQ.c **** *   Sets the Priority of the Interrupt. 
 240:Generated_Source\PSoC5/ADC_SAR_Seq_1_IRQ.c **** *
 241:Generated_Source\PSoC5/ADC_SAR_Seq_1_IRQ.c **** *   Note calling ADC_SAR_Seq_1_IRQ_Start or ADC_SAR_Seq_1_IRQ_StartEx will 
 242:Generated_Source\PSoC5/ADC_SAR_Seq_1_IRQ.c **** *   override any effect this API would have had. This API should only be called
ARM GAS  C:\Users\JEFFSN~1\AppData\Local\Temp\ccGYBxLy.s 			page 40


 243:Generated_Source\PSoC5/ADC_SAR_Seq_1_IRQ.c **** *   after ADC_SAR_Seq_1_IRQ_Start or ADC_SAR_Seq_1_IRQ_StartEx has been called. 
 244:Generated_Source\PSoC5/ADC_SAR_Seq_1_IRQ.c **** *   To set the initial priority for the component, use the Design-Wide Resources
 245:Generated_Source\PSoC5/ADC_SAR_Seq_1_IRQ.c **** *   Interrupt Editor.
 246:Generated_Source\PSoC5/ADC_SAR_Seq_1_IRQ.c **** *
 247:Generated_Source\PSoC5/ADC_SAR_Seq_1_IRQ.c **** *   Note This API has no effect on Non-maskable interrupt NMI).
 248:Generated_Source\PSoC5/ADC_SAR_Seq_1_IRQ.c **** *
 249:Generated_Source\PSoC5/ADC_SAR_Seq_1_IRQ.c **** * Parameters:
 250:Generated_Source\PSoC5/ADC_SAR_Seq_1_IRQ.c **** *   priority: Priority of the interrupt, 0 being the highest priority
 251:Generated_Source\PSoC5/ADC_SAR_Seq_1_IRQ.c **** *             PSoC 3 and PSoC 5LP: Priority is from 0 to 7.
 252:Generated_Source\PSoC5/ADC_SAR_Seq_1_IRQ.c **** *             PSoC 4: Priority is from 0 to 3.
 253:Generated_Source\PSoC5/ADC_SAR_Seq_1_IRQ.c **** *
 254:Generated_Source\PSoC5/ADC_SAR_Seq_1_IRQ.c **** * Return:
 255:Generated_Source\PSoC5/ADC_SAR_Seq_1_IRQ.c **** *   None
 256:Generated_Source\PSoC5/ADC_SAR_Seq_1_IRQ.c **** *
 257:Generated_Source\PSoC5/ADC_SAR_Seq_1_IRQ.c **** *******************************************************************************/
 258:Generated_Source\PSoC5/ADC_SAR_Seq_1_IRQ.c **** void ADC_SAR_Seq_1_IRQ_SetPriority(uint8 priority)
 259:Generated_Source\PSoC5/ADC_SAR_Seq_1_IRQ.c **** {
 587              		.loc 1 259 0
 588              		.cfi_startproc
 589              		@ args = 0, pretend = 0, frame = 0
 590              		@ frame_needed = 0, uses_anonymous_args = 0
 591              		@ link register save eliminated.
 592              	.LVL3:
 260:Generated_Source\PSoC5/ADC_SAR_Seq_1_IRQ.c ****     *ADC_SAR_Seq_1_IRQ_INTC_PRIOR = priority << 5;
 593              		.loc 1 260 0
 594 0000 4001     		lsls	r0, r0, #5
 595              	.LVL4:
 596 0002 C0B2     		uxtb	r0, r0
 597 0004 014B     		ldr	r3, .L9
 598 0006 1870     		strb	r0, [r3]
 599 0008 7047     		bx	lr
 600              	.L10:
 601 000a 00BF     		.align	2
 602              	.L9:
 603 000c 01E400E0 		.word	-536812543
 604              		.cfi_endproc
 605              	.LFE6:
 606              		.size	ADC_SAR_Seq_1_IRQ_SetPriority, .-ADC_SAR_Seq_1_IRQ_SetPriority
 607              		.section	.text.ADC_SAR_Seq_1_IRQ_GetPriority,"ax",%progbits
 608              		.align	2
 609              		.global	ADC_SAR_Seq_1_IRQ_GetPriority
 610              		.thumb
 611              		.thumb_func
 612              		.type	ADC_SAR_Seq_1_IRQ_GetPriority, %function
 613              	ADC_SAR_Seq_1_IRQ_GetPriority:
 614              	.LFB7:
 261:Generated_Source\PSoC5/ADC_SAR_Seq_1_IRQ.c **** }
 262:Generated_Source\PSoC5/ADC_SAR_Seq_1_IRQ.c **** 
 263:Generated_Source\PSoC5/ADC_SAR_Seq_1_IRQ.c **** 
 264:Generated_Source\PSoC5/ADC_SAR_Seq_1_IRQ.c **** /*******************************************************************************
 265:Generated_Source\PSoC5/ADC_SAR_Seq_1_IRQ.c **** * Function Name: ADC_SAR_Seq_1_IRQ_GetPriority
 266:Generated_Source\PSoC5/ADC_SAR_Seq_1_IRQ.c **** ********************************************************************************
 267:Generated_Source\PSoC5/ADC_SAR_Seq_1_IRQ.c **** *
 268:Generated_Source\PSoC5/ADC_SAR_Seq_1_IRQ.c **** * Summary:
 269:Generated_Source\PSoC5/ADC_SAR_Seq_1_IRQ.c **** *   Gets the Priority of the Interrupt.
 270:Generated_Source\PSoC5/ADC_SAR_Seq_1_IRQ.c **** *
 271:Generated_Source\PSoC5/ADC_SAR_Seq_1_IRQ.c **** * Parameters:
ARM GAS  C:\Users\JEFFSN~1\AppData\Local\Temp\ccGYBxLy.s 			page 41


 272:Generated_Source\PSoC5/ADC_SAR_Seq_1_IRQ.c **** *   None
 273:Generated_Source\PSoC5/ADC_SAR_Seq_1_IRQ.c **** *
 274:Generated_Source\PSoC5/ADC_SAR_Seq_1_IRQ.c **** * Return:
 275:Generated_Source\PSoC5/ADC_SAR_Seq_1_IRQ.c **** *   Priority of the interrupt, 0 being the highest priority
 276:Generated_Source\PSoC5/ADC_SAR_Seq_1_IRQ.c **** *    PSoC 3 and PSoC 5LP: Priority is from 0 to 7.
 277:Generated_Source\PSoC5/ADC_SAR_Seq_1_IRQ.c **** *    PSoC 4: Priority is from 0 to 3.
 278:Generated_Source\PSoC5/ADC_SAR_Seq_1_IRQ.c **** *
 279:Generated_Source\PSoC5/ADC_SAR_Seq_1_IRQ.c **** *******************************************************************************/
 280:Generated_Source\PSoC5/ADC_SAR_Seq_1_IRQ.c **** uint8 ADC_SAR_Seq_1_IRQ_GetPriority(void)
 281:Generated_Source\PSoC5/ADC_SAR_Seq_1_IRQ.c **** {
 615              		.loc 1 281 0
 616              		.cfi_startproc
 617              		@ args = 0, pretend = 0, frame = 0
 618              		@ frame_needed = 0, uses_anonymous_args = 0
 619              		@ link register save eliminated.
 282:Generated_Source\PSoC5/ADC_SAR_Seq_1_IRQ.c ****     uint8 priority;
 283:Generated_Source\PSoC5/ADC_SAR_Seq_1_IRQ.c **** 
 284:Generated_Source\PSoC5/ADC_SAR_Seq_1_IRQ.c **** 
 285:Generated_Source\PSoC5/ADC_SAR_Seq_1_IRQ.c ****     priority = *ADC_SAR_Seq_1_IRQ_INTC_PRIOR >> 5;
 620              		.loc 1 285 0
 621 0000 014B     		ldr	r3, .L12
 622 0002 1878     		ldrb	r0, [r3]	@ zero_extendqisi2
 623              	.LVL5:
 286:Generated_Source\PSoC5/ADC_SAR_Seq_1_IRQ.c **** 
 287:Generated_Source\PSoC5/ADC_SAR_Seq_1_IRQ.c ****     return priority;
 288:Generated_Source\PSoC5/ADC_SAR_Seq_1_IRQ.c **** }
 624              		.loc 1 288 0
 625 0004 4009     		lsrs	r0, r0, #5
 626              	.LVL6:
 627 0006 7047     		bx	lr
 628              	.L13:
 629              		.align	2
 630              	.L12:
 631 0008 01E400E0 		.word	-536812543
 632              		.cfi_endproc
 633              	.LFE7:
 634              		.size	ADC_SAR_Seq_1_IRQ_GetPriority, .-ADC_SAR_Seq_1_IRQ_GetPriority
 635              		.section	.text.ADC_SAR_Seq_1_IRQ_Enable,"ax",%progbits
 636              		.align	2
 637              		.global	ADC_SAR_Seq_1_IRQ_Enable
 638              		.thumb
 639              		.thumb_func
 640              		.type	ADC_SAR_Seq_1_IRQ_Enable, %function
 641              	ADC_SAR_Seq_1_IRQ_Enable:
 642              	.LFB8:
 289:Generated_Source\PSoC5/ADC_SAR_Seq_1_IRQ.c **** 
 290:Generated_Source\PSoC5/ADC_SAR_Seq_1_IRQ.c **** 
 291:Generated_Source\PSoC5/ADC_SAR_Seq_1_IRQ.c **** /*******************************************************************************
 292:Generated_Source\PSoC5/ADC_SAR_Seq_1_IRQ.c **** * Function Name: ADC_SAR_Seq_1_IRQ_Enable
 293:Generated_Source\PSoC5/ADC_SAR_Seq_1_IRQ.c **** ********************************************************************************
 294:Generated_Source\PSoC5/ADC_SAR_Seq_1_IRQ.c **** *
 295:Generated_Source\PSoC5/ADC_SAR_Seq_1_IRQ.c **** * Summary:
 296:Generated_Source\PSoC5/ADC_SAR_Seq_1_IRQ.c **** *   Enables the interrupt to the interrupt controller. Do not call this function
 297:Generated_Source\PSoC5/ADC_SAR_Seq_1_IRQ.c **** *   unless ISR_Start() has been called or the functionality of the ISR_Start() 
 298:Generated_Source\PSoC5/ADC_SAR_Seq_1_IRQ.c **** *   function, which sets the vector and the priority, has been called.
 299:Generated_Source\PSoC5/ADC_SAR_Seq_1_IRQ.c **** *
 300:Generated_Source\PSoC5/ADC_SAR_Seq_1_IRQ.c **** * Parameters:
ARM GAS  C:\Users\JEFFSN~1\AppData\Local\Temp\ccGYBxLy.s 			page 42


 301:Generated_Source\PSoC5/ADC_SAR_Seq_1_IRQ.c **** *   None
 302:Generated_Source\PSoC5/ADC_SAR_Seq_1_IRQ.c **** *
 303:Generated_Source\PSoC5/ADC_SAR_Seq_1_IRQ.c **** * Return:
 304:Generated_Source\PSoC5/ADC_SAR_Seq_1_IRQ.c **** *   None
 305:Generated_Source\PSoC5/ADC_SAR_Seq_1_IRQ.c **** *
 306:Generated_Source\PSoC5/ADC_SAR_Seq_1_IRQ.c **** *******************************************************************************/
 307:Generated_Source\PSoC5/ADC_SAR_Seq_1_IRQ.c **** void ADC_SAR_Seq_1_IRQ_Enable(void)
 308:Generated_Source\PSoC5/ADC_SAR_Seq_1_IRQ.c **** {
 643              		.loc 1 308 0
 644              		.cfi_startproc
 645              		@ args = 0, pretend = 0, frame = 0
 646              		@ frame_needed = 0, uses_anonymous_args = 0
 647              		@ link register save eliminated.
 309:Generated_Source\PSoC5/ADC_SAR_Seq_1_IRQ.c ****     /* Enable the general interrupt. */
 310:Generated_Source\PSoC5/ADC_SAR_Seq_1_IRQ.c ****     *ADC_SAR_Seq_1_IRQ_INTC_SET_EN = ADC_SAR_Seq_1_IRQ__INTC_MASK;
 648              		.loc 1 310 0
 649 0000 0222     		movs	r2, #2
 650 0002 014B     		ldr	r3, .L15
 651 0004 1A60     		str	r2, [r3]
 652 0006 7047     		bx	lr
 653              	.L16:
 654              		.align	2
 655              	.L15:
 656 0008 00E100E0 		.word	-536813312
 657              		.cfi_endproc
 658              	.LFE8:
 659              		.size	ADC_SAR_Seq_1_IRQ_Enable, .-ADC_SAR_Seq_1_IRQ_Enable
 660              		.section	.text.ADC_SAR_Seq_1_IRQ_GetState,"ax",%progbits
 661              		.align	2
 662              		.global	ADC_SAR_Seq_1_IRQ_GetState
 663              		.thumb
 664              		.thumb_func
 665              		.type	ADC_SAR_Seq_1_IRQ_GetState, %function
 666              	ADC_SAR_Seq_1_IRQ_GetState:
 667              	.LFB9:
 311:Generated_Source\PSoC5/ADC_SAR_Seq_1_IRQ.c **** }
 312:Generated_Source\PSoC5/ADC_SAR_Seq_1_IRQ.c **** 
 313:Generated_Source\PSoC5/ADC_SAR_Seq_1_IRQ.c **** 
 314:Generated_Source\PSoC5/ADC_SAR_Seq_1_IRQ.c **** /*******************************************************************************
 315:Generated_Source\PSoC5/ADC_SAR_Seq_1_IRQ.c **** * Function Name: ADC_SAR_Seq_1_IRQ_GetState
 316:Generated_Source\PSoC5/ADC_SAR_Seq_1_IRQ.c **** ********************************************************************************
 317:Generated_Source\PSoC5/ADC_SAR_Seq_1_IRQ.c **** *
 318:Generated_Source\PSoC5/ADC_SAR_Seq_1_IRQ.c **** * Summary:
 319:Generated_Source\PSoC5/ADC_SAR_Seq_1_IRQ.c **** *   Gets the state (enabled, disabled) of the Interrupt.
 320:Generated_Source\PSoC5/ADC_SAR_Seq_1_IRQ.c **** *
 321:Generated_Source\PSoC5/ADC_SAR_Seq_1_IRQ.c **** * Parameters:
 322:Generated_Source\PSoC5/ADC_SAR_Seq_1_IRQ.c **** *   None
 323:Generated_Source\PSoC5/ADC_SAR_Seq_1_IRQ.c **** *
 324:Generated_Source\PSoC5/ADC_SAR_Seq_1_IRQ.c **** * Return:
 325:Generated_Source\PSoC5/ADC_SAR_Seq_1_IRQ.c **** *   1 if enabled, 0 if disabled.
 326:Generated_Source\PSoC5/ADC_SAR_Seq_1_IRQ.c **** *
 327:Generated_Source\PSoC5/ADC_SAR_Seq_1_IRQ.c **** *******************************************************************************/
 328:Generated_Source\PSoC5/ADC_SAR_Seq_1_IRQ.c **** uint8 ADC_SAR_Seq_1_IRQ_GetState(void)
 329:Generated_Source\PSoC5/ADC_SAR_Seq_1_IRQ.c **** {
 668              		.loc 1 329 0
 669              		.cfi_startproc
 670              		@ args = 0, pretend = 0, frame = 0
ARM GAS  C:\Users\JEFFSN~1\AppData\Local\Temp\ccGYBxLy.s 			page 43


 671              		@ frame_needed = 0, uses_anonymous_args = 0
 672              		@ link register save eliminated.
 330:Generated_Source\PSoC5/ADC_SAR_Seq_1_IRQ.c ****     /* Get the state of the general interrupt. */
 331:Generated_Source\PSoC5/ADC_SAR_Seq_1_IRQ.c ****     return ((*ADC_SAR_Seq_1_IRQ_INTC_SET_EN & (uint32)ADC_SAR_Seq_1_IRQ__INTC_MASK) != 0u) ? 1u:0u;
 673              		.loc 1 331 0
 674 0000 044B     		ldr	r3, .L20
 675 0002 1B68     		ldr	r3, [r3]
 676 0004 13F0020F 		tst	r3, #2
 677 0008 01D0     		beq	.L19
 678 000a 0120     		movs	r0, #1
 679 000c 7047     		bx	lr
 680              	.L19:
 681 000e 0020     		movs	r0, #0
 332:Generated_Source\PSoC5/ADC_SAR_Seq_1_IRQ.c **** }
 682              		.loc 1 332 0
 683 0010 7047     		bx	lr
 684              	.L21:
 685 0012 00BF     		.align	2
 686              	.L20:
 687 0014 00E100E0 		.word	-536813312
 688              		.cfi_endproc
 689              	.LFE9:
 690              		.size	ADC_SAR_Seq_1_IRQ_GetState, .-ADC_SAR_Seq_1_IRQ_GetState
 691              		.section	.text.ADC_SAR_Seq_1_IRQ_Disable,"ax",%progbits
 692              		.align	2
 693              		.global	ADC_SAR_Seq_1_IRQ_Disable
 694              		.thumb
 695              		.thumb_func
 696              		.type	ADC_SAR_Seq_1_IRQ_Disable, %function
 697              	ADC_SAR_Seq_1_IRQ_Disable:
 698              	.LFB10:
 333:Generated_Source\PSoC5/ADC_SAR_Seq_1_IRQ.c **** 
 334:Generated_Source\PSoC5/ADC_SAR_Seq_1_IRQ.c **** 
 335:Generated_Source\PSoC5/ADC_SAR_Seq_1_IRQ.c **** /*******************************************************************************
 336:Generated_Source\PSoC5/ADC_SAR_Seq_1_IRQ.c **** * Function Name: ADC_SAR_Seq_1_IRQ_Disable
 337:Generated_Source\PSoC5/ADC_SAR_Seq_1_IRQ.c **** ********************************************************************************
 338:Generated_Source\PSoC5/ADC_SAR_Seq_1_IRQ.c **** *
 339:Generated_Source\PSoC5/ADC_SAR_Seq_1_IRQ.c **** * Summary:
 340:Generated_Source\PSoC5/ADC_SAR_Seq_1_IRQ.c **** *   Disables the Interrupt in the interrupt controller.
 341:Generated_Source\PSoC5/ADC_SAR_Seq_1_IRQ.c **** *
 342:Generated_Source\PSoC5/ADC_SAR_Seq_1_IRQ.c **** * Parameters:
 343:Generated_Source\PSoC5/ADC_SAR_Seq_1_IRQ.c **** *   None
 344:Generated_Source\PSoC5/ADC_SAR_Seq_1_IRQ.c **** *
 345:Generated_Source\PSoC5/ADC_SAR_Seq_1_IRQ.c **** * Return:
 346:Generated_Source\PSoC5/ADC_SAR_Seq_1_IRQ.c **** *   None
 347:Generated_Source\PSoC5/ADC_SAR_Seq_1_IRQ.c **** *
 348:Generated_Source\PSoC5/ADC_SAR_Seq_1_IRQ.c **** *******************************************************************************/
 349:Generated_Source\PSoC5/ADC_SAR_Seq_1_IRQ.c **** void ADC_SAR_Seq_1_IRQ_Disable(void)
 350:Generated_Source\PSoC5/ADC_SAR_Seq_1_IRQ.c **** {
 699              		.loc 1 350 0
 700              		.cfi_startproc
 701              		@ args = 0, pretend = 0, frame = 0
 702              		@ frame_needed = 0, uses_anonymous_args = 0
 703              		@ link register save eliminated.
 351:Generated_Source\PSoC5/ADC_SAR_Seq_1_IRQ.c ****     /* Disable the general interrupt. */
 352:Generated_Source\PSoC5/ADC_SAR_Seq_1_IRQ.c ****     *ADC_SAR_Seq_1_IRQ_INTC_CLR_EN = ADC_SAR_Seq_1_IRQ__INTC_MASK;
 704              		.loc 1 352 0
ARM GAS  C:\Users\JEFFSN~1\AppData\Local\Temp\ccGYBxLy.s 			page 44


 705 0000 0222     		movs	r2, #2
 706 0002 014B     		ldr	r3, .L23
 707 0004 1A60     		str	r2, [r3]
 708 0006 7047     		bx	lr
 709              	.L24:
 710              		.align	2
 711              	.L23:
 712 0008 80E100E0 		.word	-536813184
 713              		.cfi_endproc
 714              	.LFE10:
 715              		.size	ADC_SAR_Seq_1_IRQ_Disable, .-ADC_SAR_Seq_1_IRQ_Disable
 716              		.section	.text.ADC_SAR_Seq_1_IRQ_Start,"ax",%progbits
 717              		.align	2
 718              		.global	ADC_SAR_Seq_1_IRQ_Start
 719              		.thumb
 720              		.thumb_func
 721              		.type	ADC_SAR_Seq_1_IRQ_Start, %function
 722              	ADC_SAR_Seq_1_IRQ_Start:
 723              	.LFB0:
  62:Generated_Source\PSoC5/ADC_SAR_Seq_1_IRQ.c ****     /* For all we know the interrupt is active. */
 724              		.loc 1 62 0
 725              		.cfi_startproc
 726              		@ args = 0, pretend = 0, frame = 0
 727              		@ frame_needed = 0, uses_anonymous_args = 0
 728 0000 08B5     		push	{r3, lr}
 729              		.cfi_def_cfa_offset 8
 730              		.cfi_offset 3, -8
 731              		.cfi_offset 14, -4
  64:Generated_Source\PSoC5/ADC_SAR_Seq_1_IRQ.c **** 
 732              		.loc 1 64 0
 733 0002 FFF7FEFF 		bl	ADC_SAR_Seq_1_IRQ_Disable
 734              	.LVL7:
  67:Generated_Source\PSoC5/ADC_SAR_Seq_1_IRQ.c **** 
 735              		.loc 1 67 0
 736 0006 0448     		ldr	r0, .L27
 737 0008 FFF7FEFF 		bl	ADC_SAR_Seq_1_IRQ_SetVector
 738              	.LVL8:
  70:Generated_Source\PSoC5/ADC_SAR_Seq_1_IRQ.c **** 
 739              		.loc 1 70 0
 740 000c 0720     		movs	r0, #7
 741 000e FFF7FEFF 		bl	ADC_SAR_Seq_1_IRQ_SetPriority
 742              	.LVL9:
  73:Generated_Source\PSoC5/ADC_SAR_Seq_1_IRQ.c **** }
 743              		.loc 1 73 0
 744 0012 FFF7FEFF 		bl	ADC_SAR_Seq_1_IRQ_Enable
 745              	.LVL10:
 746 0016 08BD     		pop	{r3, pc}
 747              	.L28:
 748              		.align	2
 749              	.L27:
 750 0018 00000000 		.word	ADC_SAR_Seq_1_IRQ_Interrupt
 751              		.cfi_endproc
 752              	.LFE0:
 753              		.size	ADC_SAR_Seq_1_IRQ_Start, .-ADC_SAR_Seq_1_IRQ_Start
 754              		.section	.text.ADC_SAR_Seq_1_IRQ_StartEx,"ax",%progbits
 755              		.align	2
 756              		.global	ADC_SAR_Seq_1_IRQ_StartEx
ARM GAS  C:\Users\JEFFSN~1\AppData\Local\Temp\ccGYBxLy.s 			page 45


 757              		.thumb
 758              		.thumb_func
 759              		.type	ADC_SAR_Seq_1_IRQ_StartEx, %function
 760              	ADC_SAR_Seq_1_IRQ_StartEx:
 761              	.LFB1:
 105:Generated_Source\PSoC5/ADC_SAR_Seq_1_IRQ.c ****     /* For all we know the interrupt is active. */
 762              		.loc 1 105 0
 763              		.cfi_startproc
 764              		@ args = 0, pretend = 0, frame = 0
 765              		@ frame_needed = 0, uses_anonymous_args = 0
 766              	.LVL11:
 767 0000 10B5     		push	{r4, lr}
 768              		.cfi_def_cfa_offset 8
 769              		.cfi_offset 4, -8
 770              		.cfi_offset 14, -4
 771 0002 0446     		mov	r4, r0
 107:Generated_Source\PSoC5/ADC_SAR_Seq_1_IRQ.c **** 
 772              		.loc 1 107 0
 773 0004 FFF7FEFF 		bl	ADC_SAR_Seq_1_IRQ_Disable
 774              	.LVL12:
 110:Generated_Source\PSoC5/ADC_SAR_Seq_1_IRQ.c **** 
 775              		.loc 1 110 0
 776 0008 2046     		mov	r0, r4
 777 000a FFF7FEFF 		bl	ADC_SAR_Seq_1_IRQ_SetVector
 778              	.LVL13:
 113:Generated_Source\PSoC5/ADC_SAR_Seq_1_IRQ.c **** 
 779              		.loc 1 113 0
 780 000e 0720     		movs	r0, #7
 781 0010 FFF7FEFF 		bl	ADC_SAR_Seq_1_IRQ_SetPriority
 782              	.LVL14:
 116:Generated_Source\PSoC5/ADC_SAR_Seq_1_IRQ.c **** }
 783              		.loc 1 116 0
 784 0014 FFF7FEFF 		bl	ADC_SAR_Seq_1_IRQ_Enable
 785              	.LVL15:
 786 0018 10BD     		pop	{r4, pc}
 787              		.cfi_endproc
 788              	.LFE1:
 789              		.size	ADC_SAR_Seq_1_IRQ_StartEx, .-ADC_SAR_Seq_1_IRQ_StartEx
 790 001a 00BF     		.section	.text.ADC_SAR_Seq_1_IRQ_Stop,"ax",%progbits
 791              		.align	2
 792              		.global	ADC_SAR_Seq_1_IRQ_Stop
 793              		.thumb
 794              		.thumb_func
 795              		.type	ADC_SAR_Seq_1_IRQ_Stop, %function
 796              	ADC_SAR_Seq_1_IRQ_Stop:
 797              	.LFB2:
 135:Generated_Source\PSoC5/ADC_SAR_Seq_1_IRQ.c ****     /* Disable this interrupt. */
 798              		.loc 1 135 0
 799              		.cfi_startproc
 800              		@ args = 0, pretend = 0, frame = 0
 801              		@ frame_needed = 0, uses_anonymous_args = 0
 802 0000 08B5     		push	{r3, lr}
 803              		.cfi_def_cfa_offset 8
 804              		.cfi_offset 3, -8
 805              		.cfi_offset 14, -4
 137:Generated_Source\PSoC5/ADC_SAR_Seq_1_IRQ.c **** 
 806              		.loc 1 137 0
ARM GAS  C:\Users\JEFFSN~1\AppData\Local\Temp\ccGYBxLy.s 			page 46


 807 0002 FFF7FEFF 		bl	ADC_SAR_Seq_1_IRQ_Disable
 808              	.LVL16:
 140:Generated_Source\PSoC5/ADC_SAR_Seq_1_IRQ.c **** }
 809              		.loc 1 140 0
 810 0006 0248     		ldr	r0, .L33
 811 0008 FFF7FEFF 		bl	ADC_SAR_Seq_1_IRQ_SetVector
 812              	.LVL17:
 813 000c 08BD     		pop	{r3, pc}
 814              	.L34:
 815 000e 00BF     		.align	2
 816              	.L33:
 817 0010 00000000 		.word	IntDefaultHandler
 818              		.cfi_endproc
 819              	.LFE2:
 820              		.size	ADC_SAR_Seq_1_IRQ_Stop, .-ADC_SAR_Seq_1_IRQ_Stop
 821              		.section	.text.ADC_SAR_Seq_1_IRQ_SetPending,"ax",%progbits
 822              		.align	2
 823              		.global	ADC_SAR_Seq_1_IRQ_SetPending
 824              		.thumb
 825              		.thumb_func
 826              		.type	ADC_SAR_Seq_1_IRQ_SetPending, %function
 827              	ADC_SAR_Seq_1_IRQ_SetPending:
 828              	.LFB11:
 353:Generated_Source\PSoC5/ADC_SAR_Seq_1_IRQ.c **** }
 354:Generated_Source\PSoC5/ADC_SAR_Seq_1_IRQ.c **** 
 355:Generated_Source\PSoC5/ADC_SAR_Seq_1_IRQ.c **** 
 356:Generated_Source\PSoC5/ADC_SAR_Seq_1_IRQ.c **** /*******************************************************************************
 357:Generated_Source\PSoC5/ADC_SAR_Seq_1_IRQ.c **** * Function Name: ADC_SAR_Seq_1_IRQ_SetPending
 358:Generated_Source\PSoC5/ADC_SAR_Seq_1_IRQ.c **** ********************************************************************************
 359:Generated_Source\PSoC5/ADC_SAR_Seq_1_IRQ.c **** *
 360:Generated_Source\PSoC5/ADC_SAR_Seq_1_IRQ.c **** * Summary:
 361:Generated_Source\PSoC5/ADC_SAR_Seq_1_IRQ.c **** *   Causes the Interrupt to enter the pending state, a software method of
 362:Generated_Source\PSoC5/ADC_SAR_Seq_1_IRQ.c **** *   generating the interrupt.
 363:Generated_Source\PSoC5/ADC_SAR_Seq_1_IRQ.c **** *
 364:Generated_Source\PSoC5/ADC_SAR_Seq_1_IRQ.c **** * Parameters:
 365:Generated_Source\PSoC5/ADC_SAR_Seq_1_IRQ.c **** *   None
 366:Generated_Source\PSoC5/ADC_SAR_Seq_1_IRQ.c **** *
 367:Generated_Source\PSoC5/ADC_SAR_Seq_1_IRQ.c **** * Return:
 368:Generated_Source\PSoC5/ADC_SAR_Seq_1_IRQ.c **** *   None
 369:Generated_Source\PSoC5/ADC_SAR_Seq_1_IRQ.c **** *
 370:Generated_Source\PSoC5/ADC_SAR_Seq_1_IRQ.c **** * Side Effects:
 371:Generated_Source\PSoC5/ADC_SAR_Seq_1_IRQ.c **** *   If interrupts are enabled and the interrupt is set up properly, the ISR is
 372:Generated_Source\PSoC5/ADC_SAR_Seq_1_IRQ.c **** *   entered (depending on the priority of this interrupt and other pending 
 373:Generated_Source\PSoC5/ADC_SAR_Seq_1_IRQ.c **** *   interrupts).
 374:Generated_Source\PSoC5/ADC_SAR_Seq_1_IRQ.c **** *
 375:Generated_Source\PSoC5/ADC_SAR_Seq_1_IRQ.c **** *******************************************************************************/
 376:Generated_Source\PSoC5/ADC_SAR_Seq_1_IRQ.c **** void ADC_SAR_Seq_1_IRQ_SetPending(void)
 377:Generated_Source\PSoC5/ADC_SAR_Seq_1_IRQ.c **** {
 829              		.loc 1 377 0
 830              		.cfi_startproc
 831              		@ args = 0, pretend = 0, frame = 0
 832              		@ frame_needed = 0, uses_anonymous_args = 0
 833              		@ link register save eliminated.
 378:Generated_Source\PSoC5/ADC_SAR_Seq_1_IRQ.c ****     *ADC_SAR_Seq_1_IRQ_INTC_SET_PD = ADC_SAR_Seq_1_IRQ__INTC_MASK;
 834              		.loc 1 378 0
 835 0000 0222     		movs	r2, #2
 836 0002 014B     		ldr	r3, .L36
ARM GAS  C:\Users\JEFFSN~1\AppData\Local\Temp\ccGYBxLy.s 			page 47


 837 0004 1A60     		str	r2, [r3]
 838 0006 7047     		bx	lr
 839              	.L37:
 840              		.align	2
 841              	.L36:
 842 0008 00E200E0 		.word	-536813056
 843              		.cfi_endproc
 844              	.LFE11:
 845              		.size	ADC_SAR_Seq_1_IRQ_SetPending, .-ADC_SAR_Seq_1_IRQ_SetPending
 846              		.section	.text.ADC_SAR_Seq_1_IRQ_ClearPending,"ax",%progbits
 847              		.align	2
 848              		.global	ADC_SAR_Seq_1_IRQ_ClearPending
 849              		.thumb
 850              		.thumb_func
 851              		.type	ADC_SAR_Seq_1_IRQ_ClearPending, %function
 852              	ADC_SAR_Seq_1_IRQ_ClearPending:
 853              	.LFB12:
 379:Generated_Source\PSoC5/ADC_SAR_Seq_1_IRQ.c **** }
 380:Generated_Source\PSoC5/ADC_SAR_Seq_1_IRQ.c **** 
 381:Generated_Source\PSoC5/ADC_SAR_Seq_1_IRQ.c **** 
 382:Generated_Source\PSoC5/ADC_SAR_Seq_1_IRQ.c **** /*******************************************************************************
 383:Generated_Source\PSoC5/ADC_SAR_Seq_1_IRQ.c **** * Function Name: ADC_SAR_Seq_1_IRQ_ClearPending
 384:Generated_Source\PSoC5/ADC_SAR_Seq_1_IRQ.c **** ********************************************************************************
 385:Generated_Source\PSoC5/ADC_SAR_Seq_1_IRQ.c **** *
 386:Generated_Source\PSoC5/ADC_SAR_Seq_1_IRQ.c **** * Summary:
 387:Generated_Source\PSoC5/ADC_SAR_Seq_1_IRQ.c **** *   Clears a pending interrupt in the interrupt controller.
 388:Generated_Source\PSoC5/ADC_SAR_Seq_1_IRQ.c **** *
 389:Generated_Source\PSoC5/ADC_SAR_Seq_1_IRQ.c **** *   Note Some interrupt sources are clear-on-read and require the block 
 390:Generated_Source\PSoC5/ADC_SAR_Seq_1_IRQ.c **** *   interrupt/status register to be read/cleared with the appropriate block API 
 391:Generated_Source\PSoC5/ADC_SAR_Seq_1_IRQ.c **** *   (GPIO, UART, and so on). Otherwise the ISR will continue to remain in 
 392:Generated_Source\PSoC5/ADC_SAR_Seq_1_IRQ.c **** *   pending state even though the interrupt itself is cleared using this API.
 393:Generated_Source\PSoC5/ADC_SAR_Seq_1_IRQ.c **** *
 394:Generated_Source\PSoC5/ADC_SAR_Seq_1_IRQ.c **** * Parameters:
 395:Generated_Source\PSoC5/ADC_SAR_Seq_1_IRQ.c **** *   None
 396:Generated_Source\PSoC5/ADC_SAR_Seq_1_IRQ.c **** *
 397:Generated_Source\PSoC5/ADC_SAR_Seq_1_IRQ.c **** * Return:
 398:Generated_Source\PSoC5/ADC_SAR_Seq_1_IRQ.c **** *   None
 399:Generated_Source\PSoC5/ADC_SAR_Seq_1_IRQ.c **** *
 400:Generated_Source\PSoC5/ADC_SAR_Seq_1_IRQ.c **** *******************************************************************************/
 401:Generated_Source\PSoC5/ADC_SAR_Seq_1_IRQ.c **** void ADC_SAR_Seq_1_IRQ_ClearPending(void)
 402:Generated_Source\PSoC5/ADC_SAR_Seq_1_IRQ.c **** {
 854              		.loc 1 402 0
 855              		.cfi_startproc
 856              		@ args = 0, pretend = 0, frame = 0
 857              		@ frame_needed = 0, uses_anonymous_args = 0
 858              		@ link register save eliminated.
 403:Generated_Source\PSoC5/ADC_SAR_Seq_1_IRQ.c ****     *ADC_SAR_Seq_1_IRQ_INTC_CLR_PD = ADC_SAR_Seq_1_IRQ__INTC_MASK;
 859              		.loc 1 403 0
 860 0000 0222     		movs	r2, #2
 861 0002 014B     		ldr	r3, .L39
 862 0004 1A60     		str	r2, [r3]
 863 0006 7047     		bx	lr
 864              	.L40:
 865              		.align	2
 866              	.L39:
 867 0008 80E200E0 		.word	-536812928
 868              		.cfi_endproc
ARM GAS  C:\Users\JEFFSN~1\AppData\Local\Temp\ccGYBxLy.s 			page 48


 869              	.LFE12:
 870              		.size	ADC_SAR_Seq_1_IRQ_ClearPending, .-ADC_SAR_Seq_1_IRQ_ClearPending
 871              		.text
 872              	.Letext0:
 873              		.file 2 "Generated_Source\\PSoC5/cytypes.h"