ARM GAS  C:\Users\JEFFSN~1\AppData\Local\Temp\cckQSaDe.s 			page 1


   1              		.syntax unified
   2              		.cpu cortex-m3
   3              		.fpu softvfp
   4              		.eabi_attribute 20, 1
   5              		.eabi_attribute 21, 1
   6              		.eabi_attribute 23, 3
   7              		.eabi_attribute 24, 1
   8              		.eabi_attribute 25, 1
   9              		.eabi_attribute 26, 1
  10              		.eabi_attribute 30, 2
  11              		.eabi_attribute 34, 1
  12              		.eabi_attribute 18, 4
  13              		.thumb
  14              		.syntax unified
  15              		.file	"ADC_SAR_Seq_1_PM.c"
  16              		.text
  17              	.Ltext0:
  18              		.section	.gnu.lto_.profile.f7406fba,"",%progbits
  19 0000 789C6361 		.ascii	"x\234ca`d`a`\000\222y\002\000\001V\000\211"
  19      60646061 
  19      60009279 
  19      02000156 
  19      0089
  20              		.text
  21              		.section	.gnu.lto_.icf.f7406fba,"",%progbits
  22 0000 789C6361 		.ascii	"x\234ca`d\000\001)\006\004`aX\337\377g.\013\343\207"
  22      60640001 
  22      29060460 
  22      6158DFFF 
  22      672E0BE3 
  23 0015 775DFBB8 		.ascii	"w]\373\270\231\326\317|\320\302\304\014&\031\000\243"
  23      99D6CF7C 
  23      D0C2C40C 
  23      261900A3 
  24 0025 1E0B92   		.ascii	"\036\013\222"
  25              		.text
  26              		.section	.gnu.lto_.jmpfuncs.f7406fba,"",%progbits
  27 0000 789C6361 		.ascii	"x\234ca`d\000\001=\006\004`\201\322`\031&\306\277L\214"
  27      60640001 
  27      3D060460 
  27      81D26019 
  27      26C6BF4C 
  28 0015 6717AE39 		.ascii	"g\027\2569\307\366\205\251\225\231\201\221\213q9\243"
  28      C7F685A9 
  28      95998191 
  28      8B7139A3 
  29 0025 0C589A89 		.ascii	"\014X\232\211\201\201\031H\001\000\247%\006}"
  29      81811948 
  29      0100A725 
  29      067D
  30              		.text
  31              		.section	.gnu.lto_.inline.f7406fba,"",%progbits
  32 0000 789C6361 		.ascii	"x\234ca`d\000\201z\006\004`a``\327bd`\0022\331\026\310"
  32      60640081 
  32      7A060460 
  32      616060D7 
  32      62646002 
ARM GAS  C:\Users\JEFFSN~1\AppData\Local\Temp\cckQSaDe.s 			page 2


  33 0018 83280646 		.ascii	"\203(\006F.,\004\003\367\001 \301\304t\201\037\213:"
  33      2E2C0403 
  33      F70120C1 
  33      C474811F 
  33      8B3A
  34 002a 266E900A 		.ascii	"&n\220\0124-L\014\314L\250\0063c\2100\000\000\274\375"
  34      342D4C0C 
  34      CC4CA806 
  34      33638830 
  34      0000BCFD 
  35 003e 060F     		.ascii	"\006\017"
  36              		.text
  37              		.section	.gnu.lto_.pureconst.f7406fba,"",%progbits
  38 0000 789C6361 		.ascii	"x\234ca`d\340d```a\220`\224bb`f\000\000\002;\000K"
  38      6064E064 
  38      60606061 
  38      90609462 
  38      62606600 
  39              		.text
  40              		.section	.gnu.lto_ADC_SAR_Seq_1_Sleep.f7406fba,"",%progbits
  41 0000 789C6361 		.ascii	"x\234ca`d\000\001- \245\003\244\245\201\230\221\231"
  41      60640001 
  41      2D20A503 
  41      A4A58198 
  41      9199
  42 0012 819169C2 		.ascii	"\201\221i\3029\006\206F\016&FF\020\243\201\203\221\241"
  42      39068646 
  42      0E264646 
  42      10A38183 
  42      91A1
  43 0024 9E89B19E 		.ascii	"\236\211\261\236\361+\323_&\306C\355\317v2i.o\000\202"
  43      F12BD35F 
  43      26C643ED 
  43      CF763269 
  43      2E6F0082 
  44 0038 0747A733 		.ascii	"\007G\24737\2548\300\330\312\314\300\360\237\011l\022"
  44      37AC38C0 
  44      D8CACCC0 
  44      F09F096C 
  44      12
  45 0049 03E37246 		.ascii	"\003\343rFM\006\240\262G\033\377M\345ek\001)S\200H2"
  45      4D06A0B2 
  45      471BFF4D 
  45      E5656B01 
  45      29538048 
  46 005e AE606403 		.ascii	"\256`d\003Y\267>\350@\303\377\377\315\015\007\366\263"
  46      59B73EE8 
  46      40C3FFFF 
  46      CD0D07F6 
  46      B3
  47 006f EE656663 		.ascii	"\356efc`\370\000\224\004Y\363\221\211\011D3\277`l>p"
  47      60F80094 
  47      0459F391 
  47      89094433 
  47      BF606C3E 
  48 0084 5114A41A 		.ascii	"Q\024\244\032d\316\316\235on\263\327\377m\350hh\020"
  48      64CECE9D 
ARM GAS  C:\Users\JEFFSN~1\AppData\Local\Temp\cckQSaDe.s 			page 3


  48      6F6EB3D7 
  48      FF6DE868 
  48      6810
  49 0096 686566FC 		.ascii	"hef\374\317\0044\202q%c=C+3\023\003H\351%F\234J\201"
  49      CF043482 
  49      7125633D 
  49      432B3313 
  49      0348E925 
  50 00ae 0633AE42 		.ascii	"\0063\256BRz\005\267R\240\017\030W#)\275\235\212S)\013"
  50      527A05B7 
  50      52A00F18 
  50      572329BD 
  50      9D8A5329 
  51 00c3 50E91AA8 		.ascii	"P\351\032\250\322W\214M\007\356\263\202\225\202\300"
  51      D2578C4D 
  51      07EEB382 
  51      9582C0
  52 00d2 07A0EB80 		.ascii	"\007\240\353\200^\000\332\253\345\236\232\227Z\224X"
  52      5E00DAAB 
  52      E59E9A97 
  52      5A9458
  53 00e1 929A121F 		.ascii	"\222\232\022\037\234_Z\224\234\032\023\020\234\357l"
  53      9C5F5A94 
  53      9C1A1310 
  53      9CEF6C
  54 00f0 1AE3E8E2 		.ascii	"\032\343\350\342\034\037\354\030\024\037\234Z\030o\030"
  54      1C1FEC18 
  54      141F9C5A 
  54      186F18
  55 00ff 1FE0AB97 		.ascii	"\037\340\253\227\314\000\000>\317xo"
  55      CC00003E 
  55      CF786F
  56              		.text
  57              		.section	.gnu.lto_ADC_SAR_Seq_1_Wakeup.f7406fba,"",%progbits
  58 0000 789C7D91 		.ascii	"x\234}\221\317K\002A\024\307\347\315\254\273\233\024"
  58      CF4B0241 
  58      14C7E7CD 
  58      ACBB9B14 
  59 0010 75CF4357 		.ascii	"u\317CW#\242\016\375\001b\340)\010\367*,a{M\222:\357"
  59      23A20EFD 
  59      0162E029 
  59      08F72A2C 
  59      617B4D92 
  60 0026 6CBA149D 		.ascii	"l\272\024\235:d\207(\244\223V\226\331\315\333\346A:"
  60      3A648728 
  60      A4935696 
  60      D9CDDBE6 
  60      413A
  61 0038 94117593 		.ascii	"\224\021u\223 \242,\"\310\350\007\021\330\366F#\274"
  61      20A22C22 
  61      C8E80711 
  61      D8F64623 
  61      BC
  62 0049 D883E1CD 		.ascii	"\330\203\341\315\217\317\367}\337\314H\004\210\210g"
  62      8FCFF77D 
  62      DFCC4804 
  62      888867
ARM GAS  C:\Users\JEFFSN~1\AppData\Local\Temp\cckQSaDe.s 			page 4


  63 0058 4C4398FB 		.ascii	"LC\230\373q\000#@W*\204X*\005\020\023\256\0021)\230"
  63      71002340 
  63      572A8458 
  63      2A051013 
  63      AE023129 
  64 006d F04E1B14 		.ascii	"\360N\033\024J\213\265\"\365g8\306\365\335\375\010\317"
  64      4A8BB522 
  64      F56738C6 
  64      F5DDFD08 
  64      CF
  65 007e 3A603342 		.ascii	":`3B\\\332\254D \003~\202\330M\341;\325#'\0056\320:"
  65      5CDAAC44 
  65      20037E82 
  65      D84DE13B 
  65      D5232705 
  66 0095 842CC8C2 		.ascii	"\204,\310\302.\037v\270\353&\270s.\037\255*]*\261\031"
  66      2E1F76B8 
  66      EB26B873 
  66      2E1FAD2A 
  66      5D2AB119 
  67 00a9 6ED71111 		.ascii	"n\327\021\021f/\224\212\314\036 \341\\\224\251\020\211"
  67      662F948A 
  67      CC1E20E1 
  67      5C94A910 
  67      89
  68 00ba 72C5E253 		.ascii	"r\305\342SU1\033|\211\363>\233Q\227\242\004\266\301"
  68      55311B7C 
  68      89F33E9B 
  68      5197A204 
  68      B6C1
  69 00cc 44312382 		.ascii	"D1#\202\275\224;\242X\031v\332\320j\271\273#\2137\201"
  69      BD943BA2 
  69      581976DA 
  69      D06AB9BB 
  69      238B3781 
  70 00e0 DD3F36E9 		.ascii	"\335?6\351\274vjAr\251\204l\016Y<;\335\312U\3447j3\017"
  70      BC766A41 
  70      72A9846C 
  70      0E593C3B 
  70      DDCA55E4 
  71 00f8 78610F7C 		.ascii	"xa\017|6\223\233V\037\235\273\362\240z\277\255\253\306"
  71      36939B56 
  71      1F9DBBF2 
  71      A07ABFAD 
  71      ABC6
  72 010a 3F5DC9C8 		.ascii	"?]\311\310\346\177\331\032\224\276\226+\033^\001'\230"
  72      E67FD91A 
  72      94BE962B 
  72      1B5E0127 
  72      98
  73 011b 8AF89A5D 		.ascii	"\212\370\232]:S\204\271\002B}\222\376t<\255\345\355"
  73      3A5384B9 
  73      02427D92 
  73      FE743CAD 
  73      E5ED
  74 012d B1C525DC 		.ascii	"\261\305%\334\312\255_Y\275i\330\264\222\370W*\024\300"
  74      CAAD5F59 
ARM GAS  C:\Users\JEFFSN~1\AppData\Local\Temp\cckQSaDe.s 			page 5


  74      BD69D8B4 
  74      92F8572A 
  74      14C0
  75 013f 0707E0C3 		.ascii	"\007\007\340\303\242\207\220\006\362\010\013N*\3244"
  75      A2879006 
  75      F2080B4E 
  75      2AD434
  76 014e 1751C7B7 		.ascii	"\027Q\307\267\305\037\300W\033\014\0313F|j\316\230\326"
  76      C51FC057 
  76      1B0C1933 
  76      467C6ACE 
  76      98D6
  77 0160 B5D87C3C 		.ascii	"\265\330|<jD&\265Xp,\022\030\017\352Z \254k\306\254"
  77      6A4426B5 
  77      58702C12 
  77      180FEA5A 
  77      20AC6BC6 
  78 0175 3EAA4F4E 		.ascii	">\252ON\014G\311\017D\210\277\037"
  78      0C47C90F 
  78      4488BF1F 
  79              		.text
  80              		.section	.gnu.lto_ADC_SAR_Seq_1_SaveConfig.f7406fba,"",%progbits
  81 0000 789C6361 		.ascii	"x\234ca`d\000\201\032 \326\001bi fdf`d\232p\216\201"
  81      60640081 
  81      1A20D601 
  81      62692066 
  81      64666064 
  82 0018 A1918389 		.ascii	"\241\221\203\211\221\021\304h\340`d\250gb\254g\374\312"
  82      9111C468 
  82      E06064A8 
  82      6762AC67 
  82      FCCA
  83 002a F49789F1 		.ascii	"\364\227\211\361P\373\263\235L\232\313\033\200\340\301"
  83      50FBB39D 
  83      4C9ACB1B 
  83      80E0C1
  84 0039 D27F060D 		.ascii	"\322\177\006\015+\0160\266230\374g\002\233\304\300\270"
  84      2B0E30B6 
  84      323330FC 
  84      67029BC4 
  84      C0B8
  85 004b 9C519301 		.ascii	"\234Q\223\001\250\354\321\306\177Sy\331Z@\312\024 \222"
  85      A8ECD1C6 
  85      7F5379D9 
  85      5A40CA14 
  85      2092
  86 005d 8C2B18D9 		.ascii	"\214+\030\331@\326\255\017:\320\360\377\177s\303\201"
  86      40D6AD0F 
  86      3AD0F0FF 
  86      7F73C381 
  87 006d AFEC077F 		.ascii	"\257\354\007\177\260\003e>\0001\310\236\217LL \232\371"
  87      B003653E 
  87      0031C89E 
  87      8F4C4C20 
  87      9AF9
  88 007f 15231348 		.ascii	"\025#\023H-\330\270\017L\214 1\240\012-\367\324\274"
  88      2DD8B80F 
ARM GAS  C:\Users\JEFFSN~1\AppData\Local\Temp\cckQSaDe.s 			page 6


  88      4C8C2031 
  88      A00A2DF7 
  88      D4BC
  89 0091 D4A2C492 		.ascii	"\324\242\304\222\324\224\370\340\374\322\242\344\324"
  89      D494F8E0 
  89      FCD2A2E4 
  89      D4
  90 009e 9880E07C 		.ascii	"\230\200\340|g\323\030G\027\347\370`\307\240\370\340"
  90      67D31847 
  90      17E7F860 
  90      C7A0F8E0 
  91 00ae D4C278C3 		.ascii	"\324\302x\303\370\000_\275d\006\000v\340<\256"
  91      F8005FBD 
  91      64060076 
  91      E03CAE
  92              		.text
  93              		.section	.gnu.lto_ADC_SAR_Seq_1_RestoreConfig.f7406fba,"",%progbits
  94 0000 789C6361 		.ascii	"x\234ca`d\000\201\032 \326\001bi fdf`d\232p\216\201"
  94      60640081 
  94      1A20D601 
  94      62692066 
  94      64666064 
  95 0018 A1918389 		.ascii	"\241\221\203\211\221\021\304h\340`d\250gb\254g\374\312"
  95      9111C468 
  95      E06064A8 
  95      6762AC67 
  95      FCCA
  96 002a F49789F1 		.ascii	"\364\227\211\361P\373\263\235L\232\313\033\200\340\301"
  96      50FBB39D 
  96      4C9ACB1B 
  96      80E0C1
  97 0039 D355860D 		.ascii	"\323U\206\015+\0160\266230\374g\002\233\304\300\270"
  97      2B0E30B6 
  97      323330FC 
  97      67029BC4 
  97      C0B8
  98 004b 9C519301 		.ascii	"\234Q\223\001\250\354\321\306\177Sy\331Z@\312\024 \222"
  98      A8ECD1C6 
  98      7F5379D9 
  98      5A40CA14 
  98      2092
  99 005d 8C2B18D9 		.ascii	"\214+\030\331@\326\255\017:\320\360\377\177s\303\201"
  99      40D6AD0F 
  99      3AD0F0FF 
  99      7F73C381 
 100 006d 9B5C07EF 		.ascii	"\233\\\007\357p\001e>\0001\310\236\217LL \232\371\025"
 100      7001653E 
 100      0031C89E 
 100      8F4C4C20 
 100      9AF915
 101 0080 2313482D 		.ascii	"#\023H-\330\270\017L\214 1\240\012-\367\324\274\324"
 101      D8B80F4C 
 101      8C2031A0 
 101      0A2DF7D4 
 101      BCD4
 102 0092 A2C492D4 		.ascii	"\242\304\222\324\224\370\340\374\322\242\344\324\230"
 102      94F8E0FC 
ARM GAS  C:\Users\JEFFSN~1\AppData\Local\Temp\cckQSaDe.s 			page 7


 102      D2A2E4D4 
 102      98
 103 009f 80E07C67 		.ascii	"\200\340|g\323\030G\027\347\370`\307\240\370\340\324"
 103      D3184717 
 103      E7F860C7 
 103      A0F8E0D4 
 104 00af C278C3F8 		.ascii	"\302x\303\370\000_\275d\006\000Z\340<i"
 104      005FBD64 
 104      06005AE0 
 104      3C69
 105              		.text
 106              		.section	.gnu.lto_.symbol_nodes.f7406fba,"",%progbits
 107 0000 789C55C9 		.ascii	"x\234U\311\273\021\3020\024D\321}\222\254\257\325\003"
 107      BB11C230 
 107      1444D17D 
 107      92ACAFD5 
 107      03
 108 0011 34417BAB 		.ascii	"4A{\253\200\002(\302U\020;\246\006\230\241\016\006Y"
 108      800228C2 
 108      55103BA6 
 108      0698A10E 
 108      0659
 109 0023 22E04577 		.ascii	"\"\340Ew\316\256\203\340\"\000\014\010\334\0368ro\347"
 109      CEAE83E0 
 109      22000C08 
 109      DC1E3872 
 109      6FE7
 110 0035 3E08450F 		.ascii	">\010E\017\206F\017\226V\015\022\350\306\000\264v\352"
 110      86460F96 
 110      560D12E8 
 110      C600B476 
 110      EA
 111 0046 F65C9417 		.ascii	"\366\\\224\027ze\307\240\\\031\225W&\345\302\254\234"
 111      7A65C7A0 
 111      5C199557 
 111      26E5C2AC 
 111      9C
 112 0057 59941357 		.ascii	"Y\224\023W\345\310\372o\213\200\355\371\021\013\217"
 112      E5C8FA6F 
 112      8B80EDF9 
 112      110B8F
 113 0066 7D74C17B 		.ascii	"}t\301{\324\341\372\352\225:\177Y\347/e\376\222\177"
 113      D4E1FAEA 
 113      953A7F59 
 113      E72F65FE 
 113      927F
 114 0078 7FC2361A 		.ascii	"\177\3026\032\261\367\342\013\304\361G\376"
 114      B1F7E20B 
 114      C4F147FE 
 115              		.text
 116              		.section	.gnu.lto_.refs.f7406fba,"",%progbits
 117 0000 789C6361 		.ascii	"x\234ca`\004B \000\000\0009\000\007"
 117      60044220 
 117      00000039 
 117      0007
 118              		.text
 119              		.section	.gnu.lto_.decls.f7406fba,"",%progbits
ARM GAS  C:\Users\JEFFSN~1\AppData\Local\Temp\cckQSaDe.s 			page 8


 120 0000 789C8D95 		.ascii	"x\234\215\225kL\024W\024\307\347\314]XX\0260\326Z\222"
 120      6B4C1457 
 120      14C7E7CC 
 120      5D585816 
 120      30D65A92 
 121 0014 6E5AEA07 		.ascii	"nZ\352\007%mC%\265\215\237\232\232\265j\023\333\030"
 121      256D4325 
 121      B58D9F9A 
 121      9AB56A13 
 121      DB18
 122 0026 89DA3426 		.ascii	"\211\3324&\004\351\324\022\011PXl\3706\012\012!\015"
 122      04E9D412 
 122      0950586C 
 122      F8360A0A 
 122      210D
 123 0038 02BE0242 		.ascii	"\002\276\002B\201\266Z\360\005\010\312\202<\226\367"
 123      81B65AF0 
 123      0508CA82 
 123      3C96F7
 124 0047 1B5928A8 		.ascii	"\033Y(\250 \201V\215EI\203\224\326P\213\3333\367\336"
 124      2081568D 
 124      45498394 
 124      D6508BDB 
 124      33F7DE
 125 005a D9D9DD2E 		.ascii	"\331\331\335.)7\234\341>\316\357\177\316\234{w\256N"
 125      29379CE1 
 125      3ECEEF7F 
 125      CE9C7B77 
 125      AE4E
 126 006c 00416979 		.ascii	"\000AiyzA\370\\\024\204]8t`\363\301\271\275h\312\352"
 126      7A41F85C 
 126      14845D38 
 126      7460F3C1 
 126      B9BD68CA 
 127 0081 1581B520 		.ascii	"\025\201\265 \264\032\264\033hV\264z\264\006\264&4\033"
 127      B41AB41B 
 127      6856B47A 
 127      B406B426 
 127      341B
 128 0093 5A2B5A3B 		.ascii	"Z+Z;Z'Z/Z?\332 \332\220\360\337\246\350\020\036\303"
 128      5A275A2F 
 128      5A3FDA20 
 128      DA90F0DF 
 128      A6E8101E 
 129 00a8 8E56CDE7 		.ascii	"\216V\315\347}\370Z+\327l\3421<\233\222\203?\347M.\032"
 129      7DF85A2B 
 129      D76CE231 
 129      3C9B9283 
 129      3FE74D2E 
 130 00bd C33CDF1E 		.ascii	"\303<\337\036\264I\264{\334_\317\231!\236S?\317\261"
 130      B449B47B 
 130      DC5FCF99 
 130      219E533F 
 130      CFB1
 131 00cf 93E7ECD9 		.ascii	"\223\347\354\331\254\374\335\367\3621\3609\317V\357"
 131      ACFCDDF7 
 131      F231F039 
ARM GAS  C:\Users\JEFFSN~1\AppData\Local\Temp\cckQSaDe.s 			page 9


 131      CF56EF
 132 00de C5AFDE8B 		.ascii	"\305\257\336\213\337\222\010\347\377~>G\026DXo\000\207"
 132      DF9208E7 
 132      FF7E3E47 
 132      1644586F 
 132      0087
 133 00f0 83E044C5 		.ascii	"\203\340D\305l\335b \233P\326\247\026\313\266\205_\226"
 133      6CDD6220 
 133      9B50D6A7 
 133      16CBB685 
 133      5F96
 134 0102 B1E5C8B2 		.ascii	"\261\345\310\262(j`Yig\265\201\004P\247\016\3073[02"
 134      286A6059 
 134      6967B581 
 134      0450A70E 
 134      C7335B30 
 135 0117 AB0D20E2 		.ascii	"\253\015 \342px\256\277(\000\207k\014\260jI\024\013"
 135      7078AEBF 
 135      2800876B 
 135      0CB06A49 
 135      140B
 136 0129 4FB55CF1 		.ascii	"O\265\\\361\005CX\246,\037\225\3454\331P\026$\300e0"
 136      054358A6 
 136      2C1F95E5 
 136      34D95016 
 136      24C06530 
 137 013d C1253009 		.ascii	"\301%0\011p\025\302\224X\345\020.@\031N\376\204\223"
 137      7015C294 
 137      58E5102E 
 137      40194EFE 
 137      8493
 138 014f 179478D3 		.ascii	"\027\224x\323\243\277}P'\313\253\340\012\030\340\"\020"
 138      A3BF7D50 
 138      27CBABE0 
 138      0A18E022 
 138      10
 139 0160 EA82EFB2 		.ascii	"\352\202\357\262\336\240<q\022#9\212kN\370M\300] \002"
 139      DEA03C71 
 139      1223398A 
 139      6B4EF84D 
 139      C05D2002 
 140 0174 3F320200 		.ascii	"?2\002\000{\0025\201\031\035bG\024XG\235r6\201\273\210"
 140      7B023581 
 140      191D6247 
 140      1458479D 
 140      723681BB 
 141 0189 6A5713A3 		.ascii	"jW\023\243\177\234\007\207\332\250\210\246\016\034b"
 141      7F9C0787 
 141      DAA888A6 
 141      0E1C62
 142 0198 63B5EA1C 		.ascii	"c\265\352\034\002Q\013\000l\250\022.z\036\031\2519\253"
 142      02510B00 
 142      6CA8122E 
 142      7A1E19A9 
 142      39AB
 143 01aa 610451AD 		.ascii	"a\004Q\255\374\370l\315gd\023-\274=\275\262\220\260"
 143      FCF86CCD 
ARM GAS  C:\Users\JEFFSN~1\AppData\Local\Temp\cckQSaDe.s 			page 10


 143      6764132D 
 143      BC3DBDB2 
 143      90B0
 144 01bc C2EB70F8 		.ascii	"\302\353p\370t\240\340~\020+|(\016\227z\316\025\210"
 144      74A0E07E 
 144      102B7C28 
 144      0E977ACE 
 144      1588
 145 01ce 2167E8E6 		.ascii	"!g\350\346\245\311\241:\330\273\026\256a\211\253\260"
 145      A5C9A13A 
 145      D8BB16AE 
 145      6189ABB0 
 146 01de C4025443 		.ascii	"\304\002TC\010>\017\350\230h{\313\271\342\340u%rI\245"
 146      083E0FE8 
 146      98687BCB 
 146      B9E2E075 
 146      257249A5 
 147 01f2 3C5D75FC 		.ascii	"<]u\374\2353ir7b\241\212\027Tj\305\257T*-@\005L`V5\260"
 147      9D336972 
 147      3762A18A 
 147      17546AC5 
 147      AF542A2D 
 148 020d 0EC99953 		.ascii	"\016\311\231Sy\217\374I2\315\247\370\302\303\002\035"
 148      798FFC49 
 148      32CDA7F8 
 148      C2C3021D 
 149 021d 53B13575 		.ascii	"S\2615u\032\345\234#\262\374!\325\270\256i\\w\325\270"
 149      1AE59C23 
 149      B2FC21D5 
 149      B8AE695C 
 149      77D5B8
 150 0230 41357E7F 		.ascii	"A5~\177\374\327\224\236d\002\025\031:UT\253\210T\242"
 150      FCD7949E 
 150      64021519 
 150      3A5554AB 
 150      8854A2
 151 0243 C87C97AB 		.ascii	"\310|\227\253H\255&R\353*b\245\"\266\361\213\013@J\231"
 151      48AD2652 
 151      EB2A62A5 
 151      22B6F18B 
 151      0B404A99 
 152 0257 C8F9C5DC 		.ascii	"\310\371\305\334<\302E\306z]E\3524\221:W\221z*\322m"
 152      3CC245C6 
 152      7A5D45EA 
 152      34913A57 
 152      917A2AD2 
 153 026c EFC9D091 		.ascii	"\357\311\320\221F&2\360\342\237L?\024\231\306\3238\237"
 153      462632F0 
 153      E29F4C3F 
 153      1499C6D3 
 153      389F
 154 027e FD76BEDC 		.ascii	"\375v\276\334\252\243\02275\211\233T\002;\015\024\277"
 154      AAA31237 
 154      35899B54 
 154      023B0D14 
 154      BF
 155 028f 73747E38 		.ascii	"st~8\210d\211\024\267\226\214V\3519\236sr\223\023o\324"
ARM GAS  C:\Users\JEFFSN~1\AppData\Local\Temp\cckQSaDe.s 			page 11


 155      88648914 
 155      B7968C56 
 155      E9399E73 
 155      7293136F 
 156 02a4 F046156F 		.ascii	"\360F\025o\242x~\355L\231H\272\031~\253\371d\251\257"
 156      A2787EED 
 156      4C9948BA 
 156      197EABF9 
 156      64A9AF
 157 02b7 8A9FDD99 		.ascii	"\212\237\335\231\233V\262\203\342\315\032\336\254\342"
 157      9B56B283 
 157      E2CD1ADE 
 157      ACE2
 158 02c5 368A4FCF 		.ascii	"6\212O\317\333\357\371\221o\011\305'\255v\233\221\341"
 158      DBEFF991 
 158      6F09C527 
 158      AD769B91 
 158      E1
 159 02d6 B67129DD 		.ascii	"\266q)\335\237\262-\032\333\242\262\255\224mm\033\234"
 159      9FB22D1A 
 159      DBA2B2AD 
 159      946D6D1B 
 159      9C
 160 02e7 D3931F18 		.ascii	"\323\223\037\030[9\370\324\016\234\035\311\016tf\336"
 160      5B39F8D4 
 160      0E9C1DC9 
 160      0E7466DE 
 161 02f7 A6E16D2A 		.ascii	"\246\341m*\336N\361\307\365v\233\017ie\370\314\331'"
 161      DE4EF1C7 
 161      F5769B0F 
 161      6965F8CC 
 161      D927
 162 0309 23813CF3 		.ascii	"#\201<\363\334\021<L<\363\016\015\357P\361N\212_\035"
 162      DC113C4C 
 162      3CF30E0D 
 162      EF50F14E 
 162      8A5F1D
 163 031c AFAD0920 		.ascii	"\257\255\011 \267\031~fda\021t\"\373\225+'\024\3472"
 163      B7197E66 
 163      64611174 
 163      22FB952B 
 163      2714E732 
 164 0330 D26ED493 		.ascii	"\322n\324\223e\317r\017=\313\335\300\017\363\354\235"
 164      65CF720F 
 164      3DCBDDC0 
 164      0FF3EC9D 
 165 0340 5F968279 		.ascii	"_\226\202y\374\274\251oh\345\320\005\272\264\370]j\374"
 165      FCBCA96F 
 165      68E5D005 
 165      BAB4F85D 
 165      6AFC
 166 0352 5E56F8BE 		.ascii	"^V\370\276\343\263\301\344\210\216\235\235g\177Z\235"
 166      E3B3C1E4 
 166      888E9D9D 
 166      677F5A9D 
 167 0362 DB3EB8C1 		.ascii	"\333>\270\301\371\366}\032\336\247\342\375\024\227O"
 167      F9F67D1A 
ARM GAS  C:\Users\JEFFSN~1\AppData\Local\Temp\cckQSaDe.s 			page 12


 167      DEA7E2FD 
 167      14974F
 168 0371 FCD86020 		.ascii	"\374\330` \3371\274\245\2409Kt\356\3336\347\276\015"
 168      DF31BCA5 
 168      A0394B74 
 168      EEDB36E7 
 168      BE0D
 169 0383 68F8808A 		.ascii	"h\370\200\212\017R\274\301\332~\214\220Z\206gd\225\026"
 169      0F52BCC1 
 169      DA7E8C90 
 169      5A866764 
 169      9516
 170 0395 AAB5BFD6 		.ascii	"\252\265\277\326i\264\345\000\245oi\364-\225\036\242"
 170      69B4E500 
 170      A56F69F4 
 170      2D951EA2 
 171 03a5 F4F38715 		.ascii	"\364\363\207\025\217\214\306,\345\353\212\245Y\335\035"
 171      8F8CC62C 
 171      E5EB8AA5 
 171      59DD1D
 172 03b4 44FDB5E2 		.ascii	"D\375\265\342\330\301\250\222\330E\240\377r\371#\342"
 172      D8C1A892 
 172      D845A0FF 
 172      72F923E2 
 173 03c4 06F4B801 		.ascii	"\006\364\270\001\303`\244\362\303\324\273\342\330\203"
 173      C360A4F2 
 173      C3D4BBE2 
 173      D883
 174 03d2 723FFCA8 		.ascii	"r?\374\250\230\360\206\000\227\013\302\304.\210\374"
 174      98F08600 
 174      970BC2C4 
 174      2E88FC
 175 03e1 DCFB2F02 		.ascii	"\334\373/\002\310\020\315]\034\271\177iF\007a\006\376"
 175      C810CD5D 
 175      1CB97F69 
 175      46076106 
 175      FE
 176 03f2 017FC03E 		.ascii	"\001\177\300>\340\267q\027G\265\364M\312\007\234^\006"
 176      E0B77117 
 176      47B5F44D 
 176      CA079C5E 
 176      06
 177 0403 73DFCBBE 		.ascii	"s\337\313\276!\002\274k\202\215x\023\214\341M`\3427"
 177      2102BC6B 
 177      828D7813 
 177      8CE14D60 
 177      E237
 178 0415 C1CF98CC 		.ascii	"\301\317\230\314\010&\203\001\026\322\377\030\3635d"
 178      08268301 
 178      16D2FF18 
 178      F33564
 179 0424 2A37C78A 		.ascii	"*7\307\212\374\007fJ\035z2\306\022\252>\235\177Z\317"
 179      FC07664A 
 179      1D7A32C6 
 179      12AA3E9D 
 179      7F5ACF
 180 0437 EE1E4F7C 		.ascii	"\356\036O|\302\013N\363\266\335~\274#]\226\001\3061"
ARM GAS  C:\Users\JEFFSN~1\AppData\Local\Temp\cckQSaDe.s 			page 13


 180      C20B4EF3 
 180      B6DD7EBC 
 180      235D9601 
 180      C631
 181 0449 EFBB5ADE 		.ascii	"\357\273Z\336w\300\300\216W\351\271'\277\006\250\031"
 181      77C0C08E 
 181      57E9B927 
 181      BF06A819 
 182 0459 E5FC8F24 		.ascii	"\345\374\217$\372g\027\215\316\007\271\325\373\036*"
 182      FA67178D 
 182      CE07B9D5 
 182      FB1E2A
 183 0468 6BF59EE4 		.ascii	"k\365\236\344\365V\376\373m\377tO\2509\"B\360M\211\215"
 183      F556FEFB 
 183      6DFF744F 
 183      A8392242 
 183      F04D898D 
 184 047c B744BCFF 		.ascii	"\267D\274\377\306v)^J\212\266H_DE&\244$\305H\373wE&"
 184      C676295E 
 184      4A8AB648 
 184      5F444526 
 184      A424C548 
 185 0494 98DFDB1F 		.ascii	"\230\337\333\037\223jIM\224\222\303\277\022^\332\262"
 185      936A494D 
 185      9492C3BF 
 185      125EDAB2 
 186 04a4 D51C15B9 		.ascii	"\325\034\025\271ewT\244\364uTDTd\234$%\276\271\014\345"
 186      657754A4 
 186      F4755444 
 186      54649C24 
 186      25BEB90C 
 187 04b9 EEBAEB93 		.ascii	"\356\272\353\223\360\030a\215\373\334\276\350CRJb\210"
 187      F018618D 
 187      FBDCBEE8 
 187      43524A62 
 187      88
 188 04ca 8766F461 		.ascii	"\207f\364a\311\234\020\377e\354\301W\335\027vK\311\226"
 188      C99C10FF 
 188      65ECC157 
 188      DD17764B 
 188      C996
 189 04dc 8424EF6B 		.ascii	"\204$\357k\037\307[\314q\0111\207\242\"-\011\211\033"
 189      1FC75BCC 
 189      71093187 
 189      A2222D09 
 189      891B
 190 04ee 5794908A 		.ascii	"W\224\220\212\340[\275\354\276\262569\372@\234\264a"
 190      E05BBDEC 
 190      BEB23536 
 190      39FA409C 
 190      B461
 191 0500 253248BF 		.ascii	"%2H\277\342\221\277\322S\352\362\326\212\322\300\036"
 191      E291BFD2 
 191      53EAF2D6 
 191      8AD2C01E 
 192 0510 6AACF5A2 		.ascii	"j\254\365\242\201o\362\232\267\351\350$\013\326\340"
 192      816FF29A 
ARM GAS  C:\Users\JEFFSN~1\AppData\Local\Temp\cckQSaDe.s 			page 14


 192      B7E9E824 
 192      0BD6E0
 193 051f B09464F1 		.ascii	"\260\224d\361(\347G\361J\332\376\346\324\255R\\t\352"
 193      28E747F1 
 193      4ADAFEE6 
 193      D4AD525C 
 193      74EA
 194 0531 9EE4D797 		.ascii	"\236\344\327\227I\300\234\2723\366\000\0065-[C\014\341"
 194      49C09CBA 
 194      33F60006 
 194      352D5B43 
 194      0CE1
 195 0543 B92BD863 		.ascii	"\271+\330c\372^\026\330>\372(\207h\263.I:\270\371_\253"
 195      FA5E16D8 
 195      3EFA2887 
 195      68B32E49 
 195      3AB8F95F 
 196 0558 9B1A60   		.ascii	"\233\032`"
 197              		.text
 198              		.section	.gnu.lto_.symtab.f7406fba,"",%progbits
 199 0000 4144435F 		.ascii	"ADC_SAR_Seq_1_Sleep\000"
 199      5341525F 
 199      5365715F 
 199      315F536C 
 199      65657000 
 200 0014 00       		.ascii	"\000"
 201 0015 00       		.ascii	"\000"
 202 0016 00       		.ascii	"\000"
 203 0017 00000000 		.ascii	"\000\000\000\000\000\000\000\000"
 203      00000000 
 204 001f B4000000 		.ascii	"\264\000\000\000"
 205 0023 4144435F 		.ascii	"ADC_SAR_Seq_1_Wakeup\000"
 205      5341525F 
 205      5365715F 
 205      315F5761 
 205      6B657570 
 206 0038 00       		.ascii	"\000"
 207 0039 00       		.ascii	"\000"
 208 003a 00       		.ascii	"\000"
 209 003b 00000000 		.ascii	"\000\000\000\000\000\000\000\000"
 209      00000000 
 210 0043 B6000000 		.ascii	"\266\000\000\000"
 211 0047 4144435F 		.ascii	"ADC_SAR_Seq_1_SaveConfig\000"
 211      5341525F 
 211      5365715F 
 211      315F5361 
 211      7665436F 
 212 0060 00       		.ascii	"\000"
 213 0061 00       		.ascii	"\000"
 214 0062 00       		.ascii	"\000"
 215 0063 00000000 		.ascii	"\000\000\000\000\000\000\000\000"
 215      00000000 
 216 006b B8000000 		.ascii	"\270\000\000\000"
 217 006f 4144435F 		.ascii	"ADC_SAR_Seq_1_RestoreConfig\000"
 217      5341525F 
 217      5365715F 
 217      315F5265 
ARM GAS  C:\Users\JEFFSN~1\AppData\Local\Temp\cckQSaDe.s 			page 15


 217      73746F72 
 218 008b 00       		.ascii	"\000"
 219 008c 00       		.ascii	"\000"
 220 008d 00       		.ascii	"\000"
 221 008e 00000000 		.ascii	"\000\000\000\000\000\000\000\000"
 221      00000000 
 222 0096 BA000000 		.ascii	"\272\000\000\000"
 223 009a 4144435F 		.ascii	"ADC_SAR_Seq_1_IntClock_Stop\000"
 223      5341525F 
 223      5365715F 
 223      315F496E 
 223      74436C6F 
 224 00b6 00       		.ascii	"\000"
 225 00b7 02       		.ascii	"\002"
 226 00b8 00       		.ascii	"\000"
 227 00b9 00000000 		.ascii	"\000\000\000\000\000\000\000\000"
 227      00000000 
 228 00c1 BC000000 		.ascii	"\274\000\000\000"
 229 00c5 4144435F 		.ascii	"ADC_SAR_Seq_1_Disable\000"
 229      5341525F 
 229      5365715F 
 229      315F4469 
 229      7361626C 
 230 00db 00       		.ascii	"\000"
 231 00dc 02       		.ascii	"\002"
 232 00dd 00       		.ascii	"\000"
 233 00de 00000000 		.ascii	"\000\000\000\000\000\000\000\000"
 233      00000000 
 234 00e6 BE000000 		.ascii	"\276\000\000\000"
 235 00ea 4144435F 		.ascii	"ADC_SAR_Seq_1_SAR_Sleep\000"
 235      5341525F 
 235      5365715F 
 235      315F5341 
 235      525F536C 
 236 0102 00       		.ascii	"\000"
 237 0103 02       		.ascii	"\002"
 238 0104 00       		.ascii	"\000"
 239 0105 00000000 		.ascii	"\000\000\000\000\000\000\000\000"
 239      00000000 
 240 010d C0000000 		.ascii	"\300\000\000\000"
 241 0111 4144435F 		.ascii	"ADC_SAR_Seq_1_SAR_Stop\000"
 241      5341525F 
 241      5365715F 
 241      315F5341 
 241      525F5374 
 242 0128 00       		.ascii	"\000"
 243 0129 02       		.ascii	"\002"
 244 012a 00       		.ascii	"\000"
 245 012b 00000000 		.ascii	"\000\000\000\000\000\000\000\000"
 245      00000000 
 246 0133 C2000000 		.ascii	"\302\000\000\000"
 247 0137 4144435F 		.ascii	"ADC_SAR_Seq_1_SAR_StartConvert\000"
 247      5341525F 
 247      5365715F 
 247      315F5341 
 247      525F5374 
 248 0156 00       		.ascii	"\000"
ARM GAS  C:\Users\JEFFSN~1\AppData\Local\Temp\cckQSaDe.s 			page 16


 249 0157 02       		.ascii	"\002"
 250 0158 00       		.ascii	"\000"
 251 0159 00000000 		.ascii	"\000\000\000\000\000\000\000\000"
 251      00000000 
 252 0161 C4000000 		.ascii	"\304\000\000\000"
 253 0165 4144435F 		.ascii	"ADC_SAR_Seq_1_Enable\000"
 253      5341525F 
 253      5365715F 
 253      315F456E 
 253      61626C65 
 254 017a 00       		.ascii	"\000"
 255 017b 02       		.ascii	"\002"
 256 017c 00       		.ascii	"\000"
 257 017d 00000000 		.ascii	"\000\000\000\000\000\000\000\000"
 257      00000000 
 258 0185 C6000000 		.ascii	"\306\000\000\000"
 259 0189 43794465 		.ascii	"CyDelayUs\000"
 259      6C617955 
 259      7300
 260 0193 00       		.ascii	"\000"
 261 0194 02       		.ascii	"\002"
 262 0195 00       		.ascii	"\000"
 263 0196 00000000 		.ascii	"\000\000\000\000\000\000\000\000"
 263      00000000 
 264 019e CA000000 		.ascii	"\312\000\000\000"
 265 01a2 4144435F 		.ascii	"ADC_SAR_Seq_1_IntClock_Start\000"
 265      5341525F 
 265      5365715F 
 265      315F496E 
 265      74436C6F 
 266 01bf 00       		.ascii	"\000"
 267 01c0 02       		.ascii	"\002"
 268 01c1 00       		.ascii	"\000"
 269 01c2 00000000 		.ascii	"\000\000\000\000\000\000\000\000"
 269      00000000 
 270 01ca CC000000 		.ascii	"\314\000\000\000"
 271 01ce 4144435F 		.ascii	"ADC_SAR_Seq_1_SAR_Enable\000"
 271      5341525F 
 271      5365715F 
 271      315F5341 
 271      525F456E 
 272 01e7 00       		.ascii	"\000"
 273 01e8 02       		.ascii	"\002"
 274 01e9 00       		.ascii	"\000"
 275 01ea 00000000 		.ascii	"\000\000\000\000\000\000\000\000"
 275      00000000 
 276 01f2 CE000000 		.ascii	"\316\000\000\000"
 277 01f6 4144435F 		.ascii	"ADC_SAR_Seq_1_SAR_Wakeup\000"
 277      5341525F 
 277      5365715F 
 277      315F5341 
 277      525F5761 
 278 020f 00       		.ascii	"\000"
 279 0210 02       		.ascii	"\002"
 280 0211 00       		.ascii	"\000"
 281 0212 00000000 		.ascii	"\000\000\000\000\000\000\000\000"
 281      00000000 
ARM GAS  C:\Users\JEFFSN~1\AppData\Local\Temp\cckQSaDe.s 			page 17


 282 021a D0000000 		.ascii	"\320\000\000\000"
 283              		.text
 284              		.section	.gnu.lto_.opts,"",%progbits
 285 0000 272D666D 		.ascii	"'-fmath-errno' '-fsigned-zeros' '-ftrapping-math' '"
 285      6174682D 
 285      6572726E 
 285      6F272027 
 285      2D667369 
 286 0033 2D666E6F 		.ascii	"-fno-trapv' '-fno-openmp' '-fno-openacc' '-mcpu=cor"
 286      2D747261 
 286      70762720 
 286      272D666E 
 286      6F2D6F70 
 287 0066 7465782D 		.ascii	"tex-m3' '-mthumb' '-g' '-O3' '-ffunction-sections' "
 287      6D332720 
 287      272D6D74 
 287      68756D62 
 287      2720272D 
 288 0099 272D6666 		.ascii	"'-ffat-lto-objects' '-finline-functions' '-flto'\000"
 288      61742D6C 
 288      746F2D6F 
 288      626A6563 
 288      74732720 
 289              		.text
 290              		.cfi_sections	.debug_frame
 291              		.section	.text.ADC_SAR_Seq_1_Sleep,"ax",%progbits
 292              		.align	2
 293              		.global	ADC_SAR_Seq_1_Sleep
 294              		.thumb
 295              		.thumb_func
 296              		.type	ADC_SAR_Seq_1_Sleep, %function
 297              	ADC_SAR_Seq_1_Sleep:
 298              	.LFB0:
 299              		.file 1 "Generated_Source\\PSoC5\\ADC_SAR_Seq_1_PM.c"
   1:Generated_Source\PSoC5/ADC_SAR_Seq_1_PM.c **** /*******************************************************************************
   2:Generated_Source\PSoC5/ADC_SAR_Seq_1_PM.c **** * File Name: ADC_SAR_Seq_1_PM.c
   3:Generated_Source\PSoC5/ADC_SAR_Seq_1_PM.c **** * Version 2.10
   4:Generated_Source\PSoC5/ADC_SAR_Seq_1_PM.c **** *
   5:Generated_Source\PSoC5/ADC_SAR_Seq_1_PM.c **** * Description:
   6:Generated_Source\PSoC5/ADC_SAR_Seq_1_PM.c **** *  This file contains the setup, control and status commands to support
   7:Generated_Source\PSoC5/ADC_SAR_Seq_1_PM.c **** *  component operations in low power mode.
   8:Generated_Source\PSoC5/ADC_SAR_Seq_1_PM.c **** *
   9:Generated_Source\PSoC5/ADC_SAR_Seq_1_PM.c **** * Note:
  10:Generated_Source\PSoC5/ADC_SAR_Seq_1_PM.c **** *
  11:Generated_Source\PSoC5/ADC_SAR_Seq_1_PM.c **** ********************************************************************************
  12:Generated_Source\PSoC5/ADC_SAR_Seq_1_PM.c **** * Copyright 2012-2015, Cypress Semiconductor Corporation.  All rights reserved.
  13:Generated_Source\PSoC5/ADC_SAR_Seq_1_PM.c **** * You may use this file only in accordance with the license, terms, conditions,
  14:Generated_Source\PSoC5/ADC_SAR_Seq_1_PM.c **** * disclaimers, and limitations in the end user license agreement accompanying
  15:Generated_Source\PSoC5/ADC_SAR_Seq_1_PM.c **** * the software package with which this file was provided.
  16:Generated_Source\PSoC5/ADC_SAR_Seq_1_PM.c **** *******************************************************************************/
  17:Generated_Source\PSoC5/ADC_SAR_Seq_1_PM.c **** 
  18:Generated_Source\PSoC5/ADC_SAR_Seq_1_PM.c **** #include "ADC_SAR_Seq_1.h"
  19:Generated_Source\PSoC5/ADC_SAR_Seq_1_PM.c **** #include "ADC_SAR_Seq_1_SAR.h"
  20:Generated_Source\PSoC5/ADC_SAR_Seq_1_PM.c **** #if(ADC_SAR_Seq_1_CLOCK_SOURCE == ADC_SAR_Seq_1_CLOCK_INTERNAL)
  21:Generated_Source\PSoC5/ADC_SAR_Seq_1_PM.c ****     #include "ADC_SAR_Seq_1_IntClock.h"
  22:Generated_Source\PSoC5/ADC_SAR_Seq_1_PM.c **** #endif   /* ADC_SAR_Seq_1_CLOCK_SOURCE == ADC_SAR_Seq_1_CLOCK_INTERNAL */
  23:Generated_Source\PSoC5/ADC_SAR_Seq_1_PM.c **** 
ARM GAS  C:\Users\JEFFSN~1\AppData\Local\Temp\cckQSaDe.s 			page 18


  24:Generated_Source\PSoC5/ADC_SAR_Seq_1_PM.c **** 
  25:Generated_Source\PSoC5/ADC_SAR_Seq_1_PM.c **** /*******************************************************************************
  26:Generated_Source\PSoC5/ADC_SAR_Seq_1_PM.c **** * Function Name: ADC_SAR_Seq_1_Sleep
  27:Generated_Source\PSoC5/ADC_SAR_Seq_1_PM.c **** ********************************************************************************
  28:Generated_Source\PSoC5/ADC_SAR_Seq_1_PM.c **** *
  29:Generated_Source\PSoC5/ADC_SAR_Seq_1_PM.c **** * Summary:
  30:Generated_Source\PSoC5/ADC_SAR_Seq_1_PM.c **** *  Stops the ADC operation and saves the configuration registers and component
  31:Generated_Source\PSoC5/ADC_SAR_Seq_1_PM.c **** *  enable state. Should be called just prior to entering sleep
  32:Generated_Source\PSoC5/ADC_SAR_Seq_1_PM.c **** *
  33:Generated_Source\PSoC5/ADC_SAR_Seq_1_PM.c **** * Parameters:
  34:Generated_Source\PSoC5/ADC_SAR_Seq_1_PM.c **** *  None.
  35:Generated_Source\PSoC5/ADC_SAR_Seq_1_PM.c **** *
  36:Generated_Source\PSoC5/ADC_SAR_Seq_1_PM.c **** * Return:
  37:Generated_Source\PSoC5/ADC_SAR_Seq_1_PM.c **** *  None.
  38:Generated_Source\PSoC5/ADC_SAR_Seq_1_PM.c **** *
  39:Generated_Source\PSoC5/ADC_SAR_Seq_1_PM.c **** * Side Effects:
  40:Generated_Source\PSoC5/ADC_SAR_Seq_1_PM.c **** *  None.
  41:Generated_Source\PSoC5/ADC_SAR_Seq_1_PM.c **** *
  42:Generated_Source\PSoC5/ADC_SAR_Seq_1_PM.c **** * Reentrant:
  43:Generated_Source\PSoC5/ADC_SAR_Seq_1_PM.c **** *  No.
  44:Generated_Source\PSoC5/ADC_SAR_Seq_1_PM.c **** *
  45:Generated_Source\PSoC5/ADC_SAR_Seq_1_PM.c **** *******************************************************************************/
  46:Generated_Source\PSoC5/ADC_SAR_Seq_1_PM.c **** void ADC_SAR_Seq_1_Sleep(void)
  47:Generated_Source\PSoC5/ADC_SAR_Seq_1_PM.c **** {
 300              		.loc 1 47 0
 301              		.cfi_startproc
 302              		@ args = 0, pretend = 0, frame = 0
 303              		@ frame_needed = 0, uses_anonymous_args = 0
 304 0000 08B5     		push	{r3, lr}
 305              		.cfi_def_cfa_offset 8
 306              		.cfi_offset 3, -8
 307              		.cfi_offset 14, -4
  48:Generated_Source\PSoC5/ADC_SAR_Seq_1_PM.c ****     ADC_SAR_Seq_1_SAR_Stop();
 308              		.loc 1 48 0
 309 0002 FFF7FEFF 		bl	ADC_SAR_Seq_1_SAR_Stop
 310              	.LVL0:
  49:Generated_Source\PSoC5/ADC_SAR_Seq_1_PM.c ****     ADC_SAR_Seq_1_SAR_Sleep();
 311              		.loc 1 49 0
 312 0006 FFF7FEFF 		bl	ADC_SAR_Seq_1_SAR_Sleep
 313              	.LVL1:
  50:Generated_Source\PSoC5/ADC_SAR_Seq_1_PM.c ****     ADC_SAR_Seq_1_Disable();
 314              		.loc 1 50 0
 315 000a FFF7FEFF 		bl	ADC_SAR_Seq_1_Disable
 316              	.LVL2:
  51:Generated_Source\PSoC5/ADC_SAR_Seq_1_PM.c **** 
  52:Generated_Source\PSoC5/ADC_SAR_Seq_1_PM.c ****     #if(ADC_SAR_Seq_1_CLOCK_SOURCE == ADC_SAR_Seq_1_CLOCK_INTERNAL)
  53:Generated_Source\PSoC5/ADC_SAR_Seq_1_PM.c ****         ADC_SAR_Seq_1_IntClock_Stop();
  54:Generated_Source\PSoC5/ADC_SAR_Seq_1_PM.c ****     #endif   /* ADC_SAR_Seq_1_CLOCK_SOURCE == ADC_SAR_Seq_1_CLOCK_INTERNAL */
  55:Generated_Source\PSoC5/ADC_SAR_Seq_1_PM.c **** }
 317              		.loc 1 55 0
 318 000e BDE80840 		pop	{r3, lr}
 319              		.cfi_restore 14
 320              		.cfi_restore 3
 321              		.cfi_def_cfa_offset 0
  53:Generated_Source\PSoC5/ADC_SAR_Seq_1_PM.c ****     #endif   /* ADC_SAR_Seq_1_CLOCK_SOURCE == ADC_SAR_Seq_1_CLOCK_INTERNAL */
 322              		.loc 1 53 0
 323 0012 FFF7FEBF 		b	ADC_SAR_Seq_1_IntClock_Stop
ARM GAS  C:\Users\JEFFSN~1\AppData\Local\Temp\cckQSaDe.s 			page 19


 324              	.LVL3:
 325              		.cfi_endproc
 326              	.LFE0:
 327              		.size	ADC_SAR_Seq_1_Sleep, .-ADC_SAR_Seq_1_Sleep
 328 0016 00BF     		.section	.text.ADC_SAR_Seq_1_Wakeup,"ax",%progbits
 329              		.align	2
 330              		.global	ADC_SAR_Seq_1_Wakeup
 331              		.thumb
 332              		.thumb_func
 333              		.type	ADC_SAR_Seq_1_Wakeup, %function
 334              	ADC_SAR_Seq_1_Wakeup:
 335              	.LFB1:
  56:Generated_Source\PSoC5/ADC_SAR_Seq_1_PM.c **** 
  57:Generated_Source\PSoC5/ADC_SAR_Seq_1_PM.c **** 
  58:Generated_Source\PSoC5/ADC_SAR_Seq_1_PM.c **** /*******************************************************************************
  59:Generated_Source\PSoC5/ADC_SAR_Seq_1_PM.c **** * Function Name: ADC_SAR_Seq_1_Wakeup
  60:Generated_Source\PSoC5/ADC_SAR_Seq_1_PM.c **** ********************************************************************************
  61:Generated_Source\PSoC5/ADC_SAR_Seq_1_PM.c **** *
  62:Generated_Source\PSoC5/ADC_SAR_Seq_1_PM.c **** * Summary:
  63:Generated_Source\PSoC5/ADC_SAR_Seq_1_PM.c **** *  Restores the component enable state and configuration registers. This should
  64:Generated_Source\PSoC5/ADC_SAR_Seq_1_PM.c **** *  be called just after awaking from sleep mode
  65:Generated_Source\PSoC5/ADC_SAR_Seq_1_PM.c **** *
  66:Generated_Source\PSoC5/ADC_SAR_Seq_1_PM.c **** * Parameters:
  67:Generated_Source\PSoC5/ADC_SAR_Seq_1_PM.c **** *  None.
  68:Generated_Source\PSoC5/ADC_SAR_Seq_1_PM.c **** *
  69:Generated_Source\PSoC5/ADC_SAR_Seq_1_PM.c **** * Return:
  70:Generated_Source\PSoC5/ADC_SAR_Seq_1_PM.c **** *  None.
  71:Generated_Source\PSoC5/ADC_SAR_Seq_1_PM.c **** *
  72:Generated_Source\PSoC5/ADC_SAR_Seq_1_PM.c **** * Side Effects:
  73:Generated_Source\PSoC5/ADC_SAR_Seq_1_PM.c **** *  None.
  74:Generated_Source\PSoC5/ADC_SAR_Seq_1_PM.c **** *
  75:Generated_Source\PSoC5/ADC_SAR_Seq_1_PM.c **** * Reentrant:
  76:Generated_Source\PSoC5/ADC_SAR_Seq_1_PM.c **** *  No.
  77:Generated_Source\PSoC5/ADC_SAR_Seq_1_PM.c **** *
  78:Generated_Source\PSoC5/ADC_SAR_Seq_1_PM.c **** *******************************************************************************/
  79:Generated_Source\PSoC5/ADC_SAR_Seq_1_PM.c **** void ADC_SAR_Seq_1_Wakeup(void)
  80:Generated_Source\PSoC5/ADC_SAR_Seq_1_PM.c **** {
 336              		.loc 1 80 0
 337              		.cfi_startproc
 338              		@ args = 0, pretend = 0, frame = 0
 339              		@ frame_needed = 0, uses_anonymous_args = 0
 340 0000 08B5     		push	{r3, lr}
 341              		.cfi_def_cfa_offset 8
 342              		.cfi_offset 3, -8
 343              		.cfi_offset 14, -4
  81:Generated_Source\PSoC5/ADC_SAR_Seq_1_PM.c ****     ADC_SAR_Seq_1_SAR_Wakeup();
 344              		.loc 1 81 0
 345 0002 FFF7FEFF 		bl	ADC_SAR_Seq_1_SAR_Wakeup
 346              	.LVL4:
  82:Generated_Source\PSoC5/ADC_SAR_Seq_1_PM.c ****     ADC_SAR_Seq_1_SAR_Enable();
 347              		.loc 1 82 0
 348 0006 FFF7FEFF 		bl	ADC_SAR_Seq_1_SAR_Enable
 349              	.LVL5:
  83:Generated_Source\PSoC5/ADC_SAR_Seq_1_PM.c **** 
  84:Generated_Source\PSoC5/ADC_SAR_Seq_1_PM.c ****     #if(ADC_SAR_Seq_1_CLOCK_SOURCE == ADC_SAR_Seq_1_CLOCK_INTERNAL)
  85:Generated_Source\PSoC5/ADC_SAR_Seq_1_PM.c ****         ADC_SAR_Seq_1_IntClock_Start();
 350              		.loc 1 85 0
ARM GAS  C:\Users\JEFFSN~1\AppData\Local\Temp\cckQSaDe.s 			page 20


 351 000a FFF7FEFF 		bl	ADC_SAR_Seq_1_IntClock_Start
 352              	.LVL6:
  86:Generated_Source\PSoC5/ADC_SAR_Seq_1_PM.c ****     #endif   /* ADC_SAR_Seq_1_CLOCK_SOURCE == ADC_SAR_Seq_1_CLOCK_INTERNAL */
  87:Generated_Source\PSoC5/ADC_SAR_Seq_1_PM.c **** 
  88:Generated_Source\PSoC5/ADC_SAR_Seq_1_PM.c ****     /* The block is ready to use 10 us after the SAR enable signal is set high. */
  89:Generated_Source\PSoC5/ADC_SAR_Seq_1_PM.c ****     CyDelayUs(10u);
 353              		.loc 1 89 0
 354 000e 0A20     		movs	r0, #10
 355 0010 FFF7FEFF 		bl	CyDelayUs
 356              	.LVL7:
  90:Generated_Source\PSoC5/ADC_SAR_Seq_1_PM.c ****     
  91:Generated_Source\PSoC5/ADC_SAR_Seq_1_PM.c ****     ADC_SAR_Seq_1_Enable();
 357              		.loc 1 91 0
 358 0014 FFF7FEFF 		bl	ADC_SAR_Seq_1_Enable
 359              	.LVL8:
  92:Generated_Source\PSoC5/ADC_SAR_Seq_1_PM.c **** 
  93:Generated_Source\PSoC5/ADC_SAR_Seq_1_PM.c ****     #if(ADC_SAR_Seq_1_SAMPLE_MODE == ADC_SAR_Seq_1_SAMPLE_MODE_FREE_RUNNING)
  94:Generated_Source\PSoC5/ADC_SAR_Seq_1_PM.c ****         ADC_SAR_Seq_1_SAR_StartConvert();
 360              		.loc 1 94 0
 361 0018 FFF7FEFF 		bl	ADC_SAR_Seq_1_SAR_StartConvert
 362              	.LVL9:
  95:Generated_Source\PSoC5/ADC_SAR_Seq_1_PM.c ****     #endif /* (ADC_SAR_Seq_1_SAMPLE_MODE == ADC_SAR_Seq_1_SAMPLE_MODE_FREE_RUNNING) */
  96:Generated_Source\PSoC5/ADC_SAR_Seq_1_PM.c **** 
  97:Generated_Source\PSoC5/ADC_SAR_Seq_1_PM.c ****     (void) CY_GET_REG8(ADC_SAR_Seq_1_STATUS_PTR);
 363              		.loc 1 97 0
 364 001c 014B     		ldr	r3, .L5
 365 001e 1B78     		ldrb	r3, [r3]	@ zero_extendqisi2
 366 0020 08BD     		pop	{r3, pc}
 367              	.L6:
 368 0022 00BF     		.align	2
 369              	.L5:
 370 0024 64640040 		.word	1073767524
 371              		.cfi_endproc
 372              	.LFE1:
 373              		.size	ADC_SAR_Seq_1_Wakeup, .-ADC_SAR_Seq_1_Wakeup
 374              		.section	.text.ADC_SAR_Seq_1_SaveConfig,"ax",%progbits
 375              		.align	2
 376              		.global	ADC_SAR_Seq_1_SaveConfig
 377              		.thumb
 378              		.thumb_func
 379              		.type	ADC_SAR_Seq_1_SaveConfig, %function
 380              	ADC_SAR_Seq_1_SaveConfig:
 381              	.LFB5:
 382              		.cfi_startproc
 383              		@ args = 0, pretend = 0, frame = 0
 384              		@ frame_needed = 0, uses_anonymous_args = 0
 385              		@ link register save eliminated.
 386 0000 7047     		bx	lr
 387              		.cfi_endproc
 388              	.LFE5:
 389              		.size	ADC_SAR_Seq_1_SaveConfig, .-ADC_SAR_Seq_1_SaveConfig
 390 0002 00BF     		.section	.text.ADC_SAR_Seq_1_RestoreConfig,"ax",%progbits
 391              		.align	2
 392              		.global	ADC_SAR_Seq_1_RestoreConfig
 393              		.thumb
 394              		.thumb_func
 395              		.type	ADC_SAR_Seq_1_RestoreConfig, %function
ARM GAS  C:\Users\JEFFSN~1\AppData\Local\Temp\cckQSaDe.s 			page 21


 396              	ADC_SAR_Seq_1_RestoreConfig:
 397              	.LFB3:
  98:Generated_Source\PSoC5/ADC_SAR_Seq_1_PM.c **** }
  99:Generated_Source\PSoC5/ADC_SAR_Seq_1_PM.c **** 
 100:Generated_Source\PSoC5/ADC_SAR_Seq_1_PM.c **** 
 101:Generated_Source\PSoC5/ADC_SAR_Seq_1_PM.c **** /*******************************************************************************
 102:Generated_Source\PSoC5/ADC_SAR_Seq_1_PM.c **** * Function Name: ADC_SAR_Seq_1_SaveConfig
 103:Generated_Source\PSoC5/ADC_SAR_Seq_1_PM.c **** ********************************************************************************
 104:Generated_Source\PSoC5/ADC_SAR_Seq_1_PM.c **** *
 105:Generated_Source\PSoC5/ADC_SAR_Seq_1_PM.c **** * Summary:
 106:Generated_Source\PSoC5/ADC_SAR_Seq_1_PM.c **** *  Save the current configuration of ADC non-retention registers
 107:Generated_Source\PSoC5/ADC_SAR_Seq_1_PM.c **** *
 108:Generated_Source\PSoC5/ADC_SAR_Seq_1_PM.c **** * Parameters:
 109:Generated_Source\PSoC5/ADC_SAR_Seq_1_PM.c **** *  None.
 110:Generated_Source\PSoC5/ADC_SAR_Seq_1_PM.c **** *
 111:Generated_Source\PSoC5/ADC_SAR_Seq_1_PM.c **** * Return:
 112:Generated_Source\PSoC5/ADC_SAR_Seq_1_PM.c **** *  None.
 113:Generated_Source\PSoC5/ADC_SAR_Seq_1_PM.c **** *
 114:Generated_Source\PSoC5/ADC_SAR_Seq_1_PM.c **** * Side Effects:
 115:Generated_Source\PSoC5/ADC_SAR_Seq_1_PM.c **** *  None.
 116:Generated_Source\PSoC5/ADC_SAR_Seq_1_PM.c **** *
 117:Generated_Source\PSoC5/ADC_SAR_Seq_1_PM.c **** * Reentrant:
 118:Generated_Source\PSoC5/ADC_SAR_Seq_1_PM.c **** *  No.
 119:Generated_Source\PSoC5/ADC_SAR_Seq_1_PM.c **** *
 120:Generated_Source\PSoC5/ADC_SAR_Seq_1_PM.c **** *******************************************************************************/
 121:Generated_Source\PSoC5/ADC_SAR_Seq_1_PM.c **** void ADC_SAR_Seq_1_SaveConfig(void)
 122:Generated_Source\PSoC5/ADC_SAR_Seq_1_PM.c **** {
 123:Generated_Source\PSoC5/ADC_SAR_Seq_1_PM.c **** 
 124:Generated_Source\PSoC5/ADC_SAR_Seq_1_PM.c **** }
 125:Generated_Source\PSoC5/ADC_SAR_Seq_1_PM.c **** 
 126:Generated_Source\PSoC5/ADC_SAR_Seq_1_PM.c **** 
 127:Generated_Source\PSoC5/ADC_SAR_Seq_1_PM.c **** /*******************************************************************************
 128:Generated_Source\PSoC5/ADC_SAR_Seq_1_PM.c **** * Function Name: ADC_SAR_Seq_1_RestoreConfig
 129:Generated_Source\PSoC5/ADC_SAR_Seq_1_PM.c **** ********************************************************************************
 130:Generated_Source\PSoC5/ADC_SAR_Seq_1_PM.c **** *
 131:Generated_Source\PSoC5/ADC_SAR_Seq_1_PM.c **** * Summary:
 132:Generated_Source\PSoC5/ADC_SAR_Seq_1_PM.c **** *  Restores the configuration of ADC non-retention registers
 133:Generated_Source\PSoC5/ADC_SAR_Seq_1_PM.c **** *
 134:Generated_Source\PSoC5/ADC_SAR_Seq_1_PM.c **** * Parameters:
 135:Generated_Source\PSoC5/ADC_SAR_Seq_1_PM.c **** *  None.
 136:Generated_Source\PSoC5/ADC_SAR_Seq_1_PM.c **** *
 137:Generated_Source\PSoC5/ADC_SAR_Seq_1_PM.c **** * Return:
 138:Generated_Source\PSoC5/ADC_SAR_Seq_1_PM.c **** *  None.
 139:Generated_Source\PSoC5/ADC_SAR_Seq_1_PM.c **** *
 140:Generated_Source\PSoC5/ADC_SAR_Seq_1_PM.c **** * Side Effects:
 141:Generated_Source\PSoC5/ADC_SAR_Seq_1_PM.c **** *  None.
 142:Generated_Source\PSoC5/ADC_SAR_Seq_1_PM.c **** *
 143:Generated_Source\PSoC5/ADC_SAR_Seq_1_PM.c **** * Reentrant:
 144:Generated_Source\PSoC5/ADC_SAR_Seq_1_PM.c **** *  No.
 145:Generated_Source\PSoC5/ADC_SAR_Seq_1_PM.c **** *
 146:Generated_Source\PSoC5/ADC_SAR_Seq_1_PM.c **** *******************************************************************************/
 147:Generated_Source\PSoC5/ADC_SAR_Seq_1_PM.c **** void ADC_SAR_Seq_1_RestoreConfig(void)
 148:Generated_Source\PSoC5/ADC_SAR_Seq_1_PM.c **** {
 398              		.loc 1 148 0
 399              		.cfi_startproc
 400              		@ args = 0, pretend = 0, frame = 0
 401              		@ frame_needed = 0, uses_anonymous_args = 0
ARM GAS  C:\Users\JEFFSN~1\AppData\Local\Temp\cckQSaDe.s 			page 22


 402              		@ link register save eliminated.
 403 0000 7047     		bx	lr
 404              		.cfi_endproc
 405              	.LFE3:
 406              		.size	ADC_SAR_Seq_1_RestoreConfig, .-ADC_SAR_Seq_1_RestoreConfig
 407 0002 00BF     		.text
 408              	.Letext0:
 409              		.file 2 "Generated_Source\\PSoC5\\cytypes.h"
 410              		.file 3 "Generated_Source\\PSoC5\\ADC_SAR_Seq_1_SAR.h"
 411              		.file 4 "Generated_Source\\PSoC5\\ADC_SAR_Seq_1.h"
 412              		.file 5 "Generated_Source\\PSoC5\\ADC_SAR_Seq_1_IntClock.h"
 413              		.file 6 "Generated_Source\\PSoC5\\CyLib.h"