ARM GAS  C:\Users\JEFFSN~1\AppData\Local\Temp\ccK1yhJ3.s 			page 1


   1              		.syntax unified
   2              		.cpu cortex-m3
   3              		.fpu softvfp
   4              		.eabi_attribute 20, 1
   5              		.eabi_attribute 21, 1
   6              		.eabi_attribute 23, 3
   7              		.eabi_attribute 24, 1
   8              		.eabi_attribute 25, 1
   9              		.eabi_attribute 26, 1
  10              		.eabi_attribute 30, 1
  11              		.eabi_attribute 34, 1
  12              		.eabi_attribute 18, 4
  13              		.thumb
  14              		.syntax unified
  15              		.file	"ADC_1_INT.c"
  16              		.text
  17              	.Ltext0:
  18              		.section	.gnu.lto_.profile.1c04ca94,"",%progbits
  19 0000 789C6361 		.ascii	"x\234ca`d`a`\000\222\034,\000\000~\000\027"
  19      60646061 
  19      6000921C 
  19      2C00007E 
  19      0017
  20              		.text
  21              		.section	.gnu.lto_.inline.1c04ca94,"",%progbits
  22 0000 789C6361 		.ascii	"x\234ca`d\000\001/\006\004`a``fbd`\0022\331\026\310"
  22      60640001 
  22      2F060460 
  22      61606066 
  22      62646002 
  23 0018 8328A022 		.ascii	"\203(\240\"t\021&\014\021f\014\021\006\000\216\240\003"
  23      7411260C 
  23      11660C11 
  23      06008EA0 
  23      03
  24 0029 96       		.ascii	"\226"
  25              		.text
  26              		.section	.gnu.lto_.jmpfuncs.1c04ca94,"",%progbits
  27 0000 789C6361 		.ascii	"x\234ca`d\000\001>\006\004`\001b\240(\023\003\0033\220"
  27      60640001 
  27      3E060460 
  27      0162A028 
  27      13030333 
  28 0015 05000292 		.ascii	"\005\000\002\222\000\036"
  28      001E
  29              		.text
  30              		.section	.gnu.lto_.pureconst.1c04ca94,"",%progbits
  31 0000 789C6361 		.ascii	"x\234ca`d\340d```a\0002\230\030\230\031\000\001\021"
  31      6064E064 
  31      60606061 
  31      00329818 
  31      98190001 
  32 0015 0019     		.ascii	"\000\031"
  33              		.text
  34              		.section	.gnu.lto_ADC_1_ISR1.1c04ca94,"",%progbits
  35 0000 789C6361 		.ascii	"x\234ca`d\000\201j V\005bi fdf`d\232p\216\201\241\221"
  35      60640081 
ARM GAS  C:\Users\JEFFSN~1\AppData\Local\Temp\ccK1yhJ3.s 			page 2


  35      6A205605 
  35      62692066 
  35      64666064 
  36 001a 83899111 		.ascii	"\203\211\221\021\304h\340`d\250gb\254g\374\312\364\227"
  36      C468E060 
  36      64A86762 
  36      AC67FCCA 
  36      F497
  37 002c 89F150FB 		.ascii	"\211\361P\373\263\235L\232\313\033\200\340\301\323["
  37      B39D4C9A 
  37      CB1B80E0 
  37      C1D35B
  38 003b 4C0D2B0E 		.ascii	"L\015+\0160\266230\374g\002\233\304\300\270\234Q\223"
  38      30B63233 
  38      30FC6702 
  38      9BC4C0B8 
  38      9C5193
  39 004e 01A8ECD1 		.ascii	"\001\250\354\321\306\177Sy\331Z@\312\024 \222\214+\030"
  39      C67F5379 
  39      D95A40CA 
  39      1420928C 
  39      2B18
  40 0060 D940D6AD 		.ascii	"\331@\326\255\017:\320\360\377\177s\303\201\033\202"
  40      0F3AD0F0 
  40      FF7F73C3 
  40      811B82
  41 006f 2B998112 		.ascii	"+\231\201\022\037\200\030d\315G&&\020\315\374\212\221"
  41      1F801864 
  41      CD472626 
  41      10CDFC8A 
  41      91
  42 0080 09A4146C 		.ascii	"\011\244\024l\332\007&F\220\030P\205\262{j^jQbIjJ|p"
  42      DA072646 
  42      90185085 
  42      B27B6A5E 
  42      6A516249 
  43 0098 7E695172 		.ascii	"~iQrjL@p\276\263i\214\243\213s\274a\274\247_\210^2\003"
  43      6A4C4070 
  43      BEB3698C 
  43      A38B73BC 
  43      61BCA75F 
  44 00b0 00403338 		.ascii	"\000@38\347"
  44      E7
  45              		.text
  46              		.section	.gnu.lto_ADC_1_ISR2.1c04ca94,"",%progbits
  47 0000 789C6361 		.ascii	"x\234ca`d\000\201j V\005bi fdf`d\232p\216\201\241\221"
  47      60640081 
  47      6A205605 
  47      62692066 
  47      64666064 
  48 001a 83899111 		.ascii	"\203\211\221\021\304h\340`d\250gb\254g\374\312\364\227"
  48      C468E060 
  48      64A86762 
  48      AC67FCCA 
  48      F497
  49 002c 89F150FB 		.ascii	"\211\361P\373\263\235L\232\313\033\200\340\301\322\317"
  49      B39D4C9A 
ARM GAS  C:\Users\JEFFSN~1\AppData\Local\Temp\ccK1yhJ3.s 			page 3


  49      CB1B80E0 
  49      C1D2CF
  50 003b 1A0D2B0E 		.ascii	"\032\015+\0160\266230\374g\002\233\304\300\270\234Q"
  50      30B63233 
  50      30FC6702 
  50      9BC4C0B8 
  50      9C51
  51 004d 9301A8EC 		.ascii	"\223\001\250\354\321\306\177Sy\331Z@\312\024 \222\214"
  51      D1C67F53 
  51      79D95A40 
  51      CA142092 
  51      8C
  52 005e 2B18D940 		.ascii	"+\030\331@\326\255\017:\320\360\377\177s\303\2019\354"
  52      D6AD0F3A 
  52      D0F0FF7F 
  52      73C38139 
  52      EC
  53 006f 6B458012 		.ascii	"kE\200\022\037\200\030d\315G&&\020\315\374\212\221\011"
  53      1F801864 
  53      CD472626 
  53      10CDFC8A 
  53      9109
  54 0081 A4146CDA 		.ascii	"\244\024l\332\007&F\220\030P\205\262{j^jQbIjJ|p~iQr"
  54      07264690 
  54      185085B2 
  54      7B6A5E6A 
  54      5162496A 
  55 009c 6A4C4070 		.ascii	"jL@p\276\263i\214\243\213s\274a\274\247_\210^2\003\000"
  55      BEB3698C 
  55      A38B73BC 
  55      61BCA75F 
  55      885E3203 
  56 00b1 2F8D38B5 		.ascii	"/\2158\265"
  57              		.text
  58              		.section	.gnu.lto_ADC_1_ISR3.1c04ca94,"",%progbits
  59 0000 789C6361 		.ascii	"x\234ca`d\000\201j V\005bi fdf`d\232p\216\201\241\221"
  59      60640081 
  59      6A205605 
  59      62692066 
  59      64666064 
  60 001a 83899111 		.ascii	"\203\211\221\021\304h\340`d\250gb\254g\374\312\364\227"
  60      C468E060 
  60      64A86762 
  60      AC67FCCA 
  60      F497
  61 002c 89F150FB 		.ascii	"\211\361P\373\263\235L\232\313\033\200\340\301\323\325"
  61      B39D4C9A 
  61      CB1B80E0 
  61      C1D3D5
  62 003b 9A0D2B0E 		.ascii	"\232\015+\0160\266230\374g\002\233\304\300\270\234Q"
  62      30B63233 
  62      30FC6702 
  62      9BC4C0B8 
  62      9C51
  63 004d 9301A8EC 		.ascii	"\223\001\250\354\321\306\177Sy\331Z@\312\024 \222\214"
  63      D1C67F53 
  63      79D95A40 
ARM GAS  C:\Users\JEFFSN~1\AppData\Local\Temp\ccK1yhJ3.s 			page 4


  63      CA142092 
  63      8C
  64 005e 2B18D940 		.ascii	"+\030\331@\326\255\017:\320\360\377\177s\303\201\017"
  64      D6AD0F3A 
  64      D0F0FF7F 
  64      73C3810F 
  65 006e 5C5BC581 		.ascii	"\\[\305\201\022\037\200\030d\315G&&\020\315\374\212"
  65      121F8018 
  65      64CD4726 
  65      2610CDFC 
  65      8A
  66 007f 9109A414 		.ascii	"\221\011\244\024l\332\007&F\220\030P\205\262{j^jQbI"
  66      6CDA0726 
  66      46901850 
  66      85B27B6A 
  66      5E6A5162 
  67 0094 6A4A7C70 		.ascii	"jJ|p~iQrjL@p\276\263i\214\243\213s\274a\274\247_\210"
  67      7E695172 
  67      6A4C4070 
  67      BEB3698C 
  67      A38B73BC 
  68 00ad 5E320300 		.ascii	"^2\003\000J\3209\020"
  68      4AD03910 
  69              		.text
  70              		.section	.gnu.lto_ADC_1_ISR4.1c04ca94,"",%progbits
  71 0000 789C6361 		.ascii	"x\234ca`d\000\201j V\005bi fdf`d\232p\216\201\241\221"
  71      60640081 
  71      6A205605 
  71      62692066 
  71      64666064 
  72 001a 83899111 		.ascii	"\203\211\221\021\304h\340`d\250gb\254g\374\312\364\227"
  72      C468E060 
  72      64A86762 
  72      AC67FCCA 
  72      F497
  73 002c 89F150FB 		.ascii	"\211\361P\373\263\235L\232\313\033\200\340\301\322g"
  73      B39D4C9A 
  73      CB1B80E0 
  73      C1D267
  74 003b 9A0D2B0E 		.ascii	"\232\015+\0160\266230\374g\002\233\304\300\270\234Q"
  74      30B63233 
  74      30FC6702 
  74      9BC4C0B8 
  74      9C51
  75 004d 9301A8EC 		.ascii	"\223\001\250\354\321\306\177Sy\331Z@\312\024 \222\214"
  75      D1C67F53 
  75      79D95A40 
  75      CA142092 
  75      8C
  76 005e 2B18D940 		.ascii	"+\030\331@\326\255\017:\320\360\377\177s\303\201-|{"
  76      D6AD0F3A 
  76      D0F0FF7F 
  76      73C3812D 
  76      7C7B
  77 0070 E580121F 		.ascii	"\345\200\022\037\200\030d\315G&&\020\315\374\212\221"
  77      801864CD 
  77      47262610 
ARM GAS  C:\Users\JEFFSN~1\AppData\Local\Temp\ccK1yhJ3.s 			page 5


  77      CDFC8A91 
  78 0080 09A4146C 		.ascii	"\011\244\024l\332\007&F\220\030P\205\262{j^jQbIjJ|p"
  78      DA072646 
  78      90185085 
  78      B27B6A5E 
  78      6A516249 
  79 0098 7E695172 		.ascii	"~iQrjL@p\276\263i\214\243\213s\274a\274\247_\210^2\003"
  79      6A4C4070 
  79      BEB3698C 
  79      A38B73BC 
  79      61BCA75F 
  80 00b0 003AA838 		.ascii	"\000:\2508\342"
  80      E2
  81              		.text
  82              		.section	.gnu.lto_.symbol_nodes.1c04ca94,"",%progbits
  83 0000 789C6361 		.ascii	"x\234ca`dpc\000\002&\206z\006\206\011\347\030@\324\252"
  83      60647063 
  83      00022686 
  83      7A068609 
  83      E71840D4 
  84 0015 0645A000 		.ascii	"\006E\240\000c=#\252\000S=\023\252\000s=3\212\000\003"
  84      633D23AA 
  84      00533D13 
  84      AA00733D 
  84      338A0003 
  85 0029 001ED60E 		.ascii	"\000\036\326\016\374"
  85      FC
  86              		.text
  87              		.section	.gnu.lto_.refs.1c04ca94,"",%progbits
  88 0000 789C6361 		.ascii	"x\234ca`\004B \000\000\0009\000\007"
  88      60044220 
  88      00000039 
  88      0007
  89              		.text
  90              		.section	.gnu.lto_.decls.1c04ca94,"",%progbits
  91 0000 789C6D90 		.ascii	"x\234m\220;H\003A\020\206w\366. A-D\304B!\304R\010\304"
  91      3B480341 
  91      108677F6 
  91      2E20412D 
  91      44C44221 
  92 0018 4763A5C4 		.ascii	"Gc\245\304\0076\"F-$\020|D\254\024D\373\025#6)\254\004"
  92      07362246 
  92      2D24107C 
  92      44AC1444 
  92      FB152336 
  93 002f A3F840C4 		.ascii	"\243\370@\304\250\211\271$H\332\210\205\017P\024,\024"
  93      A889B924 
  93      48DA8885 
  93      0F50142C 
  93      14
  94 0040 F18528D8 		.ascii	"\361\205(\330)ha!qns\227]\365~\230\333\231\275\177\276"
  94      29686121 
  94      716E7397 
  94      5DF57E98 
  94      DB99BD7F 
  95 0055 993B9500 		.ascii	"\231;\225\000\3215B\011\351\303\363\022#\213\262\341"
  95      D1354209 
ARM GAS  C:\Users\JEFFSN~1\AppData\Local\Temp\ccK1yhJ3.s 			page 6


  95      E9C3F312 
  95      238BB2E1 
  96 0065 D94B8454 		.ascii	"\331K\204T\214\030F\034#\201\221\"\377\245\277\007\251"
  96      8C18461C 
  96      23819122 
  96      FFA5BF07 
  96      A9
  97 0076 0F8CBBBF 		.ascii	"\017\214\273\277\212[\370\342\026\276\204\205/a\341"
  97      8A5BF8E2 
  97      16BE8485 
  97      2F61E1
  98 0085 4B59F8AC 		.ascii	"KY\370\254\366\373\246\260\264\277|`\273\201k\000\002"
  98      F6FBA6B0 
  98      B4BF7C60 
  98      BB816B00 
  98      02
  99 0096 5CC4F87E 		.ascii	"\\\304\370~\242\337\030\247\236@\256\240&\017L\2239"
  99      A2DF18A7 
  99      9E40AEA0 
  99      260F4C93 
  99      39
 100 00a7 82DB8150 		.ascii	"\202\333\201P\356\317\337\233\276\374\314\254)q\005"
 100      EECFDF9B 
 100      BEFCCCAC 
 100      297105
 101 00b6 79994EF8 		.ascii	"y\231N\370\015\325\251\242\304\232\212\006\211glo\314"
 101      0DD5A9A2 
 101      C49A8A06 
 101      89676C6F 
 101      CC
 102 00c7 07792C47 		.ascii	"\007y,G+\346G\037\276\2625P\220\211\371\375W\244\325"
 102      2BE6471F 
 102      BEB23550 
 102      9089F9FD 
 102      57A4D5
 103 00da 1565A839 		.ascii	"\025e\2509\306h\245\3703\027AmI\371\240Pb\007\025\313"
 103      C668A5F8 
 103      3317416D 
 103      49F9A050 
 103      620715CB 
 104 00ee F7D3F053 		.ascii	"\367\323\360S1\226\245vp`\371}\274\030\246\345\363\274"
 104      3196A576 
 104      7060F97D 
 104      BC18A6E5 
 104      F3BC
 105 0100 6F9A3954 		.ascii	"o\2329T\350-\203\035\250\200m\250\300iQ(\307\347\200"
 105      E82D831D 
 105      A8806DA8 
 105      C0695128 
 105      C7E780
 106 0113 9A23BD3D 		.ascii	"\232#\275=\237\177Q\347*\3234\366p\033\255^`\231 \266"
 106      9F7F51E7 
 106      2AD334F6 
 106      701BAD5E 
 106      609920B6 
 107 0127 51DD0511 		.ascii	"Q\335\005\021P`\013\\\372\212\230\352\307&\334\340\362"
 107      50600B5C 
ARM GAS  C:\Users\JEFFSN~1\AppData\Local\Temp\ccK1yhJ3.s 			page 7


 107      FA8A98EA 
 107      C726DCE0 
 107      F2
 108 0138 317062E7 		.ascii	"1pb\347\347i\310\2474\360=\327\323\263W\266\034$\023"
 108      E769C8A7 
 108      34F03DD7 
 108      D3B357B6 
 108      1C2413
 109 014b 3E2C6473 		.ascii	">,dsS\2145r\304\256@\354\312\2108G<F6f\024\245\2053"
 109      538C3572 
 109      C4AE40EC 
 109      CA883847 
 109      3C463666 
 110 0163 B65F36F6 		.ascii	"\266_6\366\012\015\306\335\211\314\320\004C\223\031"
 110      0A0DC6DD 
 110      89CCD004 
 110      439319
 111 0172 09CEB87E 		.ascii	"\011\316\270~\216\015+\235\034\221^\011\035\025\031"
 111      8E0D2B9D 
 111      1C915E09 
 111      1D1519
 112 0181 88E4998C 		.ascii	"\210\344\231\214H\012DRF\244\300I\354M\315\036\277\333"
 112      480A4452 
 112      46A4C049 
 112      EC4DCD1E 
 112      BFDB
 113 0193 DFEEED72 		.ascii	"\337\356\355r\027\264u\3648<n7\251j\013\214\006\306"
 113      17B475F4 
 113      383C6E37 
 113      A96A0B8C 
 113      06C6
 114 01a5 FB270243 		.ascii	"\373'\002C~\357\330\344\370`\300\327\351\035\363\324"
 114      7EEFD8E4 
 114      F860C0D7 
 114      E91DF3D4 
 115 01b5 FB0C6B47 		.ascii	"\373\014kG\267kP\352\253\021i\255H\353~\000\300\004"
 115      B76B50EA 
 115      AB1169AD 
 115      48EB7E00 
 115      C004
 116 01c7 B665     		.ascii	"\266e"
 117              		.text
 118              		.section	.gnu.lto_.symtab.1c04ca94,"",%progbits
 119 0000 4144435F 		.ascii	"ADC_1_ISR1\000"
 119      315F4953 
 119      523100
 120 000b 00       		.ascii	"\000"
 121 000c 00       		.ascii	"\000"
 122 000d 00       		.ascii	"\000"
 123 000e 00000000 		.ascii	"\000\000\000\000\000\000\000\000"
 123      00000000 
 124 0016 AD000000 		.ascii	"\255\000\000\000"
 125 001a 4144435F 		.ascii	"ADC_1_ISR2\000"
 125      315F4953 
 125      523200
 126 0025 00       		.ascii	"\000"
 127 0026 00       		.ascii	"\000"
ARM GAS  C:\Users\JEFFSN~1\AppData\Local\Temp\ccK1yhJ3.s 			page 8


 128 0027 00       		.ascii	"\000"
 129 0028 00000000 		.ascii	"\000\000\000\000\000\000\000\000"
 129      00000000 
 130 0030 AF000000 		.ascii	"\257\000\000\000"
 131 0034 4144435F 		.ascii	"ADC_1_ISR3\000"
 131      315F4953 
 131      523300
 132 003f 00       		.ascii	"\000"
 133 0040 00       		.ascii	"\000"
 134 0041 00       		.ascii	"\000"
 135 0042 00000000 		.ascii	"\000\000\000\000\000\000\000\000"
 135      00000000 
 136 004a B1000000 		.ascii	"\261\000\000\000"
 137 004e 4144435F 		.ascii	"ADC_1_ISR4\000"
 137      315F4953 
 137      523400
 138 0059 00       		.ascii	"\000"
 139 005a 00       		.ascii	"\000"
 140 005b 00       		.ascii	"\000"
 141 005c 00000000 		.ascii	"\000\000\000\000\000\000\000\000"
 141      00000000 
 142 0064 B3000000 		.ascii	"\263\000\000\000"
 143              		.text
 144              		.section	.gnu.lto_.opts,"",%progbits
 145 0000 272D666D 		.ascii	"'-fmath-errno' '-fsigned-zeros' '-ftrapping-math' '"
 145      6174682D 
 145      6572726E 
 145      6F272027 
 145      2D667369 
 146 0033 2D666E6F 		.ascii	"-fno-trapv' '-fno-strict-overflow' '-fno-openmp' '-"
 146      2D747261 
 146      70762720 
 146      272D666E 
 146      6F2D7374 
 147 0066 666E6F2D 		.ascii	"fno-openacc' '-mcpu=cortex-m3' '-mthumb' '-g' '-Og'"
 147      6F70656E 
 147      61636327 
 147      20272D6D 
 147      6370753D 
 148 0099 20272D66 		.ascii	" '-ffunction-sections' '-ffat-lto-objects' '-finlin"
 148      66756E63 
 148      74696F6E 
 148      2D736563 
 148      74696F6E 
 149 00cc 652D6675 		.ascii	"e-functions' '-flto'\000"
 149      6E637469 
 149      6F6E7327 
 149      20272D66 
 149      6C746F27 
 150              		.text
 151              		.cfi_sections	.debug_frame
 152              		.section	.text.ADC_1_ISR1,"ax",%progbits
 153              		.align	2
 154              		.global	ADC_1_ISR1
 155              		.thumb
 156              		.thumb_func
 157              		.type	ADC_1_ISR1, %function
ARM GAS  C:\Users\JEFFSN~1\AppData\Local\Temp\ccK1yhJ3.s 			page 9


 158              	ADC_1_ISR1:
 159              	.LFB0:
 160              		.file 1 "Generated_Source\\PSoC5\\ADC_1_INT.c"
   1:Generated_Source\PSoC5/ADC_1_INT.c **** /*******************************************************************************
   2:Generated_Source\PSoC5/ADC_1_INT.c **** * File Name: ADC_1_INT.c
   3:Generated_Source\PSoC5/ADC_1_INT.c **** * Version 3.30
   4:Generated_Source\PSoC5/ADC_1_INT.c **** *
   5:Generated_Source\PSoC5/ADC_1_INT.c **** * Description:
   6:Generated_Source\PSoC5/ADC_1_INT.c **** *  This file contains the code that operates during the ADC_DelSig interrupt
   7:Generated_Source\PSoC5/ADC_1_INT.c **** *  service routine.
   8:Generated_Source\PSoC5/ADC_1_INT.c **** *
   9:Generated_Source\PSoC5/ADC_1_INT.c **** * Note:
  10:Generated_Source\PSoC5/ADC_1_INT.c **** *
  11:Generated_Source\PSoC5/ADC_1_INT.c **** ********************************************************************************
  12:Generated_Source\PSoC5/ADC_1_INT.c **** * Copyright 2008-2017, Cypress Semiconductor Corporation.  All rights reserved.
  13:Generated_Source\PSoC5/ADC_1_INT.c **** * You may use this file only in accordance with the license, terms, conditions,
  14:Generated_Source\PSoC5/ADC_1_INT.c **** * disclaimers, and limitations in the end user license agreement accompanying
  15:Generated_Source\PSoC5/ADC_1_INT.c **** * the software package with which this file was provided.
  16:Generated_Source\PSoC5/ADC_1_INT.c **** *******************************************************************************/
  17:Generated_Source\PSoC5/ADC_1_INT.c **** 
  18:Generated_Source\PSoC5/ADC_1_INT.c **** #include "ADC_1.h"
  19:Generated_Source\PSoC5/ADC_1_INT.c **** 
  20:Generated_Source\PSoC5/ADC_1_INT.c **** 
  21:Generated_Source\PSoC5/ADC_1_INT.c **** 
  22:Generated_Source\PSoC5/ADC_1_INT.c **** /*******************************************************************************
  23:Generated_Source\PSoC5/ADC_1_INT.c **** * Custom Declarations and Variables
  24:Generated_Source\PSoC5/ADC_1_INT.c **** * - add user include files, prototypes and variables between the following
  25:Generated_Source\PSoC5/ADC_1_INT.c **** *   #START and #END tags
  26:Generated_Source\PSoC5/ADC_1_INT.c **** *******************************************************************************/
  27:Generated_Source\PSoC5/ADC_1_INT.c **** /* `#START ADC_SYS_VAR`  */
  28:Generated_Source\PSoC5/ADC_1_INT.c **** 
  29:Generated_Source\PSoC5/ADC_1_INT.c **** /* `#END`  */
  30:Generated_Source\PSoC5/ADC_1_INT.c **** 
  31:Generated_Source\PSoC5/ADC_1_INT.c **** #if(ADC_1_IRQ_REMOVE == 0u)
  32:Generated_Source\PSoC5/ADC_1_INT.c **** 
  33:Generated_Source\PSoC5/ADC_1_INT.c **** 
  34:Generated_Source\PSoC5/ADC_1_INT.c ****     /*****************************************************************************
  35:Generated_Source\PSoC5/ADC_1_INT.c ****     * Function Name: ADC_1_ISR1
  36:Generated_Source\PSoC5/ADC_1_INT.c ****     ******************************************************************************
  37:Generated_Source\PSoC5/ADC_1_INT.c ****     *
  38:Generated_Source\PSoC5/ADC_1_INT.c ****     * Summary:
  39:Generated_Source\PSoC5/ADC_1_INT.c ****     *  Handle Interrupt Service Routine.
  40:Generated_Source\PSoC5/ADC_1_INT.c ****     *
  41:Generated_Source\PSoC5/ADC_1_INT.c ****     * Parameters:
  42:Generated_Source\PSoC5/ADC_1_INT.c ****     *  None
  43:Generated_Source\PSoC5/ADC_1_INT.c ****     *
  44:Generated_Source\PSoC5/ADC_1_INT.c ****     * Return:
  45:Generated_Source\PSoC5/ADC_1_INT.c ****     *  None
  46:Generated_Source\PSoC5/ADC_1_INT.c ****     *
  47:Generated_Source\PSoC5/ADC_1_INT.c ****     * Reentrant:
  48:Generated_Source\PSoC5/ADC_1_INT.c ****     *  No
  49:Generated_Source\PSoC5/ADC_1_INT.c ****     *
  50:Generated_Source\PSoC5/ADC_1_INT.c ****     *****************************************************************************/
  51:Generated_Source\PSoC5/ADC_1_INT.c ****     CY_ISR( ADC_1_ISR1)
  52:Generated_Source\PSoC5/ADC_1_INT.c ****     {
 161              		.loc 1 52 0
 162              		.cfi_startproc
ARM GAS  C:\Users\JEFFSN~1\AppData\Local\Temp\ccK1yhJ3.s 			page 10


 163              		@ args = 0, pretend = 0, frame = 0
 164              		@ frame_needed = 0, uses_anonymous_args = 0
 165              		@ link register save eliminated.
 166 0000 7047     		bx	lr
 167              		.cfi_endproc
 168              	.LFE0:
 169              		.size	ADC_1_ISR1, .-ADC_1_ISR1
 170 0002 00BF     		.section	.text.ADC_1_ISR2,"ax",%progbits
 171              		.align	2
 172              		.global	ADC_1_ISR2
 173              		.thumb
 174              		.thumb_func
 175              		.type	ADC_1_ISR2, %function
 176              	ADC_1_ISR2:
 177              	.LFB1:
  53:Generated_Source\PSoC5/ADC_1_INT.c ****         #ifdef ADC_1_ISR1_ENTRY_CALLBACK
  54:Generated_Source\PSoC5/ADC_1_INT.c ****             ADC_1_ISR1_EntryCallback();
  55:Generated_Source\PSoC5/ADC_1_INT.c ****         #endif /* ADC_1_ISR1_ENTRY_CALLBACK */
  56:Generated_Source\PSoC5/ADC_1_INT.c ****         
  57:Generated_Source\PSoC5/ADC_1_INT.c **** 
  58:Generated_Source\PSoC5/ADC_1_INT.c ****         /**************************************************************************
  59:Generated_Source\PSoC5/ADC_1_INT.c ****         *  Custom Code
  60:Generated_Source\PSoC5/ADC_1_INT.c ****         *  - add user ISR code between the following #START and #END tags
  61:Generated_Source\PSoC5/ADC_1_INT.c ****         **************************************************************************/
  62:Generated_Source\PSoC5/ADC_1_INT.c ****         /* `#START MAIN_ADC_ISR1`  */
  63:Generated_Source\PSoC5/ADC_1_INT.c **** 
  64:Generated_Source\PSoC5/ADC_1_INT.c ****         /* `#END`  */
  65:Generated_Source\PSoC5/ADC_1_INT.c ****         
  66:Generated_Source\PSoC5/ADC_1_INT.c ****         /* Stop the conversion if conversion mode is single sample and resolution
  67:Generated_Source\PSoC5/ADC_1_INT.c ****         *  is above 16 bits.
  68:Generated_Source\PSoC5/ADC_1_INT.c ****         */
  69:Generated_Source\PSoC5/ADC_1_INT.c ****         #if(ADC_1_CFG1_RESOLUTION > 16 && \
  70:Generated_Source\PSoC5/ADC_1_INT.c ****             ADC_1_CFG1_CONV_MODE == ADC_1_MODE_SINGLE_SAMPLE)
  71:Generated_Source\PSoC5/ADC_1_INT.c ****             ADC_1_StopConvert();
  72:Generated_Source\PSoC5/ADC_1_INT.c ****             /* Software flag for checking conversion complete or not. Will be used when
  73:Generated_Source\PSoC5/ADC_1_INT.c ****             *  resolution is above 16 bits and conversion mode is single sample 
  74:Generated_Source\PSoC5/ADC_1_INT.c **** 			*/
  75:Generated_Source\PSoC5/ADC_1_INT.c ****             ADC_1_convDone = ADC_1_DEC_CONV_DONE;
  76:Generated_Source\PSoC5/ADC_1_INT.c ****         #endif /* Single sample conversion mode with resolution above 16 bits */
  77:Generated_Source\PSoC5/ADC_1_INT.c **** 
  78:Generated_Source\PSoC5/ADC_1_INT.c ****         #ifdef ADC_1_ISR1_EXIT_CALLBACK
  79:Generated_Source\PSoC5/ADC_1_INT.c ****             ADC_1_ISR1_ExitCallback();
  80:Generated_Source\PSoC5/ADC_1_INT.c ****         #endif /* ADC_1_ISR1_EXIT_CALLBACK */
  81:Generated_Source\PSoC5/ADC_1_INT.c ****     }
  82:Generated_Source\PSoC5/ADC_1_INT.c **** 
  83:Generated_Source\PSoC5/ADC_1_INT.c **** 
  84:Generated_Source\PSoC5/ADC_1_INT.c ****     /*****************************************************************************
  85:Generated_Source\PSoC5/ADC_1_INT.c ****     * Function Name: ADC_1_ISR2
  86:Generated_Source\PSoC5/ADC_1_INT.c ****     ******************************************************************************
  87:Generated_Source\PSoC5/ADC_1_INT.c ****     *
  88:Generated_Source\PSoC5/ADC_1_INT.c ****     * Summary:
  89:Generated_Source\PSoC5/ADC_1_INT.c ****     *  Handle Interrupt Service Routine.
  90:Generated_Source\PSoC5/ADC_1_INT.c ****     *
  91:Generated_Source\PSoC5/ADC_1_INT.c ****     * Parameters:
  92:Generated_Source\PSoC5/ADC_1_INT.c ****     *  None
  93:Generated_Source\PSoC5/ADC_1_INT.c ****     *
  94:Generated_Source\PSoC5/ADC_1_INT.c ****     * Return:
ARM GAS  C:\Users\JEFFSN~1\AppData\Local\Temp\ccK1yhJ3.s 			page 11


  95:Generated_Source\PSoC5/ADC_1_INT.c ****     *  None
  96:Generated_Source\PSoC5/ADC_1_INT.c ****     *
  97:Generated_Source\PSoC5/ADC_1_INT.c ****     * Reentrant:
  98:Generated_Source\PSoC5/ADC_1_INT.c ****     *  No
  99:Generated_Source\PSoC5/ADC_1_INT.c ****     *
 100:Generated_Source\PSoC5/ADC_1_INT.c ****     *****************************************************************************/
 101:Generated_Source\PSoC5/ADC_1_INT.c ****     CY_ISR( ADC_1_ISR2)
 102:Generated_Source\PSoC5/ADC_1_INT.c ****     {
 178              		.loc 1 102 0
 179              		.cfi_startproc
 180              		@ args = 0, pretend = 0, frame = 0
 181              		@ frame_needed = 0, uses_anonymous_args = 0
 182              		@ link register save eliminated.
 183 0000 7047     		bx	lr
 184              		.cfi_endproc
 185              	.LFE1:
 186              		.size	ADC_1_ISR2, .-ADC_1_ISR2
 187 0002 00BF     		.section	.text.ADC_1_ISR3,"ax",%progbits
 188              		.align	2
 189              		.global	ADC_1_ISR3
 190              		.thumb
 191              		.thumb_func
 192              		.type	ADC_1_ISR3, %function
 193              	ADC_1_ISR3:
 194              	.LFB2:
 103:Generated_Source\PSoC5/ADC_1_INT.c ****         #ifdef ADC_1_ISR2_ENTRY_CALLBACK
 104:Generated_Source\PSoC5/ADC_1_INT.c ****             ADC_1_ISR2_EntryCallback();
 105:Generated_Source\PSoC5/ADC_1_INT.c ****         #endif /* ADC_1_ISR2_ENTRY_CALLBACK */
 106:Generated_Source\PSoC5/ADC_1_INT.c ****         
 107:Generated_Source\PSoC5/ADC_1_INT.c ****         
 108:Generated_Source\PSoC5/ADC_1_INT.c ****         /***************************************************************************
 109:Generated_Source\PSoC5/ADC_1_INT.c ****         *  Custom Code
 110:Generated_Source\PSoC5/ADC_1_INT.c ****         *  - add user ISR code between the following #START and #END tags
 111:Generated_Source\PSoC5/ADC_1_INT.c ****         **************************************************************************/
 112:Generated_Source\PSoC5/ADC_1_INT.c ****         /* `#START MAIN_ADC_ISR2`  */
 113:Generated_Source\PSoC5/ADC_1_INT.c **** 
 114:Generated_Source\PSoC5/ADC_1_INT.c ****         /* `#END`  */
 115:Generated_Source\PSoC5/ADC_1_INT.c **** 
 116:Generated_Source\PSoC5/ADC_1_INT.c ****         /* Stop the conversion conversion mode is single sample and resolution
 117:Generated_Source\PSoC5/ADC_1_INT.c ****         *  is above 16 bits.
 118:Generated_Source\PSoC5/ADC_1_INT.c ****         */
 119:Generated_Source\PSoC5/ADC_1_INT.c ****         #if(ADC_1_CFG2_RESOLUTION > 16 && \
 120:Generated_Source\PSoC5/ADC_1_INT.c ****             ADC_1_CFG2_CONVMODE == ADC_1_MODE_SINGLE_SAMPLE)
 121:Generated_Source\PSoC5/ADC_1_INT.c ****             ADC_1_StopConvert();
 122:Generated_Source\PSoC5/ADC_1_INT.c ****             /* Software flag for checking conversion complete or not. Will be used when
 123:Generated_Source\PSoC5/ADC_1_INT.c ****             *   resolution is above 16 bits and conversion mode is single sample 
 124:Generated_Source\PSoC5/ADC_1_INT.c **** 			*/
 125:Generated_Source\PSoC5/ADC_1_INT.c ****             ADC_1_convDone = ADC_1_DEC_CONV_DONE;
 126:Generated_Source\PSoC5/ADC_1_INT.c ****         #endif /* Single sample conversion mode with resolution above 16 bits */
 127:Generated_Source\PSoC5/ADC_1_INT.c **** 
 128:Generated_Source\PSoC5/ADC_1_INT.c ****         #ifdef ADC_1_ISR2_EXIT_CALLBACK
 129:Generated_Source\PSoC5/ADC_1_INT.c ****             ADC_1_ISR2_ExitCallback();
 130:Generated_Source\PSoC5/ADC_1_INT.c ****         #endif /* ADC_1_ISR2_EXIT_CALLBACK */
 131:Generated_Source\PSoC5/ADC_1_INT.c ****     }
 132:Generated_Source\PSoC5/ADC_1_INT.c **** 
 133:Generated_Source\PSoC5/ADC_1_INT.c **** 
 134:Generated_Source\PSoC5/ADC_1_INT.c ****     /*****************************************************************************
ARM GAS  C:\Users\JEFFSN~1\AppData\Local\Temp\ccK1yhJ3.s 			page 12


 135:Generated_Source\PSoC5/ADC_1_INT.c ****     * Function Name: ADC_1_ISR3
 136:Generated_Source\PSoC5/ADC_1_INT.c ****     ******************************************************************************
 137:Generated_Source\PSoC5/ADC_1_INT.c ****     *
 138:Generated_Source\PSoC5/ADC_1_INT.c ****     * Summary:
 139:Generated_Source\PSoC5/ADC_1_INT.c ****     *  Handle Interrupt Service Routine.
 140:Generated_Source\PSoC5/ADC_1_INT.c ****     *
 141:Generated_Source\PSoC5/ADC_1_INT.c ****     * Parameters:
 142:Generated_Source\PSoC5/ADC_1_INT.c ****     *  None
 143:Generated_Source\PSoC5/ADC_1_INT.c ****     *
 144:Generated_Source\PSoC5/ADC_1_INT.c ****     * Return:
 145:Generated_Source\PSoC5/ADC_1_INT.c ****     *  None
 146:Generated_Source\PSoC5/ADC_1_INT.c ****     *
 147:Generated_Source\PSoC5/ADC_1_INT.c ****     * Reentrant:
 148:Generated_Source\PSoC5/ADC_1_INT.c ****     *  No
 149:Generated_Source\PSoC5/ADC_1_INT.c ****     *
 150:Generated_Source\PSoC5/ADC_1_INT.c ****     *****************************************************************************/
 151:Generated_Source\PSoC5/ADC_1_INT.c ****     CY_ISR( ADC_1_ISR3)
 152:Generated_Source\PSoC5/ADC_1_INT.c ****     {
 195              		.loc 1 152 0
 196              		.cfi_startproc
 197              		@ args = 0, pretend = 0, frame = 0
 198              		@ frame_needed = 0, uses_anonymous_args = 0
 199              		@ link register save eliminated.
 200 0000 7047     		bx	lr
 201              		.cfi_endproc
 202              	.LFE2:
 203              		.size	ADC_1_ISR3, .-ADC_1_ISR3
 204 0002 00BF     		.section	.text.ADC_1_ISR4,"ax",%progbits
 205              		.align	2
 206              		.global	ADC_1_ISR4
 207              		.thumb
 208              		.thumb_func
 209              		.type	ADC_1_ISR4, %function
 210              	ADC_1_ISR4:
 211              	.LFB3:
 153:Generated_Source\PSoC5/ADC_1_INT.c ****         #ifdef ADC_1_ISR3_ENTRY_CALLBACK
 154:Generated_Source\PSoC5/ADC_1_INT.c ****             ADC_1_ISR3_EntryCallback();
 155:Generated_Source\PSoC5/ADC_1_INT.c ****         #endif /* ADC_1_ISR3_ENTRY_CALLBACK */        
 156:Generated_Source\PSoC5/ADC_1_INT.c **** 
 157:Generated_Source\PSoC5/ADC_1_INT.c ****         
 158:Generated_Source\PSoC5/ADC_1_INT.c ****         /***************************************************************************
 159:Generated_Source\PSoC5/ADC_1_INT.c ****         *  Custom Code
 160:Generated_Source\PSoC5/ADC_1_INT.c ****         *  - add user ISR code between the following #START and #END tags
 161:Generated_Source\PSoC5/ADC_1_INT.c ****         **************************************************************************/
 162:Generated_Source\PSoC5/ADC_1_INT.c ****         /* `#START MAIN_ADC_ISR3`  */
 163:Generated_Source\PSoC5/ADC_1_INT.c **** 
 164:Generated_Source\PSoC5/ADC_1_INT.c ****         /* `#END`  */
 165:Generated_Source\PSoC5/ADC_1_INT.c ****         
 166:Generated_Source\PSoC5/ADC_1_INT.c ****         /* Stop the conversion if conversion mode is set to single sample and
 167:Generated_Source\PSoC5/ADC_1_INT.c ****         *  resolution is above 16 bits.
 168:Generated_Source\PSoC5/ADC_1_INT.c ****         */
 169:Generated_Source\PSoC5/ADC_1_INT.c ****         #if(ADC_1_CFG3_RESOLUTION > 16 && \
 170:Generated_Source\PSoC5/ADC_1_INT.c ****             ADC_1_CFG3_CONVMODE == ADC_1_MODE_SINGLE_SAMPLE)
 171:Generated_Source\PSoC5/ADC_1_INT.c ****             ADC_1_StopConvert();
 172:Generated_Source\PSoC5/ADC_1_INT.c ****             /* Software flag for checking conversion complete or not. Will be used when
 173:Generated_Source\PSoC5/ADC_1_INT.c ****             *  resolution is above 16 bits and conversion mode is single sample 
 174:Generated_Source\PSoC5/ADC_1_INT.c **** 			*/
ARM GAS  C:\Users\JEFFSN~1\AppData\Local\Temp\ccK1yhJ3.s 			page 13


 175:Generated_Source\PSoC5/ADC_1_INT.c ****             ADC_1_convDone = ADC_1_DEC_CONV_DONE;
 176:Generated_Source\PSoC5/ADC_1_INT.c ****         #endif /* Single sample conversion mode with resolution above 16 bits */
 177:Generated_Source\PSoC5/ADC_1_INT.c **** 
 178:Generated_Source\PSoC5/ADC_1_INT.c ****         #ifdef ADC_1_ISR3_EXIT_CALLBACK
 179:Generated_Source\PSoC5/ADC_1_INT.c ****             ADC_1_ISR3_ExitCallback();
 180:Generated_Source\PSoC5/ADC_1_INT.c ****         #endif /* ADC_1_ISR3_EXIT_CALLBACK */        
 181:Generated_Source\PSoC5/ADC_1_INT.c ****     }
 182:Generated_Source\PSoC5/ADC_1_INT.c **** 
 183:Generated_Source\PSoC5/ADC_1_INT.c **** 
 184:Generated_Source\PSoC5/ADC_1_INT.c ****     /*****************************************************************************
 185:Generated_Source\PSoC5/ADC_1_INT.c ****     * Function Name: ADC_1_ISR4
 186:Generated_Source\PSoC5/ADC_1_INT.c ****     ******************************************************************************
 187:Generated_Source\PSoC5/ADC_1_INT.c ****     *
 188:Generated_Source\PSoC5/ADC_1_INT.c ****     * Summary:
 189:Generated_Source\PSoC5/ADC_1_INT.c ****     *  Handle Interrupt Service Routine.
 190:Generated_Source\PSoC5/ADC_1_INT.c ****     *
 191:Generated_Source\PSoC5/ADC_1_INT.c ****     * Parameters:
 192:Generated_Source\PSoC5/ADC_1_INT.c ****     *  None
 193:Generated_Source\PSoC5/ADC_1_INT.c ****     *
 194:Generated_Source\PSoC5/ADC_1_INT.c ****     * Return:
 195:Generated_Source\PSoC5/ADC_1_INT.c ****     *  None
 196:Generated_Source\PSoC5/ADC_1_INT.c ****     *
 197:Generated_Source\PSoC5/ADC_1_INT.c ****     * Reentrant:
 198:Generated_Source\PSoC5/ADC_1_INT.c ****     *  No
 199:Generated_Source\PSoC5/ADC_1_INT.c ****     *
 200:Generated_Source\PSoC5/ADC_1_INT.c ****     *****************************************************************************/
 201:Generated_Source\PSoC5/ADC_1_INT.c ****     CY_ISR( ADC_1_ISR4)
 202:Generated_Source\PSoC5/ADC_1_INT.c ****     {
 212              		.loc 1 202 0
 213              		.cfi_startproc
 214              		@ args = 0, pretend = 0, frame = 0
 215              		@ frame_needed = 0, uses_anonymous_args = 0
 216              		@ link register save eliminated.
 217 0000 7047     		bx	lr
 218              		.cfi_endproc
 219              	.LFE3:
 220              		.size	ADC_1_ISR4, .-ADC_1_ISR4
 221 0002 00BF     		.text
 222              	.Letext0: