ARM GAS  C:\Users\JEFFSN~1\AppData\Local\Temp\ccqi9MMv.s 			page 1


   1              		.syntax unified
   2              		.cpu cortex-m3
   3              		.fpu softvfp
   4              		.eabi_attribute 20, 1
   5              		.eabi_attribute 21, 1
   6              		.eabi_attribute 23, 3
   7              		.eabi_attribute 24, 1
   8              		.eabi_attribute 25, 1
   9              		.eabi_attribute 26, 1
  10              		.eabi_attribute 30, 1
  11              		.eabi_attribute 34, 1
  12              		.eabi_attribute 18, 4
  13              		.thumb
  14              		.syntax unified
  15              		.file	"ADC_1_Ext_CP_Clk.c"
  16              		.text
  17              	.Ltext0:
  18              		.section	.gnu.lto_.profile.cdcf421a,"",%progbits
  19 0000 789C6361 		.ascii	"x\234ca`d`c`\000\222\327\031W0\002\000\005D\001\216"
  19      60646063 
  19      600092D7 
  19      19573002 
  19      00054401 
  20              		.text
  21              		.section	.gnu.lto_.inline.cdcf421a,"",%progbits
  22 0000 789C6361 		.ascii	"x\234ca`d\000\201\327\014\010\300\315\300\300\311\301"
  22      60640081 
  22      D70C08C0 
  22      CDC0C0C9 
  22      C1
  23 0011 C8C0C4F3 		.ascii	"\310\300\304\363 \226\201m\201<\023H\214\021S\210\211"
  23      2096816D 
  23      813C1348 
  23      8C115388 
  23      89
  24 0022 41461B28 		.ascii	"AF\033(d4\247\203\025.\306\314\300\315\016\024\023\230"
  24      6434A783 
  24      152EC6CC 
  24      C0CD0E14 
  24      1398
  25 0034 E0071762 		.ascii	"\340\007\027ba`a\006\0121]\340\207\013\2612\260\263"
  25      61606106 
  25      0A315DE0 
  25      870BB132 
  25      B0B3
  26 0046 0185380E 		.ascii	"\001\2058\016\330\301\205\330\0308@\032\271\2204\262"
  26      D8C185D8 
  26      1838401A 
  26      B99034B2 
  27 0056 33B0B200 		.ascii	"3\260\262\000\205X\026\310\303\20580\2058\031\0163\330"
  27      855816C8 
  27      C3853830 
  27      8538190E 
  27      33D8
  28 0068 02C52A5E 		.ascii	"\002\305*^\354bA8\215\033Fp1\250*\003em\372\3263b\221"
  28      EC624138 
  28      8D1B4670 
ARM GAS  C:\Users\JEFFSN~1\AppData\Local\Temp\ccqi9MMv.s 			page 2


  28      31A82A03 
  28      656DFAD6 
  29 007f 65000044 		.ascii	"e\000\000Da\030\325"
  29      6118D5
  30              		.text
  31              		.section	.gnu.lto_.jmpfuncs.cdcf421a,"",%progbits
  32 0000 789C45CA 		.ascii	"x\234E\312\307\015\300 \000\300\300#t\030\204\3757\244"
  32      C70DC020 
  32      00C0C023 
  32      741884FD 
  32      37A4
  33 0012 7C62C91F 		.ascii	"|b\311\037\313IpY~\346\361\324\217H\"S\2504\372\035"
  33      CB497059 
  33      7EE6F1D4 
  33      8F482253 
  33      A834FA1D 
  34 0026 C6DB360E 		.ascii	"\306\3336\016e\000o"
  34      65006F
  35              		.text
  36              		.section	.gnu.lto_.pureconst.cdcf421a,"",%progbits
  37 0000 789C05C1 		.ascii	"x\234\005\301\207\015\000 \014\300\260\024\012e\034"
  37      870D0020 
  37      0CC0B014 
  37      0A651C
  38 000f 8094FF0F 		.ascii	"\200\224\377\017\305N\202\007\\\014\233\335t8-\227\333"
  38      C54E8207 
  38      5C0C9BDD 
  38      74382D97 
  38      DB
  39 0020 E3071224 		.ascii	"\343\007\022$\001}"
  39      017D
  40              		.text
  41              		.section	.gnu.lto_ADC_1_Ext_CP_Clk_Start.cdcf421a,"",%progbits
  42 0000 789C6361 		.ascii	"x\234ca`d\000\201\035@J\007HK\0031#3\003#\323\204s\014"
  42      60640081 
  42      1D404A07 
  42      484B0331 
  42      23330323 
  43 0018 0C8D1C4C 		.ascii	"\014\215\034L\214\214 F\003\007#C=\023c=\343W\246\277"
  43      8C8C2046 
  43      03072343 
  43      3D13633D 
  43      E357A6BF 
  44 002c 4C8C87DA 		.ascii	"L\214\207\332\237\355d\322\\\336\000\004\017\226Ngn"
  44      9FED64D2 
  44      5CDE0004 
  44      0F964E67 
  44      6E
  45 003d 587180B1 		.ascii	"Xq\200\261\225\231\201\341?\023\330$\006\306\345\214"
  45      959981E1 
  45      3F13D824 
  45      06C6E58C 
  46 004d 9A0C4065 		.ascii	"\232\014@e\2176\376\233\312\313\326\002R\246\000\221"
  46      8F36FE9B 
  46      CACBD602 
  46      52A60091 
  47 005d 645CC1C8 		.ascii	"d\\\301\310\006\262n}\320\201\206\377\377\233\033\016"
ARM GAS  C:\Users\JEFFSN~1\AppData\Local\Temp\ccqi9MMv.s 			page 3


  47      06B26E7D 
  47      D08186FF 
  47      FF9B1B0E 
  48 006d EC655DC9 		.ascii	"\354e]\311\314\301\304\320\312\014\264\022H\260\202"
  48      CCC1C4D0 
  48      CA0CB412 
  48      48B082
  49 007c 083610C1 		.ascii	"\0106\020\301\300\360\001\250\001d\365G&&\020\315\374"
  49      C0F001A8 
  49      0164F547 
  49      262610CD 
  49      FC
  50 008d 8CF1D0AF 		.ascii	"\214\361\320\257\256c\307\330Af43\203\2341\255\365\320"
  50      AE63C7D8 
  50      41663433 
  50      839C31AD 
  50      F5D0
  51 009f 79F62F4C 		.ascii	"y\366/L\255\314L\214 \353\216\316:\265\223\007\302]"
  51      ADCC4C8C 
  51      20EB8ECE 
  51      3AB59307 
  51      C25D
  52 00b1 D4DED8C0 		.ascii	"\324\336\330\300\002\024Z|\363\355\003\276\371\214s"
  52      02145A7C 
  52      F3ED03BE 
  52      F98C73
  53 00c0 1B5B800E 		.ascii	"\033[\200\016df\\\305(\303\270\222Q\006\350\216\325"
  53      64665CC5 
  53      28C3B892 
  53      5106E88E 
  53      D5
  54 00d1 8CF31919 		.ascii	"\214\363\031\031\23616\377`\203\030\307\0141q\313\221"
  54      9E3136FF 
  54      608318C7 
  54      0C3171CB 
  54      91
  55 00e2 E36D1C20 		.ascii	"\343m\034 #\030\201`\015P%\320\322i\214 %\370\014[\013"
  55      23188160 
  55      0D5025D0 
  55      D2698C20 
  55      25F80C5B 
  56 00f7 340C6804 		.ascii	"4\014h\004\003\330\205\347\266A]\310\012\3242\375\335"
  56      03D885E7 
  56      B6415DC8 
  56      0AD432FD 
  56      DD
  57 0108 FC5E5E88 		.ascii	"\374^^\210\2236A\235\364\345\376\261\273\\\010S\326"
  57      9336419D 
  57      F4E5FEB1 
  57      BB5C0853 
  57      D6
  58 0119 C14D598F 		.ascii	"\301MY\217\346$\220\021\030n\300\251{\003\330\015l\014"
  58      E6249011 
  58      186EC0A9 
  58      7B03D80D 
  58      6C0C
  59 012b AF189B0E 		.ascii	"\257\030\233\016\\e\005\251\006G\305\007`\320\000\003"
ARM GAS  C:\Users\JEFFSN~1\AppData\Local\Temp\ccqi9MMv.s 			page 4


  59      5C6505A9 
  59      0647C507 
  59      60D00003 
  60 013b 0F18945A 		.ascii	"\017\030\224Z\356\251y\251E\211%\251)\361\301\371\245"
  60      EEA979A9 
  60      458925A9 
  60      29F1C1F9 
  60      A5
  61 014c 45C9A931 		.ascii	"E\311\2511\001\301\371\316\2461\216.\316\361\206\361"
  61      01C1F9CE 
  61      A6318E2E 
  61      CEF186F1 
  62 015c AE1525F1 		.ascii	"\256\025%\361\316\001\361\3169\331z\311\014\000d\351"
  62      CE01F1CE 
  62      39D97AC9 
  62      0C0064E9 
  63 016c 9E60     		.ascii	"\236`"
  64              		.text
  65              		.section	.gnu.lto_ADC_1_Ext_CP_Clk_Stop.cdcf421a,"",%progbits
  66 0000 789C6361 		.ascii	"x\234ca`d\000\201]@J\007HK\0031#3\003#\323\204s\014"
  66      60640081 
  66      5D404A07 
  66      484B0331 
  66      23330323 
  67 0018 0C8D1C4C 		.ascii	"\014\215\034L\214\214 F\003\007#C=\023c=\343W\246\277"
  67      8C8C2046 
  67      03072343 
  67      3D13633D 
  67      E357A6BF 
  68 002c 4C8C87DA 		.ascii	"L\214\207\332\237\355d\322\\\336\000\004\017\236>6h"
  68      9FED64D2 
  68      5CDE0004 
  68      0F9E3E36 
  68      68
  69 003d 587180B1 		.ascii	"Xq\200\261\225\231\201\341?\023\330$\006\306\345\214"
  69      959981E1 
  69      3F13D824 
  69      06C6E58C 
  70 004d 9A0C4065 		.ascii	"\232\014@e\2176\376\233\312\313\326\002R\246\000\221"
  70      8F36FE9B 
  70      CACBD602 
  70      52A60091 
  71 005d 645CC1C8 		.ascii	"d\\\301\310\006\262n}\320\201\206\377\377\233\033\016"
  71      06B26E7D 
  71      D08186FF 
  71      FF9B1B0E 
  72 006d 6C643BB8 		.ascii	"ld;\270\203\215\203\211\241\225\031h'\220`\005\021l"
  72      838D8389 
  72      A1951968 
  72      27906005 
  72      116C
  73 007f 208281E1 		.ascii	" \202\201\341\003P\007\310\356\217LL \232\371\031\343"
  73      035007C8 
  73      EE8F4C4C 
  73      209AF919 
  73      E3
  74 0090 A15F5DD7 		.ascii	"\241_]\327fV\200\014if\006\271cZ\353\241\363\354_\230"
ARM GAS  C:\Users\JEFFSN~1\AppData\Local\Temp\ccqi9MMv.s 			page 5


  74      6656800C 
  74      696606B9 
  74      635AEBA1 
  74      F3EC5F98 
  75 00a4 5A999918 		.ascii	"Z\231\231\030A\366\035\235uj'\017\204\273\250\275\261"
  75      41F61D9D 
  75      756A270F 
  75      84BBA8BD 
  75      B1
  76 00b5 810528B4 		.ascii	"\201\005(\264\370\346\333\007|\363\031\3476\266\000"
  76      F8E6DB07 
  76      7CF319E7 
  76      36B600
  77 00c4 5DC8CCB8 		.ascii	"]\310\314\270\212Q\206q%\243\014\320!\253\031\34732"
  77      8A518671 
  77      25A30CD0 
  77      21AB19E7 
  77      3332
  78 00d6 3C636CFE 		.ascii	"<cl\376\303\0061\216\031b\342\355\356kSxAF03\376cd\\"
  78      C306318E 
  78      1962E2ED 
  78      EE6B5378 
  78      41463033 
  79 00ee 03540AB4 		.ascii	"\003T\012\264u\032#H\015>\323\326\002M\003\232\301\000"
  79      751A2348 
  79      0D3ED3D6 
  79      024D039A 
  79      C100
  80 0100 76E2BD99 		.ascii	"v\342\275\231e\0203Y\201Z\246\277\233\337\313\013q\323"
  80      65103359 
  80      815AA6BF 
  80      9BDFCB0B 
  80      71D3
  81 0112 26A89BBE 		.ascii	"&\250\233\276\334?v\227\013a\312:\270)\353\321\334\004"
  81      DC3F7697 
  81      0B61CA3A 
  81      B829EBD1 
  81      DC04
  82 0124 3202C30D 		.ascii	"2\002\303\0158uo\000\273\201\215\341\025c\323\201\235"
  82      38756F00 
  82      BB818DE1 
  82      1563D381 
  82      9D
  83 0135 6E20D5E0 		.ascii	"n \325\340\310\370\000\014\033`\350\001\303R\313=5/"
  83      C8F8000C 
  83      1B60E801 
  83      C352CB3D 
  83      352F
  84 0147 B528B124 		.ascii	"\265(\261$5%>8\277\264(95& 8\337\3314\306\321\3059\336"
  84      35253E38 
  84      BFB42839 
  84      35262038 
  84      DFD934C6 
  85 015f 30DEB5A2 		.ascii	"0\336\265\242$\3369 \3369'[/\231\001\000F\207\241\326"
  85      24DE3920 
  85      DE39275B 
  85      2F990100 
ARM GAS  C:\Users\JEFFSN~1\AppData\Local\Temp\ccqi9MMv.s 			page 6


  85      4687A1D6 
  86              		.text
  87              		.section	.gnu.lto_ADC_1_Ext_CP_Clk_StopBlock.cdcf421a,"",%progbits
  88 0000 789C8D94 		.ascii	"x\234\215\224]LTG\024\307\347\314\334\217\335e\267\013"
  88      5D4C5447 
  88      14C7E7CC 
  88      DC8FDD65 
  88      B70B
  89 0012 91071F8C 		.ascii	"\221\007\037\214\361\305\007M\324\032\333\364\331\240"
  89      F1C5074D 
  89      D41ADBF4 
  89      D9A0
  90 0020 6DE293D1 		.ascii	"m\342\223\321\027\233\330l\252\354\203\321HC\324\370"
  90      179BD86C 
  90      AAEC83D1 
  90      4843D4F8 
  91 0030 5467BF4A 		.ascii	"Tg\277JCm\013\006\301\370\265I\367\301\255Z\021?PZ,"
  91      436D0B06 
  91      C1F8B549 
  91      F7C1AD5A 
  91      113F505A 
  92 0045 57145144 		.ascii	"W\024QD\254\204j,iU\252\3044\265\331m\261*\010\353\231"
  92      AC846A2C 
  92      6955AAC4 
  92      34B5D96D 
  92      B12A08EB 
  93 005a 7B86CB87 		.ascii	"{\206\313\207\305\364&\367\334;3g~\363\237s\316\214"
  93      C5F426F7 
  93      DC3B3367 
  93      7EF39F73 
  93      CE8C
  94 006c C180A967 		.ascii	"\301\200\251g\245\305\330{\370\215\340\013>\006\274"
  94      A5C5D87B 
  94      F88DE00B 
  94      3E06BC
  95 007b A687B198 		.ascii	"\246\207\261\230\217s\321\267\204\311\200\325:\227\311"
  95      8F73D1B7 
  95      84C980D5 
  95      3A97C9
  96 008a A00083BA 		.ascii	"\240\000\203\272\015n\357\356d\330o&m\354\267\251\177"
  96      0D6EEFEE 
  96      64D86F26 
  96      6DECB7A9 
  96      7F
  97 009b B909168D 		.ascii	"\271\011\026\215[\000\352G\372\200\355\342\302\260M"
  97      5B00EA47 
  97      FA80EDE2 
  97      C2B04D
  98 00aa 0B767183 		.ascii	"\013vq\203\321\363\224\217rh\257\032l\341\013\216H|"
  98      D1F3948F 
  98      7268AF1A 
  98      6CE10B8E 
  98      487C
  99 00bc EEA7FE79 		.ascii	"\356\247\376y[f\035H\011\306\012\234|\340\010,`\350"
  99      5B661D48 
  99      09C60A9C 
  99      7CE0082C 
ARM GAS  C:\Users\JEFFSN~1\AppData\Local\Temp\ccqi9MMv.s 			page 7


  99      60E8
 100 00ce 36D034B6 		.ascii	"6\3204\2667d%\225\333<\032\204,X(\031p\260\243\360\314"
 100      37642595 
 100      DB3C1A84 
 100      2C582819 
 100      70B0A3F0 
 101 00e3 090FF194 		.ascii	"\011\017\361\224\000P\310\336\\\367\241\"\325\344P\214"
 101      0050C8DE 
 101      5CF7A122 
 101      D5E4508C 
 102 00f3 CDAF1E1D 		.ascii	"\315\257\036\035\275\023\024\213@a\372\023\307\356\204"
 102      BD13148B 
 102      4061FA13 
 102      C7EE84
 103 0102 E667A48C 		.ascii	"\346g\244\214K\347tU\351>\351\304\347\245\204\200c "
 103      4BE77455 
 103      E93EE9C4 
 103      E7A58480 
 103      6320
 104 0114 100A4761 		.ascii	"\020\012Ga\016|\013sh\345\3430\277q\215#\013\205\204"
 104      0E7C0B73 
 104      68E5E330 
 104      BF718D23 
 104      0B8584
 105 0127 740ED817 		.ascii	"t\016\330\027\233\003\2639K\011\303P\306T\306\257L@"
 105      9B03B339 
 105      4B09C350 
 105      C654C6AF 
 105      4C40
 106 0139 99A0EB1D 		.ascii	"\231\240\353\035V\277\305\312\224(3K\231Re\030\313\241"
 106      56BFC5CA 
 106      9428334B 
 106      99526518 
 106      CBA1
 107 014b E24B452C 		.ascii	"\342KE,\3179~\304 \264\017W\377{\360\035\265\205\204"
 107      CF397EC4 
 107      20B40F57 
 107      FF7BF01D 
 107      B58584
 108 015e 3050577D 		.ascii	"0PW}\252\375\246\255$\233\256\314\216\375]-Aj~S\025"
 108      AAFDA6AD 
 108      249BAECC 
 108      8EFD5D2D 
 108      416A7E53 
 109 0173 93CA2373 		.ascii	"\223\312#s\367\311\375\267\322p(\226\304\370Xp\002\225"
 109      F7C9FDB7 
 109      D2702896 
 109      C4F85870 
 109      0295
 110 0185 7EA79442 		.ascii	"~\247\224B#\244\201\015B\342\345\373,!8\341\316\\\356"
 110      23A4810D 
 110      42E2E5FB 
 110      2C2138E1 
 110      CE5CEE
 111 0198 FCCCA7E6 		.ascii	"\374\314\247\346\033\000p\022\335\036@\262?\261\201"
 111      1B007012 
 111      DD1E40B2 
ARM GAS  C:\Users\JEFFSN~1\AppData\Local\Temp\ccqi9MMv.s 			page 8


 111      3FB181
 112 01a7 D653216A 		.ascii	"\326S!j\374\263\345E\210\034\0304\351\035\347\271`I"
 112      FCB3E545 
 112      881C1834 
 112      E91DE7B9 
 112      6049
 113 01b9 5BA91BCA 		.ascii	"[\251\033\312=\271eN\213\272\332\241\033t\\\363\024"
 113      3DB9654E 
 113      8BBADAA1 
 113      1B745CF3 
 113      14
 114 01ca 58383AD2 		.ascii	"X8:\322\323\373\263\217T\306$\251L\035\317\034\014\271"
 114      D3FBB38F 
 114      54C624A9 
 114      4C1DCF1C 
 114      0CB9
 115 01dc 2A63522E 		.ascii	"*cR.cJ\351iO\351\031T:y\257\230>8\213#j\301\223Oc\266"
 115      634AE969 
 115      4FE91954 
 115      3A79AF98 
 115      3E388B23 
 116 01f6 C6DE78F8 		.ascii	"\306\336x\370w^\307\242Fc_\214<\337<\225\332\354Q\317"
 116      775EC7A2 
 116      46635F8C 
 116      3CDF3C95 
 116      DAEC51CF 
 117 020a 11F56C55 		.ascii	"\021\365lUwS\200\250\000\347557A\275\360\270\255\332"
 117      775380A8 
 117      00E73535 
 117      3741BDF0 
 117      B8ADDA
 118 021d 4FD43A4D 		.ascii	"O\324:M\355\353k\310\370\247b[<\354\367\210\035W7\\"
 118      EDEB6BC8 
 118      F8A7625B 
 118      3CECF788 
 118      1D57375C 
 119 0231 3D76F813 		.ascii	"=v\370\023\305I\010?\316{\270\247\343q\210P\237kT\353"
 119      C549083F 
 119      CE7BB8A7 
 119      E3718850 
 119      9F6B54EB 
 120 0245 F58C139E 		.ascii	"\365\214\023\236\310\316\017\036\246u<;\026\315\017"
 120      C8CE0F1E 
 120      A6753C3B 
 120      16CD0F
 121 0254 1062E4EA 		.ascii	"\020b\344\352`[\230\324\026\030\\\240e\352Ak\235\221"
 121      605B98D4 
 121      16185CA0 
 121      65EA416B 
 121      9D91
 122 0266 F623D290 		.ascii	"\366#\322\220A\232z\322\353\210\031\234\034T\233\352"
 122      419A7AD2 
 122      EB88199C 
 122      1C549BEA 
 123 0276 FC6E7A77 		.ascii	"\374nzw\0215e\214$6<\312\016\030\343\273\375\010w\353"
 123      1135658C 
 123      24363CCA 
ARM GAS  C:\Users\JEFFSN~1\AppData\Local\Temp\ccqi9MMv.s 			page 9


 123      0E18E3BB 
 123      FD0877EB 
 124 028a 0307C16D 		.ascii	"\003\007\301m.\370\242\2229\000q\371\241B\252T#\326"
 124      2EF8A292 
 124      390071F9 
 124      A142AA54 
 124      23D6
 125 029c D5D4345A 		.ascii	"\325\3244Z+\264,o\015\277\273\306\371f\347k\0375\343"
 125      2BB42C6F 
 125      0DBFBBC6 
 125      F966E76B 
 125      1F35E3
 126 02af 3A0C6DBF 		.ascii	":\014m\277\377R+\306\205\007\340\022\362\333]\376eW"
 126      FF522BC6 
 126      8507E012 
 126      F2DB5DFE 
 126      6557
 127 02c1 78909232 		.ascii	"x\220\2222z\313\324\3047\226K\007%\366ZWC6H\241\262"
 127      7ACBD4C4 
 127      37964B07 
 127      25F65A57 
 127      433648A1 
 128 02d6 E18A5BAA 		.ascii	"\341\212[\252y\274B\360Z\321\347(\275\206\302\020\236"
 128      79BC42F0 
 128      5AD1E728 
 128      BD86C210 
 128      9E
 129 02e7 0284A9B0 		.ascii	"\002\204\251\260\316\311\247\304D\347\211c\361)M7\275"
 129      CEC9A7C4 
 129      44E78963 
 129      F1294D37 
 129      BD
 130 02f8 7390E336 		.ascii	"s\220\3436\303[\015\362\334\324\347a\270\372v\266\006"
 130      C35B0DF2 
 130      DCD4E761 
 130      B8FA76B6 
 130      06
 131 0309 C8AFF84D 		.ascii	"\310\257\370M\207\361\352\264t\227\220\177\377\027\267"
 131      87F1EAB4 
 131      7497907F 
 131      FF17B7
 132 0318 EB42B487 		.ascii	"\353B\264\2071\200k\323\322=#\255\313\215Z\011\245\373"
 132      31806BD3 
 132      D23D23AD 
 132      CB8D5A09 
 132      A5FB
 133 032a B76C9D56 		.ascii	"\267l\235V0Ke\363\257\364\227\272\006O\351\033b\350"
 133      304B65F3 
 133      AFF497BA 
 133      064FE91B 
 133      62E8
 134 033c DE955F03 		.ascii	"\336\225_\003\023\230\353\036\246{\232\250RD\274&b\306"
 134      1398EB1E 
 134      A67B9AA8 
 134      5244BC26 
 134      62C6
 135 034e D9375C11 		.ascii	"\3317\\\021\245\224\272\316\336\377\225\272\236I\207"
ARM GAS  C:\Users\JEFFSN~1\AppData\Local\Temp\ccqi9MMv.s 			page 10


 135      A594BACE 
 135      DEFF95BA 
 135      9E4987
 136 035d A7BEB69B 		.ascii	"\247\276\266\233\3539^U\372\377\243*\335\212\271\351"
 136      EB395E55 
 136      FAFFA32A 
 136      DD8AB9E9 
 137 036d 55CC4FBA 		.ascii	"U\314O\272bT\266-ui\376\001q\347\334*\272\200\334$\001"
 137      6254B62D 
 137      7569FE01 
 137      71E7DC2A 
 137      BA80DC24 
 138 0382 F6E2B5BA 		.ascii	"\366\342\265\272\360\203\350\326h\345\307\333\242\345"
 138      F083E8D6 
 138      68E5C7DB 
 138      A2E5
 139 0390 91B515DB 		.ascii	"\221\265\025\333+7F\327\257^[Q\366\356\372\345+\312"
 139      2B3746D7 
 139      AF5E5B51 
 139      F6EEFAE5 
 139      2BCA
 140 03a2 224B232B 		.ascii	"\"K#+wn\213\224\255\216\224m\331\274x#\013Tl)_\261i"
 140      776E8B94 
 140      AD8E946D 
 140      D9BC7823 
 140      0B546C29 
 141 03b9 C7A6F268 		.ascii	"\307\246\362h\345+G\211/\334"
 141      E52B4789 
 141      2FDC
 142              		.text
 143              		.section	.gnu.lto_ADC_1_Ext_CP_Clk_StandbyPower.cdcf421a,"",%progbits
 144 0000 789C8D51 		.ascii	"x\234\215Q\317KTQ\024>\337\275\367\315<\246\346?\030"
 144      CF4B5451 
 144      143EDFBD 
 144      F7CD3CA6 
 144      E63F18
 145 0013 A49D2895 		.ascii	"\244\235(\225Y\270\015b\212\026mD\267\312#lVE\202M\320"
 145      59B80D62 
 145      8A166D44 
 145      B7CA236C 
 145      5645824D 
 146 0028 CE3BCE4C 		.ascii	"\316;\316L\202!\270P[M\263\022\177\326\244\345Bp\361"
 146      8221B850 
 146      5B4DB312 
 146      7FD6A4E5 
 146      4270F1
 147 003b 1AA276B6 		.ascii	"\032\242v\266\221\026\205\364c1\013\211\032\311\240"
 147      911685F4 
 147      63310B89 
 147      1AC9A0
 148 004a 229DCEB9 		.ascii	"\"\235\316\271\327\266\322\205{\356y\207\357\373\316"
 148      D7B6D285 
 148      7BEE7987 
 148      EFFBCE
 149 0059 77CE3304 		.ascii	"w\3163\004\222\323\243\210\316\363{\221/\022\0045\265"
 149      92D3A388 
 149      CEF37B91 
ARM GAS  C:\Users\JEFFSN~1\AppData\Local\Temp\ccqi9MMv.s 			page 11


 149      2F120435 
 149      B5
 150 006a 45540895 		.ascii	"ET\010\225\322\233mdSf\273\213\354I\215\300\227\315"
 150      D29B6D64 
 150      5366BB8B 
 150      EC498DC0 
 150      97CD
 151 007c BF240024 		.ascii	"\277$\000$\261!hTi\023`\024?\324\201B}\274\261\241:"
 151      B1216854 
 151      69136014 
 151      3FD48142 
 151      7DBCB1A1 
 152 0091 E62D9F8F 		.ascii	"\346-\237\217s\265n\273\020\243\254\211Z\3125#\314\243"
 152      73B56EBB 
 152      10A3AC89 
 152      5ACA3523 
 152      CCA3
 153 00a3 83513B95 		.ascii	"\203Q;\225o\337\215>\003\342\274\022\2577u\373\234\265"
 153      6FDF8D3E 
 153      03E2BC12 
 153      AF3775FB 
 153      9CB5
 154 00b5 63D6AE0F 		.ascii	"c\326\256\017Z]\326\300\00243p!\203s\031\342\002a\021"
 154      5A5DD6C0 
 154      02343370 
 154      21837319 
 154      E2026111 
 155 00c9 ED02FEBC 		.ascii	"\355\002\376\274z8\223N\224D\376\224\027\305\022\022"
 155      7A38934E 
 155      9444FE94 
 155      17C51212 
 156 00d9 3249AD2F 		.ascii	"2I\255/\266\255V\321\306\007\251\027\217N\244\024\204"
 156      B6AD56D1 
 156      C607A917 
 156      8F4EA414 
 156      84
 157 00ea 6298AC02 		.ascii	"b\230\254\002\011I\011\241\004\242&_1\277\247\224\274"
 157      094909A1 
 157      04A2265F 
 157      31BFA794 
 157      BC
 158 00fb FA134AEF 		.ascii	"\372\023J\357\212\255\231\244H\025\265LQ\373\262\361"
 158      8AAD99A4 
 158      4815B54C 
 158      51FBB2F1 
 159 010b 2BBDAF18 		.ascii	"+\275\257\030\315\255\227\221q\336\367\224\246\3156"
 159      CDAD9791 
 159      71DEF794 
 159      A6CD36
 160 011a DD40FDF7 		.ascii	"\335@\375\367\304\326\3124<\3340|\266\\\177\223\024"
 160      C4D6CA34 
 160      3CDC307C 
 160      B65C7F93 
 160      14
 161 012b B876133D 		.ascii	"\270v\023=\374Z\235L\373\317\265\361\202\025\304\376"
 161      FC5A9D4C 
 161      FBCFB5F1 
ARM GAS  C:\Users\JEFFSN~1\AppData\Local\Temp\ccqi9MMv.s 			page 12


 161      8215C4FE 
 162 013b 87573BA9 		.ascii	"\207W;\251**\205\022\257\303\34012X\021Y<A\025\324@"
 162      2A2A8512 
 162      AFC3E031 
 162      32581159 
 162      3C4115D4 
 163 0150 F14FC2CB 		.ascii	"\361O\302\313\005^\361\375\203\267\323N\302\340\020"
 163      055EF1FD 
 163      83B7D34E 
 163      C2E010
 164 015f A83194DB 		.ascii	"\2501\224\333\316\272\226\307\251=e5\326pf\015mwy\263"
 164      CEBA96C7 
 164      A93D6535 
 164      D670660D 
 164      6D7779B3 
 165 0173 BBA7BD76 		.ascii	"\273\247\275v\3628\352\352\221\221\237GFB\217\177\376"
 165      F238EAEA 
 165      91919F47 
 165      46428F7F 
 165      FE
 166 0184 F2F5FDD0 		.ascii	"\362\365\375\320o\002X\373_\037\317\234\217\320\371"
 166      6F0258FB 
 166      5F1FCF9C 
 166      8FD0F9
 167 0193 08DC8E77 		.ascii	"\010\334\216w1\026W\257\011\317\355\262\311\213\345"
 167      311657AF 
 167      09CFEDB2 
 167      C98BE5
 168 01a2 32FF88CE 		.ascii	"2\377\210\316\253\271\333\271\221\353\371\334\215\250"
 168      ABB9DBB9 
 168      91EBF9DC 
 168      8DA8
 169 01b0 7FF8EEC8 		.ascii	"\177\370\356\310Pn\240\267\1778\3333p\351r6\352\216"
 169      506EA0B7 
 169      7F38DB33 
 169      70E97236 
 169      EA8E
 170 01c2 AEDCCB47 		.ascii	"\256\334\313G\331\336({\353\346\331!\012\356\344\031"
 170      D9DE287B 
 170      EBE6D921 
 170      0AEEE419 
 171 01d2 F71722FD 		.ascii	"\367\027\"\375\314\321"
 171      CCD1
 172              		.text
 173              		.section	.gnu.lto_ADC_1_Ext_CP_Clk_GetDividerRegister.cdcf421a,"",%progbits
 174 0000 789C6361 		.ascii	"x\234ca`d\000\201\237@\254\003\304\322@\314\310\314"
 174      60640081 
 174      9F40AC03 
 174      C4D240CC 
 174      C8CC
 175 0012 C0C834E1 		.ascii	"\300\3104\341\034\003C#\007\023##\210\321\300\301\310"
 175      1C034323 
 175      07132323 
 175      88D1C0C1 
 175      C8
 176 0023 50CFC458 		.ascii	"P\317\304X\317\370\225\351/\023\343\321\377\337\017"
 176      CFF895E9 
ARM GAS  C:\Users\JEFFSN~1\AppData\Local\Temp\ccqi9MMv.s 			page 13


 176      2F13E3D1 
 176      FFDF0F
 177 0032 F07F616A 		.ascii	"\360\177aj\005)\003r/}83\227\033\304ed\024\000rW-Y\377"
 177      05290372 
 177      2F7D3833 
 177      971BC465 
 177      64140072 
 178 004a 89437379 		.ascii	"\211CsyCCS\303\203\245\333\234\032\233[5Z\231\231\030"
 178      434353C3 
 178      83A5DB9C 
 178      1A9B5B35 
 178      5A999918 
 179 005e FE333130 		.ascii	"\376310\256`\224a\\\316(\003\262b%\243&\003P\361\243"
 179      AE609461 
 179      5CCE2803 
 179      B26225A3 
 179      260350F1 
 180 0073 8DFFA6F2 		.ascii	"\215\377\246\362\262\2654\000\201\002H\011Pf\025#\033"
 180      B2B53400 
 180      81024809 
 180      50661523 
 180      1B
 181 0084 C849EB83 		.ascii	"\310I\353\203\0164\374\377\337\334p`\253\360\301\035"
 181      0E34FCFF 
 181      DFDC7060 
 181      ABF0C11D 
 182 0094 C2400340 		.ascii	"\302@\003@\2060|\000b\220\203>21\201h\346g\214\207~"
 182      86307C00 
 182      6290833E 
 182      32318168 
 182      E6678C87 
 183 00a9 75DD3B6B 		.ascii	"u\335;k\001\322\325\314\014r\315\264\326C\347\331A\256"
 183      01D2D5CC 
 183      0C72CDB4 
 183      D643E7D9 
 183      41AE
 184 00bb 61660459 		.ascii	"af\004Yp\373\346\374\036n\010\267\241\261\261\201\005"
 184      70FBE6FC 
 184      1E6E08B7 
 184      A1B1B181 
 184      05
 185 00cc 2834FDE9 		.ascii	"(4\375\351\212G,\363\031\3476\2660\2662\2630\256\001"
 185      8A472CF3 
 185      19E736B6 
 185      30B632B3 
 185      30AE01
 186 00df 3A6A35C8 		.ascii	":j5\310Q\214k\031\34732\274bd\202\032\006\012\226\017"
 186      518C6B19 
 186      E73332BC 
 186      6264821A 
 186      060A960F 
 187 00f3 4C8C207B 		.ascii	"L\214 {\200l-\367\324\274\324\242\304\222\324\224\370"
 187      806C2DF7 
 187      D4BCD4A2 
 187      C492D494 
 187      F8
 188 0104 E0FCD2A2 		.ascii	"\340\374\322\242\344\324\230\200\340|g\323\030G\027"
ARM GAS  C:\Users\JEFFSN~1\AppData\Local\Temp\ccqi9MMv.s 			page 14


 188      E4D49880 
 188      E07C67D3 
 188      184717
 189 0113 E778C378 		.ascii	"\347x\303x\327\212\222x\347\200x\347\234l\275d\006\000"
 189      D78A9278 
 189      E78078E7 
 189      9C6CBD64 
 189      0600
 190 0125 D6CA67BB 		.ascii	"\326\312g\273"
 191              		.text
 192              		.section	.gnu.lto_ADC_1_Ext_CP_Clk_SetModeRegister.cdcf421a,"",%progbits
 193 0000 789C7D51 		.ascii	"x\234}Q=H[Q\024>\337\275//\301R\272ei\0067Q\260T\213"
 193      3D485B51 
 193      143EDFBD 
 193      2F2FC152 
 193      BA656906 
 194 0019 D0D5A6E2 		.ascii	"\320\325\246\342$\210\202\223\345!\311\033J\324\200"
 194      24888293 
 194      E521C91B 
 194      4AD480
 195 0028 A6E020E4 		.ascii	"\246\340 \344\346%\217\202\223\213.\"\355\"\376W\004"
 195      E6258F82 
 195      938B2E22 
 195      ED22FE57 
 195      04
 196 0039 1751F435 		.ascii	"\027Q\3645[A\024\\$\320BQH\301IKm\213D\3439I\207L\275"
 196      5B41145C 
 196      24D04251 
 196      48C1494B 
 196      6D8B44E3 
 197 0052 70EF39DF 		.ascii	"p\3579\337\367\276\363\335s\336\265\010$+\340\360\222"
 197      F7BEF3DD 
 197      73DEB508 
 197      242BE0F0 
 197      92
 198 0063 E353DED0 		.ascii	"\343S\336\320\0045{L\224\213(@\022\023\001e\025\262"
 198      04357B4C 
 198      948B2840 
 198      12130165 
 198      15B2
 199 0075 B851770A 		.ascii	"\270Qw\012\305\367\345]\325\272lx}\367\177t\232\225"
 199      C5F7E55D 
 199      D5BA6C78 
 199      7DF77F74 
 199      9A95
 200 0087 00BE26AA 		.ascii	"\000\276&\252\252\232\023a\031\255\254\362\026\376\\"
 200      AA9A1361 
 200      19ADACF2 
 200      16FE5C
 201 0096 58BA1DC4 		.ascii	"X\272\035\304y\345\350\333\327\246\226%c<c\366\336\030"
 201      79E5E8DB 
 201      D7A69625 
 201      633C63F6 
 201      DE18
 202 00a8 ED6B6005 		.ascii	"\355k`\005\232+\360\"\206\3471b\202\260\212\026\021"
 202      9A2BF022 
 202      86E73162 
ARM GAS  C:\Users\JEFFSN~1\AppData\Local\Temp\ccqi9MMv.s 			page 15


 202      82B08A16 
 202      11
 203 00b9 9F6FDFCF 		.ascii	"\237o\337\317=\266\013b\337\\7\305\032lisk 0\325j\336"
 203      3DB60B62 
 203      DF5C37C5 
 203      1A6C6973 
 203      6B2030D5 
 204 00cf 047BD1CF 		.ascii	"\004{\321\317\007\321&\305eJ\363\241-HqHR[\216\260\034"
 204      07D126C5 
 204      654AF3A1 
 204      2D487148 
 204      525B8EB0 
 205 00e4 11F94C74 		.ascii	"\021\371Lt\305[f\270VJ\242.\243x;\363\2734-\246y-\363"
 205      C55B66B8 
 205      564AA22E 
 205      A3783BF3 
 205      BB342DA6 
 206 00fb CCFBC593 		.ascii	"\314\373\305\223\360/\345\263\215\334\277\377\261t\026"
 206      F02FE5B3 
 206      8DDCBFFF 
 206      B17416
 207 010a AA432F97 		.ascii	"\252C/\2273\026S7\025\357\013>`1W\340IC\330@\014\353"
 207      33165337 
 207      15EF0B3E 
 207      603157E0 
 207      4943D840 
 208 0120 8871639B 		.ascii	"\210qc\233\314R\031\336\317p\335N\263c#\016\345\265"
 208      CC5219DE 
 208      CF70DD4E 
 208      B363230E 
 208      E5B5
 209 0132 C5385FB1 		.ascii	"\3058_\261\353X(\366\363O\347v\236\310\025\032S\370"
 209      EB5828F6 
 209      F34FE776 
 209      9EC8151A 
 209      53F8
 210 0144 C44E2CF9 		.ascii	"\304N,\371\373O\022\256\271\330\215.\021f\031\027\347"
 210      FB4F12AE 
 210      B9D88D2E 
 210      11661917 
 210      E7
 211 0155 21F87FFD 		.ascii	"!\370\177\375l1\313z\272\204\027\034\016\211\272\366"
 211      6C31CB7A 
 211      BA84171C 
 211      0E89BAF6 
 212 0165 24570A32 		.ascii	"$W\0122;\377\211\266^w\334\235\030\311\270Ig0\375n\""
 212      3BFF89B6 
 212      5E77DC9D 
 212      18C9B849 
 212      6730FD6E 
 213 017a E10EF70F 		.ascii	"\341\016\367\017\246\343]\303\335\257\343N\207\3233"
 213      A6E35DC3 
 213      DDAFE34E 
 213      87D333
 214 0189 9571E2FD 		.ascii	"\225q\342\375N|4\365,A\217\306\322I\367\325\333L\337"
 214      4E7C34F5 
 214      2C418FC6 
ARM GAS  C:\Users\JEFFSN~1\AppData\Local\Temp\ccqi9MMv.s 			page 16


 214      D249F7D5 
 214      DB4CDF
 215 019c C864EA01 		.ascii	"\310d\352\0016\004\240."
 215      3604A02E 
 216              		.text
 217              		.section	.gnu.lto_ADC_1_Ext_CP_Clk_ClearModeRegister.cdcf421a,"",%progbits
 218 0000 789C7D50 		.ascii	"x\234}P=H[Q\030\375\316\275/?X\23434C\267\220\202\322"
 218      3D485B51 
 218      18FDCEBD 
 218      2F3F589C 
 218      333443B7 
 219 0017 2A42D7FA 		.ascii	"*B\327\372Z:\011\242\203K\312C\364\015%j \246\320\241"
 219      5A3A09A2 
 219      834BCA43 
 219      F40D256A 
 219      20A6D0A1 
 220 002b E0CD4B9E 		.ascii	"\340\315K\236\205L.:X\212]\212\261?\212\243Ph\372\266"
 220      854C2E3A 
 220      588A5D8A 
 220      B13F8AA3 
 220      5068FAB6 
 221 003f 82580A8A 		.ascii	"\202X\012\212\010\255\210b\006\247\024\")%&\375\276"
 221      08AD8862 
 221      06A71422 
 221      292526FD 
 221      BE
 222 0050 BCBD17EE 		.ascii	"\274\275\027\356\375\276{8\347\334\363]\213@\262\326"
 222      FDBE7B38 
 222      E7DCF35D 
 222      8B40B2D6 
 223 0060 B93CE07A 		.ascii	"\271<\340z\23374A\255\034\020\025\343\012\220\306\304"
 223      9B373441 
 223      AD1C1015 
 223      E30A90C6 
 223      C4
 224 0071 414B0A4B 		.ascii	"AK\012K\270V7\012\301\253\372\236Jo\032^g\227\255!S"
 224      B856370A 
 224      C1ABFA9E 
 224      4A6F1A5E 
 224      6797AD21 
 225 0086 ADC1D744 		.ascii	"\255\301\327D]\325s\"l\"\315,\357u\353\302\322\003 "
 225      5DD57322 
 225      6C22CD2C 
 225      EF75EBC2 
 225      D20320
 226 0099 EEDBFBBF 		.ascii	"\356\333\373\277~\366\245\336\031\343\031\363\345\251"
 226      7EF6A5DE 
 226      19E319F3 
 226      E5A9
 227 00a7 D1BE06AA 		.ascii	"\321\276\006\252\320\254\300p\022\367\222\304\000a\013"
 227      D0ACC070 
 227      12F792C4 
 227      00610B
 228 00b6 29219FEF 		.ascii	")!\237\357vV\373\243e\261\277\023\232\342=\242\022s"
 228      7656FBA3 
 228      65B1BF13 
 228      9AE23DA2 
ARM GAS  C:\Users\JEFFSN~1\AppData\Local\Temp\ccqi9MMv.s 			page 17


 228      1273
 229 00c8 67A266BA 		.ascii	"g\242f\272\335\222\251\375H|=L\304\025\313\024;\261"
 229      DD92A9FD 
 229      487C3D4C 
 229      C415CB14 
 229      3BB1
 230 00da CE923622 		.ascii	"\316\2226\"GT\016\242\006oI\376[)\251\272\216\340o\345"
 230      47540EA2 
 230      066F49FE 
 230      5B29A9BA 
 230      8EE06FE5 
 231 00ee E0F4A558 		.ascii	"\340\364\245X\225\264L\261\346\007\337cM\345k\335\213"
 231      95B44CB1 
 231      E607DF63 
 231      4DE56BDD 
 231      8B
 232 00ff F8F9EDC9 		.ascii	"\370\371\355\311q$\274z\305\242\261\030\272n{\337\260"
 232      7124BC7A 
 232      C5A2B118 
 232      BA6E7BDF 
 232      B0
 233 0110 8137C532 		.ascii	"\2017\3052\317g\341#\222\370\200$\307\371\304(\325\341"
 233      CF67E123 
 233      92F88024 
 233      C7F9C428 
 233      D5E1
 234 0122 7596F7AD 		.ascii	"u\226\367\255\320\320*i\315H\351\317rS\207H\204A\366"
 234      D0D02A69 
 234      CD48E9CF 
 234      72538748 
 234      8441F6
 235 0135 6856FC96 		.ascii	"hV\374\226\026[\205\030\266Y\315\244v4\244H\020&2\024"
 235      165B8518 
 235      B659CDA4 
 235      7634A448 
 235      10263214 
 236 0149 AC41A0FF 		.ascii	"\254A\240\377\275\271\303(K\350\012^\355hJ\330\275\317"
 236      BDB9C328 
 236      4BE80A5E 
 236      ED684AD8 
 236      BDCF
 237 015b 6E28C87C 		.ascii	"n(\310|<\355\335'\356\202\233\237.\270\263\316d\356"
 237      3CEDDD27 
 237      EE829B9F 
 237      2EB8B3CE 
 237      64EE
 238 016d 797EC6CD 		.ascii	"y~\306\315\214O\346\354\221\314\303G\266s\337y\374\242"
 238      8C4FE6EC 
 238      91CCC347 
 238      B673DF79 
 238      FCA2
 239 017f E0D8E38E 		.ascii	"\340\330\343\216=\227\035\234\241[\363\271Yw\364Yal"
 239      3D971D9C 
 239      A15BF3B9 
 239      5977F459 
 239      616C
 240 0191 7A31FB0F 		.ascii	"z1\373\017\343!\231\302"
ARM GAS  C:\Users\JEFFSN~1\AppData\Local\Temp\ccqi9MMv.s 			page 18


 240      E32199C2 
 241              		.text
 242              		.section	.gnu.lto_ADC_1_Ext_CP_Clk_GetModeRegister.cdcf421a,"",%progbits
 243 0000 789C6361 		.ascii	"x\234ca`d\000\001& \245\003\244\245\201\230\221\231"
 243      60640001 
 243      2620A503 
 243      A4A58198 
 243      9199
 244 0012 819169C2 		.ascii	"\201\221i\3029\006\206F\016&FF\020\243\201\203\221\241"
 244      39068646 
 244      0E264646 
 244      10A38183 
 244      91A1
 245 0024 9E89B19E 		.ascii	"\236\211\261\236\361+\323_&\306\323\337O\364pi.ohhj"
 245      F12BD35F 
 245      26C6D3DF 
 245      4FF47069 
 245      2E6F6868 
 246 0039 78D0BAD8 		.ascii	"x\320\272\330z\372\212\003\214\255\314\014\014\377\231"
 246      7AFA8A03 
 246      8CADCC0C 
 246      0CFF99
 247 0048 18188D65 		.ascii	"\030\030\215e\030\015d@F,g\324d\000*}\264\361\337T^"
 247      180D6440 
 247      462C67D4 
 247      64002A7D 
 247      B4F1DF54 
 248 005d B6960620 		.ascii	"\266\226\006 P\000)\000\312\254`d\003Y\271>\350@\303"
 248      50002900 
 248      CAAC6064 
 248      0359B93E 
 248      E840C3
 249 0070 FFFFCD0D 		.ascii	"\377\377\315\015\007fK\035\234'\305\302\304\320\312"
 249      07664B1D 
 249      9C27C5C2 
 249      C4D0CA
 250 007f 0CB41764 		.ascii	"\014\264\027d\016\303\007\240:\220\255\037\231\230@"
 250      0EC307A0 
 250      3A90AD1F 
 250      999840
 251 008e 34F333C6 		.ascii	"4\3633\306C\277\272\276\275\260\000imf\006\271`Z\353"
 251      43BFBABE 
 251      BDB00069 
 251      6D6606B9 
 251      605AEB
 252 00a1 A1F3EC5F 		.ascii	"\241\363\354_\230Z\231\201\316\006r\367,\270y\235\025"
 252      985A9981 
 252      CE0672F7 
 252      2CB8799D 
 252      15
 253 00b2 C26D6A6C 		.ascii	"\302mjll`\001\012}\375\323t\222q>\343\334\306\026\240"
 253      6C60010A 
 253      7DFDD374 
 253      92713EE3 
 253      DCC616A0 
 254 00c6 DB981957 		.ascii	"\333\230\031W1\3120\256d\004\272\214q5P\224\341\031"
 254      31CA30AE 
ARM GAS  C:\Users\JEFFSN~1\AppData\Local\Temp\ccqi9MMv.s 			page 19


 254      6404BA8C 
 254      71355094 
 254      E119
 255 00d8 63F31F36 		.ascii	"c\363\0376\210q\314\020\023'\254\270|\214\003d\004\003"
 255      8871CC10 
 255      1327ACB8 
 255      7C8C0364 
 255      0403
 256 00ea E30F46C6 		.ascii	"\343\017F\3065@\245\257\030\231\240*\030\300nb\004\271"
 256      3540A5AF 
 256      1899A02A 
 256      18C06E62 
 256      04B9
 257 00fc 05E8322D 		.ascii	"\005\3502-\367\324\274\324\242\304\222\324\224\370\340"
 257      F7D4BCD4 
 257      A2C492D4 
 257      94F8E0
 258 010b FCD2A2E4 		.ascii	"\374\322\242\344\324\230\200\340|g\323\030G\027\347"
 258      D49880E0 
 258      7C67D318 
 258      4717E7
 259 011a 78C378D7 		.ascii	"x\303x\327\212\222x\347\200x\347\234l\275d\006\000o"
 259      8A9278E7 
 259      8078E79C 
 259      6CBD6406 
 259      006F
 260 012c A4666E   		.ascii	"\244fn"
 261              		.text
 262              		.section	.gnu.lto_ADC_1_Ext_CP_Clk_GetSourceRegister.cdcf421a,"",%progbits
 263 0000 789C6361 		.ascii	"x\234ca`d\000\001F \245\003\244\245Alf\006F\246\011"
 263      60640001 
 263      4620A503 
 263      A4A5416C 
 263      660646A6 
 264 0015 E718181A 		.ascii	"\347\030\030\0329\230\030\031A\214\006\016F\206z&\306"
 264      39981819 
 264      418C060E 
 264      46867A26 
 264      C6
 265 0026 7AC6AF4C 		.ascii	"z\306\257L\177\231\030O\177?\321\303\245\271\274\241"
 265      7F99184F 
 265      7F3FD1C3 
 265      A5B9BCA1 
 266 0036 A1A9E141 		.ascii	"\241\251\341A\353+\353\351+\0160\266230\374gb`4\226"
 266      EB2BEBE9 
 266      2B0E30B6 
 266      323330FC 
 266      67626034 
 267 004b 61349001 		.ascii	"a4\220\001\031\261\234Q\223\001\250\364\321\306\177"
 267      19B19C51 
 267      9301A8F4 
 267      D1C67F
 268 005a 5379D95A 		.ascii	"Sy\331Z\032\200@\001\244\000(\263\202\221\015d\345\372"
 268      1A804001 
 268      A40028B3 
 268      82910D64 
 268      E5FA
ARM GAS  C:\Users\JEFFSN~1\AppData\Local\Temp\ccqi9MMv.s 			page 20


 269 006c A0030DFF 		.ascii	"\240\003\015\377\37777\034\270,w\360\232\034\013\023"
 269      FF37371C 
 269      B82C77F0 
 269      9A1C0B13 
 270 007c 432B33D0 		.ascii	"C+3\320^\2209\014\037\200\352@\266~db\002\321\314\317"
 270      5E90390C 
 270      1F80EA40 
 270      B67E6462 
 270      02D1CCCF 
 271 0090 180FFDEA 		.ascii	"\030\017\375\352\272\366\313\002\244\265\231\031\344"
 271      BAF6CB02 
 271      A4B59919 
 271      E4
 272 009d 8269AD87 		.ascii	"\202i\255\207\316\263\177ajefb\004\331\262g\301\315"
 272      CEB37F61 
 272      6A656662 
 272      04D9B267 
 272      C1CD
 273 00af EBAC106E 		.ascii	"\353\254\020nScc\003\013P\350\353\237\246\223\214\363"
 273      53636303 
 273      0B50E8EB 
 273      9FA6938C 
 273      F3
 274 00c0 19E736B6 		.ascii	"\031\3476\266\000\335\306\314\270\212Q\206q%#\320e\214"
 274      00DDC6CC 
 274      B88A5186 
 274      712523D0 
 274      658C
 275 00d2 AB81A20C 		.ascii	"\253\201\242\014\317\030\233\377\260A\214c\206\230x"
 275      CF189BFF 
 275      B0418C63 
 275      869878
 276 00e1 F2D4F415 		.ascii	"\362\324\364\025< #\030\030\331\031\327\000U\276bd\202"
 276      3C202318 
 276      18D919D7 
 276      0055BE62 
 276      6482
 277 00f3 2A60003B 		.ascii	"*`\000;\211\021\344\024\240\303\264\334S\363R\213\022"
 277      8911E414 
 277      A0C3B4DC 
 277      53F3528B 
 277      12
 278 0104 4B5253E2 		.ascii	"KRS\342\203\363K\213\222Sc\002\202\363\235Mc\034]\234"
 278      83F34B8B 
 278      92536302 
 278      82F39D4D 
 278      631C5D9C 
 279 0118 E30DE35D 		.ascii	"\343\015\343]+J\342\235\003\342\235s\262\365\222\031"
 279      2B4AE29D 
 279      03E29D73 
 279      B2F59219 
 280 0128 00832C66 		.ascii	"\000\203,f1"
 280      31
 281              		.text
 282              		.section	.gnu.lto_ADC_1_Ext_CP_Clk_SetDividerRegister.cdcf421a,"",%progbits
 283 0000 789C8D56 		.ascii	"x\234\215VkLTG\024\236s\357>\356\356\336\335\005\226"
 283      6B4C5447 
ARM GAS  C:\Users\JEFFSN~1\AppData\Local\Temp\ccqi9MMv.s 			page 21


 283      149E73EF 
 283      3EEEEEDE 
 283      DD0596
 284 0013 97914434 		.ascii	"\227\221D4A\324H\253iL\372H\233\032l\373\243\177\214"
 284      41D448AB 
 284      694CFA48 
 284      9B1A6CFB 
 284      A37F8C
 285 0026 34FDD19A 		.ascii	"4\375\321\232\022\012\373\303H4\331bc\372\207\273,("
 285      120AFBC3 
 285      4834D962 
 285      63FA87BB 
 285      2C28
 286 0038 456B7D50 		.ascii	"Ek}P\260\004\212\021mUly\370\002\037\260R\221\207\210"
 286      B0048A11 
 286      6D556C79 
 286      F8021FB0 
 286      52918788 
 287 004c 5604445A 		.ascii	"V\004DZTD\264\306R\260(\212\017:gfvY\260Po\302\331{"
 287      5444B4C6 
 287      52B0288A 
 287      0F3A6766 
 287      7659B050 
 288 0064 66CEF7CD 		.ascii	"f\316\367\315\231\357\234\031\256\216\000\301\247\321"
 288      99EF9C19 
 288      AE8E00C1 
 288      A7D1
 289 0072 42C827F4 		.ascii	"B\310'\364\367\015\352B$\001ik+!nE\222\344\246w\210"
 289      F70DEA42 
 289      2401696B 
 289      2B216E45 
 289      92E4A677 
 290 0087 660E6BB0 		.ascii	"f\016k\260\023M\225%]v,\365LhU\235d`\236\236yz\341\361"
 290      134D9525 
 290      5D762CF5 
 290      4C68559D 
 290      64609E9E 
 291 009f 39836464 		.ascii	"9\203dd\236\302<#\204q:\305\367b\222\314l\336\316\346"
 291      9EC23C23 
 291      84713AC5 
 291      F76292CC 
 291      6CDECEE6 
 292 00b3 CD92CA3C 		.ascii	"\315\222\312<\013\363,\302\343s*X9\304*Eln t\334\226"
 292      0BF32CC2 
 292      E3732A58 
 292      39C42A45 
 292      6C6E2074 
 293 00c9 69A4E311 		.ascii	"i\244\343\021||\251\015\354|\336.\0051X(\203\005I!\314"
 293      7C7CA90D 
 293      EC7CDE2E 
 293      05315828 
 293      83054921 
 294 00de 0B665E30 		.ascii	"\013f^0\204\360\240\020p\360\027\207\024\316\331\302"
 294      84F0A010 
 294      70F01787 
 294      14CED9C2 
 295 00ee 185B381F 		.ascii	"\030[8\037_\032\352K0\014\000_4\005H\272$\353\364\006"
ARM GAS  C:\Users\JEFFSN~1\AppData\Local\Temp\ccqi9MMv.s 			page 22


 295      5F1AEA4B 
 295      300C005F 
 295      340548BA 
 295      24EBF406 
 296 0102 A362325B 		.ascii	"\243b2[Tk\204\315\036\024\034\342\010\017\015\203t\331"
 296      546B84CD 
 296      1E141CE2 
 296      080F0D83 
 296      74D9
 297 0114 4AF8E310 		.ascii	"J\370\343\020\277\017\244g\022\324m\354\257\226\346"
 297      BF0FA467 
 297      12D46DEC 
 297      AF96E6
 298 0123 FFA4D1E7 		.ascii	"\377\244\321\347\372\336\336\305\332>/d\311\204\214"
 298      FADEDEC5 
 298      DA3E2F64 
 298      C9848C
 299 0132 493C067E 		.ascii	"I<\006~\202\3714\252~l\304k\037\226\262d\000\004]\032"
 299      82F934AA 
 299      7E6CC46B 
 299      1F96B264 
 299      00045D1A 
 300 0146 6C29B2A0 		.ascii	"l)\262\240+A\020u7\334\357\354S\3458 \364\275\264\274"
 300      2B411075 
 300      37DCEFEC 
 300      53E53820 
 300      F4BDB4BC 
 301 015a 36C71EBB 		.ascii	"6\307\036\273W\32324\255-I\323g\3112\034\000\231\362"
 301      57D33234 
 301      AD2D49D3 
 301      67C9321C 
 301      0099F2
 302 016d C17E8882 		.ascii	"\301~\210\202}\020E\350\020\201R\210\245\321\007\036"
 302      7D1045E8 
 302      10815288 
 302      A5D1071E 
 303 017d E63C35CB 		.ascii	"\346<5\313\2573\3447\3757\362,\002\231\177\326\242-"
 303      AF33E437 
 303      FD37F22C 
 303      02997FD6 
 303      A22D
 304 018f CA927570 		.ascii	"\312\222up\220C_\213\202E\010\324\021\370\031b1z\313"
 304      90435F8B 
 304      824508D4 
 304      11F81962 
 304      317ACB
 305 01a2 AD039DAA 		.ascii	"\255\003\235\252\374.Cv{J;\2551%\210\364\026o\261\355"
 305      FC2E4376 
 305      7B4A3BAD 
 305      312588F4 
 305      166FB1ED 
 306 01b6 D4BC19D1 		.ascii	"\324\274\031\321\270\356/\023\327\305\207FWTU\3561\311"
 306      B8EE2F13 
 306      D7C58746 
 306      575455EE 
 306      31C9
 307 01c8 1F326467 		.ascii	"\0372dga\305\237\252@\026\265Z\3635\257;\032\227-\017"
ARM GAS  C:\Users\JEFFSN~1\AppData\Local\Temp\ccqi9MMv.s 			page 23


 307      61C59FAA 
 307      4016B55A 
 307      F335AF3B 
 307      1A972D0F 
 308 01dc 5C56E0AE 		.ascii	"\\V\340\2564\273\267\353\344\004\206\353\272\270\355"
 308      34BBB7EB 
 308      E40486EB 
 308      BAB8ED
 309 01eb 6FBBC0ED 		.ascii	"o\273\300\355l\265h\345\232\202\260\312\377\200\365"
 309      6CB568E5 
 309      9A82B0CA 
 309      FF80F5
 310 01fa 563CFFCE 		.ascii	"V<\377\316j\310D\201\243\341\020\304@\005\375+\203\030"
 310      6AC84481 
 310      A3E110C4 
 310      4005FD2B 
 310      8318
 311 020c 2E311C06 		.ascii	".1\034\006\003\355a9p\246l\205W\033\033\363h\336|\333"
 311      03ED6139 
 311      70A66C85 
 311      571B1BF3 
 311      68DE7CDB 
 312 0220 E99E9057 		.ascii	"\351\236\220W\201\356[o 8\253\020\2347\001\252g\246"
 312      81EE5B6F 
 312      2038AB10 
 312      9C3701AA 
 312      67A6
 313 0232 C3060B1A 		.ascii	"\303\006\013\032\225 \332\212\25764!h\034h\"\321\314"
 313      9520DA8A 
 313      AF363421 
 313      681C6822 
 313      D1CC
 314 0244 4033130D 		.ascii	"@3\023\015*h\230\205&\032\315l4s\320\304\240\231\213"
 314      2A689885 
 314      261ACD6C 
 314      3473D0C4 
 314      A0998B
 315 0257 661EA0C0 		.ascii	"f\036\240\300\013\360u!\23284\204\014\322\\7G\221!I"
 315      0BF07521 
 315      9A383484 
 315      0CD25C37 
 315      47912149 
 316 026b A23FF21D 		.ascii	"\242?\362\035\360\240Z\230\273G6\320=VW\337\3536\246"
 316      F0A05A98 
 316      BB4736D0 
 316      3D5657DF 
 316      EB36A6
 317 027e 3FD3B235 		.ascii	"?\323\2625-(K6\216Ix,\217@:\005+\244\027$\266K\232?"
 317      2D284B36 
 317      8E49782C 
 317      8F403A05 
 317      2BA41724 
 318 0296 8D2608A6 		.ascii	"\215&\010\246E\342`\345\005\260i\214\256A\340(\003\233"
 318      45E260E5 
 318      05B0698C 
 318      AE41E028 
 318      039B
ARM GAS  C:\Users\JEFFSN~1\AppData\Local\Temp\ccqi9MMv.s 			page 24


 319 02a8 FDE03204 		.ascii	"\375\3402\004+\344\006dv{n\027F\012\264G61\231\207$"
 319      2BE40664 
 319      767B6E17 
 319      460AB447 
 319      36319987 
 320 02bd 9978C3E5 		.ascii	"\231x\303\345~\250\033\315\351\251\376\230\317Z(w^V"
 320      7EA81BCD 
 320      E9A9FE98 
 320      CF5A2877 
 320      5E56
 321 02cf DD052336 		.ascii	"\335\005#6\252\205\225\255\276\240\271Z\345\356\356"
 321      AA8595AD 
 321      BEA0B95A 
 321      E5EEEE
 322 02de 8D6E4D47 		.ascii	"\215nMG\207J\272\376\272n+\206\"w&\355{=T\321^9\206"
 322      874ABAFE 
 322      BA6E2B86 
 322      227726ED 
 322      7B3D54D1 
 323 02f5 BD02D550 		.ascii	"\275\002\325P\014\244\037<O7\264H\234P\345\234G6\266"
 323      0CA41F3C 
 323      4F37B448 
 323      9C50E59C 
 323      4736B6
 324 0308 54989144 		.ascii	"T\230\221D\007\000\307i\254/\307C\230\243\2129^\365"
 324      0700C769 
 324      AC2FC743 
 324      98A38A39 
 324      5EF5
 325 031a 8C14468D 		.ascii	"\214\024F\215\313Sv\257\372\261\025\021\264\324pBt\342"
 325      CB5376AF 
 325      FAB11511 
 325      B4D47042 
 325      74E2
 326 032c 90A423BB 		.ascii	"\220\244#\273,2\213\276+\217\313\341\017Vi\360I\177"
 326      2C328BBE 
 326      2B8FCBE1 
 326      0F5669F0 
 326      497F
 327 033e B09E5CD4 		.ascii	"\260\236\\\324\363\340\037\205\360\246\200Y\003\251"
 327      F3E01F85 
 327      F0A68059 
 327      03A9
 328 034c 52F86C49 		.ascii	"R\370lI\321<\301\0250m$\205:T\247`\250c\207\036\247"
 328      D13CC115 
 328      306D2485 
 328      3A54A760 
 328      A863871E 
 329 0361 03A5B1F2 		.ascii	"\003\245\261\3623\324U\274\331\302]\315\315\245\311"
 329      33D455BC 
 329      D9C25DCD 
 329      CDA5C9
 330 0370 BFB5AF57 		.ascii	"\277\265\257W\347\223\306\0065T\232SL\232Z*\015J\317"
 330      E793C606 
 330      35549A53 
 330      4C9A5A2A 
 330      0D4ACF
ARM GAS  C:\Users\JEFFSN~1\AppData\Local\Temp\ccqi9MMv.s 			page 25


 331 0383 F47E78FC 		.ascii	"\364~x\3740\360\025C(\346\344\256\256N=W8C\320<x\232"
 331      30F01543 
 331      28E6E4AE 
 331      AE4E3D57 
 331      3843D03C 
 332 0399 D104E30A 		.ascii	"\321\004\343\012{\375\012\237\366)l\340x\007\247\330"
 332      7BFD0A9F 
 332      F6296CE0 
 332      7807A7D8 
 333 03a9 F4B8B29D 		.ascii	"\364\270\262\235\011\240\247\013A\035\015\245\353\344"
 333      09A0A70B 
 333      411D0DA5 
 333      EBE4
 334 03b7 81487B4A 		.ascii	"\201H{J\266_YR\016\266_E\354w4\247\367-\316m\235\016"
 334      B65F5952 
 334      0EB65F45 
 334      EC7734A7 
 334      F72DCE6D 
 335 03cd 7A4624F2 		.ascii	"zF$\362H$b\343\361\307\006J\217\211\262y\011\324\277"
 335      482462E3 
 335      F1C7064A 
 335      8F89B279 
 335      09D4BF
 336 03e0 6C226759 		.ascii	"l\"gY\"6\302\364\356\361\353=\245\232\015BML\334D\262"
 336      2236C2F4 
 336      EEF1EB3D 
 336      A59A0D42 
 336      4D4CDC44 
 337 03f5 6D326BF2 		.ascii	"m2k\362\262\037D\035\325\200\2161\223L#\356kx\260\277"
 337      B21F441D 
 337      D5808E31 
 337      934C23EE 
 337      6B78B0BF 
 338 0409 CD28789F 		.ascii	"\315(x\237\264^jW\270\342n\215+\236u\260\244\320\312"
 338      B45E6A57 
 338      B8E26E8D 
 338      2B9E75B0 
 338      A4D0CA
 339 041c 96726B5A 		.ascii	"\226rkZ\002^\037\320\350O\017\223\016,\277\236\266Y"
 339      025E1FD0 
 339      E84F0F93 
 339      0E2CBF9E 
 339      B659
 340 042e 33DFDB70 		.ascii	"3\337\333p\371\200\307$h\317\367\335\037\022'g\253\240"
 340      F980C724 
 340      68CFF7DD 
 340      1F122767 
 340      ABA0
 341 0440 7DFCE4D1 		.ascii	"}\374\344\321\352\211\254\347\374\254-\234\325\1776"
 341      EA89ACE7 
 341      FCAC2D9C 
 341      D57F36
 342 044f F4F46C9C 		.ascii	"\364\364l\234\027\254\203\343\254\247\356\324\346\230"
 342      17AC83E3 
 342      ACA7EED4 
 342      E698
 343 045d 386BAE60 		.ascii	"8k\256`\275|9\277\3044\221\266\325O{\201\322\372\262"
ARM GAS  C:\Users\JEFFSN~1\AppData\Local\Temp\ccqi9MMv.s 			page 26


 343      BD7C39BF 
 343      C43491B6 
 343      D54F7B81 
 343      D2FAB2
 344 0470 1BCD395B 		.ascii	"\033\3159[\263U\264Z$\005\366m\257\277c\345\\\331\202"
 344      B355B45A 
 344      2405F66D 
 344      AFBF63E5 
 344      5CD982
 345 0483 EBE4B912 		.ascii	"\353\344\271\022\257}\274&\027\375<\277Mj\265\031\234"
 345      AF7DBC26 
 345      17FD3CBF 
 345      4D6AB519 
 345      9C
 346 0494 E249637F 		.ascii	"\342Ic\177\255\235\247;F\340\322\244\012O\311\326\306"
 346      AD9DA73B 
 346      46E0D2A4 
 346      0A4FC9D6 
 346      C6
 347 04a5 2A368327 		.ascii	"*6\203'\325S\363\031\347\2349]S\\\366%\360>\361\310"
 347      D553F319 
 347      E79C395D 
 347      535CF625 
 347      F03EF1C8 
 348 04b9 661E5C70 		.ascii	"f\036\\pb\270Y\317\373K\201v\032\306\016p\245\330\242"
 348      62B859CF 
 348      FB4B8176 
 348      1AC60E70 
 348      A5D8A2
 349 04cc 39A0EE16 		.ascii	"9\240\356\026R'\363\343}T}\361\360\253\244D\217]\221"
 349      5227F3E3 
 349      7D547DF1 
 349      F0ABA444 
 349      8F5D91
 350 04df 5731D2E6 		.ascii	"W1\322\346\353\266\252\243\336o\025~\2343\2048\2657"
 350      EBB6AAA3 
 350      DE6F157E 
 350      9C338438 
 350      B537
 351 04f1 AF6E93C7 		.ascii	"\257n\223\307\033\260\303\337\200\235l;\012\257\325"
 351      1BB0C3DF 
 351      809D6C3B 
 351      0AAFD5
 352 0500 C80E5FAD 		.ascii	"\310\016_\255&t\321\247\223\272\350\012\257wSs\376>"
 352      2674D1A7 
 352      93BAE80A 
 352      AF775373 
 352      FE3E
 353 0512 950B6884 		.ascii	"\225\013h\204.\226\321\220d%-o\362\323\327Q\373\025"
 353      2E96D190 
 353      64252D6F 
 353      F2D3D751 
 353      FB15
 354 0524 4F77D604 		.ascii	"Ow\326\004>\230\310u5P\233(\036|\370L\303\006\205k\003"
 354      3E98C875 
 354      35509B28 
 354      1E7CF84C 
ARM GAS  C:\Users\JEFFSN~1\AppData\Local\Temp\ccqi9MMv.s 			page 27


 354      C306856B 
 355 0539 D0CDB5E9 		.ascii	"\320\315\265\351\366\014\010m\242\374\332\014J\021d"
 355      F60C086D 
 355      A2FCDA0C 
 355      4A1164
 356 0548 FF121892 		.ascii	"\377\022\030\222lB\204\321\234\201\332*\0216{\272\373"
 356      6C4284D1 
 356      9C81DA2A 
 356      11367BBA 
 356      FB
 357 0559 FDF7492D 		.ascii	"\375\367I-1\207\307wo\352\310\025\267\317s\200?&\265"
 357      3187C777 
 357      6FEAC815 
 357      B7CF7380 
 357      3F26B5
 358 056c C4946C3D 		.ascii	"\304\224l=L\3039\\\3033\271/\245\3415_s\243hv<\371,"
 358      4CC3395C 
 358      C333B92F 
 358      A5E1355F 
 358      73A36876 
 359 0583 FFE78D1F 		.ascii	"\377\347\215\037\361\214b\246[\360z\240h\3214x\\\245"
 359      F18C62A6 
 359      5BF07AA0 
 359      68D13478 
 359      5CA5
 360 0595 DD62FBD1 		.ascii	"\335b\373\321\001\035\024$n\216\202\212\363\271\276"
 360      011D1424 
 360      6E8E828A 
 360      F3B9BE
 361 05a4 1E99B221 		.ascii	"\036\231\262!n\210\033\211\261\375\263\347mN7/@\364"
 361      6E881B89 
 361      B1FDB3E7 
 361      6D4E372F 
 361      40F4
 362 05b6 606CC821 		.ascii	"`l\310!)D\260\372\365\231\366\346\351e\264\364\323\340"
 362      2944B0FA 
 362      F599F6E6 
 362      E965B4F4 
 362      D3E0
 363 05c8 3E60EF7C 		.ascii	">`\357|]\370}\251\270\201d\270\011QAW\214xe\004c\272"
 363      5DF87DA9 
 363      B88164B8 
 363      09514157 
 363      8C786504 
 364 05de 0E423F67 		.ascii	"\016B?gE9\233\\|\375\005\323\365P_\240\034si\360\270"
 364      45399B5C 
 364      7CFD05D3 
 364      F5505FA0 
 364      1C7369F0 
 365 05f3 1C35428E 		.ascii	"\0345B\216\271\001\371\207\023\3729M\273&\324/K{\356"
 365      B901F987 
 365      13FA394D 
 365      BB26D42F 
 365      4B7BEE
 366 0606 FF5ED4B7 		.ascii	"\377^\324\267\002\377\355\3654\257\347\264\013\247\253"
 366      02FFEDF5 
 366      34AFE7B4 
ARM GAS  C:\Users\JEFFSN~1\AppData\Local\Temp\ccqi9MMv.s 			page 28


 366      0BA7AB
 367 0615 52FFA4FF 		.ascii	"R\377\244\377,q\354+b\341\313\365\324m\266^\034\253"
 367      2C71EC2B 
 367      62E1CBF5 
 367      D46DB65E 
 367      1CAB
 368 0627 5F187E77 		.ascii	"_\030~w\335\205\014\357\265\025\010\023\333\000:J\277"
 368      DD850CEF 
 368      B5150813 
 368      DB003A4A 
 368      BF
 369 0638 96167CE0 		.ascii	"\226\026|\340\\\343t%\2459S\022\023\326\256s%;W.OX\033"
 369      5CE37425 
 369      A5395312 
 369      13D6AE73 
 369      253B572E 
 370 064f BF64E5D2 		.ascii	"\277d\345\322e\361\211\213\023\337[\237\226\030\277"
 370      65F1898B 
 370      13DF5B9F 
 370      9618BF
 371 065e 3C313E75 		.ascii	"<1>u\365+\311\304\234\234\272z\331\252/W\2458]F\227"
 371      F52BC9C4 
 371      9C9CBA7A 
 371      D9AA2F57 
 371      A5385D46 
 372 0673 F38BB424 		.ascii	"\363\213\264$W\232ymj\212o(y\235\313\225\340J6:\327"
 372      579A796D 
 372      6A8A6F28 
 372      799DCB95 
 372      E04A363A 
 373 0688 247D9EEA 		.ascii	"$}\236\352L\371\027\222O\010r"
 373      4CF91792 
 373      4F0872
 374              		.text
 375              		.section	.gnu.lto_ADC_1_Ext_CP_Clk_SetSourceRegister.cdcf421a,"",%progbits
 376 0000 789C8D54 		.ascii	"x\234\215T]h\034U\024>\347\336\335\231\375M\326\246"
 376      5D681C55 
 376      143EE7DE 
 376      DD99FD4D 
 376      D6A6
 377 0012 696C9A5F 		.ascii	"il\232_JX*\370G\020_D\221\264\370Z\314\243\225E\266"
 377      4A582AF8 
 377      47105F44 
 377      91B4F85A 
 377      CCA39545 
 378 0027 79900603 		.ascii	"y\220\006\003K+\005\037\366\356n\326F})\324V\245\206"
 378      4B2B051F 
 378      F6EE6ED6 
 378      467D29D4 
 378      56A586
 379 003a 068AA49A 		.ascii	"\006\212\244\232\266ic\315\272\232\266\223T\013BimQ"
 379      B66963CD 
 379      BA9AB693 
 379      540B4269 
 379      6D51
 380 004c 4403A251 		.ascii	"D\003\242Q\243H\233\246\325F+\355\256\347\334;\273\031"
 380      A3489BA6 
ARM GAS  C:\Users\JEFFSN~1\AppData\Local\Temp\ccqi9MMv.s 			page 29


 380      D5462BED 
 380      AEE7DC3B 
 380      BB19
 381 005e A32E19D8 		.ascii	"\243.\031\330\263s\317\375\2763\347\373\316\235\361"
 381      B373CFFD 
 381      BE33E7FB 
 381      CE9DF1
 382 006d 01025F47 		.ascii	"\001\002_G-\200-\364\277\217~\030\001\024{/\002d\002"
 382      2D802DF4 
 382      BF8F7E18 
 382      01147B2F 
 382      026402
 383 0080 42C8A138 		.ascii	"B\310\2418\250\220\3051\"\205\317\263\362\011\377T\033"
 383      A890C531 
 383      2285CFB3 
 383      F209FF54 
 383      1B
 384 0091 AFBE7890 		.ascii	"\257\276x\220V~\014\033\212%l\015\012i\220-\002\236"
 384      567E0C1B 
 384      8A256C0D 
 384      0A69902D 
 384      029E
 385 00a3 55400435 		.ascii	"U@\0045%\244)\301\012%T\271\011#\362\215\012 \244\205"
 385      25A429C1 
 385      0A2554B9 
 385      0923F28D 
 385      0A20A485 
 386 00b7 F4F92D3B 		.ascii	"\364\371-;\020\014\2051\215\267\304]\2013{\346\213b"
 386      100C8531 
 386      8DB7C45D 
 386      81337BE6 
 386      8B62
 387 00c9 D3A8A2EB 		.ascii	"\323\250\242\353\273\237&\272\325\021\007\363\022\240"
 387      BB9F26BA 
 387      D51107F3 
 387      12A0
 388 00d7 2CB402C0 		.ascii	",\264\002\300Q\334D\250\313#/\037\016\313\373\021\350"
 388      51DC44A8 
 388      CB232F1F 
 388      0ECBFB11 
 388      E8
 389 00e8 FEC4DBFB 		.ascii	"\376\304\333\373\006E\374\035\245\262J\235}V\311\274"
 389      0645FC1D 
 389      A5B24A9D 
 389      7D56C9BC 
 390 00f8 443C8292 		.ascii	"D<\202\222\030\330\335\202\017\265\000%\000\337\305"
 390      18D8DD82 
 390      0FB50025 
 390      00DFC5
 391 0107 3883A7CF 		.ascii	"8\203\247\317\225\342\362Q\315\333\373\355\361C\221"
 391      95E2F251 
 391      CDDBFBED 
 391      F14391
 392 0116 AEC3CC73 		.ascii	"\256\303\314s\206g\243o('\323\301\334\367\274\\\276"
 392      8667A36F 
 392      2827D3C1 
 392      DCF7BC5C 
ARM GAS  C:\Users\JEFFSN~1\AppData\Local\Temp\ccqi9MMv.s 			page 30


 392      BE
 393 0127 08FB69F9 		.ascii	"\010\373i\371\017\247\376w\221\227\002\271\311+\213"
 393      0FA7FE77 
 393      919702B9 
 393      C92B8B
 394 0136 1786C3BC 		.ascii	"\027\206\303\274\224\030\243e~\370\314+Q\371\270\256"
 394      9418A365 
 394      7EF8CC2B 
 394      51F9B8AE 
 395 0146 BAF4DB8F 		.ascii	"\272\364\333\217\307\352\335\252\007\017\326\275\251"
 395      C7EADDAA 
 395      070FD6BD 
 395      A9
 396 0153 9C2C55F5 		.ascii	"\234,U\365\341qS\365\030\266\340Q\254\326\235;Y\332"
 396      E17153F5 
 396      18B6E051 
 396      ACD69D3B 
 396      59DA
 397 0165 1FB50659 		.ascii	"\037\265\006Ym\007\216c\027\216a\227\321\212'\320\242"
 397      6D078E63 
 397      178E6197 
 397      D18A27D0 
 397      A2
 398 0176 A9894A76 		.ascii	"\251\211Jv\374iG\225\3139\345\274\265a\272\264a\243"
 398      FC694795 
 398      CB39E5BC 
 398      B561BAB4 
 398      61A3
 399 0188 0F78C302 		.ascii	"\017x\303\002\336\262\221\325\005H\247?\310!\314!B\301"
 399      DEB291D5 
 399      0548A73F 
 399      C821CC21 
 399      42C1
 400 019a 8A72A8E3 		.ascii	"\212r\250\343P\317!\306\033k84\360r-\207F\016\35384"
 400      50CF21C6 
 400      1B6B3834 
 400      F0722D87 
 400      460EEB38 
 401 01af F1C67A0E 		.ascii	"\361\306z\016\315\034\3307\177+o\264qh\347\320\301\241"
 401      CD1CD837 
 401      7F2B6FB4 
 401      7168E7D0 
 401      C1A1
 402 01c1 93370016 		.ascii	"\2237\000\026\251K\236\343\015!\370_\376\2029\026\314"
 402      A94B9EE3 
 402      0D21F85F 
 402      FE823916 
 402      CC
 403 01d2 7DE7A48F 		.ascii	"}\347\244\217\264\025\213Wg\355\364]5\244T,/\355\262"
 403      B4158B57 
 403      67EDF45D 
 403      35A4542C 
 403      2FEDB2
 404 01e5 20397812 		.ascii	" 9x\022\323D\017\300\034\012\255\220D\020\032\230L3"
 404      D3440FC0 
 404      1C0AAD90 
 404      44101A98 
ARM GAS  C:\Users\JEFFSN~1\AppData\Local\Temp\ccqi9MMv.s 			page 31


 404      4C33
 405 01f7 3064EB5F 		.ascii	"0d\353_\344`\231\036\0028\241\311\241*y\214\311\026"
 405      E460991E 
 405      0238A1C9 
 405      A12A798C 
 405      C916
 406 0209 7C8F83B3 		.ascii	"|\217\203\263\271\037&\357]f\217_-\336\216\362|\374"
 406      B91F26EF 
 406      5D668F5F 
 406      2DDE8EF2 
 406      7CFC
 407 021b 34F9F75D 		.ascii	"4\371\367]\273o\010\011CqI\350ors\322\200m\317\256\017"
 407      BB6F0809 
 407      437149E8 
 407      6F7273D2 
 407      806DCFAE 
 408 0230 3E6930BB 		.ascii	">i0\273?O\276\264,\243Z+L\265NU\321~\270d\313y\234\371"
 408      3F4FBEB4 
 408      2CA35A2B 
 408      4CB54E55 
 408      D17EB864 
 409 0248 EBD5856B 		.ascii	"\353\325\205k\257\243\201\007\010~ ?s\311fxD\037\207"
 409      AFA38107 
 409      087E203F 
 409      73C96678 
 409      441F87
 410 025b A991AFBF 		.ascii	"\251\221\257\277\362\233e6\223Q\\\360\326\235\354gx"
 410      F29B6536 
 410      93515CF0 
 410      D69DEC67 
 410      78
 411 026c 08873383 		.ascii	"\010\2073\203t\262\2438I'\342\003.\213\005\312\302<"
 411      74B2A338 
 411      4927E203 
 411      2E8B05CA 
 411      C23C
 412 027e E6FEB44C 		.ascii	"\346\376\264L\271\240\251XX\030+\270b\034\300\017\011"
 412      B9A0A958 
 412      58182BB8 
 412      621CC00F 
 412      09
 413 028f 4A8F3DA0 		.ascii	"J\217=\240\037Y\253Z\221\262T\003t\217\245k\217\231"
 413      1F59AB5A 
 413      91B25403 
 413      748FA56B 
 413      8F99
 414 02a1 9AE15A94 		.ascii	"\232\341Z\224\217L\003\331\233{\226\252\232\"\304\341"
 414      8F4C03D9 
 414      9B7B96AA 
 414      9A22C4E1 
 415 02b1 A6EEB84D 		.ascii	"\246\356\270ME)\305G\376\312\376S\372\205\260p7~\254"
 415      4529C547 
 415      FECAFE53 
 415      FA85B070 
 415      377EAC
 416 02c4 7BCADEB4 		.ascii	"{\312\336\264\015\244\216|\365\352\250\327\254:/$F\331"
 416      0DA48E7C 
ARM GAS  C:\Users\JEFFSN~1\AppData\Local\Temp\ccqi9MMv.s 			page 32


 416      F5EAA8D7 
 416      AC3A2F24 
 416      46D9
 417 02d6 FF919151 		.ascii	"\377\221\221Q\252\033\376\331\327\224\226\022\323\276"
 417      AA1BFED9 
 417      D7949612 
 417      D3BE
 418 02e4 5B307D1E 		.ascii	"[0}\036\314\230F\013\255\356\310=S\264ad\243\324'b\351"
 418      CC98460B 
 418      ADEEC83D 
 418      53B46164 
 418      A3D42762 
 419 02f9 3F661C80 		.ascii	"?f\034\200\317\3571\344\261B\332\235\261g\250AX\264"
 419      CFEF31E4 
 419      B142DA9D 
 419      B167A841 
 419      58B4
 420 030b CC504B0B 		.ascii	"\314PK\013\256akj\031vz\331\260\205\212a\015\304\361"
 420      AE616B6A 
 420      19767AD9 
 420      B0858A61 
 420      0DC4F1
 421 031e 1AB69652 		.ascii	"\032\266\226R+\035j\\\341\320:\015k\364B\232(\273z\207"
 421      2B1D6A5C 
 421      E1D03A0D 
 421      6BF4429A 
 421      28BB7A87 
 422 0332 CE68879A 		.ascii	"\316h\207\232\314\260\317_\257\364\262\276V\363g\335"
 422      CCB0CF5F 
 422      AFF4B2BE 
 422      56F367DD 
 423 0342 E35669B4 		.ascii	"\343Vi\264\331\340_\273=\361\245>nQB\240\263\332\343"
 423      D9E05FBB 
 423      3DF1A53E 
 423      6E5142A0 
 423      B3DAE3
 424 0355 36AD3B68 		.ascii	"6\255;h\3266\206\340\362\023\356\273q\335\265\261\245"
 424      D63686E0 
 424      F213EEBB 
 424      71DDB5B1 
 424      A5
 425 0366 1677A66A 		.ascii	"\026w\246j\343|\265\365V\342x\273k\243\324J\033\333"
 425      E37CB5F5 
 425      56E278BB 
 425      6BA3D44A 
 425      1BDB
 426 0378 57D8D8A1 		.ascii	"W\330\330\241a\355^H'eWo\3439-\242S\213\010\353\257"
 426      61ED5E48 
 426      2765576F 
 426      E3392DA2 
 426      538B08EB 
 427 038d DAAF9875 		.ascii	"\332\257\230u\312\3170W\037\221E\372\210Q\232>F\367"
 427      CACF3057 
 427      1F9145FA 
 427      88519A3E 
 427      46F7
 428 039f 3DD5F742 		.ascii	"=\325\367B_\352\271\235}\333\023\275\003\273R\311\276"
ARM GAS  C:\Users\JEFFSN~1\AppData\Local\Temp\ccqi9MMv.s 			page 33


 428      5FEAB99D 
 428      7DDB13BD 
 428      03BB52C9 
 428      BE
 429 03b0 6D5B7B07 		.ascii	"m[{\007z\036\331\366\344\346\236\304\303\211-\273w&"
 429      7A1ED9F6 
 429      E4E69EC4 
 429      C3892DBB 
 429      7726
 430 03c2 7AB6267A 		.ascii	"z\266&z\372w<\220\204`\262\177\207\301X\003\375\333"
 430      FA773C90 
 430      8460B27F 
 430      87C15803 
 430      FDDB
 431 03d4 7B53493B 		.ascii	"{SI;\271+\225\332\374\374\213\177\003\206\0164\012"
 431      B92B95DA 
 431      FCFC8B7F 
 431      03860E34 
 431      0A
 432              		.text
 433              		.section	.gnu.lto_.symbol_nodes.cdcf421a,"",%progbits
 434 0000 789C55C8 		.ascii	"x\234U\310\311\015\2000\020CQ'3!K\027TjJ\240\006\216"
 434      C90D8030 
 434      10435127 
 434      33214B17 
 434      546A4AA0 
 435 0016 14430748 		.ascii	"\024C\007H\210B\020\011\234\354\313\227\237#\340D_\004"
 435      88421009 
 435      9CECCB97 
 435      9F23E044 
 435      5F04
 436 0028 81F5C0C8 		.ascii	"\201\365\300\310\276\314\035\002\203BdT0\232B\242+L"
 436      BECC1D02 
 436      83426454 
 436      309A42A2 
 436      2B4C
 437 003a 4C0A9993 		.ascii	"L\012\231\223BaVh,\012\316\252P\331\004\254\026l\327"
 437      42615668 
 437      2C0ACEAA 
 437      50D904AC 
 437      166CD7
 438 004d 13AC3AEE 		.ascii	"\023\254:\356\321\346\377o\345\373x\001\227\2634b"
 438      D1E6FF6F 
 438      E5FB7801 
 438      97B33462 
 439              		.text
 440              		.section	.gnu.lto_.refs.cdcf421a,"",%progbits
 441 0000 789C6361 		.ascii	"x\234ca`\004B \000\000\0009\000\007"
 441      60044220 
 441      00000039 
 441      0007
 442              		.text
 443              		.section	.gnu.lto_.decls.cdcf421a,"",%progbits
 444 0000 789C8D55 		.ascii	"x\234\215U]L\024W\024\2363\263,t\000i\254\032\323l\023"
 444      5D4C1457 
 444      149E33B3 
 444      2C740069 
ARM GAS  C:\Users\JEFFSN~1\AppData\Local\Temp\ccqi9MMv.s 			page 34


 444      AC1AD36C 
 445 0015 6A930DE9 		.ascii	"j\223\015\351\003-mj\354S\177\260\245/6\246D\237L\210"
 445      032D6D6A 
 445      EC537FB0 
 445      A52F36A6 
 445      449F4C88 
 446 0029 C2C45229 		.ascii	"\302\304R)\230um\353K3\012\025\177jE,\010hU\332h\001"
 446      98756DEB 
 446      4B330A15 
 446      7F6A452C 
 446      086855DA 
 447 003f 51FE5414 		.ascii	"Q\376T\024\253\354\272\313\262\012\254\010TDT\240\013"
 447      ABECBACB 
 447      B20AAC08 
 447      544454A0 
 447      0B
 448 0050 562AD535 		.ascii	"V*\3255j\324\252\335\236{\347\0163\273;Tnrf\346\336"
 448      6AD4AADD 
 448      9E7BE70E 
 448      33BB3B54 
 448      6E7266E6 
 449 0065 39DF77CE 		.ascii	"9\337w\316\371\356\2713&\01682\356\306p\234\027\037"
 449      F9EEB933 
 449      260E3832 
 449      EEC6709C 
 449      171F
 450 0077 13058E0B 		.ascii	"\023\005\216\013\342\210\303\265\245\2346b\321\016\243"
 450      E288C3B5 
 450      A59C3662 
 450      D10EA3
 451 0086 D5A135A0 		.ascii	"\325\2415\240\265\240\271\321<h^\264\016\264.\264\036"
 451      B5A0B9D1 
 451      3C685EB4 
 451      0EB42EB4 
 451      1E
 452 0097 B43E2E72 		.ascii	"\264>.r\020\254\211qZ\320\006\320\372\331;`\357\303"
 452      10AC8971 
 452      5AD006D0 
 452      FAD93B60 
 452      EFC3
 453 00a9 47DD7330 		.ascii	"G\335s0u\006\230\006\226+\301\314D\233\205\346\014\303"
 453      75069806 
 453      962BC1CC 
 453      449B85E6 
 453      0CC3
 454 00bb 0FA15D47 		.ascii	"\017\241]G\033F\273\246\343k0\340#uF1\276\346)\362h"
 454      1B46BBA6 
 454      E36B30E0 
 454      23754631 
 454      BEE629F2 
 455 00d0 31C0B919 		.ascii	"1\300\271\031N\237\203\032W\305\271\015pDOsX\274\021"
 455      4E9F831A 
 455      57C5B90D 
 455      70444F73 
 455      58BC11
 456 00e3 83981E03 		.ascii	"\203\230\036\003\254w\032\271z\015pd\357L\377\203\351"
 456      AC771AB9 
ARM GAS  C:\Users\JEFFSN~1\AppData\Local\Temp\ccqi9MMv.s 			page 35


 456      7A0D7064 
 456      EF4CFF83 
 456      E9
 457 00f4 30C0743D 		.ascii	"0\300t=\007\323e\200!\275\221\300E\356M3\303\022\236"
 457      07D36580 
 457      21BD91C0 
 457      45EE4D33 
 457      C3129E
 458 0107 51B4F368 		.ascii	"Q\264\363hch.\306k\345B\367J`\\$\206\221\206\244\377"
 458      63682EC6 
 458      6BE542F7 
 458      4A605C24 
 458      869186A4 
 459 011c 66E87408 		.ascii	"f\350t\010\357\203\021\035\277\032\317\032V\203\300"
 459      EF83111D 
 459      BF1ACF1A 
 459      5683C0
 460 012b 78DC53D4 		.ascii	"x\334S\324\362\214\207=\316\275\256\250A\030\000\340"
 460      F28C873D 
 460      CEBDAEA8 
 460      411800E0 
 461 013b 800E8E9D 		.ascii	"\200\016\216\235%\216\254\260;y\000e\302\253\332\200"
 461      258EACB0 
 461      3B790065 
 461      C2ABDA80 
 462 014b EAA4CA45 		.ascii	"\352\244\312E\335\201\343\251\377\344\272\3527\0313"
 462      DD81E3A9 
 462      FFE4BAEA 
 462      371933
 463 015a A80E6D09 		.ascii	"\250\016m\011&\207\352\011\241\244\204U\233\342\234"
 463      2687EA09 
 463      A1A48455 
 463      9BE29C
 464 0169 D7003A3E 		.ascii	"\327\000:>\226=\213\017\372\260\224ZP\213.\333\274\257"
 464      963D8B0F 
 464      FAB0945A 
 464      508B2EDB 
 464      BCAF
 465 017b 0304E4C4 		.ascii	"\003\004\344\304\347\241\307U\037'\327\3128\212d\231"
 465      E7A1C755 
 465      1F27D7CA 
 465      388A6499 
 466 018b 7F5753E6 		.ascii	"\177WS\346bA\375\036\341>\0173E0\341\364nW\205\177\006"
 466      6241FD1E 
 466      E13E0F33 
 466      4530E1F4 
 466      6E57857F 
 467 01a0 4E678990 		.ascii	"Ng\211\220\210\323g\347vW\360sK)._N4\301\3229p\010,"
 467      88D367E7 
 467      7657F073 
 467      4B292E5F 
 467      4E34C1D2 
 468 01b8 5003B839 		.ascii	"P\003\2709P\013s\361\272\302\2440m\376~G\277y\336~y"
 468      500B73F1 
 468      BAC2A430 
 468      6DFE7E47 
 468      BF79DE7E 
ARM GAS  C:\Users\JEFFSN~1\AppData\Local\Temp\ccqi9MMv.s 			page 36


 469 01cd 7FBD3C5C 		.ascii	"\177\275<\\\362\340\255r\331Q\2000\236xA\025\010P\015"
 469      F2E0AD72 
 469      D9518030 
 469      9E784115 
 469      08500D
 470 01e0 C924457C 		.ascii	"\311$E|$\267_a\020\223?\014\363\020Yxd\2429AXD\023\035"
 470      24B75F61 
 470      10933F0C 
 470      F3105978 
 470      64A23941 
 471 01f8 1B7AD417 		.ascii	"\033z\324\027\245\2608\366z\342\344\242\365\262\374"
 471      A5B038F6 
 471      7AE2E4A2 
 471      F5B2FC
 472 0207 3EE538A2 		.ascii	">\3458\242q\034\321s\324Q\216\0337\307\275 dR\016\347"
 472      711CD173 
 472      D4518E1B 
 472      37C7BD20 
 472      64520EE7 
 473 021b 607735CF 		.ascii	"`w5\3178\312\332\365\034\365\032G\275\236\243\201rL"
 473      38CADAF5 
 473      1CF51A47 
 473      BD9EA381 
 473      724C
 474 022d 749F2D8D 		.ascii	"t\237-\215\025\276\245\034u\337\215V\307\240\020\026"
 474      15BEA51C 
 474      75DF8D56 
 474      C7A01016 
 475 023d 118240E6 		.ascii	"\021\202@\346\023'\037\307+s\362\272|\207\377\337Xa"
 475      13271FC7 
 475      2B73F2BA 
 475      7C87FFDF 
 475      5861
 476 024f 0F9009DF 		.ascii	"\017\220\011\337\353?4n\202$\361 \321i\270\244#gW!)"
 476      EB3F346E 
 476      8224F120 
 476      D169B8A4 
 476      23675721 
 477 0264 BC194438 		.ascii	"\274\031D8\246\005\264\210x\335$\313\033\344\300\317"
 477      A605B488 
 477      78DD24CB 
 477      1BE4C0CF 
 478 0274 B2792E07 		.ascii	"\262y.\007o[\340M\013\007\307!\211\260\022/8\212\332"
 478      6F5BE04D 
 478      0B07C721 
 478      89B0122F 
 478      388ADA
 479 0287 36A1B644 		.ascii	"6\241\266D\210]\373n\231M\330\210\224\007E\306\265\332"
 479      885DFB6E 
 479      994DD888 
 479      940745C6 
 479      B5DA
 480 0299 96AB13E6 		.ascii	"\226\253\023\346)\267\343$\335\216\023\300\366\243\245"
 480      29B7E324 
 480      DD8E13C0 
 480      F6A3A5
 481 02a8 7DE35F30 		.ascii	"}\343_0\271\037\263K\363e/\342\022\211\0334ji5\352u"
ARM GAS  C:\Users\JEFFSN~1\AppData\Local\Temp\ccqi9MMv.s 			page 37


 481      B91FB34B 
 481      F3652FE2 
 481      12891B34 
 481      6A6935EA 
 482 02bd 68A13A1C 		.ascii	"h\241:\034\273\361\324\007\202\233\026\007\007\376y"
 482      BBF1D407 
 482      829B1607 
 482      07FE79
 483 02cc 12200D62 		.ascii	"\022 \015bE!\202\202N\011\253\242DU\245\247I\024n*\316"
 483      45218282 
 483      4E09ABA2 
 483      4455A5A7 
 483      49146E2A 
 484 02e1 6DC1878E 		.ascii	"m\301\207\216\004\245\233x\234\366\004:\177\212U\272"
 484      04A59B78 
 484      9CF6043A 
 484      7F8A55BA 
 485 02f1 E945D4E9 		.ascii	"\351E\324\351\366\321\366\313\361 &Q\021\344|YL\342"
 485      F6D1F6CB 
 485      F1202651 
 485      11E47C59 
 485      4CE2
 486 0303 C081E9B7 		.ascii	"\300\201\351\267b\372p\026e\2602\031N\343\342o\270\310"
 486      62FA7016 
 486      65B03219 
 486      4EE3E26F 
 486      B8C8
 487 0315 04DDFAA5 		.ascii	"\004\335\372\245\"\250\023\2058\243en\025\225B}\205"
 487      22A81385 
 487      38A3656E 
 487      1595427D 
 487      85
 488 0326 DB1B40AF 		.ascii	"\333\033@\257\012\361\323dq\205ti\215\307Y9\003U\031"
 488      0AF1D364 
 488      71857469 
 488      8DC75939 
 488      035519
 489 0339 26AA8C59 		.ascii	"&\252\214Y\313\032ey3\002M\304\015Ni\344\247\364\262"
 489      CB1A6579 
 489      33024DC4 
 489      0D4E69E4 
 489      A7F4B2
 490 034c B8A92C0F 		.ascii	"\270\251,\017NT\236\212\027\356(\225\376YX\352\020Y"
 490      4E549E8A 
 490      17EE2895 
 490      FE5958EA 
 490      1059
 491 035e 8F9D2C15 		.ascii	"\217\235,\025&\273\235\250\333\246\321\264\351i<\224"
 491      26BB9DA8 
 491      DBA6D1B4 
 491      E9693C94 
 492 036e A6B6E651 		.ascii	"\246\266\346Q\323\013B\221r.\375\367\016\224D3\2323"
 492      D30B4291 
 492      722EFDF7 
 492      0E944433 
 492      9A33
 493 0380 FD6AAB12 		.ascii	"\375j\253\022\222v\215\244]O\342\245$\201_\216\367\306"
ARM GAS  C:\Users\JEFFSN~1\AppData\Local\Temp\ccqi9MMv.s 			page 38


 493      92768DA4 
 493      5D4FE2A5 
 493      24815F8E 
 493      F7C6
 494 0392 0B4D0A49 		.ascii	"\013M\012I\367\326\266\374\004\275\000\315!\002\234"
 494      F7D6B6FC 
 494      04BD00CD 
 494      21029C
 495 03a1 0F11C0D9 		.ascii	"\017\021\300\331gb\361\312\257hi\243\017\234\323\"\236"
 495      6762F1CA 
 495      AF6869A3 
 495      0F9CD322 
 495      9E
 496 03b2 D347ECA0 		.ascii	"\323G\354\240\021\333F\252w\306\013}J\304\236\006\377"
 496      11DB46AA 
 496      77C60B7D 
 496      4AC49E06 
 496      FF
 497 03c3 00AFA8E8 		.ascii	"\000\257\250\350\350\276\256\246MH:5\222N=I\027%\331"
 497      E8BEAEA6 
 497      4D483A35 
 497      924E3D49 
 497      1725D9
 498 03d6 1ED8EF34 		.ascii	"\036\330\3574\013\017\025\022\243\016\357\354\016V\305"
 498      0B0F1512 
 498      A30EEFEC 
 498      0E56C5
 499 03e5 D135B289 		.ascii	"\3215\262\211\027\200.>\330\366\244X\230\262\355/\322"
 499      17802E3E 
 499      D8F6A458 
 499      98B2ED2F 
 499      D2
 500 03f6 F2BAD5B6 		.ascii	"\362\272\325\266\177V\321\326\032\317*\334\371\203V"
 500      7F56D1D6 
 500      1ACF2ADC 
 500      F98356
 501 0405 21BA814F 		.ascii	"!\272\201OK\316\247O\256\207&\267q\333\341b\263\260"
 501      4BCEA74F 
 501      AE8726B7 
 501      71DBE162 
 501      B3B0
 502 0417 5BA0C9F9 		.ascii	"[\240\311\371\3665\336\214a4\245\203\372\215\351\325"
 502      F635DE8C 
 502      6134A583 
 502      FA8DE9D5 
 503 0427 487AF524 		.ascii	"Hz\365$}\224\344~\301\275Kfq\023i\357i\035\363\256\361"
 503      7D94E47E 
 503      C1BD4B66 
 503      711369EF 
 503      691DF3AE 
 504 043c CA60B470 		.ascii	"\312`\264p\206\006\345\233J\312K\242\225\003\022\016"
 504      8606E59B 
 504      4ACA4BA2 
 504      9503120E 
 505 044c BF6C0057 		.ascii	"\277l\000W\2777K*\212\327\343\301\356G\305.i\311\375"
 505      BF374B2A 
 505      8AD7E3C1 
ARM GAS  C:\Users\JEFFSN~1\AppData\Local\Temp\ccqi9MMv.s 			page 39


 505      EE47C52E 
 505      69C9FD
 506 045f 0EEC7C54 		.ascii	"\016\354|T\337v9 n\0139t(\337\314O\250\243\246\337\000"
 506      DF763920 
 506      6E0B3974 
 506      28DFCC4F 
 506      A8A3A6DF 
 507 0474 C4D17F07 		.ascii	"\304\321\177\007\336\311w\324U\3667\257\344?\235\023"
 507      DEC977D4 
 507      55F637AF 
 507      E43F9D13 
 508 0484 8A88A70E 		.ascii	"\212\210\247\016\337K\202K)`\227\177\313\336(\365K\350"
 508      DF4B824B 
 508      2960977F 
 508      CBDE28F5 
 508      4BE8
 509 0496 B8FC852C 		.ascii	"\270\374\205,\307\3005\2146\250\245u\005\330w02\300"
 509      C7C0358C 
 509      36A8A575 
 509      05D87730 
 509      32C0
 510 04a8 55E300EB 		.ascii	"U\343\000\353/\024\234\216VS*\232\016\342N\341\255\203"
 510      2F149C8E 
 510      56532A9A 
 510      0EE24EE1 
 510      AD83
 511 04ba 31FA8AAF 		.ascii	"1\372\212\257\207T<\304*\036\242\025O\014\005\213y\275"
 511      87543CC4 
 511      2A1EA215 
 511      4F0C058B 
 511      79BD
 512 04cc F3B510E7 		.ascii	"\363\265\020\347a\346<L\234\005wo]\253\010\242\005\360"
 512      61E63C4C 
 512      9C05776F 
 512      5DAB08A2 
 512      05F0
 513 04de 3D6C2255 		.ascii	"=l\"U\0066\350\266\211\203\021R\036\374\201\257\375"
 513      0636E8B6 
 513      89831152 
 513      1EFC81AF 
 513      FD
 514 04ef 08AF9089 		.ascii	"\010\257\220\211\317E\240\313t\022x\217>\223\013\371"
 514      CF45A0CB 
 514      7412788F 
 514      3E930BF9 
 515 04ff 1A757A7C 		.ascii	"\032uz|\202>69BZ\354Q\026{\224&Z<\376c\216\336\327\025"
 515      823E3639 
 515      425AEC51 
 515      167B9426 
 515      5A3CFE63 
 516 0517 E23BC67C 		.ascii	"\342;\306|\311}\316\007\013S3R2>\372\306\236\221\272"
 516      C97DCE07 
 516      0B533352 
 516      323EFAC6 
 516      9E91BA
 517 052a 38233567 		.ascii	"8#5gUF\272}\271\315\036\223\366\351\222\304\324\224"
 517      5546BA7D 
ARM GAS  C:\Users\JEFFSN~1\AppData\Local\Temp\ccqi9MMv.s 			page 40


 517      B9CD1E93 
 517      F6E992C4 
 517      D494
 518 053c 14EEF534 		.ascii	"\024\356\3654)W\262-\267KY\031\351ykm\231\322\262\305"
 518      2957B22D 
 518      B74B5919 
 518      E9796B6D 
 518      99D2B2C5 
 519 0550 E979A9EF 		.ascii	"\351y\251\357,\013\207%gr\263\015\250\362V\277l\270"
 519      2C0B8725 
 519      6772B30D 
 519      A8F256BF 
 519      6CB8
 520 0562 FA614E5E 		.ascii	"\372aN^\346\252W\214b\347f\255X\2678\357k\311\026\265"
 520      E6AA578C 
 520      62E766AD 
 520      58B738EF 
 520      6BC916B5 
 521 0576 363BD7BE 		.ascii	"6;\327\276\340U\343\370od\256\263\257[-\255I\376\234"
 521      E055E3F8 
 521      6F64AEB3 
 521      AF5B2DAD 
 521      49FE9C
 522 0589 7B2D8225 		.ascii	"{-\202%M\262/\314\376*;K\262}&\255\314^c\227lf\302\225"
 522      4DB22FCC 
 522      FE2A3B4B 
 522      B27D26AD 
 522      CC5E6397 
 523 05a1 323F3132 		.ascii	"2?12\240d_\224\227%\251~\363\"\034Rs\244\3456\275K$"
 523      A0645F94 
 523      9725A97E 
 523      F3221C52 
 523      73A4E536 
 524 05b8 47DAF338 		.ascii	"G\332\3638\320A\311]u\211L9=\"\345H\232\364p\032\223"
 524      D041C95D 
 524      75894C39 
 524      3D22E548 
 524      9AF4701A 
 525 05cd 4D5AB920 		.ascii	"MZ\271 \012/)\363\377\003\367%u\333"
 525      0A2F29F3 
 525      FF03F725 
 525      75DB
 526              		.text
 527              		.section	.gnu.lto_.symtab.cdcf421a,"",%progbits
 528 0000 4144435F 		.ascii	"ADC_1_Ext_CP_Clk_Start\000"
 528      315F4578 
 528      745F4350 
 528      5F436C6B 
 528      5F537461 
 529 0017 00       		.ascii	"\000"
 530 0018 00       		.ascii	"\000"
 531 0019 00       		.ascii	"\000"
 532 001a 00000000 		.ascii	"\000\000\000\000\000\000\000\000"
 532      00000000 
 533 0022 AD000000 		.ascii	"\255\000\000\000"
 534 0026 4144435F 		.ascii	"ADC_1_Ext_CP_Clk_Stop\000"
 534      315F4578 
ARM GAS  C:\Users\JEFFSN~1\AppData\Local\Temp\ccqi9MMv.s 			page 41


 534      745F4350 
 534      5F436C6B 
 534      5F53746F 
 535 003c 00       		.ascii	"\000"
 536 003d 00       		.ascii	"\000"
 537 003e 00       		.ascii	"\000"
 538 003f 00000000 		.ascii	"\000\000\000\000\000\000\000\000"
 538      00000000 
 539 0047 AF000000 		.ascii	"\257\000\000\000"
 540 004b 4144435F 		.ascii	"ADC_1_Ext_CP_Clk_StopBlock\000"
 540      315F4578 
 540      745F4350 
 540      5F436C6B 
 540      5F53746F 
 541 0066 00       		.ascii	"\000"
 542 0067 00       		.ascii	"\000"
 543 0068 00       		.ascii	"\000"
 544 0069 00000000 		.ascii	"\000\000\000\000\000\000\000\000"
 544      00000000 
 545 0071 B1000000 		.ascii	"\261\000\000\000"
 546 0075 4144435F 		.ascii	"ADC_1_Ext_CP_Clk_StandbyPower\000"
 546      315F4578 
 546      745F4350 
 546      5F436C6B 
 546      5F537461 
 547 0093 00       		.ascii	"\000"
 548 0094 00       		.ascii	"\000"
 549 0095 00       		.ascii	"\000"
 550 0096 00000000 		.ascii	"\000\000\000\000\000\000\000\000"
 550      00000000 
 551 009e BA000000 		.ascii	"\272\000\000\000"
 552 00a2 4144435F 		.ascii	"ADC_1_Ext_CP_Clk_GetDividerRegister\000"
 552      315F4578 
 552      745F4350 
 552      5F436C6B 
 552      5F476574 
 553 00c6 00       		.ascii	"\000"
 554 00c7 00       		.ascii	"\000"
 555 00c8 00       		.ascii	"\000"
 556 00c9 00000000 		.ascii	"\000\000\000\000\000\000\000\000"
 556      00000000 
 557 00d1 C4000000 		.ascii	"\304\000\000\000"
 558 00d5 4144435F 		.ascii	"ADC_1_Ext_CP_Clk_SetModeRegister\000"
 558      315F4578 
 558      745F4350 
 558      5F436C6B 
 558      5F536574 
 559 00f6 00       		.ascii	"\000"
 560 00f7 00       		.ascii	"\000"
 561 00f8 00       		.ascii	"\000"
 562 00f9 00000000 		.ascii	"\000\000\000\000\000\000\000\000"
 562      00000000 
 563 0101 C6000000 		.ascii	"\306\000\000\000"
 564 0105 4144435F 		.ascii	"ADC_1_Ext_CP_Clk_ClearModeRegister\000"
 564      315F4578 
 564      745F4350 
 564      5F436C6B 
ARM GAS  C:\Users\JEFFSN~1\AppData\Local\Temp\ccqi9MMv.s 			page 42


 564      5F436C65 
 565 0128 00       		.ascii	"\000"
 566 0129 00       		.ascii	"\000"
 567 012a 00       		.ascii	"\000"
 568 012b 00000000 		.ascii	"\000\000\000\000\000\000\000\000"
 568      00000000 
 569 0133 C8000000 		.ascii	"\310\000\000\000"
 570 0137 4144435F 		.ascii	"ADC_1_Ext_CP_Clk_GetModeRegister\000"
 570      315F4578 
 570      745F4350 
 570      5F436C6B 
 570      5F476574 
 571 0158 00       		.ascii	"\000"
 572 0159 00       		.ascii	"\000"
 573 015a 00       		.ascii	"\000"
 574 015b 00000000 		.ascii	"\000\000\000\000\000\000\000\000"
 574      00000000 
 575 0163 CB000000 		.ascii	"\313\000\000\000"
 576 0167 4144435F 		.ascii	"ADC_1_Ext_CP_Clk_GetSourceRegister\000"
 576      315F4578 
 576      745F4350 
 576      5F436C6B 
 576      5F476574 
 577 018a 00       		.ascii	"\000"
 578 018b 00       		.ascii	"\000"
 579 018c 00       		.ascii	"\000"
 580 018d 00000000 		.ascii	"\000\000\000\000\000\000\000\000"
 580      00000000 
 581 0195 CD000000 		.ascii	"\315\000\000\000"
 582 0199 4144435F 		.ascii	"ADC_1_Ext_CP_Clk_SetDividerRegister\000"
 582      315F4578 
 582      745F4350 
 582      5F436C6B 
 582      5F536574 
 583 01bd 00       		.ascii	"\000"
 584 01be 00       		.ascii	"\000"
 585 01bf 00       		.ascii	"\000"
 586 01c0 00000000 		.ascii	"\000\000\000\000\000\000\000\000"
 586      00000000 
 587 01c8 D2000000 		.ascii	"\322\000\000\000"
 588 01cc 4144435F 		.ascii	"ADC_1_Ext_CP_Clk_SetSourceRegister\000"
 588      315F4578 
 588      745F4350 
 588      5F436C6B 
 588      5F536574 
 589 01ef 00       		.ascii	"\000"
 590 01f0 00       		.ascii	"\000"
 591 01f1 00       		.ascii	"\000"
 592 01f2 00000000 		.ascii	"\000\000\000\000\000\000\000\000"
 592      00000000 
 593 01fa D4000000 		.ascii	"\324\000\000\000"
 594              		.text
 595              		.section	.gnu.lto_.opts,"",%progbits
 596 0000 272D666D 		.ascii	"'-fmath-errno' '-fsigned-zeros' '-ftrapping-math' '"
 596      6174682D 
 596      6572726E 
 596      6F272027 
ARM GAS  C:\Users\JEFFSN~1\AppData\Local\Temp\ccqi9MMv.s 			page 43


 596      2D667369 
 597 0033 2D666E6F 		.ascii	"-fno-trapv' '-fno-strict-overflow' '-fno-openmp' '-"
 597      2D747261 
 597      70762720 
 597      272D666E 
 597      6F2D7374 
 598 0066 666E6F2D 		.ascii	"fno-openacc' '-mcpu=cortex-m3' '-mthumb' '-g' '-Og'"
 598      6F70656E 
 598      61636327 
 598      20272D6D 
 598      6370753D 
 599 0099 20272D66 		.ascii	" '-ffunction-sections' '-ffat-lto-objects' '-finlin"
 599      66756E63 
 599      74696F6E 
 599      2D736563 
 599      74696F6E 
 600 00cc 652D6675 		.ascii	"e-functions' '-flto'\000"
 600      6E637469 
 600      6F6E7327 
 600      20272D66 
 600      6C746F27 
 601              		.text
 602              		.cfi_sections	.debug_frame
 603              		.section	.text.ADC_1_Ext_CP_Clk_Start,"ax",%progbits
 604              		.align	2
 605              		.global	ADC_1_Ext_CP_Clk_Start
 606              		.thumb
 607              		.thumb_func
 608              		.type	ADC_1_Ext_CP_Clk_Start, %function
 609              	ADC_1_Ext_CP_Clk_Start:
 610              	.LFB0:
 611              		.file 1 "Generated_Source\\PSoC5\\ADC_1_Ext_CP_Clk.c"
   1:Generated_Source\PSoC5/ADC_1_Ext_CP_Clk.c **** /*******************************************************************************
   2:Generated_Source\PSoC5/ADC_1_Ext_CP_Clk.c **** * File Name: ADC_1_Ext_CP_Clk.c
   3:Generated_Source\PSoC5/ADC_1_Ext_CP_Clk.c **** * Version 2.20
   4:Generated_Source\PSoC5/ADC_1_Ext_CP_Clk.c **** *
   5:Generated_Source\PSoC5/ADC_1_Ext_CP_Clk.c **** *  Description:
   6:Generated_Source\PSoC5/ADC_1_Ext_CP_Clk.c **** *   This file provides the source code to the API for the clock component.
   7:Generated_Source\PSoC5/ADC_1_Ext_CP_Clk.c **** *
   8:Generated_Source\PSoC5/ADC_1_Ext_CP_Clk.c **** *  Note:
   9:Generated_Source\PSoC5/ADC_1_Ext_CP_Clk.c **** *
  10:Generated_Source\PSoC5/ADC_1_Ext_CP_Clk.c **** ********************************************************************************
  11:Generated_Source\PSoC5/ADC_1_Ext_CP_Clk.c **** * Copyright 2008-2012, Cypress Semiconductor Corporation.  All rights reserved.
  12:Generated_Source\PSoC5/ADC_1_Ext_CP_Clk.c **** * You may use this file only in accordance with the license, terms, conditions, 
  13:Generated_Source\PSoC5/ADC_1_Ext_CP_Clk.c **** * disclaimers, and limitations in the end user license agreement accompanying 
  14:Generated_Source\PSoC5/ADC_1_Ext_CP_Clk.c **** * the software package with which this file was provided.
  15:Generated_Source\PSoC5/ADC_1_Ext_CP_Clk.c **** *******************************************************************************/
  16:Generated_Source\PSoC5/ADC_1_Ext_CP_Clk.c **** 
  17:Generated_Source\PSoC5/ADC_1_Ext_CP_Clk.c **** #include <cydevice_trm.h>
  18:Generated_Source\PSoC5/ADC_1_Ext_CP_Clk.c **** #include "ADC_1_Ext_CP_Clk.h"
  19:Generated_Source\PSoC5/ADC_1_Ext_CP_Clk.c **** 
  20:Generated_Source\PSoC5/ADC_1_Ext_CP_Clk.c **** /* Clock Distribution registers. */
  21:Generated_Source\PSoC5/ADC_1_Ext_CP_Clk.c **** #define CLK_DIST_LD              (* (reg8 *) CYREG_CLKDIST_LD)
  22:Generated_Source\PSoC5/ADC_1_Ext_CP_Clk.c **** #define CLK_DIST_BCFG2           (* (reg8 *) CYREG_CLKDIST_BCFG2)
  23:Generated_Source\PSoC5/ADC_1_Ext_CP_Clk.c **** #define BCFG2_MASK               (0x80u)
  24:Generated_Source\PSoC5/ADC_1_Ext_CP_Clk.c **** #define CLK_DIST_DMASK           (* (reg8 *) CYREG_CLKDIST_DMASK)
  25:Generated_Source\PSoC5/ADC_1_Ext_CP_Clk.c **** #define CLK_DIST_AMASK           (* (reg8 *) CYREG_CLKDIST_AMASK)
ARM GAS  C:\Users\JEFFSN~1\AppData\Local\Temp\ccqi9MMv.s 			page 44


  26:Generated_Source\PSoC5/ADC_1_Ext_CP_Clk.c **** 
  27:Generated_Source\PSoC5/ADC_1_Ext_CP_Clk.c **** #define HAS_CLKDIST_LD_DISABLE   (CY_PSOC3 || CY_PSOC5LP)
  28:Generated_Source\PSoC5/ADC_1_Ext_CP_Clk.c **** 
  29:Generated_Source\PSoC5/ADC_1_Ext_CP_Clk.c **** 
  30:Generated_Source\PSoC5/ADC_1_Ext_CP_Clk.c **** /*******************************************************************************
  31:Generated_Source\PSoC5/ADC_1_Ext_CP_Clk.c **** * Function Name: ADC_1_Ext_CP_Clk_Start
  32:Generated_Source\PSoC5/ADC_1_Ext_CP_Clk.c **** ********************************************************************************
  33:Generated_Source\PSoC5/ADC_1_Ext_CP_Clk.c **** *
  34:Generated_Source\PSoC5/ADC_1_Ext_CP_Clk.c **** * Summary:
  35:Generated_Source\PSoC5/ADC_1_Ext_CP_Clk.c **** *  Starts the clock. Note that on startup, clocks may be already running if the
  36:Generated_Source\PSoC5/ADC_1_Ext_CP_Clk.c **** *  "Start on Reset" option is enabled in the DWR.
  37:Generated_Source\PSoC5/ADC_1_Ext_CP_Clk.c **** *
  38:Generated_Source\PSoC5/ADC_1_Ext_CP_Clk.c **** * Parameters:
  39:Generated_Source\PSoC5/ADC_1_Ext_CP_Clk.c **** *  None
  40:Generated_Source\PSoC5/ADC_1_Ext_CP_Clk.c **** *
  41:Generated_Source\PSoC5/ADC_1_Ext_CP_Clk.c **** * Returns:
  42:Generated_Source\PSoC5/ADC_1_Ext_CP_Clk.c **** *  None
  43:Generated_Source\PSoC5/ADC_1_Ext_CP_Clk.c **** *
  44:Generated_Source\PSoC5/ADC_1_Ext_CP_Clk.c **** *******************************************************************************/
  45:Generated_Source\PSoC5/ADC_1_Ext_CP_Clk.c **** void ADC_1_Ext_CP_Clk_Start(void) 
  46:Generated_Source\PSoC5/ADC_1_Ext_CP_Clk.c **** {
 612              		.loc 1 46 0
 613              		.cfi_startproc
 614              		@ args = 0, pretend = 0, frame = 0
 615              		@ frame_needed = 0, uses_anonymous_args = 0
 616              		@ link register save eliminated.
  47:Generated_Source\PSoC5/ADC_1_Ext_CP_Clk.c ****     /* Set the bit to enable the clock. */
  48:Generated_Source\PSoC5/ADC_1_Ext_CP_Clk.c ****     ADC_1_Ext_CP_Clk_CLKEN |= ADC_1_Ext_CP_Clk_CLKEN_MASK;
 617              		.loc 1 48 0
 618 0000 054A     		ldr	r2, .L2
 619 0002 1378     		ldrb	r3, [r2]	@ zero_extendqisi2
 620 0004 43F00103 		orr	r3, r3, #1
 621 0008 1370     		strb	r3, [r2]
  49:Generated_Source\PSoC5/ADC_1_Ext_CP_Clk.c **** 	ADC_1_Ext_CP_Clk_CLKSTBY |= ADC_1_Ext_CP_Clk_CLKSTBY_MASK;
 622              		.loc 1 49 0
 623 000a 1032     		adds	r2, r2, #16
 624 000c 1378     		ldrb	r3, [r2]	@ zero_extendqisi2
 625 000e 43F00103 		orr	r3, r3, #1
 626 0012 1370     		strb	r3, [r2]
 627 0014 7047     		bx	lr
 628              	.L3:
 629 0016 00BF     		.align	2
 630              	.L2:
 631 0018 A2430040 		.word	1073759138
 632              		.cfi_endproc
 633              	.LFE0:
 634              		.size	ADC_1_Ext_CP_Clk_Start, .-ADC_1_Ext_CP_Clk_Start
 635              		.section	.text.ADC_1_Ext_CP_Clk_Stop,"ax",%progbits
 636              		.align	2
 637              		.global	ADC_1_Ext_CP_Clk_Stop
 638              		.thumb
 639              		.thumb_func
 640              		.type	ADC_1_Ext_CP_Clk_Stop, %function
 641              	ADC_1_Ext_CP_Clk_Stop:
 642              	.LFB1:
  50:Generated_Source\PSoC5/ADC_1_Ext_CP_Clk.c **** }
  51:Generated_Source\PSoC5/ADC_1_Ext_CP_Clk.c **** 
ARM GAS  C:\Users\JEFFSN~1\AppData\Local\Temp\ccqi9MMv.s 			page 45


  52:Generated_Source\PSoC5/ADC_1_Ext_CP_Clk.c **** 
  53:Generated_Source\PSoC5/ADC_1_Ext_CP_Clk.c **** /*******************************************************************************
  54:Generated_Source\PSoC5/ADC_1_Ext_CP_Clk.c **** * Function Name: ADC_1_Ext_CP_Clk_Stop
  55:Generated_Source\PSoC5/ADC_1_Ext_CP_Clk.c **** ********************************************************************************
  56:Generated_Source\PSoC5/ADC_1_Ext_CP_Clk.c **** *
  57:Generated_Source\PSoC5/ADC_1_Ext_CP_Clk.c **** * Summary:
  58:Generated_Source\PSoC5/ADC_1_Ext_CP_Clk.c **** *  Stops the clock and returns immediately. This API does not require the
  59:Generated_Source\PSoC5/ADC_1_Ext_CP_Clk.c **** *  source clock to be running but may return before the hardware is actually
  60:Generated_Source\PSoC5/ADC_1_Ext_CP_Clk.c **** *  disabled. If the settings of the clock are changed after calling this
  61:Generated_Source\PSoC5/ADC_1_Ext_CP_Clk.c **** *  function, the clock may glitch when it is started. To avoid the clock
  62:Generated_Source\PSoC5/ADC_1_Ext_CP_Clk.c **** *  glitch, use the StopBlock function.
  63:Generated_Source\PSoC5/ADC_1_Ext_CP_Clk.c **** *
  64:Generated_Source\PSoC5/ADC_1_Ext_CP_Clk.c **** * Parameters:
  65:Generated_Source\PSoC5/ADC_1_Ext_CP_Clk.c **** *  None
  66:Generated_Source\PSoC5/ADC_1_Ext_CP_Clk.c **** *
  67:Generated_Source\PSoC5/ADC_1_Ext_CP_Clk.c **** * Returns:
  68:Generated_Source\PSoC5/ADC_1_Ext_CP_Clk.c **** *  None
  69:Generated_Source\PSoC5/ADC_1_Ext_CP_Clk.c **** *
  70:Generated_Source\PSoC5/ADC_1_Ext_CP_Clk.c **** *******************************************************************************/
  71:Generated_Source\PSoC5/ADC_1_Ext_CP_Clk.c **** void ADC_1_Ext_CP_Clk_Stop(void) 
  72:Generated_Source\PSoC5/ADC_1_Ext_CP_Clk.c **** {
 643              		.loc 1 72 0
 644              		.cfi_startproc
 645              		@ args = 0, pretend = 0, frame = 0
 646              		@ frame_needed = 0, uses_anonymous_args = 0
 647              		@ link register save eliminated.
  73:Generated_Source\PSoC5/ADC_1_Ext_CP_Clk.c ****     /* Clear the bit to disable the clock. */
  74:Generated_Source\PSoC5/ADC_1_Ext_CP_Clk.c ****     ADC_1_Ext_CP_Clk_CLKEN &= (uint8)(~ADC_1_Ext_CP_Clk_CLKEN_MASK);
 648              		.loc 1 74 0
 649 0000 054A     		ldr	r2, .L5
 650 0002 1378     		ldrb	r3, [r2]	@ zero_extendqisi2
 651 0004 03F0FE03 		and	r3, r3, #254
 652 0008 1370     		strb	r3, [r2]
  75:Generated_Source\PSoC5/ADC_1_Ext_CP_Clk.c **** 	ADC_1_Ext_CP_Clk_CLKSTBY &= (uint8)(~ADC_1_Ext_CP_Clk_CLKSTBY_MASK);
 653              		.loc 1 75 0
 654 000a 1032     		adds	r2, r2, #16
 655 000c 1378     		ldrb	r3, [r2]	@ zero_extendqisi2
 656 000e 03F0FE03 		and	r3, r3, #254
 657 0012 1370     		strb	r3, [r2]
 658 0014 7047     		bx	lr
 659              	.L6:
 660 0016 00BF     		.align	2
 661              	.L5:
 662 0018 A2430040 		.word	1073759138
 663              		.cfi_endproc
 664              	.LFE1:
 665              		.size	ADC_1_Ext_CP_Clk_Stop, .-ADC_1_Ext_CP_Clk_Stop
 666              		.section	.text.ADC_1_Ext_CP_Clk_StopBlock,"ax",%progbits
 667              		.align	2
 668              		.global	ADC_1_Ext_CP_Clk_StopBlock
 669              		.thumb
 670              		.thumb_func
 671              		.type	ADC_1_Ext_CP_Clk_StopBlock, %function
 672              	ADC_1_Ext_CP_Clk_StopBlock:
 673              	.LFB2:
  76:Generated_Source\PSoC5/ADC_1_Ext_CP_Clk.c **** }
  77:Generated_Source\PSoC5/ADC_1_Ext_CP_Clk.c **** 
ARM GAS  C:\Users\JEFFSN~1\AppData\Local\Temp\ccqi9MMv.s 			page 46


  78:Generated_Source\PSoC5/ADC_1_Ext_CP_Clk.c **** 
  79:Generated_Source\PSoC5/ADC_1_Ext_CP_Clk.c **** #if(CY_PSOC3 || CY_PSOC5LP)
  80:Generated_Source\PSoC5/ADC_1_Ext_CP_Clk.c **** 
  81:Generated_Source\PSoC5/ADC_1_Ext_CP_Clk.c **** 
  82:Generated_Source\PSoC5/ADC_1_Ext_CP_Clk.c **** /*******************************************************************************
  83:Generated_Source\PSoC5/ADC_1_Ext_CP_Clk.c **** * Function Name: ADC_1_Ext_CP_Clk_StopBlock
  84:Generated_Source\PSoC5/ADC_1_Ext_CP_Clk.c **** ********************************************************************************
  85:Generated_Source\PSoC5/ADC_1_Ext_CP_Clk.c **** *
  86:Generated_Source\PSoC5/ADC_1_Ext_CP_Clk.c **** * Summary:
  87:Generated_Source\PSoC5/ADC_1_Ext_CP_Clk.c **** *  Stops the clock and waits for the hardware to actually be disabled before
  88:Generated_Source\PSoC5/ADC_1_Ext_CP_Clk.c **** *  returning. This ensures that the clock is never truncated (high part of the
  89:Generated_Source\PSoC5/ADC_1_Ext_CP_Clk.c **** *  cycle will terminate before the clock is disabled and the API returns).
  90:Generated_Source\PSoC5/ADC_1_Ext_CP_Clk.c **** *  Note that the source clock must be running or this API will never return as
  91:Generated_Source\PSoC5/ADC_1_Ext_CP_Clk.c **** *  a stopped clock cannot be disabled.
  92:Generated_Source\PSoC5/ADC_1_Ext_CP_Clk.c **** *
  93:Generated_Source\PSoC5/ADC_1_Ext_CP_Clk.c **** * Parameters:
  94:Generated_Source\PSoC5/ADC_1_Ext_CP_Clk.c **** *  None
  95:Generated_Source\PSoC5/ADC_1_Ext_CP_Clk.c **** *
  96:Generated_Source\PSoC5/ADC_1_Ext_CP_Clk.c **** * Returns:
  97:Generated_Source\PSoC5/ADC_1_Ext_CP_Clk.c **** *  None
  98:Generated_Source\PSoC5/ADC_1_Ext_CP_Clk.c **** *
  99:Generated_Source\PSoC5/ADC_1_Ext_CP_Clk.c **** *******************************************************************************/
 100:Generated_Source\PSoC5/ADC_1_Ext_CP_Clk.c **** void ADC_1_Ext_CP_Clk_StopBlock(void) 
 101:Generated_Source\PSoC5/ADC_1_Ext_CP_Clk.c **** {
 674              		.loc 1 101 0
 675              		.cfi_startproc
 676              		@ args = 0, pretend = 0, frame = 0
 677              		@ frame_needed = 0, uses_anonymous_args = 0
 678              		@ link register save eliminated.
 102:Generated_Source\PSoC5/ADC_1_Ext_CP_Clk.c ****     if ((ADC_1_Ext_CP_Clk_CLKEN & ADC_1_Ext_CP_Clk_CLKEN_MASK) != 0u)
 679              		.loc 1 102 0
 680 0000 164B     		ldr	r3, .L10
 681 0002 1B78     		ldrb	r3, [r3]	@ zero_extendqisi2
 682 0004 13F0010F 		tst	r3, #1
 683 0008 27D0     		beq	.L7
 684              	.LBB2:
 103:Generated_Source\PSoC5/ADC_1_Ext_CP_Clk.c ****     {
 104:Generated_Source\PSoC5/ADC_1_Ext_CP_Clk.c **** #if HAS_CLKDIST_LD_DISABLE
 105:Generated_Source\PSoC5/ADC_1_Ext_CP_Clk.c ****         uint16 oldDivider;
 106:Generated_Source\PSoC5/ADC_1_Ext_CP_Clk.c **** 
 107:Generated_Source\PSoC5/ADC_1_Ext_CP_Clk.c ****         CLK_DIST_LD = 0u;
 685              		.loc 1 107 0
 686 000a 1549     		ldr	r1, .L10+4
 687 000c 0023     		movs	r3, #0
 688 000e 0B70     		strb	r3, [r1]
 108:Generated_Source\PSoC5/ADC_1_Ext_CP_Clk.c **** 
 109:Generated_Source\PSoC5/ADC_1_Ext_CP_Clk.c ****         /* Clear all the mask bits except ours. */
 110:Generated_Source\PSoC5/ADC_1_Ext_CP_Clk.c **** #if defined(ADC_1_Ext_CP_Clk__CFG3)
 111:Generated_Source\PSoC5/ADC_1_Ext_CP_Clk.c ****         CLK_DIST_AMASK = ADC_1_Ext_CP_Clk_CLKEN_MASK;
 112:Generated_Source\PSoC5/ADC_1_Ext_CP_Clk.c ****         CLK_DIST_DMASK = 0x00u;
 113:Generated_Source\PSoC5/ADC_1_Ext_CP_Clk.c **** #else
 114:Generated_Source\PSoC5/ADC_1_Ext_CP_Clk.c ****         CLK_DIST_DMASK = ADC_1_Ext_CP_Clk_CLKEN_MASK;
 689              		.loc 1 114 0
 690 0010 0120     		movs	r0, #1
 691 0012 144A     		ldr	r2, .L10+8
 692 0014 1070     		strb	r0, [r2]
 115:Generated_Source\PSoC5/ADC_1_Ext_CP_Clk.c ****         CLK_DIST_AMASK = 0x00u;
ARM GAS  C:\Users\JEFFSN~1\AppData\Local\Temp\ccqi9MMv.s 			page 47


 693              		.loc 1 115 0
 694 0016 0432     		adds	r2, r2, #4
 695 0018 1370     		strb	r3, [r2]
 116:Generated_Source\PSoC5/ADC_1_Ext_CP_Clk.c **** #endif /* ADC_1_Ext_CP_Clk__CFG3 */
 117:Generated_Source\PSoC5/ADC_1_Ext_CP_Clk.c **** 
 118:Generated_Source\PSoC5/ADC_1_Ext_CP_Clk.c ****         /* Clear mask of bus clock. */
 119:Generated_Source\PSoC5/ADC_1_Ext_CP_Clk.c ****         CLK_DIST_BCFG2 &= (uint8)(~BCFG2_MASK);
 696              		.loc 1 119 0
 697 001a 0C3A     		subs	r2, r2, #12
 698 001c 1378     		ldrb	r3, [r2]	@ zero_extendqisi2
 699 001e 03F07F03 		and	r3, r3, #127
 700 0022 1370     		strb	r3, [r2]
 120:Generated_Source\PSoC5/ADC_1_Ext_CP_Clk.c **** 
 121:Generated_Source\PSoC5/ADC_1_Ext_CP_Clk.c ****         oldDivider = CY_GET_REG16(ADC_1_Ext_CP_Clk_DIV_PTR);
 701              		.loc 1 121 0
 702 0024 104B     		ldr	r3, .L10+12
 703 0026 1A88     		ldrh	r2, [r3]
 704 0028 92B2     		uxth	r2, r2
 705              	.LVL0:
 122:Generated_Source\PSoC5/ADC_1_Ext_CP_Clk.c ****         CY_SET_REG16(CYREG_CLKDIST_WRK0, oldDivider);
 706              		.loc 1 122 0
 707 002a 7E3B     		subs	r3, r3, #126
 708 002c 1A80     		strh	r2, [r3]	@ movhi
 123:Generated_Source\PSoC5/ADC_1_Ext_CP_Clk.c ****         CLK_DIST_LD = CYCLK_LD_DISABLE | CYCLK_LD_SYNC_EN | CYCLK_LD_LOAD;
 709              		.loc 1 123 0
 710 002e 0723     		movs	r3, #7
 711 0030 0B70     		strb	r3, [r1]
 712              	.L9:
 124:Generated_Source\PSoC5/ADC_1_Ext_CP_Clk.c **** 
 125:Generated_Source\PSoC5/ADC_1_Ext_CP_Clk.c ****         /* Wait for clock to be disabled */
 126:Generated_Source\PSoC5/ADC_1_Ext_CP_Clk.c ****         while ((CLK_DIST_LD & CYCLK_LD_LOAD) != 0u) { }
 713              		.loc 1 126 0 discriminator 1
 714 0032 0B4B     		ldr	r3, .L10+4
 715 0034 1B78     		ldrb	r3, [r3]	@ zero_extendqisi2
 716 0036 13F0010F 		tst	r3, #1
 717 003a FAD1     		bne	.L9
 127:Generated_Source\PSoC5/ADC_1_Ext_CP_Clk.c **** #endif /* HAS_CLKDIST_LD_DISABLE */
 128:Generated_Source\PSoC5/ADC_1_Ext_CP_Clk.c **** 
 129:Generated_Source\PSoC5/ADC_1_Ext_CP_Clk.c ****         /* Clear the bit to disable the clock. */
 130:Generated_Source\PSoC5/ADC_1_Ext_CP_Clk.c ****         ADC_1_Ext_CP_Clk_CLKEN &= (uint8)(~ADC_1_Ext_CP_Clk_CLKEN_MASK);
 718              		.loc 1 130 0
 719 003c 0749     		ldr	r1, .L10
 720 003e 0B78     		ldrb	r3, [r1]	@ zero_extendqisi2
 721 0040 03F0FE03 		and	r3, r3, #254
 722 0044 0B70     		strb	r3, [r1]
 131:Generated_Source\PSoC5/ADC_1_Ext_CP_Clk.c ****         ADC_1_Ext_CP_Clk_CLKSTBY &= (uint8)(~ADC_1_Ext_CP_Clk_CLKSTBY_MASK);
 723              		.loc 1 131 0
 724 0046 1031     		adds	r1, r1, #16
 725 0048 0B78     		ldrb	r3, [r1]	@ zero_extendqisi2
 726 004a 03F0FE03 		and	r3, r3, #254
 727 004e 0B70     		strb	r3, [r1]
 132:Generated_Source\PSoC5/ADC_1_Ext_CP_Clk.c **** 
 133:Generated_Source\PSoC5/ADC_1_Ext_CP_Clk.c **** #if HAS_CLKDIST_LD_DISABLE
 134:Generated_Source\PSoC5/ADC_1_Ext_CP_Clk.c ****         /* Clear the disable bit */
 135:Generated_Source\PSoC5/ADC_1_Ext_CP_Clk.c ****         CLK_DIST_LD = 0x00u;
 728              		.loc 1 135 0
 729 0050 0021     		movs	r1, #0
ARM GAS  C:\Users\JEFFSN~1\AppData\Local\Temp\ccqi9MMv.s 			page 48


 730 0052 034B     		ldr	r3, .L10+4
 731 0054 1970     		strb	r1, [r3]
 136:Generated_Source\PSoC5/ADC_1_Ext_CP_Clk.c ****         CY_SET_REG16(ADC_1_Ext_CP_Clk_DIV_PTR, oldDivider);
 732              		.loc 1 136 0
 733 0056 7F33     		adds	r3, r3, #127
 734 0058 1A80     		strh	r2, [r3]	@ movhi
 735              	.LVL1:
 736              	.L7:
 737 005a 7047     		bx	lr
 738              	.L11:
 739              		.align	2
 740              	.L10:
 741 005c A2430040 		.word	1073759138
 742 0060 01400040 		.word	1073758209
 743 0064 10400040 		.word	1073758224
 744 0068 80400040 		.word	1073758336
 745              	.LBE2:
 746              		.cfi_endproc
 747              	.LFE2:
 748              		.size	ADC_1_Ext_CP_Clk_StopBlock, .-ADC_1_Ext_CP_Clk_StopBlock
 749              		.section	.text.ADC_1_Ext_CP_Clk_StandbyPower,"ax",%progbits
 750              		.align	2
 751              		.global	ADC_1_Ext_CP_Clk_StandbyPower
 752              		.thumb
 753              		.thumb_func
 754              		.type	ADC_1_Ext_CP_Clk_StandbyPower, %function
 755              	ADC_1_Ext_CP_Clk_StandbyPower:
 756              	.LFB3:
 137:Generated_Source\PSoC5/ADC_1_Ext_CP_Clk.c **** #endif /* HAS_CLKDIST_LD_DISABLE */
 138:Generated_Source\PSoC5/ADC_1_Ext_CP_Clk.c ****     }
 139:Generated_Source\PSoC5/ADC_1_Ext_CP_Clk.c **** }
 140:Generated_Source\PSoC5/ADC_1_Ext_CP_Clk.c **** #endif /* (CY_PSOC3 || CY_PSOC5LP) */
 141:Generated_Source\PSoC5/ADC_1_Ext_CP_Clk.c **** 
 142:Generated_Source\PSoC5/ADC_1_Ext_CP_Clk.c **** 
 143:Generated_Source\PSoC5/ADC_1_Ext_CP_Clk.c **** /*******************************************************************************
 144:Generated_Source\PSoC5/ADC_1_Ext_CP_Clk.c **** * Function Name: ADC_1_Ext_CP_Clk_StandbyPower
 145:Generated_Source\PSoC5/ADC_1_Ext_CP_Clk.c **** ********************************************************************************
 146:Generated_Source\PSoC5/ADC_1_Ext_CP_Clk.c **** *
 147:Generated_Source\PSoC5/ADC_1_Ext_CP_Clk.c **** * Summary:
 148:Generated_Source\PSoC5/ADC_1_Ext_CP_Clk.c **** *  Sets whether the clock is active in standby mode.
 149:Generated_Source\PSoC5/ADC_1_Ext_CP_Clk.c **** *
 150:Generated_Source\PSoC5/ADC_1_Ext_CP_Clk.c **** * Parameters:
 151:Generated_Source\PSoC5/ADC_1_Ext_CP_Clk.c **** *  state:  0 to disable clock during standby, nonzero to enable.
 152:Generated_Source\PSoC5/ADC_1_Ext_CP_Clk.c **** *
 153:Generated_Source\PSoC5/ADC_1_Ext_CP_Clk.c **** * Returns:
 154:Generated_Source\PSoC5/ADC_1_Ext_CP_Clk.c **** *  None
 155:Generated_Source\PSoC5/ADC_1_Ext_CP_Clk.c **** *
 156:Generated_Source\PSoC5/ADC_1_Ext_CP_Clk.c **** *******************************************************************************/
 157:Generated_Source\PSoC5/ADC_1_Ext_CP_Clk.c **** void ADC_1_Ext_CP_Clk_StandbyPower(uint8 state) 
 158:Generated_Source\PSoC5/ADC_1_Ext_CP_Clk.c **** {
 757              		.loc 1 158 0
 758              		.cfi_startproc
 759              		@ args = 0, pretend = 0, frame = 0
 760              		@ frame_needed = 0, uses_anonymous_args = 0
 761              		@ link register save eliminated.
 762              	.LVL2:
 159:Generated_Source\PSoC5/ADC_1_Ext_CP_Clk.c ****     if(state == 0u)
ARM GAS  C:\Users\JEFFSN~1\AppData\Local\Temp\ccqi9MMv.s 			page 49


 763              		.loc 1 159 0
 764 0000 28B9     		cbnz	r0, .L13
 160:Generated_Source\PSoC5/ADC_1_Ext_CP_Clk.c ****     {
 161:Generated_Source\PSoC5/ADC_1_Ext_CP_Clk.c ****         ADC_1_Ext_CP_Clk_CLKSTBY &= (uint8)(~ADC_1_Ext_CP_Clk_CLKSTBY_MASK);
 765              		.loc 1 161 0
 766 0002 064A     		ldr	r2, .L15
 767 0004 1378     		ldrb	r3, [r2]	@ zero_extendqisi2
 768 0006 03F0FE03 		and	r3, r3, #254
 769 000a 1370     		strb	r3, [r2]
 770 000c 7047     		bx	lr
 771              	.L13:
 162:Generated_Source\PSoC5/ADC_1_Ext_CP_Clk.c ****     }
 163:Generated_Source\PSoC5/ADC_1_Ext_CP_Clk.c ****     else
 164:Generated_Source\PSoC5/ADC_1_Ext_CP_Clk.c ****     {
 165:Generated_Source\PSoC5/ADC_1_Ext_CP_Clk.c ****         ADC_1_Ext_CP_Clk_CLKSTBY |= ADC_1_Ext_CP_Clk_CLKSTBY_MASK;
 772              		.loc 1 165 0
 773 000e 034A     		ldr	r2, .L15
 774 0010 1378     		ldrb	r3, [r2]	@ zero_extendqisi2
 775 0012 43F00103 		orr	r3, r3, #1
 776 0016 1370     		strb	r3, [r2]
 777 0018 7047     		bx	lr
 778              	.L16:
 779 001a 00BF     		.align	2
 780              	.L15:
 781 001c B2430040 		.word	1073759154
 782              		.cfi_endproc
 783              	.LFE3:
 784              		.size	ADC_1_Ext_CP_Clk_StandbyPower, .-ADC_1_Ext_CP_Clk_StandbyPower
 785              		.section	.text.ADC_1_Ext_CP_Clk_GetDividerRegister,"ax",%progbits
 786              		.align	2
 787              		.global	ADC_1_Ext_CP_Clk_GetDividerRegister
 788              		.thumb
 789              		.thumb_func
 790              		.type	ADC_1_Ext_CP_Clk_GetDividerRegister, %function
 791              	ADC_1_Ext_CP_Clk_GetDividerRegister:
 792              	.LFB5:
 166:Generated_Source\PSoC5/ADC_1_Ext_CP_Clk.c ****     }
 167:Generated_Source\PSoC5/ADC_1_Ext_CP_Clk.c **** }
 168:Generated_Source\PSoC5/ADC_1_Ext_CP_Clk.c **** 
 169:Generated_Source\PSoC5/ADC_1_Ext_CP_Clk.c **** 
 170:Generated_Source\PSoC5/ADC_1_Ext_CP_Clk.c **** /*******************************************************************************
 171:Generated_Source\PSoC5/ADC_1_Ext_CP_Clk.c **** * Function Name: ADC_1_Ext_CP_Clk_SetDividerRegister
 172:Generated_Source\PSoC5/ADC_1_Ext_CP_Clk.c **** ********************************************************************************
 173:Generated_Source\PSoC5/ADC_1_Ext_CP_Clk.c **** *
 174:Generated_Source\PSoC5/ADC_1_Ext_CP_Clk.c **** * Summary:
 175:Generated_Source\PSoC5/ADC_1_Ext_CP_Clk.c **** *  Modifies the clock divider and, thus, the frequency. When the clock divider
 176:Generated_Source\PSoC5/ADC_1_Ext_CP_Clk.c **** *  register is set to zero or changed from zero, the clock will be temporarily
 177:Generated_Source\PSoC5/ADC_1_Ext_CP_Clk.c **** *  disabled in order to change the SSS mode bit. If the clock is enabled when
 178:Generated_Source\PSoC5/ADC_1_Ext_CP_Clk.c **** *  SetDividerRegister is called, then the source clock must be running.
 179:Generated_Source\PSoC5/ADC_1_Ext_CP_Clk.c **** *
 180:Generated_Source\PSoC5/ADC_1_Ext_CP_Clk.c **** * Parameters:
 181:Generated_Source\PSoC5/ADC_1_Ext_CP_Clk.c **** *  clkDivider:  Divider register value (0-65,535). This value is NOT the
 182:Generated_Source\PSoC5/ADC_1_Ext_CP_Clk.c **** *    divider; the clock hardware divides by clkDivider plus one. For example,
 183:Generated_Source\PSoC5/ADC_1_Ext_CP_Clk.c **** *    to divide the clock by 2, this parameter should be set to 1.
 184:Generated_Source\PSoC5/ADC_1_Ext_CP_Clk.c **** *  restart:  If nonzero, restarts the clock divider: the current clock cycle
 185:Generated_Source\PSoC5/ADC_1_Ext_CP_Clk.c **** *   will be truncated and the new divide value will take effect immediately. If
 186:Generated_Source\PSoC5/ADC_1_Ext_CP_Clk.c **** *   zero, the new divide value will take effect at the end of the current clock
ARM GAS  C:\Users\JEFFSN~1\AppData\Local\Temp\ccqi9MMv.s 			page 50


 187:Generated_Source\PSoC5/ADC_1_Ext_CP_Clk.c **** *   cycle.
 188:Generated_Source\PSoC5/ADC_1_Ext_CP_Clk.c **** *
 189:Generated_Source\PSoC5/ADC_1_Ext_CP_Clk.c **** * Returns:
 190:Generated_Source\PSoC5/ADC_1_Ext_CP_Clk.c **** *  None
 191:Generated_Source\PSoC5/ADC_1_Ext_CP_Clk.c **** *
 192:Generated_Source\PSoC5/ADC_1_Ext_CP_Clk.c **** *******************************************************************************/
 193:Generated_Source\PSoC5/ADC_1_Ext_CP_Clk.c **** void ADC_1_Ext_CP_Clk_SetDividerRegister(uint16 clkDivider, uint8 restart)
 194:Generated_Source\PSoC5/ADC_1_Ext_CP_Clk.c ****                                 
 195:Generated_Source\PSoC5/ADC_1_Ext_CP_Clk.c **** {
 196:Generated_Source\PSoC5/ADC_1_Ext_CP_Clk.c ****     uint8 enabled;
 197:Generated_Source\PSoC5/ADC_1_Ext_CP_Clk.c **** 
 198:Generated_Source\PSoC5/ADC_1_Ext_CP_Clk.c ****     uint8 currSrc = ADC_1_Ext_CP_Clk_GetSourceRegister();
 199:Generated_Source\PSoC5/ADC_1_Ext_CP_Clk.c ****     uint16 oldDivider = ADC_1_Ext_CP_Clk_GetDividerRegister();
 200:Generated_Source\PSoC5/ADC_1_Ext_CP_Clk.c **** 
 201:Generated_Source\PSoC5/ADC_1_Ext_CP_Clk.c ****     if (clkDivider != oldDivider)
 202:Generated_Source\PSoC5/ADC_1_Ext_CP_Clk.c ****     {
 203:Generated_Source\PSoC5/ADC_1_Ext_CP_Clk.c ****         enabled = ADC_1_Ext_CP_Clk_CLKEN & ADC_1_Ext_CP_Clk_CLKEN_MASK;
 204:Generated_Source\PSoC5/ADC_1_Ext_CP_Clk.c **** 
 205:Generated_Source\PSoC5/ADC_1_Ext_CP_Clk.c ****         if ((currSrc == (uint8)CYCLK_SRC_SEL_CLK_SYNC_D) && ((oldDivider == 0u) || (clkDivider == 0
 206:Generated_Source\PSoC5/ADC_1_Ext_CP_Clk.c ****         {
 207:Generated_Source\PSoC5/ADC_1_Ext_CP_Clk.c ****             /* Moving to/from SSS requires correct ordering to prevent halting the clock    */
 208:Generated_Source\PSoC5/ADC_1_Ext_CP_Clk.c ****             if (oldDivider == 0u)
 209:Generated_Source\PSoC5/ADC_1_Ext_CP_Clk.c ****             {
 210:Generated_Source\PSoC5/ADC_1_Ext_CP_Clk.c ****                 /* Moving away from SSS, set the divider first so when SSS is cleared we    */
 211:Generated_Source\PSoC5/ADC_1_Ext_CP_Clk.c ****                 /* don't halt the clock.  Using the shadow load isn't required as the       */
 212:Generated_Source\PSoC5/ADC_1_Ext_CP_Clk.c ****                 /* divider is ignored while SSS is set.                                     */
 213:Generated_Source\PSoC5/ADC_1_Ext_CP_Clk.c ****                 CY_SET_REG16(ADC_1_Ext_CP_Clk_DIV_PTR, clkDivider);
 214:Generated_Source\PSoC5/ADC_1_Ext_CP_Clk.c ****                 ADC_1_Ext_CP_Clk_MOD_SRC &= (uint8)(~CYCLK_SSS);
 215:Generated_Source\PSoC5/ADC_1_Ext_CP_Clk.c ****             }
 216:Generated_Source\PSoC5/ADC_1_Ext_CP_Clk.c ****             else
 217:Generated_Source\PSoC5/ADC_1_Ext_CP_Clk.c ****             {
 218:Generated_Source\PSoC5/ADC_1_Ext_CP_Clk.c ****                 /* Moving to SSS, set SSS which then ignores the divider and we can set     */
 219:Generated_Source\PSoC5/ADC_1_Ext_CP_Clk.c ****                 /* it without bothering with the shadow load.                               */
 220:Generated_Source\PSoC5/ADC_1_Ext_CP_Clk.c ****                 ADC_1_Ext_CP_Clk_MOD_SRC |= CYCLK_SSS;
 221:Generated_Source\PSoC5/ADC_1_Ext_CP_Clk.c ****                 CY_SET_REG16(ADC_1_Ext_CP_Clk_DIV_PTR, clkDivider);
 222:Generated_Source\PSoC5/ADC_1_Ext_CP_Clk.c ****             }
 223:Generated_Source\PSoC5/ADC_1_Ext_CP_Clk.c ****         }
 224:Generated_Source\PSoC5/ADC_1_Ext_CP_Clk.c ****         else
 225:Generated_Source\PSoC5/ADC_1_Ext_CP_Clk.c ****         {
 226:Generated_Source\PSoC5/ADC_1_Ext_CP_Clk.c **** 			
 227:Generated_Source\PSoC5/ADC_1_Ext_CP_Clk.c ****             if (enabled != 0u)
 228:Generated_Source\PSoC5/ADC_1_Ext_CP_Clk.c ****             {
 229:Generated_Source\PSoC5/ADC_1_Ext_CP_Clk.c ****                 CLK_DIST_LD = 0x00u;
 230:Generated_Source\PSoC5/ADC_1_Ext_CP_Clk.c **** 
 231:Generated_Source\PSoC5/ADC_1_Ext_CP_Clk.c ****                 /* Clear all the mask bits except ours. */
 232:Generated_Source\PSoC5/ADC_1_Ext_CP_Clk.c **** #if defined(ADC_1_Ext_CP_Clk__CFG3)
 233:Generated_Source\PSoC5/ADC_1_Ext_CP_Clk.c ****                 CLK_DIST_AMASK = ADC_1_Ext_CP_Clk_CLKEN_MASK;
 234:Generated_Source\PSoC5/ADC_1_Ext_CP_Clk.c ****                 CLK_DIST_DMASK = 0x00u;
 235:Generated_Source\PSoC5/ADC_1_Ext_CP_Clk.c **** #else
 236:Generated_Source\PSoC5/ADC_1_Ext_CP_Clk.c ****                 CLK_DIST_DMASK = ADC_1_Ext_CP_Clk_CLKEN_MASK;
 237:Generated_Source\PSoC5/ADC_1_Ext_CP_Clk.c ****                 CLK_DIST_AMASK = 0x00u;
 238:Generated_Source\PSoC5/ADC_1_Ext_CP_Clk.c **** #endif /* ADC_1_Ext_CP_Clk__CFG3 */
 239:Generated_Source\PSoC5/ADC_1_Ext_CP_Clk.c ****                 /* Clear mask of bus clock. */
 240:Generated_Source\PSoC5/ADC_1_Ext_CP_Clk.c ****                 CLK_DIST_BCFG2 &= (uint8)(~BCFG2_MASK);
 241:Generated_Source\PSoC5/ADC_1_Ext_CP_Clk.c **** 
 242:Generated_Source\PSoC5/ADC_1_Ext_CP_Clk.c ****                 /* If clock is currently enabled, disable it if async or going from N-to-1*/
 243:Generated_Source\PSoC5/ADC_1_Ext_CP_Clk.c ****                 if (((ADC_1_Ext_CP_Clk_MOD_SRC & CYCLK_SYNC) == 0u) || (clkDivider == 0u))
ARM GAS  C:\Users\JEFFSN~1\AppData\Local\Temp\ccqi9MMv.s 			page 51


 244:Generated_Source\PSoC5/ADC_1_Ext_CP_Clk.c ****                 {
 245:Generated_Source\PSoC5/ADC_1_Ext_CP_Clk.c **** #if HAS_CLKDIST_LD_DISABLE
 246:Generated_Source\PSoC5/ADC_1_Ext_CP_Clk.c ****                     CY_SET_REG16(CYREG_CLKDIST_WRK0, oldDivider);
 247:Generated_Source\PSoC5/ADC_1_Ext_CP_Clk.c ****                     CLK_DIST_LD = CYCLK_LD_DISABLE|CYCLK_LD_SYNC_EN|CYCLK_LD_LOAD;
 248:Generated_Source\PSoC5/ADC_1_Ext_CP_Clk.c **** 
 249:Generated_Source\PSoC5/ADC_1_Ext_CP_Clk.c ****                     /* Wait for clock to be disabled */
 250:Generated_Source\PSoC5/ADC_1_Ext_CP_Clk.c ****                     while ((CLK_DIST_LD & CYCLK_LD_LOAD) != 0u) { }
 251:Generated_Source\PSoC5/ADC_1_Ext_CP_Clk.c **** #endif /* HAS_CLKDIST_LD_DISABLE */
 252:Generated_Source\PSoC5/ADC_1_Ext_CP_Clk.c **** 
 253:Generated_Source\PSoC5/ADC_1_Ext_CP_Clk.c ****                     ADC_1_Ext_CP_Clk_CLKEN &= (uint8)(~ADC_1_Ext_CP_Clk_CLKEN_MASK);
 254:Generated_Source\PSoC5/ADC_1_Ext_CP_Clk.c **** 
 255:Generated_Source\PSoC5/ADC_1_Ext_CP_Clk.c **** #if HAS_CLKDIST_LD_DISABLE
 256:Generated_Source\PSoC5/ADC_1_Ext_CP_Clk.c ****                     /* Clear the disable bit */
 257:Generated_Source\PSoC5/ADC_1_Ext_CP_Clk.c ****                     CLK_DIST_LD = 0x00u;
 258:Generated_Source\PSoC5/ADC_1_Ext_CP_Clk.c **** #endif /* HAS_CLKDIST_LD_DISABLE */
 259:Generated_Source\PSoC5/ADC_1_Ext_CP_Clk.c ****                 }
 260:Generated_Source\PSoC5/ADC_1_Ext_CP_Clk.c ****             }
 261:Generated_Source\PSoC5/ADC_1_Ext_CP_Clk.c **** 
 262:Generated_Source\PSoC5/ADC_1_Ext_CP_Clk.c ****             /* Load divide value. */
 263:Generated_Source\PSoC5/ADC_1_Ext_CP_Clk.c ****             if ((ADC_1_Ext_CP_Clk_CLKEN & ADC_1_Ext_CP_Clk_CLKEN_MASK) != 0u)
 264:Generated_Source\PSoC5/ADC_1_Ext_CP_Clk.c ****             {
 265:Generated_Source\PSoC5/ADC_1_Ext_CP_Clk.c ****                 /* If the clock is still enabled, use the shadow registers */
 266:Generated_Source\PSoC5/ADC_1_Ext_CP_Clk.c ****                 CY_SET_REG16(CYREG_CLKDIST_WRK0, clkDivider);
 267:Generated_Source\PSoC5/ADC_1_Ext_CP_Clk.c **** 
 268:Generated_Source\PSoC5/ADC_1_Ext_CP_Clk.c ****                 CLK_DIST_LD = (CYCLK_LD_LOAD | ((restart != 0u) ? CYCLK_LD_SYNC_EN : 0x00u));
 269:Generated_Source\PSoC5/ADC_1_Ext_CP_Clk.c ****                 while ((CLK_DIST_LD & CYCLK_LD_LOAD) != 0u) { }
 270:Generated_Source\PSoC5/ADC_1_Ext_CP_Clk.c ****             }
 271:Generated_Source\PSoC5/ADC_1_Ext_CP_Clk.c ****             else
 272:Generated_Source\PSoC5/ADC_1_Ext_CP_Clk.c ****             {
 273:Generated_Source\PSoC5/ADC_1_Ext_CP_Clk.c ****                 /* If the clock is disabled, set the divider directly */
 274:Generated_Source\PSoC5/ADC_1_Ext_CP_Clk.c ****                 CY_SET_REG16(ADC_1_Ext_CP_Clk_DIV_PTR, clkDivider);
 275:Generated_Source\PSoC5/ADC_1_Ext_CP_Clk.c **** 				ADC_1_Ext_CP_Clk_CLKEN |= enabled;
 276:Generated_Source\PSoC5/ADC_1_Ext_CP_Clk.c ****             }
 277:Generated_Source\PSoC5/ADC_1_Ext_CP_Clk.c ****         }
 278:Generated_Source\PSoC5/ADC_1_Ext_CP_Clk.c ****     }
 279:Generated_Source\PSoC5/ADC_1_Ext_CP_Clk.c **** }
 280:Generated_Source\PSoC5/ADC_1_Ext_CP_Clk.c **** 
 281:Generated_Source\PSoC5/ADC_1_Ext_CP_Clk.c **** 
 282:Generated_Source\PSoC5/ADC_1_Ext_CP_Clk.c **** /*******************************************************************************
 283:Generated_Source\PSoC5/ADC_1_Ext_CP_Clk.c **** * Function Name: ADC_1_Ext_CP_Clk_GetDividerRegister
 284:Generated_Source\PSoC5/ADC_1_Ext_CP_Clk.c **** ********************************************************************************
 285:Generated_Source\PSoC5/ADC_1_Ext_CP_Clk.c **** *
 286:Generated_Source\PSoC5/ADC_1_Ext_CP_Clk.c **** * Summary:
 287:Generated_Source\PSoC5/ADC_1_Ext_CP_Clk.c **** *  Gets the clock divider register value.
 288:Generated_Source\PSoC5/ADC_1_Ext_CP_Clk.c **** *
 289:Generated_Source\PSoC5/ADC_1_Ext_CP_Clk.c **** * Parameters:
 290:Generated_Source\PSoC5/ADC_1_Ext_CP_Clk.c **** *  None
 291:Generated_Source\PSoC5/ADC_1_Ext_CP_Clk.c **** *
 292:Generated_Source\PSoC5/ADC_1_Ext_CP_Clk.c **** * Returns:
 293:Generated_Source\PSoC5/ADC_1_Ext_CP_Clk.c **** *  Divide value of the clock minus 1. For example, if the clock is set to
 294:Generated_Source\PSoC5/ADC_1_Ext_CP_Clk.c **** *  divide by 2, the return value will be 1.
 295:Generated_Source\PSoC5/ADC_1_Ext_CP_Clk.c **** *
 296:Generated_Source\PSoC5/ADC_1_Ext_CP_Clk.c **** *******************************************************************************/
 297:Generated_Source\PSoC5/ADC_1_Ext_CP_Clk.c **** uint16 ADC_1_Ext_CP_Clk_GetDividerRegister(void) 
 298:Generated_Source\PSoC5/ADC_1_Ext_CP_Clk.c **** {
 793              		.loc 1 298 0
 794              		.cfi_startproc
ARM GAS  C:\Users\JEFFSN~1\AppData\Local\Temp\ccqi9MMv.s 			page 52


 795              		@ args = 0, pretend = 0, frame = 0
 796              		@ frame_needed = 0, uses_anonymous_args = 0
 797              		@ link register save eliminated.
 299:Generated_Source\PSoC5/ADC_1_Ext_CP_Clk.c ****     return CY_GET_REG16(ADC_1_Ext_CP_Clk_DIV_PTR);
 798              		.loc 1 299 0
 799 0000 014B     		ldr	r3, .L18
 800 0002 1888     		ldrh	r0, [r3]
 300:Generated_Source\PSoC5/ADC_1_Ext_CP_Clk.c **** }
 801              		.loc 1 300 0
 802 0004 80B2     		uxth	r0, r0
 803 0006 7047     		bx	lr
 804              	.L19:
 805              		.align	2
 806              	.L18:
 807 0008 80400040 		.word	1073758336
 808              		.cfi_endproc
 809              	.LFE5:
 810              		.size	ADC_1_Ext_CP_Clk_GetDividerRegister, .-ADC_1_Ext_CP_Clk_GetDividerRegister
 811              		.section	.text.ADC_1_Ext_CP_Clk_SetModeRegister,"ax",%progbits
 812              		.align	2
 813              		.global	ADC_1_Ext_CP_Clk_SetModeRegister
 814              		.thumb
 815              		.thumb_func
 816              		.type	ADC_1_Ext_CP_Clk_SetModeRegister, %function
 817              	ADC_1_Ext_CP_Clk_SetModeRegister:
 818              	.LFB6:
 301:Generated_Source\PSoC5/ADC_1_Ext_CP_Clk.c **** 
 302:Generated_Source\PSoC5/ADC_1_Ext_CP_Clk.c **** 
 303:Generated_Source\PSoC5/ADC_1_Ext_CP_Clk.c **** /*******************************************************************************
 304:Generated_Source\PSoC5/ADC_1_Ext_CP_Clk.c **** * Function Name: ADC_1_Ext_CP_Clk_SetModeRegister
 305:Generated_Source\PSoC5/ADC_1_Ext_CP_Clk.c **** ********************************************************************************
 306:Generated_Source\PSoC5/ADC_1_Ext_CP_Clk.c **** *
 307:Generated_Source\PSoC5/ADC_1_Ext_CP_Clk.c **** * Summary:
 308:Generated_Source\PSoC5/ADC_1_Ext_CP_Clk.c **** *  Sets flags that control the operating mode of the clock. This function only
 309:Generated_Source\PSoC5/ADC_1_Ext_CP_Clk.c **** *  changes flags from 0 to 1; flags that are already 1 will remain unchanged.
 310:Generated_Source\PSoC5/ADC_1_Ext_CP_Clk.c **** *  To clear flags, use the ClearModeRegister function. The clock must be
 311:Generated_Source\PSoC5/ADC_1_Ext_CP_Clk.c **** *  disabled before changing the mode.
 312:Generated_Source\PSoC5/ADC_1_Ext_CP_Clk.c **** *
 313:Generated_Source\PSoC5/ADC_1_Ext_CP_Clk.c **** * Parameters:
 314:Generated_Source\PSoC5/ADC_1_Ext_CP_Clk.c **** *  clkMode: Bit mask containing the bits to set. For PSoC 3 and PSoC 5,
 315:Generated_Source\PSoC5/ADC_1_Ext_CP_Clk.c **** *   clkMode should be a set of the following optional bits or'ed together.
 316:Generated_Source\PSoC5/ADC_1_Ext_CP_Clk.c **** *   - CYCLK_EARLY Enable early phase mode. Rising edge of output clock will
 317:Generated_Source\PSoC5/ADC_1_Ext_CP_Clk.c **** *                 occur when the divider count reaches half of the divide
 318:Generated_Source\PSoC5/ADC_1_Ext_CP_Clk.c **** *                 value.
 319:Generated_Source\PSoC5/ADC_1_Ext_CP_Clk.c **** *   - CYCLK_DUTY  Enable 50% duty cycle output. When enabled, the output clock
 320:Generated_Source\PSoC5/ADC_1_Ext_CP_Clk.c **** *                 is asserted for approximately half of its period. When
 321:Generated_Source\PSoC5/ADC_1_Ext_CP_Clk.c **** *                 disabled, the output clock is asserted for one period of the
 322:Generated_Source\PSoC5/ADC_1_Ext_CP_Clk.c **** *                 source clock.
 323:Generated_Source\PSoC5/ADC_1_Ext_CP_Clk.c **** *   - CYCLK_SYNC  Enable output synchronization to master clock. This should
 324:Generated_Source\PSoC5/ADC_1_Ext_CP_Clk.c **** *                 be enabled for all synchronous clocks.
 325:Generated_Source\PSoC5/ADC_1_Ext_CP_Clk.c **** *   See the Technical Reference Manual for details about setting the mode of
 326:Generated_Source\PSoC5/ADC_1_Ext_CP_Clk.c **** *   the clock. Specifically, see the CLKDIST.DCFG.CFG2 register.
 327:Generated_Source\PSoC5/ADC_1_Ext_CP_Clk.c **** *
 328:Generated_Source\PSoC5/ADC_1_Ext_CP_Clk.c **** * Returns:
 329:Generated_Source\PSoC5/ADC_1_Ext_CP_Clk.c **** *  None
 330:Generated_Source\PSoC5/ADC_1_Ext_CP_Clk.c **** *
 331:Generated_Source\PSoC5/ADC_1_Ext_CP_Clk.c **** *******************************************************************************/
ARM GAS  C:\Users\JEFFSN~1\AppData\Local\Temp\ccqi9MMv.s 			page 53


 332:Generated_Source\PSoC5/ADC_1_Ext_CP_Clk.c **** void ADC_1_Ext_CP_Clk_SetModeRegister(uint8 modeBitMask) 
 333:Generated_Source\PSoC5/ADC_1_Ext_CP_Clk.c **** {
 819              		.loc 1 333 0
 820              		.cfi_startproc
 821              		@ args = 0, pretend = 0, frame = 0
 822              		@ frame_needed = 0, uses_anonymous_args = 0
 823              		@ link register save eliminated.
 824              	.LVL3:
 334:Generated_Source\PSoC5/ADC_1_Ext_CP_Clk.c ****     ADC_1_Ext_CP_Clk_MOD_SRC |= modeBitMask & (uint8)ADC_1_Ext_CP_Clk_MODE_MASK;
 825              		.loc 1 334 0
 826 0000 034B     		ldr	r3, .L21
 827 0002 1A78     		ldrb	r2, [r3]	@ zero_extendqisi2
 828 0004 00F0F800 		and	r0, r0, #248
 829              	.LVL4:
 830 0008 1043     		orrs	r0, r0, r2
 831 000a 1870     		strb	r0, [r3]
 832 000c 7047     		bx	lr
 833              	.L22:
 834 000e 00BF     		.align	2
 835              	.L21:
 836 0010 82400040 		.word	1073758338
 837              		.cfi_endproc
 838              	.LFE6:
 839              		.size	ADC_1_Ext_CP_Clk_SetModeRegister, .-ADC_1_Ext_CP_Clk_SetModeRegister
 840              		.section	.text.ADC_1_Ext_CP_Clk_ClearModeRegister,"ax",%progbits
 841              		.align	2
 842              		.global	ADC_1_Ext_CP_Clk_ClearModeRegister
 843              		.thumb
 844              		.thumb_func
 845              		.type	ADC_1_Ext_CP_Clk_ClearModeRegister, %function
 846              	ADC_1_Ext_CP_Clk_ClearModeRegister:
 847              	.LFB7:
 335:Generated_Source\PSoC5/ADC_1_Ext_CP_Clk.c **** }
 336:Generated_Source\PSoC5/ADC_1_Ext_CP_Clk.c **** 
 337:Generated_Source\PSoC5/ADC_1_Ext_CP_Clk.c **** 
 338:Generated_Source\PSoC5/ADC_1_Ext_CP_Clk.c **** /*******************************************************************************
 339:Generated_Source\PSoC5/ADC_1_Ext_CP_Clk.c **** * Function Name: ADC_1_Ext_CP_Clk_ClearModeRegister
 340:Generated_Source\PSoC5/ADC_1_Ext_CP_Clk.c **** ********************************************************************************
 341:Generated_Source\PSoC5/ADC_1_Ext_CP_Clk.c **** *
 342:Generated_Source\PSoC5/ADC_1_Ext_CP_Clk.c **** * Summary:
 343:Generated_Source\PSoC5/ADC_1_Ext_CP_Clk.c **** *  Clears flags that control the operating mode of the clock. This function
 344:Generated_Source\PSoC5/ADC_1_Ext_CP_Clk.c **** *  only changes flags from 1 to 0; flags that are already 0 will remain
 345:Generated_Source\PSoC5/ADC_1_Ext_CP_Clk.c **** *  unchanged. To set flags, use the SetModeRegister function. The clock must be
 346:Generated_Source\PSoC5/ADC_1_Ext_CP_Clk.c **** *  disabled before changing the mode.
 347:Generated_Source\PSoC5/ADC_1_Ext_CP_Clk.c **** *
 348:Generated_Source\PSoC5/ADC_1_Ext_CP_Clk.c **** * Parameters:
 349:Generated_Source\PSoC5/ADC_1_Ext_CP_Clk.c **** *  clkMode: Bit mask containing the bits to clear. For PSoC 3 and PSoC 5,
 350:Generated_Source\PSoC5/ADC_1_Ext_CP_Clk.c **** *   clkMode should be a set of the following optional bits or'ed together.
 351:Generated_Source\PSoC5/ADC_1_Ext_CP_Clk.c **** *   - CYCLK_EARLY Enable early phase mode. Rising edge of output clock will
 352:Generated_Source\PSoC5/ADC_1_Ext_CP_Clk.c **** *                 occur when the divider count reaches half of the divide
 353:Generated_Source\PSoC5/ADC_1_Ext_CP_Clk.c **** *                 value.
 354:Generated_Source\PSoC5/ADC_1_Ext_CP_Clk.c **** *   - CYCLK_DUTY  Enable 50% duty cycle output. When enabled, the output clock
 355:Generated_Source\PSoC5/ADC_1_Ext_CP_Clk.c **** *                 is asserted for approximately half of its period. When
 356:Generated_Source\PSoC5/ADC_1_Ext_CP_Clk.c **** *                 disabled, the output clock is asserted for one period of the
 357:Generated_Source\PSoC5/ADC_1_Ext_CP_Clk.c **** *                 source clock.
 358:Generated_Source\PSoC5/ADC_1_Ext_CP_Clk.c **** *   - CYCLK_SYNC  Enable output synchronization to master clock. This should
 359:Generated_Source\PSoC5/ADC_1_Ext_CP_Clk.c **** *                 be enabled for all synchronous clocks.
ARM GAS  C:\Users\JEFFSN~1\AppData\Local\Temp\ccqi9MMv.s 			page 54


 360:Generated_Source\PSoC5/ADC_1_Ext_CP_Clk.c **** *   See the Technical Reference Manual for details about setting the mode of
 361:Generated_Source\PSoC5/ADC_1_Ext_CP_Clk.c **** *   the clock. Specifically, see the CLKDIST.DCFG.CFG2 register.
 362:Generated_Source\PSoC5/ADC_1_Ext_CP_Clk.c **** *
 363:Generated_Source\PSoC5/ADC_1_Ext_CP_Clk.c **** * Returns:
 364:Generated_Source\PSoC5/ADC_1_Ext_CP_Clk.c **** *  None
 365:Generated_Source\PSoC5/ADC_1_Ext_CP_Clk.c **** *
 366:Generated_Source\PSoC5/ADC_1_Ext_CP_Clk.c **** *******************************************************************************/
 367:Generated_Source\PSoC5/ADC_1_Ext_CP_Clk.c **** void ADC_1_Ext_CP_Clk_ClearModeRegister(uint8 modeBitMask) 
 368:Generated_Source\PSoC5/ADC_1_Ext_CP_Clk.c **** {
 848              		.loc 1 368 0
 849              		.cfi_startproc
 850              		@ args = 0, pretend = 0, frame = 0
 851              		@ frame_needed = 0, uses_anonymous_args = 0
 852              		@ link register save eliminated.
 853              	.LVL5:
 369:Generated_Source\PSoC5/ADC_1_Ext_CP_Clk.c ****     ADC_1_Ext_CP_Clk_MOD_SRC &= (uint8)(~modeBitMask) | (uint8)(~(uint8)(ADC_1_Ext_CP_Clk_MODE_MASK
 854              		.loc 1 369 0
 855 0000 044B     		ldr	r3, .L24
 856 0002 1A78     		ldrb	r2, [r3]	@ zero_extendqisi2
 857 0004 C043     		mvns	r0, r0
 858              	.LVL6:
 859 0006 C0B2     		uxtb	r0, r0
 860 0008 40F00700 		orr	r0, r0, #7
 861 000c 1040     		ands	r0, r0, r2
 862 000e 1870     		strb	r0, [r3]
 863 0010 7047     		bx	lr
 864              	.L25:
 865 0012 00BF     		.align	2
 866              	.L24:
 867 0014 82400040 		.word	1073758338
 868              		.cfi_endproc
 869              	.LFE7:
 870              		.size	ADC_1_Ext_CP_Clk_ClearModeRegister, .-ADC_1_Ext_CP_Clk_ClearModeRegister
 871              		.section	.text.ADC_1_Ext_CP_Clk_GetModeRegister,"ax",%progbits
 872              		.align	2
 873              		.global	ADC_1_Ext_CP_Clk_GetModeRegister
 874              		.thumb
 875              		.thumb_func
 876              		.type	ADC_1_Ext_CP_Clk_GetModeRegister, %function
 877              	ADC_1_Ext_CP_Clk_GetModeRegister:
 878              	.LFB8:
 370:Generated_Source\PSoC5/ADC_1_Ext_CP_Clk.c **** }
 371:Generated_Source\PSoC5/ADC_1_Ext_CP_Clk.c **** 
 372:Generated_Source\PSoC5/ADC_1_Ext_CP_Clk.c **** 
 373:Generated_Source\PSoC5/ADC_1_Ext_CP_Clk.c **** /*******************************************************************************
 374:Generated_Source\PSoC5/ADC_1_Ext_CP_Clk.c **** * Function Name: ADC_1_Ext_CP_Clk_GetModeRegister
 375:Generated_Source\PSoC5/ADC_1_Ext_CP_Clk.c **** ********************************************************************************
 376:Generated_Source\PSoC5/ADC_1_Ext_CP_Clk.c **** *
 377:Generated_Source\PSoC5/ADC_1_Ext_CP_Clk.c **** * Summary:
 378:Generated_Source\PSoC5/ADC_1_Ext_CP_Clk.c **** *  Gets the clock mode register value.
 379:Generated_Source\PSoC5/ADC_1_Ext_CP_Clk.c **** *
 380:Generated_Source\PSoC5/ADC_1_Ext_CP_Clk.c **** * Parameters:
 381:Generated_Source\PSoC5/ADC_1_Ext_CP_Clk.c **** *  None
 382:Generated_Source\PSoC5/ADC_1_Ext_CP_Clk.c **** *
 383:Generated_Source\PSoC5/ADC_1_Ext_CP_Clk.c **** * Returns:
 384:Generated_Source\PSoC5/ADC_1_Ext_CP_Clk.c **** *  Bit mask representing the enabled mode bits. See the SetModeRegister and
 385:Generated_Source\PSoC5/ADC_1_Ext_CP_Clk.c **** *  ClearModeRegister descriptions for details about the mode bits.
ARM GAS  C:\Users\JEFFSN~1\AppData\Local\Temp\ccqi9MMv.s 			page 55


 386:Generated_Source\PSoC5/ADC_1_Ext_CP_Clk.c **** *
 387:Generated_Source\PSoC5/ADC_1_Ext_CP_Clk.c **** *******************************************************************************/
 388:Generated_Source\PSoC5/ADC_1_Ext_CP_Clk.c **** uint8 ADC_1_Ext_CP_Clk_GetModeRegister(void) 
 389:Generated_Source\PSoC5/ADC_1_Ext_CP_Clk.c **** {
 879              		.loc 1 389 0
 880              		.cfi_startproc
 881              		@ args = 0, pretend = 0, frame = 0
 882              		@ frame_needed = 0, uses_anonymous_args = 0
 883              		@ link register save eliminated.
 390:Generated_Source\PSoC5/ADC_1_Ext_CP_Clk.c ****     return ADC_1_Ext_CP_Clk_MOD_SRC & (uint8)(ADC_1_Ext_CP_Clk_MODE_MASK);
 884              		.loc 1 390 0
 885 0000 024B     		ldr	r3, .L27
 886 0002 1878     		ldrb	r0, [r3]	@ zero_extendqisi2
 391:Generated_Source\PSoC5/ADC_1_Ext_CP_Clk.c **** }
 887              		.loc 1 391 0
 888 0004 00F0F800 		and	r0, r0, #248
 889 0008 7047     		bx	lr
 890              	.L28:
 891 000a 00BF     		.align	2
 892              	.L27:
 893 000c 82400040 		.word	1073758338
 894              		.cfi_endproc
 895              	.LFE8:
 896              		.size	ADC_1_Ext_CP_Clk_GetModeRegister, .-ADC_1_Ext_CP_Clk_GetModeRegister
 897              		.section	.text.ADC_1_Ext_CP_Clk_GetSourceRegister,"ax",%progbits
 898              		.align	2
 899              		.global	ADC_1_Ext_CP_Clk_GetSourceRegister
 900              		.thumb
 901              		.thumb_func
 902              		.type	ADC_1_Ext_CP_Clk_GetSourceRegister, %function
 903              	ADC_1_Ext_CP_Clk_GetSourceRegister:
 904              	.LFB10:
 392:Generated_Source\PSoC5/ADC_1_Ext_CP_Clk.c **** 
 393:Generated_Source\PSoC5/ADC_1_Ext_CP_Clk.c **** 
 394:Generated_Source\PSoC5/ADC_1_Ext_CP_Clk.c **** /*******************************************************************************
 395:Generated_Source\PSoC5/ADC_1_Ext_CP_Clk.c **** * Function Name: ADC_1_Ext_CP_Clk_SetSourceRegister
 396:Generated_Source\PSoC5/ADC_1_Ext_CP_Clk.c **** ********************************************************************************
 397:Generated_Source\PSoC5/ADC_1_Ext_CP_Clk.c **** *
 398:Generated_Source\PSoC5/ADC_1_Ext_CP_Clk.c **** * Summary:
 399:Generated_Source\PSoC5/ADC_1_Ext_CP_Clk.c **** *  Sets the input source of the clock. The clock must be disabled before
 400:Generated_Source\PSoC5/ADC_1_Ext_CP_Clk.c **** *  changing the source. The old and new clock sources must be running.
 401:Generated_Source\PSoC5/ADC_1_Ext_CP_Clk.c **** *
 402:Generated_Source\PSoC5/ADC_1_Ext_CP_Clk.c **** * Parameters:
 403:Generated_Source\PSoC5/ADC_1_Ext_CP_Clk.c **** *  clkSource:  For PSoC 3 and PSoC 5 devices, clkSource should be one of the
 404:Generated_Source\PSoC5/ADC_1_Ext_CP_Clk.c **** *   following input sources:
 405:Generated_Source\PSoC5/ADC_1_Ext_CP_Clk.c **** *   - CYCLK_SRC_SEL_SYNC_DIG
 406:Generated_Source\PSoC5/ADC_1_Ext_CP_Clk.c **** *   - CYCLK_SRC_SEL_IMO
 407:Generated_Source\PSoC5/ADC_1_Ext_CP_Clk.c **** *   - CYCLK_SRC_SEL_XTALM
 408:Generated_Source\PSoC5/ADC_1_Ext_CP_Clk.c **** *   - CYCLK_SRC_SEL_ILO
 409:Generated_Source\PSoC5/ADC_1_Ext_CP_Clk.c **** *   - CYCLK_SRC_SEL_PLL
 410:Generated_Source\PSoC5/ADC_1_Ext_CP_Clk.c **** *   - CYCLK_SRC_SEL_XTALK
 411:Generated_Source\PSoC5/ADC_1_Ext_CP_Clk.c **** *   - CYCLK_SRC_SEL_DSI_G
 412:Generated_Source\PSoC5/ADC_1_Ext_CP_Clk.c **** *   - CYCLK_SRC_SEL_DSI_D/CYCLK_SRC_SEL_DSI_A
 413:Generated_Source\PSoC5/ADC_1_Ext_CP_Clk.c **** *   See the Technical Reference Manual for details on clock sources.
 414:Generated_Source\PSoC5/ADC_1_Ext_CP_Clk.c **** *
 415:Generated_Source\PSoC5/ADC_1_Ext_CP_Clk.c **** * Returns:
 416:Generated_Source\PSoC5/ADC_1_Ext_CP_Clk.c **** *  None
ARM GAS  C:\Users\JEFFSN~1\AppData\Local\Temp\ccqi9MMv.s 			page 56


 417:Generated_Source\PSoC5/ADC_1_Ext_CP_Clk.c **** *
 418:Generated_Source\PSoC5/ADC_1_Ext_CP_Clk.c **** *******************************************************************************/
 419:Generated_Source\PSoC5/ADC_1_Ext_CP_Clk.c **** void ADC_1_Ext_CP_Clk_SetSourceRegister(uint8 clkSource) 
 420:Generated_Source\PSoC5/ADC_1_Ext_CP_Clk.c **** {
 421:Generated_Source\PSoC5/ADC_1_Ext_CP_Clk.c ****     uint16 currDiv = ADC_1_Ext_CP_Clk_GetDividerRegister();
 422:Generated_Source\PSoC5/ADC_1_Ext_CP_Clk.c ****     uint8 oldSrc = ADC_1_Ext_CP_Clk_GetSourceRegister();
 423:Generated_Source\PSoC5/ADC_1_Ext_CP_Clk.c **** 
 424:Generated_Source\PSoC5/ADC_1_Ext_CP_Clk.c ****     if (((oldSrc != ((uint8)CYCLK_SRC_SEL_CLK_SYNC_D)) && 
 425:Generated_Source\PSoC5/ADC_1_Ext_CP_Clk.c ****         (clkSource == ((uint8)CYCLK_SRC_SEL_CLK_SYNC_D))) && (currDiv == 0u))
 426:Generated_Source\PSoC5/ADC_1_Ext_CP_Clk.c ****     {
 427:Generated_Source\PSoC5/ADC_1_Ext_CP_Clk.c ****         /* Switching to Master and divider is 1, set SSS, which will output master, */
 428:Generated_Source\PSoC5/ADC_1_Ext_CP_Clk.c ****         /* then set the source so we are consistent.                                */
 429:Generated_Source\PSoC5/ADC_1_Ext_CP_Clk.c ****         ADC_1_Ext_CP_Clk_MOD_SRC |= CYCLK_SSS;
 430:Generated_Source\PSoC5/ADC_1_Ext_CP_Clk.c ****         ADC_1_Ext_CP_Clk_MOD_SRC =
 431:Generated_Source\PSoC5/ADC_1_Ext_CP_Clk.c ****             (ADC_1_Ext_CP_Clk_MOD_SRC & (uint8)(~ADC_1_Ext_CP_Clk_SRC_SEL_MSK)) | clkSource;
 432:Generated_Source\PSoC5/ADC_1_Ext_CP_Clk.c ****     }
 433:Generated_Source\PSoC5/ADC_1_Ext_CP_Clk.c ****     else if (((oldSrc == ((uint8)CYCLK_SRC_SEL_CLK_SYNC_D)) && 
 434:Generated_Source\PSoC5/ADC_1_Ext_CP_Clk.c ****             (clkSource != ((uint8)CYCLK_SRC_SEL_CLK_SYNC_D))) && (currDiv == 0u))
 435:Generated_Source\PSoC5/ADC_1_Ext_CP_Clk.c ****     {
 436:Generated_Source\PSoC5/ADC_1_Ext_CP_Clk.c ****         /* Switching from Master to not and divider is 1, set source, so we don't   */
 437:Generated_Source\PSoC5/ADC_1_Ext_CP_Clk.c ****         /* lock when we clear SSS.                                                  */
 438:Generated_Source\PSoC5/ADC_1_Ext_CP_Clk.c ****         ADC_1_Ext_CP_Clk_MOD_SRC =
 439:Generated_Source\PSoC5/ADC_1_Ext_CP_Clk.c ****             (ADC_1_Ext_CP_Clk_MOD_SRC & (uint8)(~ADC_1_Ext_CP_Clk_SRC_SEL_MSK)) | clkSource;
 440:Generated_Source\PSoC5/ADC_1_Ext_CP_Clk.c ****         ADC_1_Ext_CP_Clk_MOD_SRC &= (uint8)(~CYCLK_SSS);
 441:Generated_Source\PSoC5/ADC_1_Ext_CP_Clk.c ****     }
 442:Generated_Source\PSoC5/ADC_1_Ext_CP_Clk.c ****     else
 443:Generated_Source\PSoC5/ADC_1_Ext_CP_Clk.c ****     {
 444:Generated_Source\PSoC5/ADC_1_Ext_CP_Clk.c ****         ADC_1_Ext_CP_Clk_MOD_SRC =
 445:Generated_Source\PSoC5/ADC_1_Ext_CP_Clk.c ****             (ADC_1_Ext_CP_Clk_MOD_SRC & (uint8)(~ADC_1_Ext_CP_Clk_SRC_SEL_MSK)) | clkSource;
 446:Generated_Source\PSoC5/ADC_1_Ext_CP_Clk.c ****     }
 447:Generated_Source\PSoC5/ADC_1_Ext_CP_Clk.c **** }
 448:Generated_Source\PSoC5/ADC_1_Ext_CP_Clk.c **** 
 449:Generated_Source\PSoC5/ADC_1_Ext_CP_Clk.c **** 
 450:Generated_Source\PSoC5/ADC_1_Ext_CP_Clk.c **** /*******************************************************************************
 451:Generated_Source\PSoC5/ADC_1_Ext_CP_Clk.c **** * Function Name: ADC_1_Ext_CP_Clk_GetSourceRegister
 452:Generated_Source\PSoC5/ADC_1_Ext_CP_Clk.c **** ********************************************************************************
 453:Generated_Source\PSoC5/ADC_1_Ext_CP_Clk.c **** *
 454:Generated_Source\PSoC5/ADC_1_Ext_CP_Clk.c **** * Summary:
 455:Generated_Source\PSoC5/ADC_1_Ext_CP_Clk.c **** *  Gets the input source of the clock.
 456:Generated_Source\PSoC5/ADC_1_Ext_CP_Clk.c **** *
 457:Generated_Source\PSoC5/ADC_1_Ext_CP_Clk.c **** * Parameters:
 458:Generated_Source\PSoC5/ADC_1_Ext_CP_Clk.c **** *  None
 459:Generated_Source\PSoC5/ADC_1_Ext_CP_Clk.c **** *
 460:Generated_Source\PSoC5/ADC_1_Ext_CP_Clk.c **** * Returns:
 461:Generated_Source\PSoC5/ADC_1_Ext_CP_Clk.c **** *  The input source of the clock. See SetSourceRegister for details.
 462:Generated_Source\PSoC5/ADC_1_Ext_CP_Clk.c **** *
 463:Generated_Source\PSoC5/ADC_1_Ext_CP_Clk.c **** *******************************************************************************/
 464:Generated_Source\PSoC5/ADC_1_Ext_CP_Clk.c **** uint8 ADC_1_Ext_CP_Clk_GetSourceRegister(void) 
 465:Generated_Source\PSoC5/ADC_1_Ext_CP_Clk.c **** {
 905              		.loc 1 465 0
 906              		.cfi_startproc
 907              		@ args = 0, pretend = 0, frame = 0
 908              		@ frame_needed = 0, uses_anonymous_args = 0
 909              		@ link register save eliminated.
 466:Generated_Source\PSoC5/ADC_1_Ext_CP_Clk.c ****     return ADC_1_Ext_CP_Clk_MOD_SRC & ADC_1_Ext_CP_Clk_SRC_SEL_MSK;
 910              		.loc 1 466 0
 911 0000 024B     		ldr	r3, .L30
ARM GAS  C:\Users\JEFFSN~1\AppData\Local\Temp\ccqi9MMv.s 			page 57


 912 0002 1878     		ldrb	r0, [r3]	@ zero_extendqisi2
 467:Generated_Source\PSoC5/ADC_1_Ext_CP_Clk.c **** }
 913              		.loc 1 467 0
 914 0004 00F00700 		and	r0, r0, #7
 915 0008 7047     		bx	lr
 916              	.L31:
 917 000a 00BF     		.align	2
 918              	.L30:
 919 000c 82400040 		.word	1073758338
 920              		.cfi_endproc
 921              	.LFE10:
 922              		.size	ADC_1_Ext_CP_Clk_GetSourceRegister, .-ADC_1_Ext_CP_Clk_GetSourceRegister
 923              		.section	.text.ADC_1_Ext_CP_Clk_SetDividerRegister,"ax",%progbits
 924              		.align	2
 925              		.global	ADC_1_Ext_CP_Clk_SetDividerRegister
 926              		.thumb
 927              		.thumb_func
 928              		.type	ADC_1_Ext_CP_Clk_SetDividerRegister, %function
 929              	ADC_1_Ext_CP_Clk_SetDividerRegister:
 930              	.LFB4:
 195:Generated_Source\PSoC5/ADC_1_Ext_CP_Clk.c ****     uint8 enabled;
 931              		.loc 1 195 0
 932              		.cfi_startproc
 933              		@ args = 0, pretend = 0, frame = 0
 934              		@ frame_needed = 0, uses_anonymous_args = 0
 935              	.LVL7:
 936 0000 70B5     		push	{r4, r5, r6, lr}
 937              		.cfi_def_cfa_offset 16
 938              		.cfi_offset 4, -16
 939              		.cfi_offset 5, -12
 940              		.cfi_offset 6, -8
 941              		.cfi_offset 14, -4
 942 0002 0546     		mov	r5, r0
 943 0004 0E46     		mov	r6, r1
 198:Generated_Source\PSoC5/ADC_1_Ext_CP_Clk.c ****     uint16 oldDivider = ADC_1_Ext_CP_Clk_GetDividerRegister();
 944              		.loc 1 198 0
 945 0006 FFF7FEFF 		bl	ADC_1_Ext_CP_Clk_GetSourceRegister
 946              	.LVL8:
 947 000a 0446     		mov	r4, r0
 948              	.LVL9:
 199:Generated_Source\PSoC5/ADC_1_Ext_CP_Clk.c **** 
 949              		.loc 1 199 0
 950 000c FFF7FEFF 		bl	ADC_1_Ext_CP_Clk_GetDividerRegister
 951              	.LVL10:
 201:Generated_Source\PSoC5/ADC_1_Ext_CP_Clk.c ****     {
 952              		.loc 1 201 0
 953 0010 A842     		cmp	r0, r5
 954 0012 56D0     		beq	.L32
 203:Generated_Source\PSoC5/ADC_1_Ext_CP_Clk.c **** 
 955              		.loc 1 203 0
 956 0014 2B4B     		ldr	r3, .L45
 957 0016 1B78     		ldrb	r3, [r3]	@ zero_extendqisi2
 958 0018 03F00102 		and	r2, r3, #1
 959              	.LVL11:
 205:Generated_Source\PSoC5/ADC_1_Ext_CP_Clk.c ****         {
 960              		.loc 1 205 0
 961 001c 94B9     		cbnz	r4, .L34
ARM GAS  C:\Users\JEFFSN~1\AppData\Local\Temp\ccqi9MMv.s 			page 58


 205:Generated_Source\PSoC5/ADC_1_Ext_CP_Clk.c ****         {
 962              		.loc 1 205 0 is_stmt 0 discriminator 1
 963 001e 00B1     		cbz	r0, .L35
 205:Generated_Source\PSoC5/ADC_1_Ext_CP_Clk.c ****         {
 964              		.loc 1 205 0 discriminator 2
 965 0020 85B9     		cbnz	r5, .L34
 966              	.L35:
 208:Generated_Source\PSoC5/ADC_1_Ext_CP_Clk.c ****             {
 967              		.loc 1 208 0 is_stmt 1
 968 0022 38B9     		cbnz	r0, .L36
 213:Generated_Source\PSoC5/ADC_1_Ext_CP_Clk.c ****                 ADC_1_Ext_CP_Clk_MOD_SRC &= (uint8)(~CYCLK_SSS);
 969              		.loc 1 213 0
 970 0024 284B     		ldr	r3, .L45+4
 971 0026 1D80     		strh	r5, [r3]	@ movhi
 214:Generated_Source\PSoC5/ADC_1_Ext_CP_Clk.c ****             }
 972              		.loc 1 214 0
 973 0028 284A     		ldr	r2, .L45+8
 974              	.LVL12:
 975 002a 1378     		ldrb	r3, [r2]	@ zero_extendqisi2
 976 002c 03F0BF03 		and	r3, r3, #191
 977 0030 1370     		strb	r3, [r2]
 978 0032 70BD     		pop	{r4, r5, r6, pc}
 979              	.LVL13:
 980              	.L36:
 220:Generated_Source\PSoC5/ADC_1_Ext_CP_Clk.c ****                 CY_SET_REG16(ADC_1_Ext_CP_Clk_DIV_PTR, clkDivider);
 981              		.loc 1 220 0
 982 0034 254A     		ldr	r2, .L45+8
 983              	.LVL14:
 984 0036 1378     		ldrb	r3, [r2]	@ zero_extendqisi2
 985              	.LVL15:
 986 0038 43F04003 		orr	r3, r3, #64
 987 003c 1370     		strb	r3, [r2]
 221:Generated_Source\PSoC5/ADC_1_Ext_CP_Clk.c ****             }
 988              		.loc 1 221 0
 989 003e 224B     		ldr	r3, .L45+4
 990 0040 1D80     		strh	r5, [r3]	@ movhi
 991 0042 70BD     		pop	{r4, r5, r6, pc}
 992              	.LVL16:
 993              	.L34:
 227:Generated_Source\PSoC5/ADC_1_Ext_CP_Clk.c ****             {
 994              		.loc 1 227 0
 995 0044 22B3     		cbz	r2, .L37
 229:Generated_Source\PSoC5/ADC_1_Ext_CP_Clk.c **** 
 996              		.loc 1 229 0
 997 0046 0023     		movs	r3, #0
 998 0048 2149     		ldr	r1, .L45+12
 999 004a 0B70     		strb	r3, [r1]
 236:Generated_Source\PSoC5/ADC_1_Ext_CP_Clk.c ****                 CLK_DIST_AMASK = 0x00u;
 1000              		.loc 1 236 0
 1001 004c 0124     		movs	r4, #1
 1002              	.LVL17:
 1003 004e 0F31     		adds	r1, r1, #15
 1004 0050 0C70     		strb	r4, [r1]
 237:Generated_Source\PSoC5/ADC_1_Ext_CP_Clk.c **** #endif /* ADC_1_Ext_CP_Clk__CFG3 */
 1005              		.loc 1 237 0
 1006 0052 0431     		adds	r1, r1, #4
 1007 0054 0B70     		strb	r3, [r1]
ARM GAS  C:\Users\JEFFSN~1\AppData\Local\Temp\ccqi9MMv.s 			page 59


 240:Generated_Source\PSoC5/ADC_1_Ext_CP_Clk.c **** 
 1008              		.loc 1 240 0
 1009 0056 0C39     		subs	r1, r1, #12
 1010 0058 0B78     		ldrb	r3, [r1]	@ zero_extendqisi2
 1011 005a 03F07F03 		and	r3, r3, #127
 1012 005e 0B70     		strb	r3, [r1]
 243:Generated_Source\PSoC5/ADC_1_Ext_CP_Clk.c ****                 {
 1013              		.loc 1 243 0
 1014 0060 1A4B     		ldr	r3, .L45+8
 1015 0062 1B78     		ldrb	r3, [r3]	@ zero_extendqisi2
 1016 0064 13F0080F 		tst	r3, #8
 1017 0068 00D0     		beq	.L38
 243:Generated_Source\PSoC5/ADC_1_Ext_CP_Clk.c ****                 {
 1018              		.loc 1 243 0 is_stmt 0 discriminator 1
 1019 006a 8DB9     		cbnz	r5, .L37
 1020              	.L38:
 246:Generated_Source\PSoC5/ADC_1_Ext_CP_Clk.c ****                     CLK_DIST_LD = CYCLK_LD_DISABLE|CYCLK_LD_SYNC_EN|CYCLK_LD_LOAD;
 1021              		.loc 1 246 0 is_stmt 1
 1022 006c 194B     		ldr	r3, .L45+16
 1023 006e 1880     		strh	r0, [r3]	@ movhi
 247:Generated_Source\PSoC5/ADC_1_Ext_CP_Clk.c **** 
 1024              		.loc 1 247 0
 1025 0070 0721     		movs	r1, #7
 1026 0072 013B     		subs	r3, r3, #1
 1027 0074 1970     		strb	r1, [r3]
 1028              	.L39:
 250:Generated_Source\PSoC5/ADC_1_Ext_CP_Clk.c **** #endif /* HAS_CLKDIST_LD_DISABLE */
 1029              		.loc 1 250 0 discriminator 1
 1030 0076 164B     		ldr	r3, .L45+12
 1031 0078 1B78     		ldrb	r3, [r3]	@ zero_extendqisi2
 1032 007a 13F0010F 		tst	r3, #1
 1033 007e FAD1     		bne	.L39
 253:Generated_Source\PSoC5/ADC_1_Ext_CP_Clk.c **** 
 1034              		.loc 1 253 0
 1035 0080 1049     		ldr	r1, .L45
 1036 0082 0B78     		ldrb	r3, [r1]	@ zero_extendqisi2
 1037 0084 03F0FE03 		and	r3, r3, #254
 1038 0088 0B70     		strb	r3, [r1]
 257:Generated_Source\PSoC5/ADC_1_Ext_CP_Clk.c **** #endif /* HAS_CLKDIST_LD_DISABLE */
 1039              		.loc 1 257 0
 1040 008a 0021     		movs	r1, #0
 1041 008c 104B     		ldr	r3, .L45+12
 1042 008e 1970     		strb	r1, [r3]
 1043              	.L37:
 263:Generated_Source\PSoC5/ADC_1_Ext_CP_Clk.c ****             {
 1044              		.loc 1 263 0
 1045 0090 0C4B     		ldr	r3, .L45
 1046 0092 1B78     		ldrb	r3, [r3]	@ zero_extendqisi2
 1047 0094 13F0010F 		tst	r3, #1
 1048 0098 0DD0     		beq	.L40
 266:Generated_Source\PSoC5/ADC_1_Ext_CP_Clk.c **** 
 1049              		.loc 1 266 0
 1050 009a 0E4B     		ldr	r3, .L45+16
 1051 009c 1D80     		strh	r5, [r3]	@ movhi
 268:Generated_Source\PSoC5/ADC_1_Ext_CP_Clk.c ****                 while ((CLK_DIST_LD & CYCLK_LD_LOAD) != 0u) { }
 1052              		.loc 1 268 0
 1053 009e 0EB1     		cbz	r6, .L43
ARM GAS  C:\Users\JEFFSN~1\AppData\Local\Temp\ccqi9MMv.s 			page 60


 1054 00a0 0322     		movs	r2, #3
 1055              	.LVL18:
 1056 00a2 00E0     		b	.L41
 1057              	.LVL19:
 1058              	.L43:
 1059 00a4 0122     		movs	r2, #1
 1060              	.LVL20:
 1061              	.L41:
 268:Generated_Source\PSoC5/ADC_1_Ext_CP_Clk.c ****                 while ((CLK_DIST_LD & CYCLK_LD_LOAD) != 0u) { }
 1062              		.loc 1 268 0 is_stmt 0 discriminator 4
 1063 00a6 0A4B     		ldr	r3, .L45+12
 1064 00a8 1A70     		strb	r2, [r3]
 1065              	.L42:
 269:Generated_Source\PSoC5/ADC_1_Ext_CP_Clk.c ****             }
 1066              		.loc 1 269 0 is_stmt 1 discriminator 1
 1067 00aa 094B     		ldr	r3, .L45+12
 1068 00ac 1B78     		ldrb	r3, [r3]	@ zero_extendqisi2
 1069 00ae 13F0010F 		tst	r3, #1
 1070 00b2 FAD1     		bne	.L42
 1071 00b4 70BD     		pop	{r4, r5, r6, pc}
 1072              	.LVL21:
 1073              	.L40:
 274:Generated_Source\PSoC5/ADC_1_Ext_CP_Clk.c **** 				ADC_1_Ext_CP_Clk_CLKEN |= enabled;
 1074              		.loc 1 274 0
 1075 00b6 044B     		ldr	r3, .L45+4
 1076 00b8 1D80     		strh	r5, [r3]	@ movhi
 275:Generated_Source\PSoC5/ADC_1_Ext_CP_Clk.c ****             }
 1077              		.loc 1 275 0
 1078 00ba 0249     		ldr	r1, .L45
 1079 00bc 0B78     		ldrb	r3, [r1]	@ zero_extendqisi2
 1080 00be 1343     		orrs	r3, r3, r2
 1081 00c0 0B70     		strb	r3, [r1]
 1082              	.LVL22:
 1083              	.L32:
 1084 00c2 70BD     		pop	{r4, r5, r6, pc}
 1085              	.L46:
 1086              		.align	2
 1087              	.L45:
 1088 00c4 A2430040 		.word	1073759138
 1089 00c8 80400040 		.word	1073758336
 1090 00cc 82400040 		.word	1073758338
 1091 00d0 01400040 		.word	1073758209
 1092 00d4 02400040 		.word	1073758210
 1093              		.cfi_endproc
 1094              	.LFE4:
 1095              		.size	ADC_1_Ext_CP_Clk_SetDividerRegister, .-ADC_1_Ext_CP_Clk_SetDividerRegister
 1096              		.section	.text.ADC_1_Ext_CP_Clk_SetSourceRegister,"ax",%progbits
 1097              		.align	2
 1098              		.global	ADC_1_Ext_CP_Clk_SetSourceRegister
 1099              		.thumb
 1100              		.thumb_func
 1101              		.type	ADC_1_Ext_CP_Clk_SetSourceRegister, %function
 1102              	ADC_1_Ext_CP_Clk_SetSourceRegister:
 1103              	.LFB9:
 420:Generated_Source\PSoC5/ADC_1_Ext_CP_Clk.c ****     uint16 currDiv = ADC_1_Ext_CP_Clk_GetDividerRegister();
 1104              		.loc 1 420 0
 1105              		.cfi_startproc
ARM GAS  C:\Users\JEFFSN~1\AppData\Local\Temp\ccqi9MMv.s 			page 61


 1106              		@ args = 0, pretend = 0, frame = 0
 1107              		@ frame_needed = 0, uses_anonymous_args = 0
 1108              	.LVL23:
 1109 0000 38B5     		push	{r3, r4, r5, lr}
 1110              		.cfi_def_cfa_offset 16
 1111              		.cfi_offset 3, -16
 1112              		.cfi_offset 4, -12
 1113              		.cfi_offset 5, -8
 1114              		.cfi_offset 14, -4
 1115 0002 0446     		mov	r4, r0
 421:Generated_Source\PSoC5/ADC_1_Ext_CP_Clk.c ****     uint8 oldSrc = ADC_1_Ext_CP_Clk_GetSourceRegister();
 1116              		.loc 1 421 0
 1117 0004 FFF7FEFF 		bl	ADC_1_Ext_CP_Clk_GetDividerRegister
 1118              	.LVL24:
 1119 0008 0546     		mov	r5, r0
 1120              	.LVL25:
 422:Generated_Source\PSoC5/ADC_1_Ext_CP_Clk.c **** 
 1121              		.loc 1 422 0
 1122 000a FFF7FEFF 		bl	ADC_1_Ext_CP_Clk_GetSourceRegister
 1123              	.LVL26:
 424:Generated_Source\PSoC5/ADC_1_Ext_CP_Clk.c ****         (clkSource == ((uint8)CYCLK_SRC_SEL_CLK_SYNC_D))) && (currDiv == 0u))
 1124              		.loc 1 424 0
 1125 000e 0346     		mov	r3, r0
 1126 0010 60B1     		cbz	r0, .L48
 424:Generated_Source\PSoC5/ADC_1_Ext_CP_Clk.c ****         (clkSource == ((uint8)CYCLK_SRC_SEL_CLK_SYNC_D))) && (currDiv == 0u))
 1127              		.loc 1 424 0 is_stmt 0 discriminator 1
 1128 0012 5CB9     		cbnz	r4, .L48
 425:Generated_Source\PSoC5/ADC_1_Ext_CP_Clk.c ****     {
 1129              		.loc 1 425 0 is_stmt 1
 1130 0014 55B9     		cbnz	r5, .L48
 429:Generated_Source\PSoC5/ADC_1_Ext_CP_Clk.c ****         ADC_1_Ext_CP_Clk_MOD_SRC =
 1131              		.loc 1 429 0
 1132 0016 104A     		ldr	r2, .L52
 1133 0018 1378     		ldrb	r3, [r2]	@ zero_extendqisi2
 1134 001a 43F04003 		orr	r3, r3, #64
 1135 001e 1370     		strb	r3, [r2]
 431:Generated_Source\PSoC5/ADC_1_Ext_CP_Clk.c ****     }
 1136              		.loc 1 431 0
 1137 0020 1378     		ldrb	r3, [r2]	@ zero_extendqisi2
 430:Generated_Source\PSoC5/ADC_1_Ext_CP_Clk.c ****             (ADC_1_Ext_CP_Clk_MOD_SRC & (uint8)(~ADC_1_Ext_CP_Clk_SRC_SEL_MSK)) | clkSource;
 1138              		.loc 1 430 0
 1139 0022 03F0F803 		and	r3, r3, #248
 1140 0026 1C43     		orrs	r4, r4, r3
 1141 0028 1470     		strb	r4, [r2]
 1142 002a 38BD     		pop	{r3, r4, r5, pc}
 1143              	.LVL27:
 1144              	.L48:
 433:Generated_Source\PSoC5/ADC_1_Ext_CP_Clk.c ****             (clkSource != ((uint8)CYCLK_SRC_SEL_CLK_SYNC_D))) && (currDiv == 0u))
 1145              		.loc 1 433 0
 1146 002c 63B9     		cbnz	r3, .L50
 433:Generated_Source\PSoC5/ADC_1_Ext_CP_Clk.c ****             (clkSource != ((uint8)CYCLK_SRC_SEL_CLK_SYNC_D))) && (currDiv == 0u))
 1147              		.loc 1 433 0 is_stmt 0 discriminator 1
 1148 002e 5CB1     		cbz	r4, .L50
 434:Generated_Source\PSoC5/ADC_1_Ext_CP_Clk.c ****     {
 1149              		.loc 1 434 0 is_stmt 1
 1150 0030 55B9     		cbnz	r5, .L50
 439:Generated_Source\PSoC5/ADC_1_Ext_CP_Clk.c ****         ADC_1_Ext_CP_Clk_MOD_SRC &= (uint8)(~CYCLK_SSS);
ARM GAS  C:\Users\JEFFSN~1\AppData\Local\Temp\ccqi9MMv.s 			page 62


 1151              		.loc 1 439 0
 1152 0032 094A     		ldr	r2, .L52
 1153 0034 1378     		ldrb	r3, [r2]	@ zero_extendqisi2
 438:Generated_Source\PSoC5/ADC_1_Ext_CP_Clk.c ****             (ADC_1_Ext_CP_Clk_MOD_SRC & (uint8)(~ADC_1_Ext_CP_Clk_SRC_SEL_MSK)) | clkSource;
 1154              		.loc 1 438 0
 1155 0036 03F0F803 		and	r3, r3, #248
 1156 003a 1C43     		orrs	r4, r4, r3
 1157 003c 1470     		strb	r4, [r2]
 440:Generated_Source\PSoC5/ADC_1_Ext_CP_Clk.c ****     }
 1158              		.loc 1 440 0
 1159 003e 1378     		ldrb	r3, [r2]	@ zero_extendqisi2
 1160 0040 03F0BF03 		and	r3, r3, #191
 1161 0044 1370     		strb	r3, [r2]
 1162 0046 38BD     		pop	{r3, r4, r5, pc}
 1163              	.LVL28:
 1164              	.L50:
 445:Generated_Source\PSoC5/ADC_1_Ext_CP_Clk.c ****     }
 1165              		.loc 1 445 0
 1166 0048 034A     		ldr	r2, .L52
 1167 004a 1378     		ldrb	r3, [r2]	@ zero_extendqisi2
 444:Generated_Source\PSoC5/ADC_1_Ext_CP_Clk.c ****             (ADC_1_Ext_CP_Clk_MOD_SRC & (uint8)(~ADC_1_Ext_CP_Clk_SRC_SEL_MSK)) | clkSource;
 1168              		.loc 1 444 0
 1169 004c 03F0F803 		and	r3, r3, #248
 1170 0050 1C43     		orrs	r4, r4, r3
 1171 0052 1470     		strb	r4, [r2]
 1172 0054 38BD     		pop	{r3, r4, r5, pc}
 1173              	.LVL29:
 1174              	.L53:
 1175 0056 00BF     		.align	2
 1176              	.L52:
 1177 0058 82400040 		.word	1073758338
 1178              		.cfi_endproc
 1179              	.LFE9:
 1180              		.size	ADC_1_Ext_CP_Clk_SetSourceRegister, .-ADC_1_Ext_CP_Clk_SetSourceRegister
 1181              		.text
 1182              	.Letext0:
 1183              		.file 2 "Generated_Source\\PSoC5/cytypes.h"