ARM GAS  C:\Users\JEFFSN~1\AppData\Local\Temp\ccDY4g2R.s 			page 1


   1              		.syntax unified
   2              		.cpu cortex-m3
   3              		.fpu softvfp
   4              		.eabi_attribute 20, 1
   5              		.eabi_attribute 21, 1
   6              		.eabi_attribute 23, 3
   7              		.eabi_attribute 24, 1
   8              		.eabi_attribute 25, 1
   9              		.eabi_attribute 26, 1
  10              		.eabi_attribute 30, 2
  11              		.eabi_attribute 34, 1
  12              		.eabi_attribute 18, 4
  13              		.thumb
  14              		.syntax unified
  15              		.file	"AMux_1.c"
  16              		.text
  17              	.Ltext0:
  18              		.section	.gnu.lto_.profile.a80cc548,"",%progbits
  19 0000 789C6361 		.ascii	"x\234ca`d`e`\000\222M\214*\000\002*\000\263"
  19      60646065 
  19      6000924D 
  19      8C2A0002 
  19      2A00B3
  20              		.text
  21              		.section	.gnu.lto_.icf.a80cc548,"",%progbits
  22 0000 789C6361 		.ascii	"x\234ca`d\000\001y\006\004`e\370v\342\224\034c\367\234"
  22      60640001 
  22      79060460 
  22      65F876E2 
  22      941C63F7 
  23 0015 B61BAC4C 		.ascii	"\266\033\254L\257>\376\177\303\303|\352\306\315fN\226"
  23      AF3EFE7F 
  23      C3C37CEA 
  23      C6CD664E 
  23      96
  24 0026 75D76E1E 		.ascii	"u\327n\036de\000\000\3677\017`"
  24      64650000 
  24      F7370F60 
  25              		.text
  26              		.section	.gnu.lto_.jmpfuncs.a80cc548,"",%progbits
  27 0000 789C6361 		.ascii	"x\234ca`d\000\0017\006\004`\001b&\030fdd\254gb\252\004"
  27      60640001 
  27      37060460 
  27      01622618 
  27      666464AC 
  28 0018 89C32828 		.ascii	"\211\303((f\006J1\241J\261 d\031\000z\316\002\340"
  28      66064A31 
  28      A14AB120 
  28      6419007A 
  28      CE02E0
  29              		.text
  30              		.section	.gnu.lto_.inline.a80cc548,"",%progbits
  31 0000 789C6361 		.ascii	"x\234ca`d\000\201)\014\010\300\302\300\300m\316\310"
  31      60640081 
  31      290C08C0 
  31      C2C0C06D 
  31      CEC8
ARM GAS  C:\Users\JEFFSN~1\AppData\Local\Temp\ccDY4g2R.s 			page 2


  32 0012 C0C471A1 		.ascii	"\300\304q\241\207\221\201m\201<\023H\220\211\233\221"
  32      8791816D 
  32      813C1348 
  32      90899B91 
  33 0022 8171821F 		.ascii	"\201q\202\037\214b\340\327\002\2518`\207\244\200\001"
  33      8C62E0D7 
  33      02A93860 
  33      87A48001 
  34 0032 A2000BC5 		.ascii	"\242\000\013\305\314\300.\001T\016T\205]5\013\003\267"
  34      CCC02E01 
  34      540E5485 
  34      5D350B03 
  34      B7
  35 0043 30C8B853 		.ascii	"0\310\270S\0268\0240\000\000<\210\0216"
  35      16381430 
  35      00003C88 
  35      1136
  36              		.text
  37              		.section	.gnu.lto_.pureconst.a80cc548,"",%progbits
  38 0000 789C6361 		.ascii	"x\234ca`d\340d```a\220`\222`\226`\221\000\000\002\235"
  38      6064E064 
  38      60606061 
  38      90609260 
  38      96609100 
  39 0017 007C     		.ascii	"\000|"
  40              		.text
  41              		.section	.gnu.lto_AMux_1_Start.a80cc548,"",%progbits
  42 0000 789C7551 		.ascii	"x\234uQ=h\024Q\020\236\357\315\333\315q\344 \225EHq"
  42      3D681451 
  42      109EEFCD 
  42      DBCD71E4 
  42      20954548 
  43 0015 2041D204 		.ascii	" A\322\004\305\010\266ba\245\210i\003!\234\0076&\020"
  43      C508B662 
  43      61A58869 
  43      03219C07 
  43      362610
  44 0028 0C68B5EF 		.ascii	"\014h\265\357no\215\222F\220DAb\012\213\304\237xY!\305"
  44      6E6F8D92 
  44      46904441 
  44      620A8BC4 
  44      9F785921 
  45 003d A1C51A82 		.ascii	"\241\305\032\202U\360\212 \026\"\350\025G\010\012\211"
  45      55F08A20 
  45      1622E815 
  45      47080A89 
  46 004d 24655C67 		.ascii	"$e\\gv\005\005q\330}\3571\357\373f\276o\236%\220\306"
  46      76050571 
  46      D87DEF31 
  46      EFFB66BE 
  46      6F9E2590 
  47 0062 B0213A21 		.ascii	"\260!:!\373%\371\341\023\314\275\367D\265\202\201\315"
  47      FB25F9E1 
  47      13CCBDF7 
  47      44B58281 
  47      CD
  48 0073 0F9C1FDE 		.ascii	"\017\234\037\336\026\254\341\271\021rE/\352'\327\353"
ARM GAS  C:\Users\JEFFSN~1\AppData\Local\Temp\ccDY4g2R.s 			page 3


  48      16ACE1B9 
  48      1172452F 
  48      EA27D7EB 
  49 0083 019A7605 		.ascii	"\001\232v\005P`\330z\010\214%$\026&[\264\362\24192\330"
  49      5060D87A 
  49      088C2524 
  49      16265BB4 
  49      F2A13932 
  50 0098 98EDB6CC 		.ascii	"\230\355\266\314\320\262\223\370\022\335g\267\222 b"
  50      D0B293F8 
  50      12DD67B7 
  50      922062
  51 00a7 A2344348 		.ascii	"\2424CH\307e\014\221\300\0367;\237{\3718\364\274\035"
  51      C7650C91 
  51      C01E373B 
  51      9F7BF938 
  51      F4BC1D
  52 00ba 1F7EF707 		.ascii	"\037~\367\007\2378Ww\311\342\365\007.\251\225#\006V"
  52      9F385777 
  52      C9E2F507 
  52      2EA99523 
  52      0656
  53 00cc C0C2C2E9 		.ascii	"\300\302\302\351\001\234\034\310\270\002\355\304?\347"
  53      019C1CC8 
  53      B802EDC4 
  53      3FE7
  54 00da 4B7E43AB 		.ascii	"K~C\253\227\361\024\203y]<\203/\346\240\231\346\225"
  54      97F11483 
  54      795D3C83 
  54      2FE6A099 
  54      E695
  55 00ec C4A569E8 		.ascii	"\304\245i\350\222G\336*\213X\315\371\331J\264'`1\263"
  55      9247DE2A 
  55      8B58CDF9 
  55      D94AB427 
  55      6031B3
  56 00ff 6F8C6CDC 		.ascii	"o\214l\334A=\211oe\\\271\225\342\013\321F\273\347\300"
  56      413D896F 
  56      655CB995 
  56      E20BD146 
  56      BBE7C0
  57 0112 686FC273 		.ascii	"ho\302sh\323}\30347\302;h$\257\253\012U\021\255\326"
  57      68D37DC3 
  57      3437C23B 
  57      6824AFAB 
  57      0A5511AD 
  58 0127 B74F3DC1 		.ascii	"\267O=\301\221\273\343\\_\304&5\332\373\005\002\012"
  58      91BBE35C 
  58      5FC42635 
  58      DAFB0502 
  58      0A
  59 0138 59BC3229 		.ascii	"Y\2742)\372\015\376\213\026\021X\375\203\356\"\\\270"
  59      FA0DFE8B 
  59      161158FD 
  59      83EE225C 
  59      B8
  60 0149 FD6EBEA4 		.ascii	"\375n\276\244\370\220\345\203\220\326g\267\342b.\005"
ARM GAS  C:\Users\JEFFSN~1\AppData\Local\Temp\ccDY4g2R.s 			page 4


  60      F890E583 
  60      90D667B7 
  60      E2622E05 
  61 0159 7829523A 		.ascii	"x)R:2\347\337J\005\224)\263$\017\242.\372(O\203\276"
  61      32E7DF4A 
  61      059429B3 
  61      240FA22E 
  61      FA284F83 
  62 016e A2D10E8F 		.ascii	"\242\321\016\217\345\225r\236\304\017)!n\314\016\013"
  62      E595729E 
  62      C40F2921 
  62      6ECC0E0B 
  63 017e 931F9684 		.ascii	"\223\037\226\204\352\251\377.\352\007k\353g\025\375"
  63      EAA9FF2E 
  63      EA076BEB 
  63      6715FD
  64 018d B7798B7F 		.ascii	"\267y\213\177U\333\273\234\317\177w\353\303fq\011\213"
  64      55DBBB9C 
  64      CF7F77EB 
  64      C3667109 
  64      8B
  65 019e 3597E581 		.ascii	"5\227\345\2015\004hj\037\304XR\345\333\341f\233s\345"
  65      3504686A 
  65      1FC45852 
  65      E5DBE166 
  65      9B73E5
  66 01b1 29F04AAE 		.ascii	")\360J\256ve\316\037\275l\034\032{2\256\250_\206P\276"
  66      7665CE1F 
  66      BD6C1C1A 
  66      7B32AEA8 
  66      5F8650BE 
  67 01c5 509DAC4E 		.ascii	"P\235\254NO\334\250^\035\037\235\232\231\256T\307.\217"
  67      4FDCA85E 
  67      1D1F9D9A 
  67      99AE54C7 
  67      2E8F
  68 01d7 4E9D3F33 		.ascii	"N\235?3v\356\342\314\315\361S\303\025\262\225k\023\223"
  68      76EEE2CC 
  68      CDF153C3 
  68      15B2956B 
  68      1393
  69 01e9 BF00B386 		.ascii	"\277\000\263\206\305\374"
  69      C5FC
  70              		.text
  71              		.section	.gnu.lto_AMux_1_FastSelect.a80cc548,"",%progbits
  72 0000 789C8D52 		.ascii	"x\234\215R\317k\023Q\020\236o\336f7\206*^\205(\001)"
  72      CF6B1351 
  72      109E6FDE 
  72      6637862A 
  72      5E852801 
  73 0015 A51E24A2 		.ascii	"\245\036$\242\376\001\342\241'A\3545PJ\014x\220\024"
  73      FE01E2A1 
  73      2741EC35 
  73      504A0C78 
  73      9014
  74 0027 8A056F79 		.ascii	"\212\005oy\371\261\376\270\210\027[\020\245\212H[\255"
  74      F9B1FEB8 
ARM GAS  C:\Users\JEFFSN~1\AppData\Local\Temp\ccDY4g2R.s 			page 5


  74      88175B10 
  74      A58A485B 
  74      AD
  75 0038 C66A5BC9 		.ascii	"\306j[\311mS\025C\221\252\007/VDK)R\2044h\217q\235\367"
  75      6D531543 
  75      91AA072F 
  75      56444B29 
  75      52843468 
  76 0050 621B2416 		.ascii	"b\033$\026\034\330}\217\331\357\373f\346\233u\010db"
  76      1CD87D8F 
  76      D9EFFB66 
  76      E69B7508 
  76      6462
  77 0062 89890EC9 		.ascii	"\211\211\016\311yL\036D\010|}\211(\037eV\265$\351\230"
  77      794C1E44 
  77      087C7D89 
  77      281F6556 
  77      B524E998 
  78 0076 53DB4FBA 		.ascii	"S\333O\272K\301i\245\035\300\\t\024\224c\345 \207Mn"
  78      4BC169A5 
  78      1DC05C74 
  78      149463E5 
  78      20874D6E 
  79 008a 32162EAF 		.ascii	"2\026.\257U\270wBK|yUO\352\311\000\276\"\012\331\226"
  79      55B87742 
  79      4B7C7955 
  79      4FEAC900 
  79      BE220AD9 
  80 009f 204CA057 		.ascii	" L\240WP\323\237^|v\325A\220\334?\316\335\255\356\352"
  80      50D39F5E 
  80      7C76D541 
  80      90DC3FCE 
  80      DDADEEEA 
  81 00b3 B9AF7541 		.ascii	"\271\257uA\353fJ+_\001\223P\302\300\3218\222q\222\004"
  81      EB664A2B 
  81      5F019350 
  81      C2C0D138 
  81      92719204 
  82 00c7 610A3D06 		.ascii	"a\012=\006\2742\363\353\306n\267d\344\023-Q<\200k\372"
  82      BC32F3EB 
  82      C66EB764 
  82      E4132D51 
  82      3C806BFA 
  83 00db 2F9F0974 		.ascii	"/\237\011t\030\026u\020\272\325w^L\011\215#\260<\332"
  83      18167510 
  83      BAD5775E 
  83      4C098D23 
  83      B03CDA
  84 00ee 10A069B6 		.ascii	"\020\240i\266\301lN\265\206\302hc\265\352\031nQ)\321"
  84      C16C4EB5 
  84      86C26863 
  84      B5EA196E 
  84      5129D1
  85 0101 1DF517DE 		.ascii	"\035\365\027\336z?\331W\312\366T\251|_\366rM}E\353\275"
  85      7A3FD957 
  85      CAF654A9 
  85      7C5FF672 
ARM GAS  C:\Users\JEFFSN~1\AppData\Local\Temp\ccDY4g2R.s 			page 6


  85      4D7D45EB 
  86 0116 92BB2A13 		.ascii	"\222\273*\023\230\364\372\233\017/c\343\270\235\327"
  86      98F4FA9B 
  86      0F2F63E3 
  86      B89DD7
  87 0125 360F4CCB 		.ascii	"6\017L\313\330\017\021\227.\036a\034\364\025\245\345"
  87      D80F1197 
  87      2E1E611C 
  87      F415A5E5 
  88 0135 E281B66A 		.ascii	"\342\201\266j\331_\235\212\032UF\010<6@2](\252%\325"
  88      D95F9D8A 
  88      1A554608 
  88      3C364032 
  88      5D28AA25 
  89 014a 0A0AC1D8 		.ascii	"\012\012\301\330\353.\203\026\350\235[\205\372\236\356"
  89      EB2E8316 
  89      E89D5B85 
  89      FA9EEE
  90 0159 7BC685A0 		.ascii	"{\306\205\240yI\215\351 \237\350p\302:XF\267\250\323"
  90      79498DE9 
  90      209FE870 
  90      C23A5846 
  90      B7A8D3
  91 016c 3794821F 		.ascii	"7\224\202\037\213\374\267'\272|m\237\001XWBF\207ex\002"
  91      8BFCB727 
  91      BA7C6D9F 
  91      01585742 
  91      46876578 
  92 0181 573466E4 		.ascii	"W4f\344\3351\246\0232\333\357x\212\034I\015_El\231\315"
  92      DD31A613 
  92      32DBEF78 
  92      8A1C490D 
  92      5F456C99 
  93 0196 45DE91A1 		.ascii	"E\336\221\241Z\214gm\206\031\320\2616\033\356\2545\371"
  93      5A8C676D 
  93      8619D0B1 
  93      361BEEAC 
  93      35F9
  94 01a8 9F54471A 		.ascii	"\237TG\032\231\265\274\310V\245\371\235\321\"\214\271"
  94      99B5BCC8 
  94      56A5F99D 
  94      D1228CB9 
  95 01b8 365A5678 		.ascii	"6ZVx\263Q\317{\177\354\373\337\205\315o/\354\271,L\264"
  95      B351CF7B 
  95      7FECFBDF 
  95      85CD6F2F 
  95      ECB92C4C 
  96 01cd 685DD6F0 		.ascii	"h]\326\360\276\317\2265\261!\246I\357\362\303$\3722"
  96      BECF9635 
  96      B121A649 
  96      EFF2C324 
  96      FA32
  97 01df D9CCF0E0 		.ascii	"\331\314\360\340\205\314\331\201\376\241\221\341t&u"
  97      85CCD981 
  97      FEA191E1 
  97      742675
  98 01ee BA7FE8E4 		.ascii	"\272\177\350\344\361\324\211S#\027\007\216\034N\223"
ARM GAS  C:\Users\JEFFSN~1\AppData\Local\Temp\ccDY4g2R.s 			page 7


  98      F1D48953 
  98      2317078E 
  98      1C4E93
  99 01fd 973E3798 		.ascii	"\227>7\230\315f\316\377\006\353\014\007c"
  99      CD66CEFF 
  99      06EB0C07 
  99      63
 100              		.text
 101              		.section	.gnu.lto_AMux_1_Disconnect.a80cc548,"",%progbits
 102 0000 789C758E 		.ascii	"x\234u\216?KBa\024\207\317\357\274\245&\004\315\345"
 102      3F4B4261 
 102      1487CFEF 
 102      BCA52604 
 102      CDE5
 103 0012 2034880D 		.ascii	" 4\210\015\221D\037 \032\202 \210\\\005\021\273\320"
 103      91441F20 
 103      1A822088 
 103      5C0511BB 
 103      D0
 104 0023 100A92D0 		.ascii	"\020\012\222\320vO\352\245\306\226>@Ch)DC\203\333\265"
 104      764FEAA5 
 104      C6963E40 
 104      43682944 
 104      4383DBB5 
 105 0037 B6863E40 		.ascii	"\266\206>@EDPD4(\375\233\354v^\033\232:\360r\016/\317"
 105      45445044 
 105      3428FD9B 
 105      EC765E1B 
 105      9A3AF072 
 106 004e 79CE6F88 		.ascii	"y\316o\210@\266\306\265Mi\237\320\007C\340\275+\242"
 106      40B6C6B5 
 106      4D699FD0 
 106      0743E0BD 
 106      2BA2
 107 0060 ED080376 		.ascii	"\355\010\003v\220\010\310e\270\370\340>\343|\347\251"
 107      9008C865 
 107      B8F8E03E 
 107      E37CE7A9 
 108 0070 CDC9BA68 		.ascii	"\315\311\272h\335?6S\322\360\341\031\242\200\007&B\035"
 108      DD3F3653 
 108      D2F0E119 
 108      A2800726 
 108      421D
 109 0082 49A55AB7 		.ascii	"I\245Z\267\027w!3\011\322\371\372\354\2403\2228\024"
 109      17772133 
 109      09D2F9FA 
 109      ECA03392 
 109      3814
 110 0094 A988F433 		.ascii	"\251\210\3643b<\0034`t\003\2631\314\304H?\010GHX\370"
 110      623C0334 
 110      607403B3 
 110      31CCC448 
 110      3F084748 
 111 00aa E1F47B7F 		.ascii	"\341\364{\1774T\263\372\370\257\024\307\010\331\230"
 111      3454B3FA 
 111      F8AF14C7 
 111      08D998
ARM GAS  C:\Users\JEFFSN~1\AppData\Local\Temp\ccDY4g2R.s 			page 8


 112 00b9 27ABBE04 		.ascii	"'\253\276\004AU\374^\264\363\031\035\326pv\205\272\312"
 112      4155FC5E 
 112      B4F3191D 
 112      D6707685 
 112      BACA
 113 00cb D8943D66 		.ascii	"\330\224=f\333\3153j\376\333%\333-\353k\267_o\302n_"
 113      DBCD336A 
 113      FEDB25DB 
 113      2DEB6BB7 
 113      5F6FC26E 
 114 00e0 7645C63C 		.ascii	"vE\306<\303\001\253\012M\270T5\354\031C\026\177\217"
 114      C301AB0A 
 114      4DB85435 
 114      EC194316 
 114      7F8F
 115 00f2 FE4BAB1C 		.ascii	"\376K\253\034\255?\372\005\025\377ki@\333\352\252Mo"
 115      AD3FFA05 
 115      15FF6B69 
 115      40DBEAAA 
 115      4D6F
 116 0104 2A145F74 		.ascii	"*\024_t\012N)\267\351\254e\323\305r)\357dV\322\305\205"
 116      0A4E29B7 
 116      E9AC65D3 
 116      C57229EF 
 116      6456D2C5 
 117 0119 B9CCFC72 		.ascii	"\271\314\374ry+\233\232\316S8\277\236+\024\234\215\037"
 117      792B9B9A 
 117      CE5338BF 
 117      9E2B149C 
 117      8D1F
 118 012b 79DD70BA 		.ascii	"y\335p\272"
 119              		.text
 120              		.section	.gnu.lto_AMux_1_DisconnectAll.a80cc548,"",%progbits
 121 0000 789C8D52 		.ascii	"x\234\215R\317KTQ\024>\3379\317y\203Z\264\015,\006\302"
 121      CF4B5451 
 121      143EDF39 
 121      CF79835A 
 121      B40D2C06 
 122 0015 852D62A4 		.ascii	"\205-b\244\372\003\242E\213\010\"\267\202\330\364\240"
 122      FA03A245 
 122      8B0822B7 
 122      82D8F4A0 
 123 0025 458C2009 		.ascii	"E\214 \011\355\346\316\217GE\2336\351\2460p\241\226"
 123      EDE6CE8F 
 123      47459B36 
 123      E9A63070 
 123      A196
 124 0037 358D1531 		.ascii	"5\215\0251\264yM.\006\213$\242Z\030Q\022\022\0228\322"
 124      B4794D2E 
 124      068B24A2 
 124      5A185112 
 124      121238D2 
 125 004b B8B4D7B9 		.ascii	"\270\264\327\271\367E&\021t\341\275\373\370\356w\316"
 125      F7452611 
 125      74E1BDFB 
 125      F8EE77CE 
 126 005b 77BEEF5D 		.ascii	"w\276\357]\217@v\235e\242\203\272\037\321\007\035\004"
ARM GAS  C:\Users\JEFFSN~1\AppData\Local\Temp\ccDY4g2R.s 			page 9


 126      8F40769D 
 126      65A283BA 
 126      1FD1071D 
 126      04
 127 006c BEFE8AA8 		.ascii	"\276\376\212\250\230f\226f\226L\247\327\334G\246[\340"
 127      98669666 
 127      964CA7D7 
 127      DC47A65B 
 127      E0
 128 007d 25B007D8 		.ascii	"%\260\007\330\017\223\006\025X<\024\260\311[\214\306"
 128      0F930615 
 128      583C14B0 
 128      C95B8CC6 
 129 008d E5D53AF7 		.ascii	"\345\325:\367M\033]\237\302'\375f&B(D1;\011\3024\372"
 129      4D1B5D9F 
 129      C227FD66 
 129      26422844 
 129      313B09C2 
 130 00a3 48692BB5 		.ascii	"Hi+\265\0377v\245*\226\226I\0161\203\224\235\243z&2"
 130      1F3776A5 
 130      2A969649 
 130      0E318394 
 130      9DA37A26 
 131 00b8 715C36D1 		.ascii	"q\\6\321\323\256g\357\272|\241P\024n)\305\312m0\333"
 131      D3AE67EF 
 131      BA7CA150 
 131      146E29C5 
 131      CA6D30DB 
 132 00cc 5D56511A 		.ascii	"]VQ\032\257\255\317\373\266\252,\242\035\307\303\306"
 132      AFADCFFB 
 132      B6AA2CA2 
 132      1DC7C3C6 
 133 00dc 92DFE650 		.ascii	"\222\337\346P\030V\240^\377\266\354\027\266\314\025"
 133      1856A05E 
 133      FFB6EC17 
 133      B6CC15
 134 00eb 63F62876 		.ascii	"c\366(vUg\260\360\332\313\267\013\235\223\270U4\016"
 134      5567B0F0 
 134      DACBB70B 
 134      9D93B855 
 134      340E
 135 00fd 17DCD1C1 		.ascii	"\027\334\321\301g\321\243\372w1\011\372\214\312ry\377"
 135      67D1A3FA 
 135      773109FA 
 135      8CCA7279 
 135      FF
 136 010e 76D76AF8 		.ascii	"v\327j\370e6m\273\00210g\211d\247\020jfe\005\245\350"
 136      65366DBB 
 136      02313067 
 136      8964A710 
 136      6A666505 
 137 0124 F58B6ECB 		.ascii	"\365\213n\313V\352\334\207\347\037Sr\300\251\337\276"
 137      56EADC87 
 137      E71F5372 
 137      C0A9DFBE 
 138 0134 595ADFDD 		.ascii	"YZ\337\335;eL\311D\365k2a\242b\306\252\335\203\250Y"
 138      3B654CC9 
ARM GAS  C:\Users\JEFFSN~1\AppData\Local\Temp\ccDY4g2R.s 			page 10


 138      44F56B32 
 138      61A262C6 
 138      AADD83A8 
 139 0149 1CEE4136 		.ascii	"\034\356A6\351\204\373\350U%\372\212J\364}\221w&c\246"
 139      E984FBE8 
 139      5525FA8A 
 139      4AF47D91 
 139      772663A6 
 140 015d 26F65A82 		.ascii	"&\366Z\202\313&N|\355\010\016U\244\264\307\003}\377"
 140      CB264E7C 
 140      ED080E55 
 140      A4B4C703 
 140      7DFF
 141 016f 65D98B99 		.ascii	"e\331\213\231\3359j(\220j\204\322\341d6\027\371\237"
 141      DD396A28 
 141      906A84D2 
 141      E1643617 
 141      F99F
 142 0181 159254CC 		.ascii	"\025\222T\314oW\374\341\321\215B\232|\273\325n\370\277"
 142      6F57FCE1 
 142      D18D429A 
 142      7CBBD56E 
 142      F8BF
 143 0193 5CFF6FCE 		.ascii	"\\\377o\316\017\177\347\374HsV\306\233\362\302\222\330"
 143      0F7FE7FC 
 143      487356C6 
 143      9BF2C292 
 143      D8
 144 01a4 64C526FB 		.ascii	"d\305&\373\330%\273\301\236\373\273k*\372\376\244Up"
 144      D825BBC1 
 144      9EFBBB6B 
 144      2AFAFEA4 
 144      5570
 145 01b6 21B5D4BA 		.ascii	"!\265\324\272\302z\0052'\202|0:|1874026\232\013\006"
 145      C27A0532 
 145      27827C30 
 145      3A7C3138 
 145      37343032 
 146 01ce 4F0F8C1C 		.ascii	"O\017\214\034?:x\354\324\330\245\241\376C9\362s\347"
 146      3F3A78EC 
 146      D4D8A5A1 
 146      FE4339F2 
 146      73E7
 147 01e0 87F3F9E0 		.ascii	"\207\363\371\340\302OW`\345\272"
 147      C24F5760 
 147      E5BA
 148              		.text
 149              		.section	.gnu.lto_.symbol_nodes.a80cc548,"",%progbits
 150 0000 789C558E 		.ascii	"x\234U\216\273\015\002A\014\005g\355\375\\L\005P\251"
 150      BB0D0241 
 150      0C0567ED 
 150      FD5C4C05 
 150      50A9
 151 0012 37A0802B 		.ascii	"7\240\200+\201\340\252 \336\370J@ ]\013\204 \274\007"
 151      81E0AA20 
 151      DEF84A40 
 151      205D0B84 
ARM GAS  C:\Users\JEFFSN~1\AppData\Local\Temp\ccDY4g2R.s 			page 11


 151      20BC07
 152 0025 01EB6434 		.ascii	"\001\353d4\317O\226#\201\033>\022\014\346\025\034\327"
 152      CF4F9623 
 152      811B3E12 
 152      0CE6151C 
 152      D7
 153 0036 7A8204F5 		.ascii	"z\202\004\365\000*baX\210\232\214A4\035\202\220-\356"
 153      002A6261 
 153      58889A8C 
 153      41341D82 
 153      902DEE
 154 0049 819FA847 		.ascii	"\201\237\250G\367di\360\311\362\340\305\312\277+\231"
 154      F76469F0 
 154      C9F2E0C5 
 154      CABF2B99 
 155 0059 7679A9FA 		.ascii	"vy\251\372\023[\247d\316\3175\250$\226\235\023\355\361"
 155      135BA764 
 155      CECF35A8 
 155      24969D13 
 155      EDF1
 156 006b 7616B64E 		.ascii	"v\026\266N\315,\367\316D\353\214\277~\374\366\371\000"
 156      CD2CF7CE 
 156      44EB8CBF 
 156      7EFCF6F9 
 156      00
 157 007c 30F935DF 		.ascii	"0\3715\337"
 158              		.text
 159              		.section	.gnu.lto_.refs.a80cc548,"",%progbits
 160 0000 789C6361 		.ascii	"x\234ca`d\020c`\000\222\214\214\234LL@\222\221\221\203"
 160      60641063 
 160      6000928C 
 160      8C9C4C4C 
 160      40929191 
 161 0015 89054CB3 		.ascii	"\211\005L\2633\000\000\004\343\000I"
 161      33000004 
 161      E30049
 162              		.text
 163              		.section	.gnu.lto_.decls.a80cc548,"",%progbits
 164 0000 789C7592 		.ascii	"x\234u\222\177LSW\024\307\357y\357\331\224Ga\221\230"
 164      7F4C5357 
 164      14C7EF79 
 164      EFD99447 
 164      619198
 165 0013 C99266EB 		.ascii	"\311\222f\353L\\\374\213\214-\213\333\177V\234fY\\\226"
 165      4C5CFC8B 
 165      8C2D8BDB 
 165      7F569C66 
 165      595C96
 166 0026 34982D31 		.ascii	"4\230-1iX}\016\222\246l\364\221\350\177w\210q\316-\223"
 166      69587D0E 
 166      92A66CF4 
 166      91E87F77 
 166      8871CE2D 
 167 003b FD6103D3 		.ascii	"\375a\003\323@0 *H'ZK\301Rp\240\223l\313\206\177H0B"
 167      4030202A 
 167      48275A4B 
 167      C15270A0 
ARM GAS  C:\Users\JEFFSN~1\AppData\Local\Temp\ccDY4g2R.s 			page 12


 167      936CCB86 
 168 0053 5667341A 		.ascii	"Vg4\0323&3B\246\335\271\277|\225\225\233\236\327{\357"
 168      33263342 
 168      A6DDB9BF 
 168      7C95959B 
 168      9ED77BEF 
 169 0067 3BDFCFF9 		.ascii	";\337\317\371\276{\217A\200\260\361\273A\310F\234\326"
 169      BE7B8F41 
 169      80B0F1BB 
 169      41C8469C 
 169      D6
 170 0078 62E470AC 		.ascii	"b\344p\254\302\275\035\304\031n\214>\214\004F\022#\205"
 170      C2BD1DC4 
 170      196E8C3E 
 170      8C044612 
 170      2385
 171 008a 318C91C6 		.ascii	"1\214\221\306\310`\214a0\3228y~0\215b\015`L`\234\307"
 171      C8608C61 
 171      30D23879 
 171      7E308D62 
 171      0D604C60 
 172 00a0 B82CDFEB 		.ascii	"\270,\337\3532'-y\205\030\254\246+\217\341\225z\305"
 172      32272D79 
 172      8518ACA6 
 172      2B8FE195 
 172      7AC5
 173 00b2 22F2BDF2 		.ascii	"\"\362\275\362\246Xc\322[!&\3133\012\370R\236\3629\313"
 173      A65863D2 
 173      5B2126CB 
 173      330AF852 
 173      9EF239CB 
 174 00c6 472ACF8F 		.ascii	"G*\317\217\362\262\234a\310\274|N!\037O4\310\265\237"
 174      F2B29C61 
 174      C8BC7C4E 
 174      211F4F34 
 174      C8B59F
 175 00d9 FBD63D03 		.ascii	"\373\326=\003\323\240\023y\031\004@<\201\007\021\301"
 175      D3A01379 
 175      1904403C 
 175      810711C1 
 176 00e9 9738D188 		.ascii	"\2278\321\210\230\250\255g\203\310\024MM\035\030\377"
 176      98A8AD67 
 176      83C8144D 
 176      4D1D18FF 
 177 00f9 493DE4D4 		.ascii	"I=\344\324\340\020\207\016R$\326RL\244\0104\247\000"
 177      E010870E 
 177      5224D652 
 177      4CA40834 
 177      A700
 178 010b 88A552E4 		.ascii	"\210\245R\344\361\2269R\236U\031\242\251\217\276\036"
 178      F1963952 
 178      9E5519A2 
 178      A98FBE1E 
 179 011b 1BB95DAC 		.ascii	"\033\271]\254k\300\346\263\213=[+z)\216\303\224j\257"
 179      6BC0E6B3 
 179      8B3D5B2B 
 179      7A298EC3 
ARM GAS  C:\Users\JEFFSN~1\AppData\Local\Temp\ccDY4g2R.s 			page 13


 179      946AAF
 180 012e 3827F35B 		.ascii	"8'\363[s\374\250\276\240A\231\011\006.\347\177n\313"
 180      73FCA8BE 
 180      A0419909 
 180      062EE77F 
 180      6ECB
 181 0140 96E2728D 		.ascii	"\226\342r\215\011>\\>\371\351\3736\255\374\010\327\355"
 181      093E5C3E 
 181      F9E9FB36 
 181      ADFC08D7 
 181      ED
 182 0151 A33E0376 		.ascii	"\243>\003v\274\010\247\301\013\247\000/\005z\241\034"
 182      BC08A7C1 
 182      0BA7002F 
 182      057AA11C 
 183 0161 9F9F1882 		.ascii	"\237\237\030\2024{gz\251d]\007\355\210\323\271\371\370"
 183      347B677A 
 183      A9645D07 
 183      ED88D3B9 
 183      F9F8
 184 0173 1BAD34D3 		.ascii	"\033\2554\323\2142\215eA\017\350p\022*\230\311\036v"
 184      8C328D65 
 184      410FE870 
 184      122A98C9 
 184      1E76
 185 0185 07044EC0 		.ascii	"\007\004N\300\014\372\355\203u\254Jzj\256H\177\207\033"
 185      0CFAED83 
 185      75AC4A7A 
 185      6AAE487F 
 185      871B
 186 0197 EDDF7FEB 		.ascii	"\355\337\177\353\244\033\015xM\310\001[\337\037\\,\021"
 186      A41B0D78 
 186      4DC8015B 
 186      DF1F5C2C 
 186      11
 187 01a8 6BF6BAB5 		.ascii	"k\366\272\265%\373\264X\177\237\315\265\251\354\351"
 187      25FBB458 
 187      7F9FCDB5 
 187      A9ECE9
 188 01b7 BB066C30 		.ascii	"\273\006l0\273\231\275\271\251\211p\354\000\2537\000"
 188      BB99BDB9 
 188      A98970EC 
 188      00AB3700 
 189 01c7 26FCE0D4 		.ascii	"&\374\340\324\363\232\370\374\222\322&\372W'u\225\023"
 189      F39AF8FC 
 189      92D226FA 
 189      57277595 
 189      13
 190 01d8 78D30BAF 		.ascii	"x\323\013\257{\011\234\205\015\014\312\262 \216\237"
 190      7B099C85 
 190      0D0CCAB2 
 190      208E9F
 191 01e7 D48F9F84 		.ascii	"\324\217\237\204\005\376\214\265\337s\031x\206\234\203"
 191      05FE8CB5 
 191      DF731978 
 191      869C83
 192 01f6 DF867BBD 		.ascii	"\337\206{\275\251\033\367]+\236\302y~\012\347@\036C"
ARM GAS  C:\Users\JEFFSN~1\AppData\Local\Temp\ccDY4g2R.s 			page 14


 192      A91BF75D 
 192      2B9EC279 
 192      7E0AE740 
 192      1E43
 193 0208 2AF174CA 		.ascii	"*\361t\312\243\216\341q\311\221}\364\012\352|,\015\316"
 193      A38EE171 
 193      C9917DF4 
 193      0AEA7C2C 
 193      0DCE
 194 021a 38B6CEE4 		.ascii	"8\266\316\344\037C\202\037\303\320X\313\242\251G\305"
 194      1F43821F 
 194      C3D058CB 
 194      A2A947C5 
 195 022a 7DE5EE1C 		.ascii	"}\345\356\034-E\312\\\234fn^\365\320\303_\320\216M\234"
 195      2D45CA5C 
 195      9C666E5E 
 195      F5D0C35F 
 195      D08E4D9C 
 196 023e 71C1615C 		.ascii	"q\301a\\\310g$9\343\341\325_\232M}?pHwWWV\023V2\311"
 196      C8672439 
 196      E3E1D55F 
 196      9A4D7D3F 
 196      70487757 
 197 0258 490EA19B 		.ascii	"I\016\241\233\370}\014:\220\301|H\212C\226\272\276\233"
 197      F87D0C3A 
 197      90C17C48 
 197      8A4396BA 
 197      BE9B
 198 026a 7C416F13 		.ascii	"|Ao\023\220\321\366\276\001\2039\3013\236\236|\371\330"
 198      90D1F6BE 
 198      018339C1 
 198      339E9E7C 
 198      F9D8
 199 027c 59DA5CC4 		.ascii	"Y\332\\\304\215\0149\214!\316\300\3110\327\0174-\015"
 199      8D0C398C 
 199      21CEC0C9 
 199      30D70F34 
 199      2D0D
 200 028e 9AFA8CD0 		.ascii	"\232\372\214\320'\323KI]\3503\217vI\355EG{Qi\323\\{"
 200      27D34B49 
 200      5DE8338F 
 200      7649ED45 
 200      477B5169 
 201 02a5 ECC4A998 		.ascii	"\354\304\251\230K\377Gh\277\036n\371\325\224\332\307"
 201      4BFF4768 
 201      BF1E6EF9 
 201      D594DAC7 
 202 02b5 4A3BE268 		.ascii	"J;\342hG\2246\303\265wo\035\037w\351\337\210\216\177"
 202      479436C3 
 202      B5776F1D 
 202      1F77E9DF 
 202      888E7F
 203 02c8 40FB5BDD 		.ascii	"@\373[\335R\273\240\264\243\216vTi\307\270v\366\320"
 203      52BBA0B4 
 203      A38E7654 
 203      69C7B876 
 203      F6D0
ARM GAS  C:\Users\JEFFSN~1\AppData\Local\Temp\ccDY4g2R.s 			page 15


 204 02da 1FDDAE05 		.ascii	"\037\335\256\005\321=\274\361\036\376\335\031+\321\273"
 204      D13DBCF1 
 204      1EFEDD19 
 204      2BD1BB
 205 02e9 04EC666B 		.ascii	"\004\354fk\"Q\264\3768\245\235\254\267?\237o\242\345"
 205      2251B4FE 
 205      38A59DAC 
 205      B73F9F6F 
 205      A2E5
 206 02fb 3CF347C1 		.ascii	"<\363G\301\223=E\370\372\022v\005\214\303z\006\275q"
 206      933D45F8 
 206      FA127605 
 206      8CC37A06 
 206      BD71
 207 030d 305BECF9 		.ascii	"0[\354\371\2125\0376N\331\225Rn\302i\235\011\360p\013"
 207      8A351F36 
 207      4ED99552 
 207      6EC2699D 
 207      09F0700B 
 208 0321 F88FD987 		.ascii	"\370\217\331\207\256\375\353\177.\231Up\222/\313d\366"
 208      AEFDEB7F 
 208      2E995570 
 208      922FCB64 
 208      F6
 209 0332 EFF16F6F 		.ascii	"\357\361oo\334\023\254\014\006\354\232\006\333\275\355"
 209      DC13AC0C 
 209      06EC9A06 
 209      DBBDED
 210 0341 836A5F55 		.ascii	"\203j_Ue%\361m\263\"VC\215m\355\012\006\352\033\033"
 210      6525F16D 
 210      B3225643 
 210      8D6DED0A 
 210      06EA1B1B 
 211 0355 42D6CE0F 		.ascii	"B\326\316\017\003\365Uo\355\024\311\025!\262Z\312\266"
 211      03F5556F 
 211      ED14C915 
 211      21B25ACA 
 211      B6
 212 0366 D644ED80 		.ascii	"\326D\355\200\025\266B\366\252\306\272\210\375\366\253"
 212      15B642F6 
 212      AAC6BA88 
 212      FDF6AB
 213 0375 2B08437B 		.ascii	"+\010C{\355\275\237Y\321\212\332g\312-u\321P}$\202\312"
 213      EDBD9F59 
 213      D18ADA67 
 213      CA2D75D1 
 213      507D2482 
 214 038a 35FFDBF1 		.ascii	"5\377\333\361\207\303/\311\315\252\217\375\333\253?"
 214      87C32FC9 
 214      CDAA8FFD 
 214      DBAB3F
 215 0399 0ABCB7E5 		.ascii	"\012\274\267\345\335\340\346`u$j\331\257\255Xbw\235"
 215      DDE0E660 
 215      75246AD9 
 215      AFAD5862 
 215      779D
 216 03ab 6D5B0DC1 		.ascii	"m[\015\301\320\356O\261N\001\200_\000\326\026B\007\012"
ARM GAS  C:\Users\JEFFSN~1\AppData\Local\Temp\ccDY4g2R.s 			page 16


 216      D0EE4FB1 
 216      4E01805F 
 216      00D61642 
 216      070A
 217 03bd EEFBD97E 		.ascii	"\356\373\331~\231\334\017\343\267V\325\326\240\303\360"
 217      99DC0FE3 
 217      B756D5D6 
 217      A0C3F0
 218 03cc 7FC16FE3 		.ascii	"\177\301o\343H"
 218      48
 219              		.text
 220              		.section	.gnu.lto_.symtab.a80cc548,"",%progbits
 221 0000 414D7578 		.ascii	"AMux_1_Start\000"
 221      5F315F53 
 221      74617274 
 221      00
 222 000d 00       		.ascii	"\000"
 223 000e 00       		.ascii	"\000"
 224 000f 00       		.ascii	"\000"
 225 0010 00000000 		.ascii	"\000\000\000\000\000\000\000\000"
 225      00000000 
 226 0018 AD000000 		.ascii	"\255\000\000\000"
 227 001c 414D7578 		.ascii	"AMux_1_FastSelect\000"
 227      5F315F46 
 227      61737453 
 227      656C6563 
 227      7400
 228 002e 00       		.ascii	"\000"
 229 002f 00       		.ascii	"\000"
 230 0030 00       		.ascii	"\000"
 231 0031 00000000 		.ascii	"\000\000\000\000\000\000\000\000"
 231      00000000 
 232 0039 B6000000 		.ascii	"\266\000\000\000"
 233 003d 414D7578 		.ascii	"AMux_1_Disconnect\000"
 233      5F315F44 
 233      6973636F 
 233      6E6E6563 
 233      7400
 234 004f 00       		.ascii	"\000"
 235 0050 00       		.ascii	"\000"
 236 0051 00       		.ascii	"\000"
 237 0052 00000000 		.ascii	"\000\000\000\000\000\000\000\000"
 237      00000000 
 238 005a B8000000 		.ascii	"\270\000\000\000"
 239 005e 414D7578 		.ascii	"AMux_1_DisconnectAll\000"
 239      5F315F44 
 239      6973636F 
 239      6E6E6563 
 239      74416C6C 
 240 0073 00       		.ascii	"\000"
 241 0074 00       		.ascii	"\000"
 242 0075 00       		.ascii	"\000"
 243 0076 00000000 		.ascii	"\000\000\000\000\000\000\000\000"
 243      00000000 
 244 007e BA000000 		.ascii	"\272\000\000\000"
 245 0082 414D7578 		.ascii	"AMux_1_CYAMUXSIDE_B_Unset\000"
 245      5F315F43 
ARM GAS  C:\Users\JEFFSN~1\AppData\Local\Temp\ccDY4g2R.s 			page 17


 245      59414D55 
 245      58534944 
 245      455F425F 
 246 009c 00       		.ascii	"\000"
 247 009d 02       		.ascii	"\002"
 248 009e 00       		.ascii	"\000"
 249 009f 00000000 		.ascii	"\000\000\000\000\000\000\000\000"
 249      00000000 
 250 00a7 BC000000 		.ascii	"\274\000\000\000"
 251 00ab 414D7578 		.ascii	"AMux_1_CYAMUXSIDE_A_Unset\000"
 251      5F315F43 
 251      59414D55 
 251      58534944 
 251      455F415F 
 252 00c5 00       		.ascii	"\000"
 253 00c6 02       		.ascii	"\002"
 254 00c7 00       		.ascii	"\000"
 255 00c8 00000000 		.ascii	"\000\000\000\000\000\000\000\000"
 255      00000000 
 256 00d0 BE000000 		.ascii	"\276\000\000\000"
 257 00d4 414D7578 		.ascii	"AMux_1_CYAMUXSIDE_B_Set\000"
 257      5F315F43 
 257      59414D55 
 257      58534944 
 257      455F425F 
 258 00ec 00       		.ascii	"\000"
 259 00ed 02       		.ascii	"\002"
 260 00ee 00       		.ascii	"\000"
 261 00ef 00000000 		.ascii	"\000\000\000\000\000\000\000\000"
 261      00000000 
 262 00f7 C0000000 		.ascii	"\300\000\000\000"
 263 00fb 414D7578 		.ascii	"AMux_1_CYAMUXSIDE_A_Set\000"
 263      5F315F43 
 263      59414D55 
 263      58534944 
 263      455F415F 
 264 0113 00       		.ascii	"\000"
 265 0114 02       		.ascii	"\002"
 266 0115 00       		.ascii	"\000"
 267 0116 00000000 		.ascii	"\000\000\000\000\000\000\000\000"
 267      00000000 
 268 011e C2000000 		.ascii	"\302\000\000\000"
 269              		.text
 270              		.section	.gnu.lto_.opts,"",%progbits
 271 0000 272D666D 		.ascii	"'-fmath-errno' '-fsigned-zeros' '-ftrapping-math' '"
 271      6174682D 
 271      6572726E 
 271      6F272027 
 271      2D667369 
 272 0033 2D666E6F 		.ascii	"-fno-trapv' '-fno-openmp' '-fno-openacc' '-mcpu=cor"
 272      2D747261 
 272      70762720 
 272      272D666E 
 272      6F2D6F70 
 273 0066 7465782D 		.ascii	"tex-m3' '-mthumb' '-g' '-O3' '-ffunction-sections' "
 273      6D332720 
 273      272D6D74 
ARM GAS  C:\Users\JEFFSN~1\AppData\Local\Temp\ccDY4g2R.s 			page 18


 273      68756D62 
 273      2720272D 
 274 0099 272D6666 		.ascii	"'-ffat-lto-objects' '-finline-functions' '-flto'\000"
 274      61742D6C 
 274      746F2D6F 
 274      626A6563 
 274      74732720 
 275              		.text
 276              		.cfi_sections	.debug_frame
 277              		.section	.text.AMux_1_Start,"ax",%progbits
 278              		.align	2
 279              		.global	AMux_1_Start
 280              		.thumb
 281              		.thumb_func
 282              		.type	AMux_1_Start, %function
 283              	AMux_1_Start:
 284              	.LFB0:
 285              		.file 1 "Generated_Source\\PSoC5\\AMux_1.c"
   1:Generated_Source\PSoC5/AMux_1.c **** /*******************************************************************************
   2:Generated_Source\PSoC5/AMux_1.c **** * File Name: AMux_1.c
   3:Generated_Source\PSoC5/AMux_1.c **** * Version 1.80
   4:Generated_Source\PSoC5/AMux_1.c **** *
   5:Generated_Source\PSoC5/AMux_1.c **** *  Description:
   6:Generated_Source\PSoC5/AMux_1.c **** *    This file contains all functions required for the analog multiplexer
   7:Generated_Source\PSoC5/AMux_1.c **** *    AMux User Module.
   8:Generated_Source\PSoC5/AMux_1.c **** *
   9:Generated_Source\PSoC5/AMux_1.c **** *   Note:
  10:Generated_Source\PSoC5/AMux_1.c **** *
  11:Generated_Source\PSoC5/AMux_1.c **** *******************************************************************************
  12:Generated_Source\PSoC5/AMux_1.c **** * Copyright 2008-2010, Cypress Semiconductor Corporation.  All rights reserved.
  13:Generated_Source\PSoC5/AMux_1.c **** * You may use this file only in accordance with the license, terms, conditions, 
  14:Generated_Source\PSoC5/AMux_1.c **** * disclaimers, and limitations in the end user license agreement accompanying 
  15:Generated_Source\PSoC5/AMux_1.c **** * the software package with which this file was provided.
  16:Generated_Source\PSoC5/AMux_1.c **** ********************************************************************************/
  17:Generated_Source\PSoC5/AMux_1.c **** 
  18:Generated_Source\PSoC5/AMux_1.c **** #include "AMux_1.h"
  19:Generated_Source\PSoC5/AMux_1.c **** 
  20:Generated_Source\PSoC5/AMux_1.c **** static uint8 AMux_1_lastChannel = AMux_1_NULL_CHANNEL;
  21:Generated_Source\PSoC5/AMux_1.c **** 
  22:Generated_Source\PSoC5/AMux_1.c **** 
  23:Generated_Source\PSoC5/AMux_1.c **** /*******************************************************************************
  24:Generated_Source\PSoC5/AMux_1.c **** * Function Name: AMux_1_Start
  25:Generated_Source\PSoC5/AMux_1.c **** ********************************************************************************
  26:Generated_Source\PSoC5/AMux_1.c **** * Summary:
  27:Generated_Source\PSoC5/AMux_1.c **** *  Disconnect all channels.
  28:Generated_Source\PSoC5/AMux_1.c **** *
  29:Generated_Source\PSoC5/AMux_1.c **** * Parameters:
  30:Generated_Source\PSoC5/AMux_1.c **** *  void
  31:Generated_Source\PSoC5/AMux_1.c **** *
  32:Generated_Source\PSoC5/AMux_1.c **** * Return:
  33:Generated_Source\PSoC5/AMux_1.c **** *  void
  34:Generated_Source\PSoC5/AMux_1.c **** *
  35:Generated_Source\PSoC5/AMux_1.c **** *******************************************************************************/
  36:Generated_Source\PSoC5/AMux_1.c **** void AMux_1_Start(void) 
  37:Generated_Source\PSoC5/AMux_1.c **** {
 286              		.loc 1 37 0
 287              		.cfi_startproc
ARM GAS  C:\Users\JEFFSN~1\AppData\Local\Temp\ccDY4g2R.s 			page 19


 288              		@ args = 0, pretend = 0, frame = 0
 289              		@ frame_needed = 0, uses_anonymous_args = 0
 290              	.LVL0:
 291 0000 08B5     		push	{r3, lr}
 292              		.cfi_def_cfa_offset 8
 293              		.cfi_offset 3, -8
 294              		.cfi_offset 14, -4
  38:Generated_Source\PSoC5/AMux_1.c ****     uint8 chan;
  39:Generated_Source\PSoC5/AMux_1.c **** 
  40:Generated_Source\PSoC5/AMux_1.c ****     for(chan = 0u; chan < AMux_1_CHANNELS ; chan++)
  41:Generated_Source\PSoC5/AMux_1.c ****     {
  42:Generated_Source\PSoC5/AMux_1.c **** #if (AMux_1_MUXTYPE == AMux_1_MUX_SINGLE)
  43:Generated_Source\PSoC5/AMux_1.c ****         AMux_1_Unset(chan);
  44:Generated_Source\PSoC5/AMux_1.c **** #else
  45:Generated_Source\PSoC5/AMux_1.c ****         AMux_1_CYAMUXSIDE_A_Unset(chan);
 295              		.loc 1 45 0
 296 0002 0020     		movs	r0, #0
 297 0004 FFF7FEFF 		bl	AMux_1_CYAMUXSIDE_A_Unset
 298              	.LVL1:
  46:Generated_Source\PSoC5/AMux_1.c ****         AMux_1_CYAMUXSIDE_B_Unset(chan);
 299              		.loc 1 46 0
 300 0008 0020     		movs	r0, #0
 301 000a FFF7FEFF 		bl	AMux_1_CYAMUXSIDE_B_Unset
 302              	.LVL2:
  45:Generated_Source\PSoC5/AMux_1.c ****         AMux_1_CYAMUXSIDE_B_Unset(chan);
 303              		.loc 1 45 0
 304 000e 0120     		movs	r0, #1
 305 0010 FFF7FEFF 		bl	AMux_1_CYAMUXSIDE_A_Unset
 306              	.LVL3:
 307              		.loc 1 46 0
 308 0014 0120     		movs	r0, #1
 309 0016 FFF7FEFF 		bl	AMux_1_CYAMUXSIDE_B_Unset
 310              	.LVL4:
  47:Generated_Source\PSoC5/AMux_1.c **** #endif
  48:Generated_Source\PSoC5/AMux_1.c ****     }
  49:Generated_Source\PSoC5/AMux_1.c **** 
  50:Generated_Source\PSoC5/AMux_1.c ****     AMux_1_lastChannel = AMux_1_NULL_CHANNEL;
 311              		.loc 1 50 0
 312 001a 024B     		ldr	r3, .L3
 313 001c FF22     		movs	r2, #255
 314 001e 1A70     		strb	r2, [r3]
 315 0020 08BD     		pop	{r3, pc}
 316              	.L4:
 317 0022 00BF     		.align	2
 318              	.L3:
 319 0024 00000000 		.word	.LANCHOR0
 320              		.cfi_endproc
 321              	.LFE0:
 322              		.size	AMux_1_Start, .-AMux_1_Start
 323              		.section	.text.AMux_1_FastSelect,"ax",%progbits
 324              		.align	2
 325              		.global	AMux_1_FastSelect
 326              		.thumb
 327              		.thumb_func
 328              		.type	AMux_1_FastSelect, %function
 329              	AMux_1_FastSelect:
 330              	.LFB1:
ARM GAS  C:\Users\JEFFSN~1\AppData\Local\Temp\ccDY4g2R.s 			page 20


  51:Generated_Source\PSoC5/AMux_1.c **** }
  52:Generated_Source\PSoC5/AMux_1.c **** 
  53:Generated_Source\PSoC5/AMux_1.c **** 
  54:Generated_Source\PSoC5/AMux_1.c **** #if (!AMux_1_ATMOSTONE)
  55:Generated_Source\PSoC5/AMux_1.c **** /*******************************************************************************
  56:Generated_Source\PSoC5/AMux_1.c **** * Function Name: AMux_1_Select
  57:Generated_Source\PSoC5/AMux_1.c **** ********************************************************************************
  58:Generated_Source\PSoC5/AMux_1.c **** * Summary:
  59:Generated_Source\PSoC5/AMux_1.c **** *  This functions first disconnects all channels then connects the given
  60:Generated_Source\PSoC5/AMux_1.c **** *  channel.
  61:Generated_Source\PSoC5/AMux_1.c **** *
  62:Generated_Source\PSoC5/AMux_1.c **** * Parameters:
  63:Generated_Source\PSoC5/AMux_1.c **** *  channel:  The channel to connect to the common terminal.
  64:Generated_Source\PSoC5/AMux_1.c **** *
  65:Generated_Source\PSoC5/AMux_1.c **** * Return:
  66:Generated_Source\PSoC5/AMux_1.c **** *  void
  67:Generated_Source\PSoC5/AMux_1.c **** *
  68:Generated_Source\PSoC5/AMux_1.c **** *******************************************************************************/
  69:Generated_Source\PSoC5/AMux_1.c **** void AMux_1_Select(uint8 channel) 
  70:Generated_Source\PSoC5/AMux_1.c **** {
  71:Generated_Source\PSoC5/AMux_1.c ****     AMux_1_DisconnectAll();        /* Disconnect all previous connections */
  72:Generated_Source\PSoC5/AMux_1.c ****     AMux_1_Connect(channel);       /* Make the given selection */
  73:Generated_Source\PSoC5/AMux_1.c ****     AMux_1_lastChannel = channel;  /* Update last channel */
  74:Generated_Source\PSoC5/AMux_1.c **** }
  75:Generated_Source\PSoC5/AMux_1.c **** #endif
  76:Generated_Source\PSoC5/AMux_1.c **** 
  77:Generated_Source\PSoC5/AMux_1.c **** 
  78:Generated_Source\PSoC5/AMux_1.c **** /*******************************************************************************
  79:Generated_Source\PSoC5/AMux_1.c **** * Function Name: AMux_1_FastSelect
  80:Generated_Source\PSoC5/AMux_1.c **** ********************************************************************************
  81:Generated_Source\PSoC5/AMux_1.c **** * Summary:
  82:Generated_Source\PSoC5/AMux_1.c **** *  This function first disconnects the last connection made with FastSelect or
  83:Generated_Source\PSoC5/AMux_1.c **** *  Select, then connects the given channel. The FastSelect function is similar
  84:Generated_Source\PSoC5/AMux_1.c **** *  to the Select function, except it is faster since it only disconnects the
  85:Generated_Source\PSoC5/AMux_1.c **** *  last channel selected rather than all channels.
  86:Generated_Source\PSoC5/AMux_1.c **** *
  87:Generated_Source\PSoC5/AMux_1.c **** * Parameters:
  88:Generated_Source\PSoC5/AMux_1.c **** *  channel:  The channel to connect to the common terminal.
  89:Generated_Source\PSoC5/AMux_1.c **** *
  90:Generated_Source\PSoC5/AMux_1.c **** * Return:
  91:Generated_Source\PSoC5/AMux_1.c **** *  void
  92:Generated_Source\PSoC5/AMux_1.c **** *
  93:Generated_Source\PSoC5/AMux_1.c **** *******************************************************************************/
  94:Generated_Source\PSoC5/AMux_1.c **** void AMux_1_FastSelect(uint8 channel) 
  95:Generated_Source\PSoC5/AMux_1.c **** {
 331              		.loc 1 95 0
 332              		.cfi_startproc
 333              		@ args = 0, pretend = 0, frame = 0
 334              		@ frame_needed = 0, uses_anonymous_args = 0
 335              	.LVL5:
 336 0000 70B5     		push	{r4, r5, r6, lr}
 337              		.cfi_def_cfa_offset 16
 338              		.cfi_offset 4, -16
 339              		.cfi_offset 5, -12
 340              		.cfi_offset 6, -8
 341              		.cfi_offset 14, -4
  96:Generated_Source\PSoC5/AMux_1.c ****     /* Disconnect the last valid channel */
ARM GAS  C:\Users\JEFFSN~1\AppData\Local\Temp\ccDY4g2R.s 			page 21


  97:Generated_Source\PSoC5/AMux_1.c ****     if( AMux_1_lastChannel != AMux_1_NULL_CHANNEL)
 342              		.loc 1 97 0
 343 0002 094E     		ldr	r6, .L12
  95:Generated_Source\PSoC5/AMux_1.c ****     /* Disconnect the last valid channel */
 344              		.loc 1 95 0
 345 0004 0446     		mov	r4, r0
 346              		.loc 1 97 0
 347 0006 3578     		ldrb	r5, [r6]	@ zero_extendqisi2
 348 0008 FF2D     		cmp	r5, #255
 349 000a 05D0     		beq	.L6
 350              	.LVL6:
 351              	.LBB6:
 352              	.LBB7:
  98:Generated_Source\PSoC5/AMux_1.c ****     {
  99:Generated_Source\PSoC5/AMux_1.c ****         AMux_1_Disconnect(AMux_1_lastChannel);
 100:Generated_Source\PSoC5/AMux_1.c ****     }
 101:Generated_Source\PSoC5/AMux_1.c **** 
 102:Generated_Source\PSoC5/AMux_1.c ****     /* Make the new channel connection */
 103:Generated_Source\PSoC5/AMux_1.c **** #if (AMux_1_MUXTYPE == AMux_1_MUX_SINGLE)
 104:Generated_Source\PSoC5/AMux_1.c ****     AMux_1_Set(channel);
 105:Generated_Source\PSoC5/AMux_1.c **** #else
 106:Generated_Source\PSoC5/AMux_1.c ****     AMux_1_CYAMUXSIDE_A_Set(channel);
 107:Generated_Source\PSoC5/AMux_1.c ****     AMux_1_CYAMUXSIDE_B_Set(channel);
 108:Generated_Source\PSoC5/AMux_1.c **** #endif
 109:Generated_Source\PSoC5/AMux_1.c **** 
 110:Generated_Source\PSoC5/AMux_1.c **** 
 111:Generated_Source\PSoC5/AMux_1.c ****     AMux_1_lastChannel = channel;   /* Update last channel */
 112:Generated_Source\PSoC5/AMux_1.c **** }
 113:Generated_Source\PSoC5/AMux_1.c **** 
 114:Generated_Source\PSoC5/AMux_1.c **** 
 115:Generated_Source\PSoC5/AMux_1.c **** #if (AMux_1_MUXTYPE == AMux_1_MUX_DIFF)
 116:Generated_Source\PSoC5/AMux_1.c **** #if (!AMux_1_ATMOSTONE)
 117:Generated_Source\PSoC5/AMux_1.c **** /*******************************************************************************
 118:Generated_Source\PSoC5/AMux_1.c **** * Function Name: AMux_1_Connect
 119:Generated_Source\PSoC5/AMux_1.c **** ********************************************************************************
 120:Generated_Source\PSoC5/AMux_1.c **** * Summary:
 121:Generated_Source\PSoC5/AMux_1.c **** *  This function connects the given channel without affecting other connections.
 122:Generated_Source\PSoC5/AMux_1.c **** *
 123:Generated_Source\PSoC5/AMux_1.c **** * Parameters:
 124:Generated_Source\PSoC5/AMux_1.c **** *  channel:  The channel to connect to the common terminal.
 125:Generated_Source\PSoC5/AMux_1.c **** *
 126:Generated_Source\PSoC5/AMux_1.c **** * Return:
 127:Generated_Source\PSoC5/AMux_1.c **** *  void
 128:Generated_Source\PSoC5/AMux_1.c **** *
 129:Generated_Source\PSoC5/AMux_1.c **** *******************************************************************************/
 130:Generated_Source\PSoC5/AMux_1.c **** void AMux_1_Connect(uint8 channel) 
 131:Generated_Source\PSoC5/AMux_1.c **** {
 132:Generated_Source\PSoC5/AMux_1.c ****     AMux_1_CYAMUXSIDE_A_Set(channel);
 133:Generated_Source\PSoC5/AMux_1.c ****     AMux_1_CYAMUXSIDE_B_Set(channel);
 134:Generated_Source\PSoC5/AMux_1.c **** }
 135:Generated_Source\PSoC5/AMux_1.c **** #endif
 136:Generated_Source\PSoC5/AMux_1.c **** 
 137:Generated_Source\PSoC5/AMux_1.c **** /*******************************************************************************
 138:Generated_Source\PSoC5/AMux_1.c **** * Function Name: AMux_1_Disconnect
 139:Generated_Source\PSoC5/AMux_1.c **** ********************************************************************************
 140:Generated_Source\PSoC5/AMux_1.c **** * Summary:
 141:Generated_Source\PSoC5/AMux_1.c **** *  This function disconnects the given channel from the common or output
ARM GAS  C:\Users\JEFFSN~1\AppData\Local\Temp\ccDY4g2R.s 			page 22


 142:Generated_Source\PSoC5/AMux_1.c **** *  terminal without affecting other connections.
 143:Generated_Source\PSoC5/AMux_1.c **** *
 144:Generated_Source\PSoC5/AMux_1.c **** * Parameters:
 145:Generated_Source\PSoC5/AMux_1.c **** *  channel:  The channel to disconnect from the common terminal.
 146:Generated_Source\PSoC5/AMux_1.c **** *
 147:Generated_Source\PSoC5/AMux_1.c **** * Return:
 148:Generated_Source\PSoC5/AMux_1.c **** *  void
 149:Generated_Source\PSoC5/AMux_1.c **** *
 150:Generated_Source\PSoC5/AMux_1.c **** *******************************************************************************/
 151:Generated_Source\PSoC5/AMux_1.c **** void AMux_1_Disconnect(uint8 channel) 
 152:Generated_Source\PSoC5/AMux_1.c **** {
 153:Generated_Source\PSoC5/AMux_1.c ****     AMux_1_CYAMUXSIDE_A_Unset(channel);
 353              		.loc 1 153 0
 354 000c 2846     		mov	r0, r5
 355              	.LVL7:
 356 000e FFF7FEFF 		bl	AMux_1_CYAMUXSIDE_A_Unset
 357              	.LVL8:
 154:Generated_Source\PSoC5/AMux_1.c ****     AMux_1_CYAMUXSIDE_B_Unset(channel);
 358              		.loc 1 154 0
 359 0012 2846     		mov	r0, r5
 360 0014 FFF7FEFF 		bl	AMux_1_CYAMUXSIDE_B_Unset
 361              	.LVL9:
 362              	.L6:
 363              	.LBE7:
 364              	.LBE6:
 106:Generated_Source\PSoC5/AMux_1.c ****     AMux_1_CYAMUXSIDE_B_Set(channel);
 365              		.loc 1 106 0
 366 0018 2046     		mov	r0, r4
 367 001a FFF7FEFF 		bl	AMux_1_CYAMUXSIDE_A_Set
 368              	.LVL10:
 107:Generated_Source\PSoC5/AMux_1.c **** #endif
 369              		.loc 1 107 0
 370 001e 2046     		mov	r0, r4
 371 0020 FFF7FEFF 		bl	AMux_1_CYAMUXSIDE_B_Set
 372              	.LVL11:
 111:Generated_Source\PSoC5/AMux_1.c **** }
 373              		.loc 1 111 0
 374 0024 3470     		strb	r4, [r6]
 375 0026 70BD     		pop	{r4, r5, r6, pc}
 376              	.L13:
 377              		.align	2
 378              	.L12:
 379 0028 00000000 		.word	.LANCHOR0
 380              		.cfi_endproc
 381              	.LFE1:
 382              		.size	AMux_1_FastSelect, .-AMux_1_FastSelect
 383              		.section	.text.AMux_1_Disconnect,"ax",%progbits
 384              		.align	2
 385              		.global	AMux_1_Disconnect
 386              		.thumb
 387              		.thumb_func
 388              		.type	AMux_1_Disconnect, %function
 389              	AMux_1_Disconnect:
 390              	.LFB2:
 152:Generated_Source\PSoC5/AMux_1.c ****     AMux_1_CYAMUXSIDE_A_Unset(channel);
 391              		.loc 1 152 0
 392              		.cfi_startproc
ARM GAS  C:\Users\JEFFSN~1\AppData\Local\Temp\ccDY4g2R.s 			page 23


 393              		@ args = 0, pretend = 0, frame = 0
 394              		@ frame_needed = 0, uses_anonymous_args = 0
 395              	.LVL12:
 396 0000 10B5     		push	{r4, lr}
 397              		.cfi_def_cfa_offset 8
 398              		.cfi_offset 4, -8
 399              		.cfi_offset 14, -4
 152:Generated_Source\PSoC5/AMux_1.c ****     AMux_1_CYAMUXSIDE_A_Unset(channel);
 400              		.loc 1 152 0
 401 0002 0446     		mov	r4, r0
 153:Generated_Source\PSoC5/AMux_1.c ****     AMux_1_CYAMUXSIDE_B_Unset(channel);
 402              		.loc 1 153 0
 403 0004 FFF7FEFF 		bl	AMux_1_CYAMUXSIDE_A_Unset
 404              	.LVL13:
 405              		.loc 1 154 0
 406 0008 2046     		mov	r0, r4
 155:Generated_Source\PSoC5/AMux_1.c **** }
 407              		.loc 1 155 0
 408 000a BDE81040 		pop	{r4, lr}
 409              		.cfi_restore 14
 410              		.cfi_restore 4
 411              		.cfi_def_cfa_offset 0
 154:Generated_Source\PSoC5/AMux_1.c **** }
 412              		.loc 1 154 0
 413 000e FFF7FEBF 		b	AMux_1_CYAMUXSIDE_B_Unset
 414              	.LVL14:
 415              		.cfi_endproc
 416              	.LFE2:
 417              		.size	AMux_1_Disconnect, .-AMux_1_Disconnect
 418 0012 00BF     		.section	.text.AMux_1_DisconnectAll,"ax",%progbits
 419              		.align	2
 420              		.global	AMux_1_DisconnectAll
 421              		.thumb
 422              		.thumb_func
 423              		.type	AMux_1_DisconnectAll, %function
 424              	AMux_1_DisconnectAll:
 425              	.LFB3:
 156:Generated_Source\PSoC5/AMux_1.c **** #endif
 157:Generated_Source\PSoC5/AMux_1.c **** 
 158:Generated_Source\PSoC5/AMux_1.c **** #if (AMux_1_ATMOSTONE)
 159:Generated_Source\PSoC5/AMux_1.c **** /*******************************************************************************
 160:Generated_Source\PSoC5/AMux_1.c **** * Function Name: AMux_1_DisconnectAll
 161:Generated_Source\PSoC5/AMux_1.c **** ********************************************************************************
 162:Generated_Source\PSoC5/AMux_1.c **** * Summary:
 163:Generated_Source\PSoC5/AMux_1.c **** *  This function disconnects all channels.
 164:Generated_Source\PSoC5/AMux_1.c **** *
 165:Generated_Source\PSoC5/AMux_1.c **** * Parameters:
 166:Generated_Source\PSoC5/AMux_1.c **** *  void
 167:Generated_Source\PSoC5/AMux_1.c **** *
 168:Generated_Source\PSoC5/AMux_1.c **** * Return:
 169:Generated_Source\PSoC5/AMux_1.c **** *  void
 170:Generated_Source\PSoC5/AMux_1.c **** *
 171:Generated_Source\PSoC5/AMux_1.c **** *******************************************************************************/
 172:Generated_Source\PSoC5/AMux_1.c **** void AMux_1_DisconnectAll(void) 
 173:Generated_Source\PSoC5/AMux_1.c **** {
 426              		.loc 1 173 0
 427              		.cfi_startproc
ARM GAS  C:\Users\JEFFSN~1\AppData\Local\Temp\ccDY4g2R.s 			page 24


 428              		@ args = 0, pretend = 0, frame = 0
 429              		@ frame_needed = 0, uses_anonymous_args = 0
 430 0000 38B5     		push	{r3, r4, r5, lr}
 431              		.cfi_def_cfa_offset 16
 432              		.cfi_offset 3, -16
 433              		.cfi_offset 4, -12
 434              		.cfi_offset 5, -8
 435              		.cfi_offset 14, -4
 174:Generated_Source\PSoC5/AMux_1.c ****     if(AMux_1_lastChannel != AMux_1_NULL_CHANNEL) 
 436              		.loc 1 174 0
 437 0002 064D     		ldr	r5, .L22
 438 0004 2C78     		ldrb	r4, [r5]	@ zero_extendqisi2
 439 0006 FF2C     		cmp	r4, #255
 440 0008 07D0     		beq	.L16
 441              	.LVL15:
 442              	.LBB8:
 443              	.LBB9:
 153:Generated_Source\PSoC5/AMux_1.c ****     AMux_1_CYAMUXSIDE_B_Unset(channel);
 444              		.loc 1 153 0
 445 000a 2046     		mov	r0, r4
 446 000c FFF7FEFF 		bl	AMux_1_CYAMUXSIDE_A_Unset
 447              	.LVL16:
 154:Generated_Source\PSoC5/AMux_1.c **** }
 448              		.loc 1 154 0
 449 0010 2046     		mov	r0, r4
 450 0012 FFF7FEFF 		bl	AMux_1_CYAMUXSIDE_B_Unset
 451              	.LVL17:
 452              	.LBE9:
 453              	.LBE8:
 175:Generated_Source\PSoC5/AMux_1.c ****     {
 176:Generated_Source\PSoC5/AMux_1.c ****         AMux_1_Disconnect(AMux_1_lastChannel);
 177:Generated_Source\PSoC5/AMux_1.c ****         AMux_1_lastChannel = AMux_1_NULL_CHANNEL;
 454              		.loc 1 177 0
 455 0016 FF23     		movs	r3, #255
 456 0018 2B70     		strb	r3, [r5]
 457              	.L16:
 458 001a 38BD     		pop	{r3, r4, r5, pc}
 459              	.L23:
 460              		.align	2
 461              	.L22:
 462 001c 00000000 		.word	.LANCHOR0
 463              		.cfi_endproc
 464              	.LFE3:
 465              		.size	AMux_1_DisconnectAll, .-AMux_1_DisconnectAll
 466              		.data
 467              		.set	.LANCHOR0,. + 0
 468              		.type	AMux_1_lastChannel, %object
 469              		.size	AMux_1_lastChannel, 1
 470              	AMux_1_lastChannel:
 471 0000 FF       		.byte	-1
 472              		.text
 473              	.Letext0:
 474              		.file 2 "Generated_Source\\PSoC5\\cyfitter_cfg.h"
 475              		.file 3 "Generated_Source\\PSoC5\\cytypes.h"