ARM GAS  C:\Users\JEFFSN~1\AppData\Local\Temp\ccy98OG6.s 			page 1


   1              		.syntax unified
   2              		.cpu cortex-m3
   3              		.fpu softvfp
   4              		.eabi_attribute 20, 1
   5              		.eabi_attribute 21, 1
   6              		.eabi_attribute 23, 3
   7              		.eabi_attribute 24, 1
   8              		.eabi_attribute 25, 1
   9              		.eabi_attribute 26, 1
  10              		.eabi_attribute 30, 2
  11              		.eabi_attribute 34, 1
  12              		.eabi_attribute 18, 4
  13              		.thumb
  14              		.syntax unified
  15              		.file	"blue_LED.c"
  16              		.text
  17              	.Ltext0:
  18              		.section	.gnu.lto_.profile.807d5af2,"",%progbits
  19 0000 789C6361 		.ascii	"x\234ca`d`a`\000\222\222\242\000\000\261\0009"
  19      60646061 
  19      60009292 
  19      A20000B1 
  19      0039
  20              		.text
  21              		.section	.gnu.lto_.icf.807d5af2,"",%progbits
  22 0000 789C6361 		.ascii	"x\234ca`d\000\001)\006\004`a\370v\355e;;\343\336\003"
  22      60640001 
  22      29060460 
  22      61F876ED 
  22      653B3BE3 
  23 0016 73DB1899 		.ascii	"s\333\030\231N\234\275\372\205\215y\346\221\037\013"
  23      4E9CBDFA 
  23      858D79E6 
  23      911F0B
  24 0025 F81800AB 		.ascii	"\370\030\000\253\324\014u"
  24      D40C75
  25              		.text
  26              		.section	.gnu.lto_.jmpfuncs.807d5af2,"",%progbits
  27 0000 789C6361 		.ascii	"x\234ca`d\000\001!\006\004`a`dd\254g\004\021L\014\014"
  27      60640001 
  27      21060460 
  27      61606464 
  27      AC670411 
  28 0017 CC401100 		.ascii	"\314@\021\000\016\"\001&"
  28      0E220126 
  29              		.text
  30              		.section	.gnu.lto_.inline.807d5af2,"",%progbits
  31 0000 789C6361 		.ascii	"x\234ca`d\000\201$\006\004`a`\340\344`dd\340\000J1s"
  31      60640081 
  31      24060460 
  31      6160E0E4 
  31      606464E0 
  32 0018 1CB06360 		.ascii	"\034\260c`[ \317\304\300\262@\236\005$\013\024g\307"
  32      5B20CFC4 
  32      C0B2409E 
  32      05240B14 
  32      67C7
ARM GAS  C:\Users\JEFFSN~1\AppData\Local\Temp\ccy98OG6.s 			page 2


  33 002a 9064BAC0 		.ascii	"\220d\272\300\017\226db`ced`b\373\240\007\021\007\002"
  33      0F966462 
  33      60636564 
  33      6062FBA0 
  33      07110702 
  34 003e 664C2106 		.ascii	"fL!\006\000\346\332\011\346"
  34      00E6DA09 
  34      E6
  35              		.text
  36              		.section	.gnu.lto_.pureconst.807d5af2,"",%progbits
  37 0000 789C6361 		.ascii	"x\234ca`d\340d```a\220b\224b\222b\226\002\000\002\261"
  37      6064E064 
  37      60606061 
  37      90629462 
  37      92629602 
  38 0017 0081     		.ascii	"\000\201"
  39              		.text
  40              		.section	.gnu.lto_blue_LED_Write.807d5af2,"",%progbits
  41 0000 789C5551 		.ascii	"x\234UQMKTa\024>\317\373\336{g\324\362\0178\013\011"
  41      4D4B5461 
  41      143ECFFB 
  41      DE7B67D4 
  41      F20F380B 
  42 0015 06B12082 		.ascii	"\006\261 \202\360\017\364\201\033\027\221\333\001\231"
  42      F00FF481 
  42      1B1791DB 
  42      0199
  43 0023 A6BB102A 		.ascii	"\246\273\020*A\307\266\276w\306\271B\264p\243\323&G"
  43      41C7B6BE 
  43      77C6B942 
  43      B470A3D3 
  43      2647
  44 0035 1451FBD0 		.ascii	"\024Q\373\320\2546\201\320\345R\264(\012\302\225D\304"
  44      AC3681D0 
  44      E552B428 
  44      0AC29544 
  44      C4
  45 0046 2C6E1004 		.ascii	",n\020\004\0234(\225M\347\274w\223\007\336\257s\237"
  45      13342895 
  45      4DE7BC77 
  45      9307DEAF 
  45      739F
  46 0058 E739CF39 		.ascii	"\3479\3179\327!\220\304iE4\304g\037/h\202\232\177O\024"
  46      D72190C4 
  46      694534C4 
  46      671F2F68 
  46      829A7F4F 
  47 006d 64152017 		.ascii	"d\025 \027\223\005\315(\314\240\255\216\024\342\271"
  47      9305CD28 
  47      CCA0AD8E 
  47      14E2B9
  48 007c E4851A5C 		.ascii	"\344\205\032\\7\034_\326\226\264\331\210P\323D\035e"
  48      371C5FD6 
  48      96B4D988 
  48      50D3441D 
  48      65
  49 008d 9508EB18 		.ascii	"\225\010\353\030d\324\327\335\271=\350<\210\357a\334"
ARM GAS  C:\Users\JEFFSN~1\AppData\Local\Temp\ccy98OG6.s 			page 3


  49      64D4D7DD 
  49      B93DE83C 
  49      88EF61DC 
  50 009d 6EF50CAC 		.ascii	"n\365\014\254\031S1\346\240`tM\003\033\320\314\300\371"
  50      195331E6 
  50      A060744D 
  50      031BD0CC 
  50      C0F9
  51 00af 1CCEE588 		.ascii	"\034\316\345\210\023\204M\014\010\370p\177o\253W\237"
  51      13844D0C 
  51      08F8707F 
  51      6FAB579F 
  52 00bf B1C47993 		.ascii	"\261\304y\223\254\234\310\257\0121:\270Y7Q\320/\334"
  52      AC9CC8AF 
  52      0A313AB8 
  52      593751D0 
  52      2FDC
  53 00d1 07FF7325 		.ascii	"\007\377s%\030\332\334\371\273p\322\233\025W\375x\210"
  53      18DADCF9 
  53      BB70D29B 
  53      1557FD78 
  53      88
  54 00e2 7CEA078F 		.ascii	"|\352\007\217\340q\207\220\314\366\325\310t:U\023\265"
  54      E0718790 
  54      CCF6D5C8 
  54      743A5513 
  54      B5
  55 00f3 DDB6EE52 		.ascii	"\335\266\356R\\Tq\247\374\301\201\324v%\341\311\226"
  55      5C5471A7 
  55      FCC181D4 
  55      7625E1C9 
  55      96
  56 0104 918DA8C5 		.ascii	"\221\215\250\305K\272\377\241\224\234:A\374\353\316"
  56      4BBAFFA1 
  56      949C3A41 
  56      FCEBCE
  57 0113 E77A4634 		.ascii	"\347zF4\253Z&\261X\213?d~\252\232\326\326\355\353\227"
  57      AB5A26B1 
  57      588B3F64 
  57      7EAA9AD6 
  57      D6EDEB97 
  58 0127 CD7B2A7D 		.ascii	"\315{*}.\257\004\306\341\324\333\375\245Jo\003\367\203"
  58      2EAF04C6 
  58      E1D4DBFD 
  58      A54A6F03 
  58      F783
  59 0139 599E9183 		.ascii	"Y\236\221\203-\344\360\030\354\031\333h\200\022T\377"
  59      2DE4F018 
  59      EC19DB68 
  59      801254FF 
  60 0149 849F900A 		.ascii	"\204\237\220\012\352T3\370\036~\314\212\010p\004<ap"
  60      EA5433F8 
  60      1E7ECC8A 
  60      0870043C 
  60      6170
  61 015b 13CAB6C1 		.ascii	"\023\312\266\301N\031%\244V\230\324\273R\226[\325R\347"
  61      4E1925A4 
ARM GAS  C:\Users\JEFFSN~1\AppData\Local\Temp\ccy98OG6.s 			page 4


  61      5698D4BB 
  61      52965BD5 
  61      52E7
  62 016d F9AB37A1 		.ascii	"\371\2537\241e\271\000v\230d\245\337\251\024$8\006\355"
  62      65B90076 
  62      9864A5DF 
  62      A9142438 
  62      06ED
  63 017f 36EE6E76 		.ascii	"6\356nv\013\310a\305\247)\350\320K!\031k\300\343T\274"
  63      0BC861C5 
  63      A729E8D0 
  63      4B21196B 
  63      C0E354BC 
  64 0193 680D1D33 		.ascii	"h\015\0353\037\030\323s\334\3773\366\317,\372\206J\364"
  64      1F18D373 
  64      DCFF33F6 
  64      CF2CFA86 
  64      4AF4
  65 01a5 DB1582FD 		.ascii	"\333\025\202\375\021-\005\231\025O\356\324\260\177\313"
  65      112D0599 
  65      154FEED4 
  65      B07FCB
  66 01b4 9F2C96FD 		.ascii	"\237,\226\375\353c\243\023\323\223%\277pet\342\342P"
  66      EB63A313 
  66      D39325BF 
  66      706574E2 
  66      E250
  67 01c6 E1DA8D69 		.ascii	"\341\332\215i\177l\344\362\245\263%ro\027\371\321=U"
  67      7F6CE4F2 
  67      A5B32572 
  67      6F17F9D1 
  67      3D55
  68 01d8 2E96C74B 		.ascii	".\226\307K\027\306\313S\377\000\331\027\302."
  68      17C6CB53 
  68      FF00D917 
  68      C22E
  69              		.text
  70              		.section	.gnu.lto_blue_LED_SetDriveMode.807d5af2,"",%progbits
  71 0000 789C7D51 		.ascii	"x\234}Q;K\034Q\024>\337\275\2633\263\370\372\001\331"
  71      3B4B1C51 
  71      143EDFBD 
  71      B333B3F8 
  71      FA01D9
  72 0013 4204916D 		.ascii	"B\004\221mD\010\376\002_\215E\320\326 >\246K\\\"\261"
  72      4408FE02 
  72      5F8D45D0 
  72      D6203EA6 
  72      4B5C22B1 
  73 0027 F6EE6308 		.ascii	"\366\356c\010h\243\310n#>\032q\343\372\330%U\212\300"
  73      68A3C86E 
  73      233E1A71 
  73      E3FAD825 
  73      558AC0
  74 003a BA9094A6 		.ascii	"\272\220\224\246\263\260\020I\261\210\220\260jB\202"
  74      B3B01049 
  74      B18890B0 
  74      6A4282
ARM GAS  C:\Users\JEFFSN~1\AppData\Local\Temp\ccy98OG6.s 			page 5


  75 0049 BA6ECE99 		.ascii	"\272n\316\231\261\330\312\313\334\363\370\370\276\217"
  75      B1D8CACB 
  75      DCF3F8F8 
  75      BE8F
  76 0057 73EE5804 		.ascii	"s\356X\004\222s\311)\316\371\005_h\202Z9!J\272\012\220"
  76      9273C929 
  76      CEF9055F 
  76      68825A39 
  76      214ABA0A 
  77 006c C2B8A045 		.ascii	"\302\270\240E\205E\374Qu\205\312\207\352g\025\3375|"
  77      8545FC51 
  77      7585CA87 
  77      EA6715DF 
  77      357C
  78 007e 2EBEFEEA 		.ascii	".\276\376\3523\3712|M\324P\201\023a\027qf\335~\332Y"
  78      33F9327C 
  78      4DD45081 
  78      13611771 
  78      66DD7EDA 
  79 0093 6BD1DD20 		.ascii	"k\321\335 \256\257Oj\347\355=;\306\244\214\311\2766"
  79      AEAF4F6A 
  79      E7ED3D3B 
  79      C6A48CC9 
  79      BE36
  80 00a5 DAD7401E 		.ascii	"\332\327@\036\232\025x\031C_\214\030 |D\217\220\177"
  80      9A157819 
  80      435F8C18 
  80      207C448F 
  80      907F
  81 00b7 941EB36D 		.ascii	"\224\036\263mvF\354;CS\354\301\2261\217\306\312\246"
  81      7646EC3B 
  81      4353ECC1 
  81      96318FC6 
  81      CAA6
  82 00c9 D1489BF2 		.ascii	"\321H\233\362_\373\370\316nQ,S\232\203\266$D \016\266"
  82      5FFBF8CE 
  82      6E512C53 
  82      9A83B624 
  82      44200EB6 
  83 00dd 948E0457 		.ascii	"\224\216\004WBT8D5\276\262\310\265R\222u\025\225\273"
  83      42543844 
  83      35BEB2C8 
  83      B5529275 
  83      1595BB
  84 00f0 A5EABA25 		.ascii	"\245\352\272%\316i-K\345\374\312w\347\267\362\265\025"
  84      CE692D4B 
  84      E5FCCA77 
  84      E7B7F2B5 
  84      15
  85 0101 4CFCA558 		.ascii	"L\374\245X\332l\015\333\325\355\244\261\030\312\373"
  85      DA6C0DDB 
  85      D5EDA4B1 
  85      18CAFB
  86 0110 C7858E2D 		.ascii	"\307\205\216-l$3\274n\004\373\210\241\200\030Ow\200"
  86      6C2433BC 
  86      6E04FB88 
  86      A180184F 
ARM GAS  C:\Users\JEFFSN~1\AppData\Local\Temp\ccy98OG6.s 			page 6


  86      7780
  87 0122 2D5015A9 		.ascii	"-P\025\251\033'\264\323\354\310}\372\301\016{\213!\326"
  87      1B27B4D3 
  87      ECC87DFA 
  87      C10E7B8B 
  87      21D6
  88 0134 9F7D5BAE 		.ascii	"\237}[\256G\305R\343\035\016Y\331$\341/\322,q\030b\311"
  88      47C552E3 
  88      1D0E59D9 
  88      24E12FD2 
  88      2C711862 
  89 0149 CFD3C2BE 		.ascii	"\317\323\302\276\016%\3558\012$\351\177O\02470v\232"
  89      0E25ED38 
  89      0A24E97F 
  89      4F143730 
  89      769A
  90 015b 5DA28C72 		.ascii	"]\242\214r_\311A\372\347F.\362\310\314\247+\244\312"
  90      5FC941FA 
  90      E7462EF2 
  90      C8CCA72B 
  90      A4CA
  91 016d F7C3C20E 		.ascii	"\367\303\302\016~]MA\236\207\037\253k\304\233\363\346"
  91      7E5D4D41 
  91      9E871FAB 
  91      6BC49BF3 
  91      E6
  92 017e A7DE7BB3 		.ascii	"\247\336{\263\223\343\211\205\371\031o\342\325xb\240"
  92      93E38985 
  92      F9196FE2 
  92      D57862A0 
  93 018e 7F62FACD 		.ascii	"\177b\372\315\20279:4\330;C\326\333\304\254\367\037"
  93      8237393A 
  93      34D83B43 
  93      D6DBC4AC 
  93      F71F
  94 01a0 C1B0A56A 		.ascii	"\301\260\245j"
  95              		.text
  96              		.section	.gnu.lto_blue_LED_Read.807d5af2,"",%progbits
  97 0000 789C3550 		.ascii	"x\2345P;K\003A\020\236o\367r\011\202\370\003L!b\223"
  97      3B4B0341 
  97      109E6FF7 
  97      720982F8 
  97      034C2162 
  98 0015 460411C4 		.ascii	"F\004\021\304\326Wc!\006\254\002A\343ub \230:\233\307"
  98      D6576321 
  98      06AC0241 
  98      E3756220 
  98      983A9BC7 
  99 0029 25201636 		.ascii	"% \0266*\010\032T$\361\205\010\376\2003(\012\212Z(\010"
  99      2A081A54 
  99      24F18508 
  99      FE803328 
  99      0A8A5A28 
 100 003e 8288480A 		.ascii	"\202\210H\012+\015J \250\347\254\207\013;\263;\373="
 100      2B0D4A20 
 100      A8E7AC87 
 100      0B3BB33B 
ARM GAS  C:\Users\JEFFSN~1\AppData\Local\Temp\ccy98OG6.s 			page 7


 100      FB3D
 101 0050 66D62090 		.ascii	"f\326 \220^\343\234:8\267\362\206$\210\205+\242t@\000"
 101      5EE39C3A 
 101      38B7F286 
 101      2488852B 
 101      A2744000 
 102 0064 FAA002A0 		.ascii	"\372\240\002\240\224@\012\237\342[\340\242~>\337\024"
 102      94400A9F 
 102      E25BE0A2 
 102      7E3EDF14 
 103 0074 2A299551 		.ascii	"*)\225QO[\215\336\345\262\003[\022\271\202\320\035D"
 103      4F5B8DDE 
 103      E5B2035B 
 103      12B982D0 
 103      1D44
 104 0086 57504B94 		.ascii	"WPK\224\020\"\206>\037\376,6\2339\305\253M\003\370\245"
 104      1022863E 
 104      1FFE2C36 
 104      9B39C5AB 
 104      4D03F8A5 
 105 009a 0C535B1E 		.ascii	"\014S[\036\2149\312u\263\312\271\363\037\337\373\375"
 105      8C39CA75 
 105      B3CAB9F3 
 105      1FDFFBFD 
 106 00aa 205BB22F 		.ascii	" [\262/\007\203\203\360\351`\222\226\2457\246\351&\336"
 106      078383F0 
 106      E9609296 
 106      A537A6E9 
 106      26DE
 107 00bc 85D05956 		.ascii	"\205\320YVQi\314=\256\365i\245\254\224\354\262dW\256"
 107      5169CC3D 
 107      AEF569A5 
 107      AC94ECB2 
 107      6457AE
 108 00cf FD1FC296 		.ascii	"\375\037\302\226\022\332\264\260\271r\003\357\272\276"
 108      12DAB4B0 
 108      B97203EF 
 108      BABE
 109 00dd 91560697 		.ascii	"\221V\006\227V\362\352\301,b5\235\343V\015\354 \210"
 109      56F2EAC1 
 109      2C62359D 
 109      E3560DEC 
 109      2088
 110 00ef 6D70A3D8 		.ascii	"mp\243\330E\021TE\366k\210\262\022\236\334\251[wZ4\037"
 110      45115445 
 110      F66B88B2 
 110      129EDCA9 
 110      5B775A34 
 111 0104 10D86358 		.ascii	"\020\330cX\025\231Z\341Rz\206\006\3434\243\226\277\365"
 111      15995AE1 
 111      527A8606 
 111      E334A396 
 111      BFF5
 112 0116 79151F17 		.ascii	"y\025\037\027\231vtr\226\017h\032\177\032\366\377i/"
 112      99767472 
 112      960F681A 
 112      7F1AF6FF 
ARM GAS  C:\Users\JEFFSN~1\AppData\Local\Temp\ccy98OG6.s 			page 8


 112      692F
 113 0128 F0401A47 		.ascii	"\360@\032G\257,\350\335\350o0\350\201x\274\366ak\306"
 113      AF2CE8DD 
 113      E86F30E8 
 113      8178BCF6 
 113      616BC6
 114 013b 4A4CCC5A 		.ascii	"JL\314ZS\321p<\231\210Y\221\321p\274\277'29\235\264"
 114      53D1703C 
 114      99885991 
 114      D170BCBF 
 114      2732399D 
 115 0150 A2238303 		.ascii	"\242#\203\003\2351\372\005\223\345{>"
 115      9D31FA05 
 115      93E57B3E 
 116              		.text
 117              		.section	.gnu.lto_blue_LED_ReadDataReg.807d5af2,"",%progbits
 118 0000 789C3550 		.ascii	"x\2345P9KCA\020\236o\367\345 \240\376\000S\210\330\244"
 118      394B4341 
 118      109E6FF7 
 118      E520A0FE 
 118      005388D8 
 119 0015 11412CB4 		.ascii	"\021A,\264\365j,\304\200U h|\235\030\010\246\316\313"
 119      F56A2CC4 
 119      80552068 
 119      7C9D1808 
 119      A6CECB
 120 0028 F1228885 		.ascii	"\361\"\210\205\215G\243\021A\222x \202\255\030\203A"
 120      8D47A311 
 120      41927820 
 120      82AD1883 
 120      41
 121 0039 41510B2B 		.ascii	"AQ\013++\011\222\302J\203\022\020M\234\361\341\302\316"
 121      2B0992C2 
 121      4A831210 
 121      4D9CF1E1 
 121      C2CE
 122 004b ECEC7EC7 		.ascii	"\354\354~\307\314\032\004\2225\315\251\207s'oh\202Z"
 122      CC1A0492 
 122      35CDA987 
 122      73276F68 
 122      825A
 123 005d BD234A7A 		.ascii	"\275#Jz\025 \007\313\013J($\360\251~\024n\032\327+\276"
 123      152007CB 
 123      0B4A2824 
 123      F0A97E14 
 123      6E1AD72B 
 124 0072 40DEB252 		.ascii	"@\336\262R\326\363^~p\243P\202\255\211Z\212\320\357"
 124      D6F35E7E 
 124      70A35082 
 124      AD895A8A 
 124      D0EF
 125 0084 479F5F24 		.ascii	"G\237_$\362\010\020C\253'\315\2656w\306\342\325%\000"
 125      F2081043 
 125      AB27CDB5 
 125      3677C6E2 
 125      D52500
 126 0097 7E29C02D 		.ascii	"~)\300-\226\307S%\253\325J[\2453\337\305\203\317\003"
ARM GAS  C:\Users\JEFFSN~1\AppData\Local\Temp\ccy98OG6.s 			page 9


 126      96C75325 
 126      ABD54A5B 
 126      A533DFC5 
 126      83CF03
 127 00aa B235FB72 		.ascii	"\2625\373r08(\227\0047\211,\2751M\232xWJ\262\256\241"
 127      30382897 
 127      0437892C 
 127      BD314D9A 
 127      78574AB2 
 128 00c0 FCB5DC2C 		.ascii	"\374\265\334,\016\211RZkvY\267\313\367\236\017ek\015"
 128      0E89525A 
 128      6B7659B7 
 128      CBF79E0F 
 128      656B0D
 129 00d3 31AD9C57 		.ascii	"1\255\234W7\225S\356\354&-CZ~\332N\265\347\260\225\314"
 129      379553EE 
 129      EC262D43 
 129      5A7EDA4E 
 129      B5E7B095 
 130 00e8 70AB06F6 		.ascii	"p\253\006\366\341G\021\334(\016\220\003\325\220\376"
 130      E14711DC 
 130      280E9003 
 130      D590FE
 131 00f7 1EA3B486 		.ascii	"\036\243\264\206#Wi5J\035\302\007\024\016\031VC\252"
 131      23576935 
 131      4A1DC207 
 131      140E1956 
 131      43AA
 132 0109 BE74AB1D 		.ascii	"\276t\253\035C\203q\302\250g\037]\316\215\213/\231v"
 132      438371C2 
 132      A8671F5D 
 132      CE8D8B2F 
 132      9976
 133 011b 7A7995F5 		.ascii	"zy\225\365\012\215?\015G\377\264\0278 \301\321+\013"
 133      0A8D3F0D 
 133      47FFB417 
 133      3820C1D1 
 133      2B0B
 134 012d 3A15FD0D 		.ascii	":\025\375\015\006\031\210\307\353\0367\027\314\330\314"
 134      061988C7 
 134      EB1E3717 
 134      CCD8CC
 135 013c A239170E 		.ascii	"\2429\027\016F\343\261\210\031\232\014F\207\007B\263"
 135      46E3B188 
 135      199A0C46 
 135      870742B3 
 136 014c F371333C 		.ascii	"\363q3<1:\322\033\241_\301\313{\271"
 136      313AD21B 
 136      A15FC1CB 
 136      7BB9
 137              		.text
 138              		.section	.gnu.lto_.symbol_nodes.807d5af2,"",%progbits
 139 0000 789C6361 		.ascii	"x\234ca`dpc\000\002&\206z\006\206\011\347\030@\324\256"
 139      60647063 
 139      00022686 
 139      7A068609 
 139      E71840D4 
ARM GAS  C:\Users\JEFFSN~1\AppData\Local\Temp\ccy98OG6.s 			page 10


 140 0015 0645A000 		.ascii	"\006E\240\000c=#\252\000S=\023\252\000s=3\212\000\003"
 140      633D23AA 
 140      00533D13 
 140      AA00733D 
 140      338A0003 
 141 0029 0026B60F 		.ascii	"\000&\266\017<"
 141      3C
 142              		.text
 143              		.section	.gnu.lto_.refs.807d5af2,"",%progbits
 144 0000 789C6361 		.ascii	"x\234ca`\004B \000\000\0009\000\007"
 144      60044220 
 144      00000039 
 144      0007
 145              		.text
 146              		.section	.gnu.lto_.decls.807d5af2,"",%progbits
 147 0000 789C8D53 		.ascii	"x\234\215S]H\024Q\024\276gfv]&\335B,$\366a\363\311^"
 147      5D481451 
 147      14BE6766 
 147      765D26DD 
 147      422C24F6 
 148 0018 9624021F 		.ascii	"\226$\002\037\302\002-_*C\315^\004\361g0!4\2665\220"
 148      C2022D5F 
 148      2A43CD5E 
 148      04F16730 
 148      2134B635 
 149 002d 5E6E6A90 		.ascii	"^nj\220\365\240\022k\255I\376@\245\271\371\223\273\346"
 149      F5A0126B 
 149      AD49FE40 
 149      A5B9F993 
 149      BBE6
 150 003f 6EFE6564 		.ascii	"n\376ed\022\010\212 \205B\302\326\203eh$\204\222m\347"
 150      12088A20 
 150      8542C2D6 
 150      83656824 
 150      84926DE7 
 151 0053 DE997136 		.ascii	"\336\231q6\333\300\303\234\231s\356=\337w\276{fF\"@"
 151      DBC0C39C 
 151      9973EE3D 
 151      DF77BE7B 
 151      66462240 
 152 0067 98A54984 		.ascii	"\230\245I\204t\340\323\206i\030\315\204q\0361\014\267"
 152      74E0D386 
 152      6918CD84 
 152      711E310C 
 152      B7
 153 0078 C900BA1F 		.ascii	"\311\000\272\037}\010=H\3765\266o\326p=\214\013}\014"
 153      7D083D48 
 153      FE35B66F 
 153      D6703D8C 
 153      0B7D0C
 154 008b 7D043D4B 		.ascii	"}\004=K\253\001\255n\247\371\243`'\"\360:\326\037\005"
 154      AB01AD6E 
 154      A7F9A360 
 154      2722F03A 
 154      D61F05
 155 009e CBF49822 		.ascii	"\313\364\230\"pYQpCQp\301]\340\242\235sK\200p\253\257"
 155      70595170 
ARM GAS  C:\Users\JEFFSN~1\AppData\Local\Temp\ccy98OG6.s 			page 11


 155      435170C1 
 155      5DE0A29D 
 155      734B8070 
 156 00b4 DEB2001F 		.ascii	"\336\262\000\037@$\332\000\011\200z\007\356Du\236b "
 156      4024DA00 
 156      09807A07 
 156      EE44759E 
 156      6220
 157 00c6 1035D097 		.ascii	"\0205\320\227\266\215h%\202\036\032d\374\322\360\020"
 157      B68D6825 
 157      821E1A64 
 157      FCD2F010 
 158 00d6 D68D9318 		.ascii	"\326\215\223\030\354\240\201\324\\\327\255\201@0\032"
 158      ECA081D4 
 158      5CD7AD81 
 158      40301A
 159 00e5 809AEA88 		.ascii	"\200\232\352\210\010\276\035\212t\315z\033\"\350\207"
 159      08BE1D8A 
 159      74CD7A1B 
 159      22E887
 160 00f4 5EADA7D3 		.ascii	"^\255\247\323&Q\000\026\177\334\350<\355\360R\264\006"
 160      26510016 
 160      7FDCE83C 
 160      EDF052B4 
 160      06
 161 0105 4A85C3C6 		.ascii	"J\205\303\306dzo~\352\262\254\013`\223!\014,_\011l\304"
 161      647A6F7E 
 161      EAB2AC0B 
 161      6093210C 
 161      2C5F096C 
 162 011a A939DBF6 		.ascii	"\2519\333\3664\206~\357\021\017\262X\230\013u/K\220"
 162      34867EEF 
 162      110FB258 
 162      980B752F 
 162      4B90
 163 012c 2C3F6634 		.ascii	",?f4K\215\375i\001J\367A\017\310\340\005\021\272\300"
 163      4B8DFD69 
 163      014AF741 
 163      0FC8E005 
 163      11BAC0
 164 013f C134D864 		.ascii	"\3014\330d\274\337\242\264\232\256uPs\"\201\24368b#"
 164      BCDFA2B4 
 164      9AAE7550 
 164      732281A3 
 164      36386223 
 165 0153 F00C9219 		.ascii	"\360\014\222\031'\253\202n\260\301S\2601\376\317\367"
 165      27AB826E 
 165      B0C153B0 
 165      31FECFF7 
 166 0163 5ABF9A25 		.ascii	"Z\277\232%\224\314y\212$\2666[\333\327\"\242\204x\031"
 166      94CC798A 
 166      24B6365B 
 166      DBD722A2 
 166      847819
 167 0176 244CBF4F 		.ascii	"$L\277O7\207\254\230&\310`\307\324\033\\\\1'6\361\243"
 167      3787AC98 
 167      26C860C7 
ARM GAS  C:\Users\JEFFSN~1\AppData\Local\Temp\ccy98OG6.s 			page 12


 167      D41B5C5C 
 167      312736F1 
 168 018b D450BB04 		.ascii	"\324P\273\004y\007\240\037\011\373\220\220\300sH\304"
 168      7907A01F 
 168      09FB9090 
 168      C07348C4 
 169 019b 7B2F48EA 		.ascii	"{/H\352\351B\257\353\374RR\033m\353\243K\356\311\343"
 169      E942AFEB 
 169      FC52521B 
 169      6DEBA34B 
 169      EEC9E3
 170 01ae 4D35740A 		.ascii	"M5t\012qvV\006\235\206\350N\366]\020x\002\0138\303\001"
 170      71765606 
 170      9D86E84E 
 170      F65D1078 
 170      020B38C3 
 171 01c3 484264FB 		.ascii	"HBd\373\210\373\275YT\370\020~m\266mZT\226\361\365\311"
 171      88FBBD59 
 171      54F8107E 
 171      6DB66D5A 
 171      5496F1F5 
 172 01d8 58DA7083 		.ascii	"X\332p\203\322\223\234\303gp\370\"9\374\234\343\347"
 172      D2939CC3 
 172      6770F822 
 172      39FC9CE3 
 172      E7
 173 01e9 A83757BC 		.ascii	"\2507W\274\316)f\356\274\251\331\033\251\232\035\327"
 173      CE2966EE 
 173      BCA9D91B 
 173      A99A1DD7 
 174 01f9 90FD82CB 		.ascii	"\220\375\202\313.\322T\017\3677-Z\265~soE\017\035\257"
 174      2ED2540F 
 174      F7372D5A 
 174      B57E736F 
 174      450F1DAF 
 175 020d 459CC0AA 		.ascii	"E\234\300\252`\320\3508\030\331q\210w\\}\344Y\264\210"
 175      60D0E838 
 175      18D97188 
 175      775C7DE4 
 175      59B488
 176 0220 75C07B2E 		.ascii	"u\300{.}\271;\002\032M\360\235.\233\221\004\014\222"
 176      7DB93B02 
 176      1A4DF09D 
 176      2E9B9104 
 176      0C92
 177 0232 40244990 		.ascii	"@$I\220\223\254\327\376\2307\313\370\016kv\367\016\247"
 177      93ACD7FE 
 177      9837CBF8 
 177      0E6B76F7 
 177      0EA7
 178 0244 97DBC331 		.ascii	"\227\333\3031\342C\336T\030p{\3341 'G\201\217F\201k"
 178      E243DE54 
 178      18707BDC 
 178      31202747 
 178      818F4681 
 179 0259 DFD2466E 		.ascii	"\337\322Fnc\035;\341\010Ne\330\020\367\022du\"\276\231"
 179      631D3BE1 
ARM GAS  C:\Users\JEFFSN~1\AppData\Local\Temp\ccy98OG6.s 			page 13


 179      084E65D8 
 179      10F71264 
 179      7522BE99 
 180 026d 6FBDA6D8 		.ascii	"o\275\246\330\333\354\263\302\361\305OYy\2451\2771\210"
 180      DBECB3C2 
 180      F1C54F59 
 180      79A531BF 
 180      3188
 181 027f E57F003E 		.ascii	"\345\177\000>\267\004qx\376A\213\210{\354\222\233)J"
 181      B7047178 
 181      FE418B88 
 181      7BEC929B 
 181      294A
 182 0291 A1B30013 		.ascii	"\241\263\000\023H\306\223\265\023<f\313t\255\232\232"
 182      48C693B5 
 182      133C66CB 
 182      74AD9A9A 
 183 02a1 EF5B7589 		.ascii	"\357[u\211\204o\020\030G\344+$\346\251\265\350r\245"
 183      846F1018 
 183      47E42B24 
 183      E6A9B5E8 
 183      72A5
 184 02b3 5270E654 		.ascii	"Rp\346TF\301Eg\231K\261d\236\273`OOI!\246\312\262rW"
 184      46C14567 
 184      994BB164 
 184      9EBB604F 
 184      4F4921A6 
 185 02cb EAA14CA5 		.ascii	"\352\241L\245\\q\026\272\224\222\202\234\212Jg\261\222"
 185      5C7116BA 
 185      9492829C 
 185      8A4A67B1 
 185      92
 186 02dc 7F3EA722 		.ascii	"\177>\247\"\375X~q\225\253\352\212r\325q\211$\375\247"
 186      FD587E71 
 186      95ABEA8A 
 186      72D57189 
 186      24FDA7
 187 02ef 42A77514 		.ascii	"B\247u\024\223\375\333-r\024W\206\263\354\232r\266\242"
 187      93FDDB2D 
 187      72145786 
 187      B3EC9A72 
 187      B6A2
 188 0301 4489DB5E 		.ascii	"D\211\333^\315V\012K\022\376\3122\012]\205\331J\251"
 188      CD560A4B 
 188      12FECA32 
 188      0A5D85D9 
 188      4AA9
 189 0313 E4544A53 		.ascii	"\344TJS\377\000\237\277f?"
 189      FF009FBF 
 189      663F
 190              		.text
 191              		.section	.gnu.lto_.symtab.807d5af2,"",%progbits
 192 0000 626C7565 		.ascii	"blue_LED_Write\000"
 192      5F4C4544 
 192      5F577269 
 192      746500
 193 000f 00       		.ascii	"\000"
ARM GAS  C:\Users\JEFFSN~1\AppData\Local\Temp\ccy98OG6.s 			page 14


 194 0010 00       		.ascii	"\000"
 195 0011 00       		.ascii	"\000"
 196 0012 00000000 		.ascii	"\000\000\000\000\000\000\000\000"
 196      00000000 
 197 001a B3000000 		.ascii	"\263\000\000\000"
 198 001e 626C7565 		.ascii	"blue_LED_SetDriveMode\000"
 198      5F4C4544 
 198      5F536574 
 198      44726976 
 198      654D6F64 
 199 0034 00       		.ascii	"\000"
 200 0035 00       		.ascii	"\000"
 201 0036 00       		.ascii	"\000"
 202 0037 00000000 		.ascii	"\000\000\000\000\000\000\000\000"
 202      00000000 
 203 003f B5000000 		.ascii	"\265\000\000\000"
 204 0043 626C7565 		.ascii	"blue_LED_Read\000"
 204      5F4C4544 
 204      5F526561 
 204      6400
 205 0051 00       		.ascii	"\000"
 206 0052 00       		.ascii	"\000"
 207 0053 00       		.ascii	"\000"
 208 0054 00000000 		.ascii	"\000\000\000\000\000\000\000\000"
 208      00000000 
 209 005c B8000000 		.ascii	"\270\000\000\000"
 210 0060 626C7565 		.ascii	"blue_LED_ReadDataReg\000"
 210      5F4C4544 
 210      5F526561 
 210      64446174 
 210      61526567 
 211 0075 00       		.ascii	"\000"
 212 0076 00       		.ascii	"\000"
 213 0077 00       		.ascii	"\000"
 214 0078 00000000 		.ascii	"\000\000\000\000\000\000\000\000"
 214      00000000 
 215 0080 BA000000 		.ascii	"\272\000\000\000"
 216              		.text
 217              		.section	.gnu.lto_.opts,"",%progbits
 218 0000 272D666D 		.ascii	"'-fmath-errno' '-fsigned-zeros' '-ftrapping-math' '"
 218      6174682D 
 218      6572726E 
 218      6F272027 
 218      2D667369 
 219 0033 2D666E6F 		.ascii	"-fno-trapv' '-fno-openmp' '-fno-openacc' '-mcpu=cor"
 219      2D747261 
 219      70762720 
 219      272D666E 
 219      6F2D6F70 
 220 0066 7465782D 		.ascii	"tex-m3' '-mthumb' '-g' '-O3' '-ffunction-sections' "
 220      6D332720 
 220      272D6D74 
 220      68756D62 
 220      2720272D 
 221 0099 272D6666 		.ascii	"'-ffat-lto-objects' '-finline-functions' '-flto'\000"
 221      61742D6C 
 221      746F2D6F 
ARM GAS  C:\Users\JEFFSN~1\AppData\Local\Temp\ccy98OG6.s 			page 15


 221      626A6563 
 221      74732720 
 222              		.text
 223              		.cfi_sections	.debug_frame
 224              		.section	.text.blue_LED_Write,"ax",%progbits
 225              		.align	2
 226              		.global	blue_LED_Write
 227              		.thumb
 228              		.thumb_func
 229              		.type	blue_LED_Write, %function
 230              	blue_LED_Write:
 231              	.LFB0:
 232              		.file 1 "Generated_Source\\PSoC5\\blue_LED.c"
   1:Generated_Source\PSoC5/blue_LED.c **** /*******************************************************************************
   2:Generated_Source\PSoC5/blue_LED.c **** * File Name: blue_LED.c  
   3:Generated_Source\PSoC5/blue_LED.c **** * Version 2.20
   4:Generated_Source\PSoC5/blue_LED.c **** *
   5:Generated_Source\PSoC5/blue_LED.c **** * Description:
   6:Generated_Source\PSoC5/blue_LED.c **** *  This file contains API to enable firmware control of a Pins component.
   7:Generated_Source\PSoC5/blue_LED.c **** *
   8:Generated_Source\PSoC5/blue_LED.c **** * Note:
   9:Generated_Source\PSoC5/blue_LED.c **** *
  10:Generated_Source\PSoC5/blue_LED.c **** ********************************************************************************
  11:Generated_Source\PSoC5/blue_LED.c **** * Copyright 2008-2015, Cypress Semiconductor Corporation.  All rights reserved.
  12:Generated_Source\PSoC5/blue_LED.c **** * You may use this file only in accordance with the license, terms, conditions, 
  13:Generated_Source\PSoC5/blue_LED.c **** * disclaimers, and limitations in the end user license agreement accompanying 
  14:Generated_Source\PSoC5/blue_LED.c **** * the software package with which this file was provided.
  15:Generated_Source\PSoC5/blue_LED.c **** *******************************************************************************/
  16:Generated_Source\PSoC5/blue_LED.c **** 
  17:Generated_Source\PSoC5/blue_LED.c **** #include "cytypes.h"
  18:Generated_Source\PSoC5/blue_LED.c **** #include "blue_LED.h"
  19:Generated_Source\PSoC5/blue_LED.c **** 
  20:Generated_Source\PSoC5/blue_LED.c **** /* APIs are not generated for P15[7:6] on PSoC 5 */
  21:Generated_Source\PSoC5/blue_LED.c **** #if !(CY_PSOC5A &&\
  22:Generated_Source\PSoC5/blue_LED.c **** 	 blue_LED__PORT == 15 && ((blue_LED__MASK & 0xC0) != 0))
  23:Generated_Source\PSoC5/blue_LED.c **** 
  24:Generated_Source\PSoC5/blue_LED.c **** 
  25:Generated_Source\PSoC5/blue_LED.c **** /*******************************************************************************
  26:Generated_Source\PSoC5/blue_LED.c **** * Function Name: blue_LED_Write
  27:Generated_Source\PSoC5/blue_LED.c **** ****************************************************************************//**
  28:Generated_Source\PSoC5/blue_LED.c **** *
  29:Generated_Source\PSoC5/blue_LED.c **** * \brief Writes the value to the physical port (data output register), masking
  30:Generated_Source\PSoC5/blue_LED.c **** *  and shifting the bits appropriately. 
  31:Generated_Source\PSoC5/blue_LED.c **** *
  32:Generated_Source\PSoC5/blue_LED.c **** * The data output register controls the signal applied to the physical pin in 
  33:Generated_Source\PSoC5/blue_LED.c **** * conjunction with the drive mode parameter. This function avoids changing 
  34:Generated_Source\PSoC5/blue_LED.c **** * other bits in the port by using the appropriate method (read-modify-write or
  35:Generated_Source\PSoC5/blue_LED.c **** * bit banding).
  36:Generated_Source\PSoC5/blue_LED.c **** *
  37:Generated_Source\PSoC5/blue_LED.c **** * <b>Note</b> This function should not be used on a hardware digital output pin 
  38:Generated_Source\PSoC5/blue_LED.c **** * as it is driven by the hardware signal attached to it.
  39:Generated_Source\PSoC5/blue_LED.c **** *
  40:Generated_Source\PSoC5/blue_LED.c **** * \param value
  41:Generated_Source\PSoC5/blue_LED.c **** *  Value to write to the component instance.
  42:Generated_Source\PSoC5/blue_LED.c **** *
  43:Generated_Source\PSoC5/blue_LED.c **** * \return 
  44:Generated_Source\PSoC5/blue_LED.c **** *  None 
ARM GAS  C:\Users\JEFFSN~1\AppData\Local\Temp\ccy98OG6.s 			page 16


  45:Generated_Source\PSoC5/blue_LED.c **** *
  46:Generated_Source\PSoC5/blue_LED.c **** * \sideeffect
  47:Generated_Source\PSoC5/blue_LED.c **** *  If you use read-modify-write operations that are not atomic; the Interrupt 
  48:Generated_Source\PSoC5/blue_LED.c **** *  Service Routines (ISR) can cause corruption of this function. An ISR that 
  49:Generated_Source\PSoC5/blue_LED.c **** *  interrupts this function and performs writes to the Pins component data 
  50:Generated_Source\PSoC5/blue_LED.c **** *  register can cause corrupted port data. To avoid this issue, you should 
  51:Generated_Source\PSoC5/blue_LED.c **** *  either use the Per-Pin APIs (primary method) or disable interrupts around 
  52:Generated_Source\PSoC5/blue_LED.c **** *  this function.
  53:Generated_Source\PSoC5/blue_LED.c **** *
  54:Generated_Source\PSoC5/blue_LED.c **** * \funcusage
  55:Generated_Source\PSoC5/blue_LED.c **** *  \snippet blue_LED_SUT.c usage_blue_LED_Write
  56:Generated_Source\PSoC5/blue_LED.c **** *******************************************************************************/
  57:Generated_Source\PSoC5/blue_LED.c **** void blue_LED_Write(uint8 value)
  58:Generated_Source\PSoC5/blue_LED.c **** {
 233              		.loc 1 58 0
 234              		.cfi_startproc
 235              		@ args = 0, pretend = 0, frame = 0
 236              		@ frame_needed = 0, uses_anonymous_args = 0
 237              		@ link register save eliminated.
 238              	.LVL0:
  59:Generated_Source\PSoC5/blue_LED.c ****     uint8 staticBits = (blue_LED_DR & (uint8)(~blue_LED_MASK));
 239              		.loc 1 59 0
 240 0000 044A     		ldr	r2, .L2
  60:Generated_Source\PSoC5/blue_LED.c ****     blue_LED_DR = staticBits | ((uint8)(value << blue_LED_SHIFT) & blue_LED_MASK);
 241              		.loc 1 60 0
 242 0002 4000     		lsls	r0, r0, #1
 243              	.LVL1:
  59:Generated_Source\PSoC5/blue_LED.c ****     uint8 staticBits = (blue_LED_DR & (uint8)(~blue_LED_MASK));
 244              		.loc 1 59 0
 245 0004 1378     		ldrb	r3, [r2]	@ zero_extendqisi2
 246              	.LVL2:
 247              		.loc 1 60 0
 248 0006 00F00200 		and	r0, r0, #2
 249 000a 03F0FD03 		and	r3, r3, #253
 250              	.LVL3:
 251 000e 1843     		orrs	r0, r0, r3
 252 0010 1070     		strb	r0, [r2]
 253 0012 7047     		bx	lr
 254              	.L3:
 255              		.align	2
 256              	.L2:
 257 0014 20510040 		.word	1073762592
 258              		.cfi_endproc
 259              	.LFE0:
 260              		.size	blue_LED_Write, .-blue_LED_Write
 261              		.section	.text.blue_LED_SetDriveMode,"ax",%progbits
 262              		.align	2
 263              		.global	blue_LED_SetDriveMode
 264              		.thumb
 265              		.thumb_func
 266              		.type	blue_LED_SetDriveMode, %function
 267              	blue_LED_SetDriveMode:
 268              	.LFB1:
  61:Generated_Source\PSoC5/blue_LED.c **** }
  62:Generated_Source\PSoC5/blue_LED.c **** 
  63:Generated_Source\PSoC5/blue_LED.c **** 
  64:Generated_Source\PSoC5/blue_LED.c **** /*******************************************************************************
ARM GAS  C:\Users\JEFFSN~1\AppData\Local\Temp\ccy98OG6.s 			page 17


  65:Generated_Source\PSoC5/blue_LED.c **** * Function Name: blue_LED_SetDriveMode
  66:Generated_Source\PSoC5/blue_LED.c **** ****************************************************************************//**
  67:Generated_Source\PSoC5/blue_LED.c **** *
  68:Generated_Source\PSoC5/blue_LED.c **** * \brief Sets the drive mode for each of the Pins component's pins.
  69:Generated_Source\PSoC5/blue_LED.c **** * 
  70:Generated_Source\PSoC5/blue_LED.c **** * <b>Note</b> This affects all pins in the Pins component instance. Use the
  71:Generated_Source\PSoC5/blue_LED.c **** * Per-Pin APIs if you wish to control individual pin's drive modes.
  72:Generated_Source\PSoC5/blue_LED.c **** *
  73:Generated_Source\PSoC5/blue_LED.c **** * \param mode
  74:Generated_Source\PSoC5/blue_LED.c **** *  Mode for the selected signals. Valid options are documented in 
  75:Generated_Source\PSoC5/blue_LED.c **** *  \ref driveMode.
  76:Generated_Source\PSoC5/blue_LED.c **** *
  77:Generated_Source\PSoC5/blue_LED.c **** * \return
  78:Generated_Source\PSoC5/blue_LED.c **** *  None
  79:Generated_Source\PSoC5/blue_LED.c **** *
  80:Generated_Source\PSoC5/blue_LED.c **** * \sideeffect
  81:Generated_Source\PSoC5/blue_LED.c **** *  If you use read-modify-write operations that are not atomic, the ISR can
  82:Generated_Source\PSoC5/blue_LED.c **** *  cause corruption of this function. An ISR that interrupts this function 
  83:Generated_Source\PSoC5/blue_LED.c **** *  and performs writes to the Pins component Drive Mode registers can cause 
  84:Generated_Source\PSoC5/blue_LED.c **** *  corrupted port data. To avoid this issue, you should either use the Per-Pin
  85:Generated_Source\PSoC5/blue_LED.c **** *  APIs (primary method) or disable interrupts around this function.
  86:Generated_Source\PSoC5/blue_LED.c **** *
  87:Generated_Source\PSoC5/blue_LED.c **** * \funcusage
  88:Generated_Source\PSoC5/blue_LED.c **** *  \snippet blue_LED_SUT.c usage_blue_LED_SetDriveMode
  89:Generated_Source\PSoC5/blue_LED.c **** *******************************************************************************/
  90:Generated_Source\PSoC5/blue_LED.c **** void blue_LED_SetDriveMode(uint8 mode)
  91:Generated_Source\PSoC5/blue_LED.c **** {
 269              		.loc 1 91 0
 270              		.cfi_startproc
 271              		@ args = 0, pretend = 0, frame = 0
 272              		@ frame_needed = 0, uses_anonymous_args = 0
 273              		@ link register save eliminated.
 274              	.LVL4:
  92:Generated_Source\PSoC5/blue_LED.c **** 	CyPins_SetPinDriveMode(blue_LED_0, mode);
 275              		.loc 1 92 0
 276 0000 044A     		ldr	r2, .L5
 277 0002 00F00E00 		and	r0, r0, #14
 278              	.LVL5:
 279 0006 1378     		ldrb	r3, [r2]	@ zero_extendqisi2
 280 0008 03F0F103 		and	r3, r3, #241
 281 000c 1843     		orrs	r0, r0, r3
 282 000e 1070     		strb	r0, [r2]
 283 0010 7047     		bx	lr
 284              	.L6:
 285 0012 00BF     		.align	2
 286              	.L5:
 287 0014 11500040 		.word	1073762321
 288              		.cfi_endproc
 289              	.LFE1:
 290              		.size	blue_LED_SetDriveMode, .-blue_LED_SetDriveMode
 291              		.section	.text.blue_LED_Read,"ax",%progbits
 292              		.align	2
 293              		.global	blue_LED_Read
 294              		.thumb
 295              		.thumb_func
 296              		.type	blue_LED_Read, %function
 297              	blue_LED_Read:
ARM GAS  C:\Users\JEFFSN~1\AppData\Local\Temp\ccy98OG6.s 			page 18


 298              	.LFB2:
  93:Generated_Source\PSoC5/blue_LED.c **** }
  94:Generated_Source\PSoC5/blue_LED.c **** 
  95:Generated_Source\PSoC5/blue_LED.c **** 
  96:Generated_Source\PSoC5/blue_LED.c **** /*******************************************************************************
  97:Generated_Source\PSoC5/blue_LED.c **** * Function Name: blue_LED_Read
  98:Generated_Source\PSoC5/blue_LED.c **** ****************************************************************************//**
  99:Generated_Source\PSoC5/blue_LED.c **** *
 100:Generated_Source\PSoC5/blue_LED.c **** * \brief Reads the associated physical port (pin status register) and masks 
 101:Generated_Source\PSoC5/blue_LED.c **** *  the required bits according to the width and bit position of the component
 102:Generated_Source\PSoC5/blue_LED.c **** *  instance. 
 103:Generated_Source\PSoC5/blue_LED.c **** *
 104:Generated_Source\PSoC5/blue_LED.c **** * The pin's status register returns the current logic level present on the 
 105:Generated_Source\PSoC5/blue_LED.c **** * physical pin.
 106:Generated_Source\PSoC5/blue_LED.c **** *
 107:Generated_Source\PSoC5/blue_LED.c **** * \return 
 108:Generated_Source\PSoC5/blue_LED.c **** *  The current value for the pins in the component as a right justified number.
 109:Generated_Source\PSoC5/blue_LED.c **** *
 110:Generated_Source\PSoC5/blue_LED.c **** * \funcusage
 111:Generated_Source\PSoC5/blue_LED.c **** *  \snippet blue_LED_SUT.c usage_blue_LED_Read  
 112:Generated_Source\PSoC5/blue_LED.c **** *******************************************************************************/
 113:Generated_Source\PSoC5/blue_LED.c **** uint8 blue_LED_Read(void)
 114:Generated_Source\PSoC5/blue_LED.c **** {
 299              		.loc 1 114 0
 300              		.cfi_startproc
 301              		@ args = 0, pretend = 0, frame = 0
 302              		@ frame_needed = 0, uses_anonymous_args = 0
 303              		@ link register save eliminated.
 115:Generated_Source\PSoC5/blue_LED.c ****     return (blue_LED_PS & blue_LED_MASK) >> blue_LED_SHIFT;
 304              		.loc 1 115 0
 305 0000 024B     		ldr	r3, .L8
 306 0002 1878     		ldrb	r0, [r3]	@ zero_extendqisi2
 116:Generated_Source\PSoC5/blue_LED.c **** }
 307              		.loc 1 116 0
 308 0004 C0F34000 		ubfx	r0, r0, #1, #1
 309 0008 7047     		bx	lr
 310              	.L9:
 311 000a 00BF     		.align	2
 312              	.L8:
 313 000c 21510040 		.word	1073762593
 314              		.cfi_endproc
 315              	.LFE2:
 316              		.size	blue_LED_Read, .-blue_LED_Read
 317              		.section	.text.blue_LED_ReadDataReg,"ax",%progbits
 318              		.align	2
 319              		.global	blue_LED_ReadDataReg
 320              		.thumb
 321              		.thumb_func
 322              		.type	blue_LED_ReadDataReg, %function
 323              	blue_LED_ReadDataReg:
 324              	.LFB3:
 117:Generated_Source\PSoC5/blue_LED.c **** 
 118:Generated_Source\PSoC5/blue_LED.c **** 
 119:Generated_Source\PSoC5/blue_LED.c **** /*******************************************************************************
 120:Generated_Source\PSoC5/blue_LED.c **** * Function Name: blue_LED_ReadDataReg
 121:Generated_Source\PSoC5/blue_LED.c **** ****************************************************************************//**
 122:Generated_Source\PSoC5/blue_LED.c **** *
ARM GAS  C:\Users\JEFFSN~1\AppData\Local\Temp\ccy98OG6.s 			page 19


 123:Generated_Source\PSoC5/blue_LED.c **** * \brief Reads the associated physical port's data output register and masks 
 124:Generated_Source\PSoC5/blue_LED.c **** *  the correct bits according to the width and bit position of the component 
 125:Generated_Source\PSoC5/blue_LED.c **** *  instance. 
 126:Generated_Source\PSoC5/blue_LED.c **** *
 127:Generated_Source\PSoC5/blue_LED.c **** * The data output register controls the signal applied to the physical pin in 
 128:Generated_Source\PSoC5/blue_LED.c **** * conjunction with the drive mode parameter. This is not the same as the 
 129:Generated_Source\PSoC5/blue_LED.c **** * preferred blue_LED_Read() API because the 
 130:Generated_Source\PSoC5/blue_LED.c **** * blue_LED_ReadDataReg() reads the data register instead of the status 
 131:Generated_Source\PSoC5/blue_LED.c **** * register. For output pins this is a useful function to determine the value 
 132:Generated_Source\PSoC5/blue_LED.c **** * just written to the pin.
 133:Generated_Source\PSoC5/blue_LED.c **** *
 134:Generated_Source\PSoC5/blue_LED.c **** * \return 
 135:Generated_Source\PSoC5/blue_LED.c **** *  The current value of the data register masked and shifted into a right 
 136:Generated_Source\PSoC5/blue_LED.c **** *  justified number for the component instance.
 137:Generated_Source\PSoC5/blue_LED.c **** *
 138:Generated_Source\PSoC5/blue_LED.c **** * \funcusage
 139:Generated_Source\PSoC5/blue_LED.c **** *  \snippet blue_LED_SUT.c usage_blue_LED_ReadDataReg 
 140:Generated_Source\PSoC5/blue_LED.c **** *******************************************************************************/
 141:Generated_Source\PSoC5/blue_LED.c **** uint8 blue_LED_ReadDataReg(void)
 142:Generated_Source\PSoC5/blue_LED.c **** {
 325              		.loc 1 142 0
 326              		.cfi_startproc
 327              		@ args = 0, pretend = 0, frame = 0
 328              		@ frame_needed = 0, uses_anonymous_args = 0
 329              		@ link register save eliminated.
 143:Generated_Source\PSoC5/blue_LED.c ****     return (blue_LED_DR & blue_LED_MASK) >> blue_LED_SHIFT;
 330              		.loc 1 143 0
 331 0000 024B     		ldr	r3, .L11
 332 0002 1878     		ldrb	r0, [r3]	@ zero_extendqisi2
 144:Generated_Source\PSoC5/blue_LED.c **** }
 333              		.loc 1 144 0
 334 0004 C0F34000 		ubfx	r0, r0, #1, #1
 335 0008 7047     		bx	lr
 336              	.L12:
 337 000a 00BF     		.align	2
 338              	.L11:
 339 000c 20510040 		.word	1073762592
 340              		.cfi_endproc
 341              	.LFE3:
 342              		.size	blue_LED_ReadDataReg, .-blue_LED_ReadDataReg
 343              		.text
 344              	.Letext0:
 345              		.file 2 "Generated_Source\\PSoC5\\cytypes.h"