ARM GAS  C:\Users\JEFFSN~1\AppData\Local\Temp\ccE5sBAf.s 			page 1


   1              		.syntax unified
   2              		.cpu cortex-m3
   3              		.fpu softvfp
   4              		.eabi_attribute 20, 1
   5              		.eabi_attribute 21, 1
   6              		.eabi_attribute 23, 3
   7              		.eabi_attribute 24, 1
   8              		.eabi_attribute 25, 1
   9              		.eabi_attribute 26, 1
  10              		.eabi_attribute 30, 1
  11              		.eabi_attribute 34, 1
  12              		.eabi_attribute 18, 4
  13              		.thumb
  14              		.syntax unified
  15              		.file	"CapSense_IntClock.c"
  16              		.text
  17              	.Ltext0:
  18              		.section	.gnu.lto_.profile.63312bd9,"",%progbits
  19 0000 789C6361 		.ascii	"x\234ca`d`c`\000\222\327\031W0\002\000\005D\001\216"
  19      60646063 
  19      600092D7 
  19      19573002 
  19      00054401 
  20              		.text
  21              		.section	.gnu.lto_.inline.63312bd9,"",%progbits
  22 0000 789C6361 		.ascii	"x\234ca`d\000\201\327\014\010\300\315\300\300\311\301"
  22      60640081 
  22      D70C08C0 
  22      CDC0C0C9 
  22      C1
  23 0011 C8C0C4F3 		.ascii	"\310\300\304\363 \226\201m\201<\023H\214\021S\210\211"
  23      2096816D 
  23      813C1348 
  23      8C115388 
  23      89
  24 0022 41461B28 		.ascii	"AF\033(d4\247\203\025.\306\314\300\315\016\024\023\230"
  24      6434A783 
  24      152EC6CC 
  24      C0CD0E14 
  24      1398
  25 0034 E0071762 		.ascii	"\340\007\027ba`a\006\0121]\340\207\013\2612\260\263"
  25      61606106 
  25      0A315DE0 
  25      870BB132 
  25      B0B3
  26 0046 0185380E 		.ascii	"\001\2058\016\330\301\205\330\0308@\032\271\2204\262"
  26      D8C185D8 
  26      1838401A 
  26      B99034B2 
  27 0056 33B0B200 		.ascii	"3\260\262\000\205X\026\310\303\20580\2058\031\0163\330"
  27      855816C8 
  27      C3853830 
  27      8538190E 
  27      33D8
  28 0068 02C52A5E 		.ascii	"\002\305*^\354bA8\215\033Fp1\250*\003em\372\3263b\221"
  28      EC624138 
  28      8D1B4670 
ARM GAS  C:\Users\JEFFSN~1\AppData\Local\Temp\ccE5sBAf.s 			page 2


  28      31A82A03 
  28      656DFAD6 
  29 007f 65000044 		.ascii	"e\000\000Da\030\325"
  29      6118D5
  30              		.text
  31              		.section	.gnu.lto_.jmpfuncs.63312bd9,"",%progbits
  32 0000 789C45CA 		.ascii	"x\234E\312\307\015\300 \000\300\300#t\030\204\3757\244"
  32      C70DC020 
  32      00C0C023 
  32      741884FD 
  32      37A4
  33 0012 7C62C91F 		.ascii	"|b\311\037\313IpY~\346\361\324\217H\"S\2504\372\035"
  33      CB497059 
  33      7EE6F1D4 
  33      8F482253 
  33      A834FA1D 
  34 0026 C6DB360E 		.ascii	"\306\3336\016e\000o"
  34      65006F
  35              		.text
  36              		.section	.gnu.lto_.pureconst.63312bd9,"",%progbits
  37 0000 789C05C1 		.ascii	"x\234\005\301\207\015\000 \014\300\260\024\012e\034"
  37      870D0020 
  37      0CC0B014 
  37      0A651C
  38 000f 8094FF0F 		.ascii	"\200\224\377\017\305N\202\007\\\014\233\335t8-\227\333"
  38      C54E8207 
  38      5C0C9BDD 
  38      74382D97 
  38      DB
  39 0020 E3071224 		.ascii	"\343\007\022$\001}"
  39      017D
  40              		.text
  41              		.section	.gnu.lto_CapSense_IntClock_Start.63312bd9,"",%progbits
  42 0000 789C7D91 		.ascii	"x\234}\221\315K\002a\020\306g\336\327]\227\310\376\201"
  42      CD4B0261 
  42      10C667DE 
  42      D75D97C8 
  42      FE81
  43 0012 3A7495A8 		.ascii	":t\225\250[\177\201\207\350\026y\025DlO\205\206\331"
  43      5B7F8187 
  43      E8167915 
  43      446C4F85 
  43      86D9
  44 0024 D9355D84 		.ascii	"\3315]\204 \350\222\202\020B\021j_V\247$\202E\310\203"
  44      20E89282 
  44      1042116A 
  44      5F56A724 
  44      8245C883 
  45 0038 073B1574 		.ascii	"\007;\025t\210\244\203\207\24000\210\240lfW\012\212"
  45      88A48387 
  45      A0303088 
  45      A06C6657 
  45      0A8A
  46 004a 7A6167F6 		.ascii	"zag\366\343\231\337\3630\353\002\004>\247\324\306\251"
  46      E399DFF3 
  46      30EB0204 
  46      3EA7D4C6 
ARM GAS  C:\Users\JEFFSN~1\AppData\Local\Temp\ccE5sBAf.s 			page 3


  46      A9
  47 005b 0FD38512 		.ascii	"\017\323\205\022P\2547\001\222\232@\344\033CCH\010L"
  47      50AC3701 
  47      929A40E4 
  47      1B434348 
  47      084C
  48 006d E08B7817 		.ascii	"\340\213x\027X\313\264\253\302[4\350\264vr\322(YhJ\200"
  48      58CBB4AB 
  48      C25B34E8 
  48      B47672D2 
  48      2859684A 
  49 0082 9EB04980 		.ascii	"\236\260I\200E\364\002\311\356\217?6<j\232e\243\316"
  49      45F402C9 
  49      EE8F3F36 
  49      3C6A9A65 
  49      A3CE
  50 0094 472CA1CA 		.ascii	"G,\241\312v\225Y\313\350\365R\206u\256\224\245&\300"
  50      769559CB 
  50      E8F55286 
  50      75AE94A5 
  50      26C0
  51 00a6 94644945 		.ascii	"\224dIE\341\242r\001\350\320\000[?\013\301]\266\261"
  51      E1A27201 
  51      E8D0005B 
  51      3F0BC15D 
  51      B6B1
  52 00b8 F6B65ABF 		.ascii	"\366\266Z\277v3#%9F\326\254]\272\273\302\224\002\331"
  52      76332325 
  52      3946D6AC 
  52      5DBABBC2 
  52      9402D9
  53 00cb EE22DFA8 		.ascii	"\356\"\337\250\016:\217[\231\244\341\242W\3337\217\255"
  53      0E3A8F5B 
  53      99A4E1A2 
  53      57DB378F 
  53      AD
  54 00dc A1026E26 		.ascii	"\241\002n&\323\024P\342.\216`\031G(\307\036\026\020"
  54      D31450E2 
  54      2E8E6019 
  54      4728C71E 
  54      1610
  55 00ee DA987A55 		.ascii	"\332\230zU\035\234t\210\371\263nCa\004\242\206\373\244"
  55      1D9C7488 
  55      F9B36E43 
  55      6104A286 
  55      FBA4
  56 0100 24D32CB2 		.ascii	"$\323,\262\344?\330\001\301\010\001v\302f\275\237P\241"
  56      E43FD801 
  56      C1080176 
  56      C266BD9F 
  56      50A1
  57 0112 91DC5361 		.ascii	"\221\334Sa\315\343D:\351G\352\336\325o\007\276)\207"
  57      CDE3443A 
  57      E947EADE 
  57      D56F07BE 
  57      2987
  58 0124 5F94CA8F 		.ascii	"_\224\312\217H\214\370\225\341\317\351#;\203\012\017"
ARM GAS  C:\Users\JEFFSN~1\AppData\Local\Temp\ccE5sBAf.s 			page 4


  58      488CF895 
  58      E1CFE923 
  58      3B830A0F 
  59 0134 B8625D29 		.ascii	"\270b])\254\266\177E\207VC\313\243U\216M\351\021=\026"
  59      ACB67F45 
  59      875643CB 
  59      A3558E4D 
  59      E9113D16 
  60 0148 8AEB7341 		.ascii	"\212\353sA\177t9\026\326\0033\376\250o2\340\013-\372"
  60      7F743916 
  60      D60333FE 
  60      A86F32E0 
  60      0B2DFA
  61 015b F5C8921E 		.ascii	"\365\310\222\036\234\216\304}\013\321\360\374D\030>"
  61      9C8EC47D 
  61      0BD1F0FC 
  61      44183E
  62 016a 01878FA0 		.ascii	"\001\207\217\240\011"
  62      09
  63              		.text
  64              		.section	.gnu.lto_CapSense_IntClock_Stop.63312bd9,"",%progbits
  65 0000 789C6361 		.ascii	"x\234ca`d\000\201]@J\027HK\0031#3\003#\323\204s\014"
  65      60640081 
  65      5D404A17 
  65      484B0331 
  65      23330323 
  66 0018 0C8D1C4C 		.ascii	"\014\215\034L\214\214 F\003\007#C=\023c=\343W\246\277"
  66      8C8C2046 
  66      03072343 
  66      3D13633D 
  66      E357A6BF 
  67 002c 4C8C87DA 		.ascii	"L\214\207\332\237\355d\322\\\336\000\004\017\236>6h"
  67      9FED64D2 
  67      5CDE0004 
  67      0F9E3E36 
  67      68
  68 003d 587180B1 		.ascii	"Xq\200\261\225\231\201\341?\023\330$\006\306\345\214"
  68      959981E1 
  68      3F13D824 
  68      06C6E58C 
  69 004d 9A0C4065 		.ascii	"\232\014@e\2176\376\233\312\313\326\002R\246\000\221"
  69      8F36FE9B 
  69      CACBD602 
  69      52A60091 
  70 005d 645CC1C8 		.ascii	"d\\\301\310\006\262n}\320\201\206\377\377\233\033\016"
  70      06B26E7D 
  70      D08186FF 
  70      FF9B1B0E 
  71 006d 6C643BB8 		.ascii	"ld;\270\203\215\203\211\241\225\031h'\220`\005\021l"
  71      838D8389 
  71      A1951968 
  71      27906005 
  71      116C
  72 007f 208281E1 		.ascii	" \202\201\341\003P\007\310\356\217LL \232\371\031\343"
  72      035007C8 
  72      EE8F4C4C 
  72      209AF919 
ARM GAS  C:\Users\JEFFSN~1\AppData\Local\Temp\ccE5sBAf.s 			page 5


  72      E3
  73 0090 A15F5DD7 		.ascii	"\241_]\327fV\201\014if\006\271cZ\353\241\363\354_\230"
  73      6656810C 
  73      696606B9 
  73      635AEBA1 
  73      F3EC5F98 
  74 00a4 5A999918 		.ascii	"Z\231\231\030A\366\035\235uj'\017\204\273\250\275\261"
  74      41F61D9D 
  74      756A270F 
  74      84BBA8BD 
  74      B1
  75 00b5 810528B4 		.ascii	"\201\005(\264\370\346\333\007|\363\031\3476\266\000"
  75      F8E6DB07 
  75      7CF319E7 
  75      36B600
  76 00c4 5DC8CCB8 		.ascii	"]\310\314\270\212Q\206q%\243\014\320!\253\031\34732"
  76      8A518671 
  76      25A30CD0 
  76      21AB19E7 
  76      3332
  77 00d6 3C636CFE 		.ascii	"<cl\376\303\0061\216\031b\342\354\373o\237\361\201\214"
  77      C306318E 
  77      1962E2EC 
  77      FB6F9FF1 
  77      818C
  78 00e8 6066FCCE 		.ascii	"`f\374\316\310\270\006\250\024h\3534F\220\032|\246\255"
  78      C8B806A8 
  78      1468EB34 
  78      46901A7C 
  78      A6AD
  79 00fa 059A0634 		.ascii	"\005\232\0064\203\001\354\304{3+ f\262\002\265L\177"
  79      8301ECC4 
  79      7B332B20 
  79      66B202B5 
  79      4C7F
  80 010c 37BF9717 		.ascii	"7\277\227\027\342\246MP7}\271\177\354.\027\302\224u"
  80      E2A64D50 
  80      377DB97F 
  80      EC2E17C2 
  80      9475
  81 011e 7053D6A3 		.ascii	"pS\326\243\271\011d\004\206\033p\352\336\000v\003\033"
  81      B9096404 
  81      861B70EA 
  81      DE007603 
  81      1B
  82 012f C32BC6A6 		.ascii	"\303+\306\246\003;\335@\252\301\221\361\001\0306\300"
  82      033BDD40 
  82      AAC191F1 
  82      011836C0 
  83 013f D00386A5 		.ascii	"\320\003\206\245\266{j^jQbIjJ|p~iQrjL@p\276\263i\214"
  83      B67B6A5E 
  83      6A516249 
  83      6A4A7C70 
  83      7E695172 
  84 015b 73624170 		.ascii	"sbApj^qj\274g^\211sN~r\266^2\003\000u\034\243\210"
  84      6A5E716A 
  84      BC675E89 
ARM GAS  C:\Users\JEFFSN~1\AppData\Local\Temp\ccE5sBAf.s 			page 6


  84      734E7E72 
  84      B65E3203 
  85              		.text
  86              		.section	.gnu.lto_CapSense_IntClock_StopBlock.63312bd9,"",%progbits
  87 0000 789C8D94 		.ascii	"x\234\215\224[LTG\030\307\347\2339\267]w]\210<\364\301"
  87      5B4C5447 
  87      18C7E79B 
  87      39B75D77 
  87      5D883CF4 
  88 0015 185F7C30 		.ascii	"\030_|0&\266Im\322\327\206Fc\237\032\350CM4\304\302"
  88      26B6496D 
  88      D2D78646 
  88      639F1AE8 
  88      434D34C4 
  89 002a 3E180D18 		.ascii	">\030\015\030\252>\326\263\267b6V\305(4^\272\211\373"
  89      AA3ED6B3 
  89      B7623656 
  89      C528345E 
  89      BA89FB
  90 003d E08AB688 		.ascii	"\340\212\266\210\027\224\212\345\210\"\202\210\205\320"
  90      17948AE5 
  90      88228288 
  90      85D0
  91 004b 926AACD6 		.ascii	"\222j\254\326\313j\0321\273-\336@\334~s\276\331\345"
  91      CB6A1A31 
  91      BB2DDE40 
  91      DC7E73BE 
  91      D9E5
  92 005d 52319EE4 		.ascii	"R1\236\344\31493\363\315o\376\363]Fc\300\344Sf0\366"
  92      CC3933F3 
  92      CD6FFEF3 
  92      5D4663C0 
  92      E4536630 
  93 0072 317E2BF0 		.ascii	"1~+\360\005\213\001\337\325\317X\310\342\\\014\275\317"
  93      058B01DF 
  93      D5CF58C8 
  93      E25C0CBD 
  93      CF
  94 0083 6CAFD1BE 		.ascii	"l\257\321\276\200\331>\001\032\015k\334\334\336\315"
  94      80D93E01 
  94      1A0D6BDC 
  94      DCDECD
  95 0092 705C8F9A 		.ascii	"p\\\217\2328n\322\370':\0304o\000\310\037\333\002\266"
  95      386ED2F8 
  95      273A1834 
  95      6F00C81F 
  95      DB02B6
  96 00a5 950BCDD4 		.ascii	"\225\013\315\324\015\330\3125F\317S>\301\241\263.\335"
  96      0DD8CA35 
  96      46CF533E 
  96      C1A1B32E 
  96      DD
  97 00b6 C6171FB6 		.ascii	"\306\027\037\266\361\271\023\373\367\003;\345@L0\226"
  97      F1B913FB 
  97      F7033BE5 
  97      404C3096 
  98 00c6 E3640387 		.ascii	"\343d\003\207a1C\263\273-\257\367\372\215\2504[H\223"
ARM GAS  C:\Users\JEFFSN~1\AppData\Local\Temp\ccE5sBAf.s 			page 7


  98      613143B3 
  98      BB2DAFF7 
  98      FA8DA834 
  98      5B4893
  99 00d9 90020325 		.ascii	"\220\002\003%\003Nv\345\236;\201Q\036\023\000\0229\230"
  99      034E76E5 
  99      9E3B8151 
  99      1E130012 
  99      3998
 100 00eb E93B3847 		.ascii	"\351;8Gv9\024aw\307\203\246a\237X\012\022s3rt\330\277"
 100      76391461 
 100      77C783A6 
 100      619F580A 
 100      12733372 
 101 0102 2869DB61 		.ascii	"(i\333a\3339YW\362\275\355\204\027\306\204\200\243 "
 101      DB395957 
 101      F2BDED84 
 101      17C68480 
 101      A320
 102 0114 100A4D30 		.ascii	"\020\012M0\037\216\300|\332\371\030,j.s\354\\.b;\373"
 102      1F8EC07C 
 102      DAF9182C 
 102      6A2E73EC 
 102      5C2E623B 
 103 0129 CD0BADDE 		.ascii	"\315\013\255\336\3678\213\011M\223\215.\033\217l\274"
 103      F7388B09 
 103      4D938D2E 
 103      1B8F6CBC 
 104 0139 B2F1B9D6 		.ascii	"\262\361\271\326\001\371[$\233b\331\314\223M\211l\030"
 104      01F95B24 
 104      9B62D9CC 
 104      934D896C 
 104      18
 105 014a CBA0E28B 		.ascii	"\313\240\342\213sX\226s\374\2104t\216\305\237\035X&"
 105      73589673 
 105      FC883474 
 105      8EC59F1D 
 105      5826
 106 015c 8F10111A 		.ascii	"\217\020\021\032\352j\210u^7\245d\335\225\331\265\257"
 106      EA6A8875 
 106      5E37A564 
 106      DD95D9B5 
 106      AF
 107 016d B7CD47DD 		.ascii	"\267\315G\335Cu![Z$\377\030\27137\001\007CQ\364\217"
 107      4375215B 
 107      5A24FF18 
 107      B9333701 
 107      074351F4 
 108 0182 013FA1D2 		.ascii	"\001?\241\322\037\245Rh\206\004\2604D^-g\021\301\011"
 108      1FA55268 
 108      8604B034 
 108      445E2D67 
 108      11C109
 109 0195 B7EFDC68 		.ascii	"\267\357\334h\257.\327k`\301q4\373\013\2427#_\321~\322"
 109      AF2ED76B 
 109      60C17134 
 109      FB0BA237 
ARM GAS  C:\Users\JEFFSN~1\AppData\Local\Temp\ccE5sBAf.s 			page 8


 109      235FD17E 
 110 01aa 45CD8FDB 		.ascii	"E\315\217\333^\372\311\200A\213:q\226\013\0265\245\272"
 110      5EFAC980 
 110      418B3A71 
 110      960B1635 
 110      A5BA
 111 01bc D1CCC880 		.ascii	"\321\314\310\200>\303\353\362\204\256\323q\317\023`"
 111      3EC3EBF2 
 111      84AED371 
 111      CF1360
 112 01cb E0EC78FF 		.ascii	"\340\354x\377\340o\026\251\014\331\2442v,y\300\357\252"
 112      E06F16A9 
 112      0CD9A432 
 112      762C79C0 
 112      EFAA
 113 01dd 0CD9F687 		.ascii	"\014\331\366\207L*=YPz\012\225N=+\206\017N\343\214\334"
 113      4C2A3D59 
 113      507A0A95 
 113      4E3D2B86 
 113      0F4EE38C 
 114 01f2 F0F8D390 		.ascii	"\360\370\323\220\251\260\327\356\377\223U\276\330\245"
 114      A9B0D7EE 
 114      FF9355BE 
 114      D8A5
 115 0200 B02FC75F 		.ascii	"\260/\307_\254\237Nm-P\317\0205>6\274\303\"\252\005"
 115      AC9F4E6D 
 115      2D50CF10 
 115      353E36BC 
 115      C322AA05 
 116 0214 67153533 		.ascii	"g\02553I=\377\250#\356!\352\036E\035\032jLz\246c\333"
 116      493DFFA8 
 116      23EE21EA 
 116      1E451D1A 
 116      6A4C7AA6 
 117 022a 0AD89F11 		.ascii	"\012\330\237\021\233W7\026\177\375\303F\311\211\010"
 117      9B573716 
 117      7FFDC346 
 117      C98908
 118 0239 0FAEBBBF 		.ascii	"\017\256\273\277\273\353\221\237P\333\024\252\375j\322"
 118      BBEB919F 
 118      50DB14AA 
 118      FD6AD2
 119 0248 094C46E7 		.ascii	"\011LF\347\\\001\323\236\217\216A\353\275\204\030\277"
 119      5C01D39E 
 119      8F8E41EB 
 119      BD8418BF 
 120 0258 92EE0890 		.ascii	"\222\356\010\220\332\034\203\363\264M\003(\255\263\322"
 120      DA1C83F3 
 120      B44D0328 
 120      ADB3D2
 121 0267 7E411A32 		.ascii	"~A\0322HS\177\342Kb\372\246:\325t\023\350\310\253\236"
 121      48537FE2 
 121      4B62FAA6 
 121      3AD57413 
 121      E8C8AB9E 
 122 027b 2FA8B73D 		.ascii	"/\250\267=D\012\303\017\233\233\264\374a\327\340a-p"
 122      440AC30F 
ARM GAS  C:\Users\JEFFSN~1\AppData\Local\Temp\ccE5sBAf.s 			page 9


 122      9B9BB4FC 
 122      61D7E061 
 122      2D70
 123 028d 90DBE172 		.ascii	"\220\333\341r/H\225w!l\257\222D\031i\244\272\222Z&\352"
 123      2F489577 
 123      216CAF92 
 123      441969A4 
 123      BA925A26 
 124 02a2 855255D8 		.ascii	"\205RU\330\302\343nq\266\325\331iQ7\254\274\320q\357"
 124      C2E36E71 
 124      B6D5D969 
 124      5137ACBC 
 124      D071EF
 125 02b5 46BDC8EB 		.ascii	"F\275\310\353\366\302E\344w\272\374K\256n\037\305db"
 125      F6C245E4 
 125      77BAFC4B 
 125      AE6E1FC5 
 125      6462
 126 02c7 4057C4B7 		.ascii	"@W\304\267fK\027\305\265\247\2671\345#O\231p\331\315"
 126      664B17C5 
 126      B5A7B731 
 126      E5234F99 
 126      70D9CD
 127 02da D42CDE20 		.ascii	"\324,\336 x\253\2502J\224\221\027\002\323\2000\035\326"
 127      78ABA832 
 127      4A949117 
 127      02D38030 
 127      1DD6
 128 02ec 3DB54874 		.ascii	"=\265Ht2>u\251\373[\213j\000\340J\276H\276!\232^\250"
 128      323E75A9 
 128      FB5B8B6A 
 128      00E04ABE 
 128      48BE219A 
 129 0302 8A0C3719 		.ascii	"\212\0147\031\336q\220\345\272\252\216\261\370\357\251"
 129      DE7190E5 
 129      BAAA8EB1 
 129      F8EFA9
 130 0311 DD407645 		.ascii	"\335@vEo+\315\236\031\301/&\373\375\267G\322s\351H\317"
 130      6F2BCD9E 
 130      19C12F26 
 130      FBFDB747 
 130      D273E948 
 131 0326 017A6704 		.ascii	"\001zg\004\177V\332U\327\211\305\024\374?S\015J\301"
 131      7F56DA55 
 131      D789C514 
 131      FC3F530D 
 131      4AC1
 132 0338 3C5CD3F8 		.ascii	"<\\\323\370$\361\235\312\310\023\352\276\030\275}\371"
 132      24F19DCA 
 132      C813EABE 
 132      18BD7DF9 
 133 0348 967712D3 		.ascii	"\226w\022\323W\300\\\233!\252\004\021\377\0231\353\352"
 133      57C05C9B 
 133      21AA0411 
 133      FF1331EB 
 133      EA
 134 0359 7E574409 		.ascii	"~WD\011E\262{\360\235\"y}J)5\324\367q\265&\237\243\236"
ARM GAS  C:\Users\JEFFSN~1\AppData\Local\Temp\ccE5sBAf.s 			page 10


 134      45B27BF0 
 134      9D22797D 
 134      4A2935D4 
 134      F771B526 
 135 0370 37E4A89B 		.ascii	"7\344\250\233?\277\026\362g@\345\217\214\275!o\320\277"
 135      3FBF16F2 
 135      6740E58F 
 135      8CBD216F 
 135      D0BF
 136 0382 21EC9CF9 		.ascii	"!\354\234\371\214n#7F\200\243x\307.Y\021\254\016\326"
 136      8C6E2337 
 136      4680A378 
 136      C72E5911 
 136      AC0ED6
 137 0395 AEDD14AC 		.ascii	"\256\335\024\254\252(\257\331\\[\031\\\375yyM\351G\253"
 137      AA28AFD9 
 137      5C5B195C 
 137      FD79794D 
 137      E947AB
 138 03a8 4BD76E2C 		.ascii	"K\327n,\017V\177\035\254XY\275\251tCM\345\372\245\225"
 138      0F567F1D 
 138      AC5859BD 
 138      A974434D 
 138      E5FAA595 
 139 03bc CC5BB3A1 		.ascii	"\314[\263\241\352\323u[\326U\005k\377\003\003\3056\327"
 139      EAD3755B 
 139      D655056B 
 139      FF0303C5 
 139      36D7
 140              		.text
 141              		.section	.gnu.lto_CapSense_IntClock_StandbyPower.63312bd9,"",%progbits
 142 0000 789C8D51 		.ascii	"x\234\215Q\277K[Q\024>\337\275\367%\217\330\364/\010"
 142      BF4B5B51 
 142      143EDFBD 
 142      F7258FD8 
 142      F42F08
 143 0013 D24DA445 		.ascii	"\322M\244E[\304\265K\206R\272H\263*\"\351\233Z\022\321"
 143      5BC4B54B 
 143      8652BA48 
 143      B32A22E9 
 143      9B5A12D1 
 144 0027 74F6C624 		.ascii	"t\366\306$\010B\241\213\026*i&\321Z\333TK)R\207\327"
 144      0842A18B 
 144      162A6926 
 144      D15ADB54 
 144      4B295287 
 145 003c 0C0E0EBA 		.ascii	"\014\016\016\2728\011b\333!\203\364G\244)\375A5=\347"
 145      380962DB 
 145      2183F447 
 145      A429FD41 
 145      353DE7
 146 004f 5DBB4A2F 		.ascii	"]\273J/\334s\317;|\337w\276s\236!\220\234AE4\300\357"
 146      DC73CF3B 
 146      7CDF77BE 
 146      739E2190 
 146      9C414534 
 147 0065 75BE8811 		.ascii	"u\276\210\021\324\303\035\242\242\257\224\336\354&\233"
ARM GAS  C:\Users\JEFFSN~1\AppData\Local\Temp\ccE5sBAf.s 			page 11


 147      D4C31DA2 
 147      A2AF94DE 
 147      EC269B
 148 0074 307BFD64 		.ascii	"0{\375d/hx\256l\376%\036 \211\365ASJ\033\017S\370\256"
 148      2F6878AE 
 148      6CFE251E 
 148      2089F541 
 148      534A1B0F 
 149 008b 4E141A33 		.ascii	"N\024\0323\315\015\325\273d\371\274_\254_\263\313!*"
 149      CD0DD5BB 
 149      64F9BC5F 
 149      AC5FB3CB 
 149      212A
 150 009d 9AA8A3A2 		.ascii	"\232\250\243\242f\204%\3642\352\240\372\365\233\321"
 150      668425F4 
 150      32EAA0FA 
 150      F59BD1
 151 00ac 7D20CEAB 		.ascii	"} \316\253\341\353\226\356Y\264v\332\3327#VW4\260\014"
 151      E1EB96EE 
 151      59B476DA 
 151      DA372356 
 151      5734B00C 
 152 00c0 CD0C0CA4 		.ascii	"\315\014\014\244p5E\\ <E\217\200?\256\235\316%ce\221"
 152      7035455C 
 152      203C458F 
 152      803FAE9D 
 152      CE256365 
 153 00d5 BFE444B1 		.ascii	"\277\344D\261\202\230LR\277\035\332N\247d\303\223\304"
 153      82984C52 
 153      BF1DDA4E 
 153      A764C393 
 153      C4
 154 00e6 BB275D09 		.ascii	"\273']\011\005\241\030&+OB\\\202/\201\250\305W\314\037"
 154      05A11826 
 154      2B4F425C 
 154      822F81A8 
 154      C557CC1F 
 155 00fa 2B25AFFE 		.ascii	"+%\257\376\200\362~\2513\027\027\251\222\226)\352\237"
 155      80F27EA9 
 155      331717A9 
 155      929629EA 
 155      9F
 156 010b 367E25DB 		.ascii	"6~%\333\212\321\334\372\031R\221\367c\245i\263[7\321"
 156      8AD1DCFA 
 156      195291F7 
 156      63A569B3 
 156      5B37D1
 157 011e F83DBBB3 		.ascii	"\370=\273\263:\017\0077\014\237\2574v\343\002\327\321"
 157      3A0F0737 
 157      0C9FAF34 
 157      76E302D7 
 157      D1
 158 012f 448FBED4 		.ascii	"D\217\276\324\036$\335\347\372L\321\012\242}\270u\220"
 158      1E24DDE7 
 158      FA4CD10A 
 158      A27DB875 
 158      90
ARM GAS  C:\Users\JEFFSN~1\AppData\Local\Temp\ccE5sBAf.s 			page 12


 159 0140 A8A15A2C 		.ascii	"\250\241Z,\363:\014\236#\205U\221\305\013\324@M\224"
 159      F33A0C9E 
 159      23855591 
 159      C50BD440 
 159      4D94
 160 0152 FEC49C9C 		.ascii	"\376\304\234\234\347\024\027\016?7/\212\204\301\017"
 160      E714170E 
 160      3F372F8A 
 160      84C10F
 161 0161 A0CE506E 		.ascii	"\240\316Pn\353Z\236\247\366\222\325X#2kh\257\337\231"
 161      EB5A9EA7 
 161      F692D558 
 161      23326B68 
 161      AFDF99
 162 0174 3DBAE2B4 		.ascii	"=\272\342\264\343\347Q\327\316\214\374<3\342;\374\343"
 162      E3E751D7 
 162      CE8CFC3C 
 162      33E23BFC 
 162      E3
 163 0185 B7ED6DCF 		.ascii	"\267\355m\317m\302\307\372\377\372x\025\371\360#\037"
 163      6DC2C7FA 
 163      FFFA7815 
 163      F9F0231F 
 164 0195 5EB4E323 		.ascii	"^\264\343#L\207\265[\302\213v\331\342\305r\231\177\304"
 164      4C87B55B 
 164      C28B76D9 
 164      E2C57299 
 164      7FC4
 165 01a7 E51B412E 		.ascii	"\345\033A.\230\030+\004wF3\371\373\023\331`x(\223O\017"
 165      98182B04 
 165      774633F9 
 165      FB13D960 
 165      7828934F 
 166 01bc 0EA7C7C6 		.ascii	"\016\247\307\3063An2\030\275\231+\244\357\345\263w\373"
 166      33416E32 
 166      18BD992B 
 166      A4EFE5B3 
 166      77FB
 167 01ce B2E44D16 		.ascii	"\262\344M\026\030\370\027\276z\316\326"
 167      18F817BE 
 167      7ACED6
 168              		.text
 169              		.section	.gnu.lto_CapSense_IntClock_GetDividerRegister.63312bd9,"",%progbits
 170 0000 789C6361 		.ascii	"x\234ca`d\000\201\037@\254\013\304\322@\314\310\314"
 170      60640081 
 170      1F40AC0B 
 170      C4D240CC 
 170      C8CC
 171 0012 C0C834E1 		.ascii	"\300\3104\341\034\003C#\007\023##\210\321\300\301\310"
 171      1C034323 
 171      07132323 
 171      88D1C0C1 
 171      C8
 172 0023 50CFC458 		.ascii	"P\317\304X\317\370\225\351/\023\343\321\377\337\017"
 172      CFF895E9 
 172      2F13E3D1 
 172      FFDF0F
ARM GAS  C:\Users\JEFFSN~1\AppData\Local\Temp\ccE5sBAf.s 			page 13


 173 0032 F07F616A 		.ascii	"\360\177aj\005)\003r/}83\227\033\304ed\024\000rW-Y\377"
 173      05290372 
 173      2F7D3833 
 173      971BC465 
 173      64140072 
 174 004a 89437379 		.ascii	"\211CsyCCS\303\203\245\333\234\032\233[5Z\231\231\030"
 174      434353C3 
 174      83A5DB9C 
 174      1A9B5B35 
 174      5A999918 
 175 005e FE333130 		.ascii	"\376310\256`\224a\\\316(\003\262b%\243&\003P\361\243"
 175      AE609461 
 175      5CCE2803 
 175      B26225A3 
 175      260350F1 
 176 0073 8DFFA6F2 		.ascii	"\215\377\246\362\262\2654\000\201\002H\011Pf\025#\033"
 176      B2B53400 
 176      81024809 
 176      50661523 
 176      1B
 177 0084 C849EB83 		.ascii	"\310I\353\203\0164\374\377\337\334p`\253\360\301\035"
 177      0E34FCFF 
 177      DFDC7060 
 177      ABF0C11D 
 178 0094 C2400340 		.ascii	"\302@\003@\2060|\000b\220\203>21\201h\346g\214\207~"
 178      86307C00 
 178      6290833E 
 178      32318168 
 178      E6678C87 
 179 00a9 75DD3B6B 		.ascii	"u\335;k\001\322\325\314\014r\315\264\326C\347\331A\256"
 179      01D2D5CC 
 179      0C72CDB4 
 179      D643E7D9 
 179      41AE
 180 00bb 61660459 		.ascii	"af\004Y\260\362\317\311\020\010\257\247\261\261\201"
 180      B0F2CFC9 
 180      1008AFA7 
 180      B1B181
 181 00ca 0528D2F4 		.ascii	"\005(\322\364|\375*\226\371\214s\033[\030[\231Y\030"
 181      7CFD2A96 
 181      F98C731B 
 181      5B185B99 
 181      5918
 182 00dc D700DDB4 		.ascii	"\327\000\335\264\032\344&\306\265\214\363\031\031^1"
 182      1AE426C6 
 182      B58CF319 
 182      195E31
 183 00eb 3241CD02 		.ascii	"2A\315\002\205\312\007&F\2205@\266\266{j^jQbIjJ|p~i"
 183      85CA0726 
 183      46903540 
 183      B6B67B6A 
 183      5E6A5162 
 184 0106 51726A4C 		.ascii	"QrjL@p\276\263i\214sbApj^qj\274g^\211sN~r\266^2\003"
 184      4070BEB3 
 184      698C7362 
 184      41706A5E 
 184      716ABC67 
ARM GAS  C:\Users\JEFFSN~1\AppData\Local\Temp\ccE5sBAf.s 			page 14


 185 0124 00DDC668 		.ascii	"\000\335\306h\221"
 185      91
 186              		.text
 187              		.section	.gnu.lto_CapSense_IntClock_SetModeRegister.63312bd9,"",%progbits
 188 0000 789C7D51 		.ascii	"x\234}Q=HcA\020\236o\367\345%x\034\327\331\\\012\273"
 188      3D486341 
 188      109E6FF7 
 188      E525781C 
 188      D7D95C0A 
 189 0015 2082C8C9 		.ascii	" \202\310\311\025\327^\012\261\020\304\200\225\022B"
 189      15D75E0A 
 189      B110C480 
 189      951242
 190 0024 7C85A889 		.ascii	"|\205\250\211h\204\253t\223\347C\260\020\033\005\021"
 190      6884AB74 
 190      93E743B0 
 190      101B0511 
 191 0034 B112FF15 		.ascii	"\261\022\377\025\305FD}\246\026\357\260\023\024\304"
 191      C546447D 
 191      A616EFB0 
 191      1314C4
 192 0043 831C581C 		.ascii	"\203\034X\034\236\370\207\250q&\261\260\272\205\235"
 192      9EF887A8 
 192      7126B1B0 
 192      BA859D
 193 0052 996FF69B 		.ascii	"\231o\366\233ogv-\002\311\362\331}c\377\23174A\215\037"
 193      6F67762D 
 193      02C9F2D9 
 193      7D63FF99 
 193      3734418D 
 194 0067 1165430A 		.ascii	"\021eC\012\220\300\204@C\012C\270U\317\012\371\221\302"
 194      90C08440 
 194      430A43B8 
 194      55CF0AF9 
 194      91C2
 195 0079 B6AA9E37 		.ascii	"\266\252\2367\274\316\275?_\314\202\017O\023\025UI\211"
 195      BCCEBD3F 
 195      5FCC820F 
 195      4F131555 
 195      4989
 196 008b 308F6A66 		.ascii	"0\217jf\345\246\357\177[\272\026\304\361\323\341\331"
 196      E5A6EF7F 
 196      5BBA16C4 
 196      F1D3E1D9 
 197 009b 694564CE 		.ascii	"iEd\316\230\2341\273\355F{\032X\200\346\012\324\207"
 197      989C31BB 
 197      ED467B1A 
 197      5880E60A 
 197      D487
 198 00ad 5117264E 		.ascii	"Q\027&N\020\026\021\021\362\305\306\313\304G{X\344\253"
 198      10161111 
 198      F2C5C6CB 
 198      C4477B58 
 198      E4AB
 199 00bf CAA25882 		.ascii	"\312\242X\202-m\256\267\370\246Xt\215\277Sy\260WY\241"
 199      2D6DAEB7 
 199      F8A65874 
ARM GAS  C:\Users\JEFFSN~1\AppData\Local\Temp\ccE5sBAf.s 			page 15


 199      8DBF5379 
 199      B05759A1 
 200 00d3 B84C6936 		.ascii	"\270Li6\332\202\024\007$\264\305\004\305\204\344\230"
 200      DA821407 
 200      24B4C504 
 200      C584E498 
 201 00e3 E88AB7CC 		.ascii	"\350\212\267\314\360O)\361\272\200\374\343\350\335\311"
 201      F04F29F1 
 201      BA80FCE3 
 201      E8DDC9
 202 00f2 A088BA5A 		.ascii	"\240\210\272Z\346\231\364\362?\2037\312c\031\271\177"
 202      E699F4F2 
 202      3F8337CA 
 202      6319B97F 
 203 0102 D5757F05 		.ascii	"\325u\177\005\312p,\2335\026\2476\377\356L\331\263\230"
 203      CA702C9B 
 203      3516A736 
 203      FFEE4CD9 
 203      B398
 204 0114 C90EF3A4 		.ascii	"\311\016\363\244\001\254 \214e\204\271\261U\314\202"
 204      01AC208C 
 204      6584B9B1 
 204      55CC82
 205 0123 0AC85D07 		.ascii	"\012\310]\007\313r\232\025\337\343\200\253-\306\356"
 205      CB729A15 
 205      DFE380AB 
 205      2DC6EE
 206 0132 935DC692 		.ascii	"\223]\306\222b=\357xb\353\223\\\241\361\003k\254\304"
 206      623DEF78 
 206      62EB935C 
 206      A1F1036B 
 206      ACC4
 207 0144 9487374A 		.ascii	"\224\2077J\260\244b\277W\011q\226q~\022\202\377\327"
 207      B0A462BF 
 207      57097196 
 207      717E1282 
 207      FFD7
 208 0156 CF3AF7C3 		.ascii	"\317:\367\303|\272D\316\337o\025v\351K\256\024dv~\211"
 208      7CBA44CE 
 208      DF6F1576 
 208      E94BAE14 
 208      64767E89 
 209 016a 9A0627E5 		.ascii	"\232\006'\345\364%2NG<\226\036\350K:m\315\261t\364k"
 209      F425324E 
 209      473C961E 
 209      E84B3A6D 
 209      CDB174F4 
 210 017f 5B34D11B 		.ascii	"[4\321\033sR\375N\2741\225\211v\247\223]\265I\372\320"
 210      7352FD4E 
 210      BC319589 
 210      76A7935D 
 210      B549FAD0 
 211 0193 93EE70BE 		.ascii	"\223\356p\276wf\232\022\375]\257\016\311\240g"
 211      77669A12 
 211      FD5DAF0E 
 211      C9A067
 212              		.text
ARM GAS  C:\Users\JEFFSN~1\AppData\Local\Temp\ccE5sBAf.s 			page 16


 213              		.section	.gnu.lto_CapSense_IntClock_ClearModeRegister.63312bd9,"",%progbits
 214 0000 789C7D50 		.ascii	"x\234}P=H[Q\030\375\316\275/\317\240tvh\006\267\020"
 214      3D485B51 
 214      18FDCEBD 
 214      2FCFA074 
 214      766806B7 
 215 0015 8420950E 		.ascii	"\204 \225\016]\315 \035\012\322\014.)\022\342\033$6"
 215      5DCD201D 
 215      0AD20C2E 
 215      2912E21B 
 215      2436
 216 0027 9124AEF5 		.ascii	"\221$\256\365&\317\247\340 .\015\250\210S\211\255?\241"
 216      26CFA7E0 
 216      202E0DA8 
 216      885389AD 
 216      3FA1
 217 0039 DDC42566 		.ascii	"\335\304%f\226h \335j)\02538\024\005KJI\215\337\227"
 217      966820DD 
 217      6A291533 
 217      3814054B 
 217      4A498DDF 
 218 004e B7F7C2BD 		.ascii	"\267\367\302\275\337w\017\347\234{\276k\021H\326\026"
 218      DF770FE7 
 218      9C7BBE6B 
 218      1148D616 
 219 005e 97175C9F 		.ascii	"\227\027\\\237\362\206&\250\215\006Q1\250\000iL\020"
 219      F28626A8 
 219      8D065131 
 219      A800694C 
 219      10
 220 006f B4A4B084 		.ascii	"\264\244\260\204\337\352\237B}\265}\254\"\025\303\353"
 220      DFEA9F42 
 220      7DB57DAC 
 220      2215C3EB 
 221 007f C775E799 		.ascii	"\307u\347\231\331\253\301\323D=\325w\"T\020aVi\273s"
 221      D9ABC1D3 
 221      443DD577 
 221      22541061 
 221      5669BB73 
 222 0093 65E92888 		.ascii	"e\351(\210\373\356\331\345\267\301\360\007cJ\3064\337"
 222      FBEED9E5 
 222      B7C1F007 
 222      634AC634 
 222      DF
 223 00a4 18ED6960 		.ascii	"\030\355i`\017\232\025\030\017a,D\014\020>\",\344\237"
 223      0F9A1518 
 223      0F612C44 
 223      0C103E22 
 223      2CE49F
 224 00b7 9F1FDE3F 		.ascii	"\237\037\336?\261\227\305~\3047\305'\330\022\263\372"
 224      B197C57E 
 224      C437C527 
 224      D812B3FA 
 225 00c7 BA667A3D 		.ascii	"\272fz=\327\324\232\303\247\255\341\240b\231b'\326Y"
 225      D7D49AC3 
 225      A7ADE1A0 
 225      62996227 
ARM GAS  C:\Users\JEFFSN~1\AppData\Local\Temp\ccE5sBAf.s 			page 17


 225      D659
 226 00d9 D206E4B0 		.ascii	"\322\006\344\260\345 \272\345-\311\357\224\222\252\333"
 226      E520BAE5 
 226      2DC9EF94 
 226      92AADB
 227 00e8 A8FF5D6B 		.ascii	"\250\377]k|\177'V\256\226)\312^\375|\340^yZ\367#\036"
 227      7C7F2756 
 227      AE9629CA 
 227      5EFD7CE0 
 227      5E795AF7 
 228 00fe BAEE45C0 		.ascii	"\272\356E\300\277\256\027\213\306b\350\313\257\223M"
 228      BFAE178B 
 228      C662E8CB 
 228      AF934D
 229 010d 7B173BC5 		.ascii	"{\027;\305e\236\317\302\001B\330G\210\343\034b\027\324"
 229      659ECFC2 
 229      0142D847 
 229      88E31C62 
 229      17D4
 230 011f 46E961A5 		.ascii	"F\351a\245e\371\206\226\2535#\356\237\225\256\366\221"
 230      65F98696 
 230      AB3523EE 
 230      9F95AEF6 
 230      91
 231 0130 0083EC71 		.ascii	"\000\203\354q\277\346u\264\330*\014\340\210\325L\352"
 231      BFE675B4 
 231      D82A0CE0 
 231      88D54CEA 
 232 0140 DA3E4582 		.ascii	"\332>E\2020\221\241z\031\002\375\357\315*\277\311\022"
 232      3091A17A 
 232      1902FDEF 
 232      CD2ABFC9 
 232      12
 233 0151 BA41A9F6 		.ascii	"\272A\251\366uZ\330\375\317\276U\220\371x\332\321I'"
 233      755AD8FD 
 233      CFBE5590 
 233      F978DAD1 
 233      4927
 234 0163 E3E49205 		.ascii	"\343\344\222\005gv&\236]\314\245\234\304T<\033{\236"
 234      6776269E 
 234      5DCCA59C 
 234      C4543C1B 
 234      7B9E
 235 0175 882517E2 		.ascii	"\210%\027\342N&\357\314\274\314\024b\363\331T:\232\242"
 235      4E26EFCC 
 235      BCCC1462 
 235      F3D9543A 
 235      9AA2
 236 0187 A1B7D959 		.ascii	"\241\267\331Ygb\256\360*\231O?\002\356J\232\033"
 236      6762AEF0 
 236      2A994F3F 
 236      02EE4A9A 
 236      1B
 237              		.text
 238              		.section	.gnu.lto_CapSense_IntClock_GetModeRegister.63312bd9,"",%progbits
 239 0000 789C6361 		.ascii	"x\234ca`d\000\001& \245\013\244\245\201\230\221\231"
 239      60640001 
ARM GAS  C:\Users\JEFFSN~1\AppData\Local\Temp\ccE5sBAf.s 			page 18


 239      2620A50B 
 239      A4A58198 
 239      9199
 240 0012 819169C2 		.ascii	"\201\221i\3029\006\206F\016&FF\020\243\201\203\221\241"
 240      39068646 
 240      0E264646 
 240      10A38183 
 240      91A1
 241 0024 9E89B19E 		.ascii	"\236\211\261\236\361+\323_&\306\323\337O\364pi.ohhj"
 241      F12BD35F 
 241      26C6D3DF 
 241      4FF47069 
 241      2E6F6868 
 242 0039 78D0BAD8 		.ascii	"x\320\272\330z\372\212\003\214\255\314\014\014\377\231"
 242      7AFA8A03 
 242      8CADCC0C 
 242      0CFF99
 243 0048 18188D65 		.ascii	"\030\030\215e\030\015d@F,g\324d\000*}\264\361\337T^"
 243      180D6440 
 243      462C67D4 
 243      64002A7D 
 243      B4F1DF54 
 244 005d B6960620 		.ascii	"\266\226\006 P\000)\000\312\254`d\003Y\271>\350@\303"
 244      50002900 
 244      CAAC6064 
 244      0359B93E 
 244      E840C3
 245 0070 FFFFCD0D 		.ascii	"\377\377\315\015\007fK\035\234'\305\302\304\320\312"
 245      07664B1D 
 245      9C27C5C2 
 245      C4D0CA
 246 007f 0CB41764 		.ascii	"\014\264\027d\016\303\007\240:\220\255\037\231\230@"
 246      0EC307A0 
 246      3A90AD1F 
 246      999840
 247 008e 34F333C6 		.ascii	"4\3633\306C\277\272\276\275\260\000imf\006\271`Z\353"
 247      43BFBABE 
 247      BDB00069 
 247      6D6606B9 
 247      605AEB
 248 00a1 A1F3EC5F 		.ascii	"\241\363\354_\230Z\231\201\316\006r\32767_`\205p\373"
 248      985A9981 
 248      CE0672D7 
 248      36375F60 
 248      8570FB
 249 00b4 1A1B1B58 		.ascii	"\032\033\033X\200B\233\336\355\236\3116\237qnc\013\320"
 249      80429BDE 
 249      ED9EC936 
 249      9F716E63 
 249      0BD0
 250 00c6 6DCC8CAB 		.ascii	"m\314\214\253\030e\030W2\002]\306\270\232q>#\3033\306"
 250      18651857 
 250      32025DC6 
 250      B89A713E 
 250      23C333C6 
 251 00da E63F6C10 		.ascii	"\346?l\020\343\230!&NXq\371\030\007\310\010\006\306"
 251      E3982126 
ARM GAS  C:\Users\JEFFSN~1\AppData\Local\Temp\ccE5sBAf.s 			page 19


 251      4E5871F9 
 251      1807C808 
 251      06C6
 252 00ec 1F8C8C6B 		.ascii	"\037\214\214k\200J_12AU0\200\335\304\010r\013\320e\332"
 252      804A5F31 
 252      32415530 
 252      80DDC408 
 252      720BD065 
 253 0101 EEA979A9 		.ascii	"\356\251y\251E\211%\251)\361\301\371\245E\311\2511\001"
 253      458925A9 
 253      29F1C1F9 
 253      A545C9A9 
 253      3101
 254 0113 C1F9CEA6 		.ascii	"\301\371\316\2461\316\211\005\301\251y\305\251\361\236"
 254      31CE8905 
 254      C1A979C5 
 254      A9F19E
 255 0122 7925CE39 		.ascii	"y%\3169\371\311\331z\311\014\000v\336f\345"
 255      F9C9D97A 
 255      C90C0076 
 255      DE66E5
 256              		.text
 257              		.section	.gnu.lto_CapSense_IntClock_GetSourceRegister.63312bd9,"",%progbits
 258 0000 789C2D8E 		.ascii	"x\234-\216\275K\003A\024\304\337\354\236\227 \372\027"
 258      BD4B0341 
 258      14C4DFEC 
 258      9E9720FA 
 258      17
 259 0011 18826D10 		.ascii	"\030\202m\020E\020A\260\274B\354\304k\003!\304\253\224"
 259      451041B0 
 259      BC42ECC4 
 259      6B0321C4 
 259      AB94
 260 0023 8BC45867 		.ascii	"\213\304Xg\317\3135\"b\243\301BR\346\342\007\242\255"
 260      CFCB3522 
 260      62A3C142 
 260      52E6E207 
 260      A2AD
 261 0035 CD99CA0F 		.ascii	"\315\231\312\017PAH-\026)R\210\202\"\004\365\334g|\315"
 261      5041482D 
 261      16295288 
 261      822204F5 
 261      DC677CCD 
 262 0049 BCDD9D9D 		.ascii	"\274\335\235\235\371\031\004\342\201\226q\255#\274K"
 262      F91904E2 
 262      819671AD 
 262      23BC4B
 263 0058 82D8B923 		.ascii	"\202\330\271#\362\222\002\340E%A\025\201\012>\304\267"
 263      F29202E0 
 263      45254115 
 263      810A3EC4 
 263      B7
 264 0069 C0EDE7D5 		.ascii	"\300\355\347\325\326`\246\241\324\206z\012\272\263\265"
 264      D660A6A1 
 264      D4867A0A 
 264      BAB3B5
 265 0078 30422089 		.ascii	"0B \211bA\230Ja2\305\021\015dH[\237\317~v\207\315\252"
ARM GAS  C:\Users\JEFFSN~1\AppData\Local\Temp\ccE5sBAf.s 			page 20


 265      6241984A 
 265      6132C511 
 265      0D64485B 
 265      9FCF7E76 
 266 008f D233CA06 		.ascii	"\3223\312\006\375\022\302\344\312\323\305H\305\261\257"
 266      FD12C2E4 
 266      CAD3C548 
 266      C5B1AF
 267 009e A2C7F465 		.ascii	"\242\307\364e;m\010\012\244\356\345\034z\325>n}\023"
 267      3B6D080A 
 267      A4EEE51C 
 267      7AD53E6E 
 267      7D13
 268 00b0 825576D0 		.ascii	"\202Uv\320\352m\266{3\374\325\227L\260\027\264\356\023"
 268      EA6DB67B 
 268      33FCD597 
 268      4CB017B4 
 268      EE13
 269 00c2 EF229002 		.ascii	"\357\"\220\002\334r\342\373\017\003\375\343\266\347"
 269      DC72E2FB 
 269      0F03FDE3 
 269      B6E7
 270 00d0 29435F9D 		.ascii	")C_\235\277\\\354\233u\034xU\315&q\210\024\232\320d"
 270      BF5CEC9B 
 270      751C7855 
 270      CD267188 
 270      149AD064 
 271 00e4 38421DD4 		.ascii	"8B\035\324\201\377e\366\343d?\361\372\246\026\016q\004"
 271      81FF65F6 
 271      E3643FF1 
 271      FAA6160E 
 271      7104
 272 00f6 218163ED 		.ascii	"!\201c\355\354B\374\033\350\017\011\214\242\301\306"
 272      EC42FC1B 
 272      E80F098C 
 272      A2C1C6
 273 0105 E61CD729 		.ascii	"\346\034\327)\345\313\316R\316.\256\227\012Nv\301.Z"
 273      E5CBCE52 
 273      CE2EAE97 
 273      0A4E76C1 
 273      2E5A
 274 0117 D3592BBF 		.ascii	"\323Y+\277j;\356\232\223\233w\313\326J\261\260<Q\240"
 274      6A3BEE9A 
 274      939B77CB 
 274      D64AB1B0 
 274      3C51A0
 275 012a 5F8AE866 		.ascii	"_\212\350f\250"
 275      A8
 276              		.text
 277              		.section	.gnu.lto_CapSense_IntClock_SetDividerRegister.63312bd9,"",%progbits
 278 0000 789C8D56 		.ascii	"x\234\215VmLSW\030>\357\275\275\355m{\333B\313\227\261"
 278      6D4C5357 
 278      183EEFBD 
 278      BDED6D7B 
 278      DB42CB97 
 279 0015 896882A8 		.ascii	"\211h\202\250S\347\262\370\303-[b\\\266,\331\217E\314"
 279      53E7B2F8 
ARM GAS  C:\Users\JEFFSN~1\AppData\Local\Temp\ccE5sBAf.s 			page 21


 279      C32D5B62 
 279      5CB62CD9 
 279      8F45CC
 280 0028 FE686618 		.ascii	"\376hf\030\364\207\221\300Rq?\366\207[\012\312:\307"
 280      F48791C0 
 280      52713FF6 
 280      875B0ACA 
 280      3AC7
 281 003a FC60A00C 		.ascii	"\374`\240\014\346\":\025tP\374\002T\250LD\020\221\251"
 281      E6223A15 
 281      7450FC02 
 281      54A84C44 
 281      1091A9
 282 004d 80CA868A 		.ascii	"\200\312\206\212X\231QF\035\023E';_-\005\007\363&\274"
 282      58995146 
 282      1D134527 
 282      3B5F2D05 
 282      07F326BC 
 283 0061 BDEF39EF 		.ascii	"\275\3579\357\373\234\367<\357s\016W\203\000\221\247"
 283      FB9CF73C 
 283      EF730E57 
 283      830091A7 
 284 0071 CB88D06A 		.ascii	"\313\210\320j\374\273\014\273\020\207@\330\332\216\220"
 284      FCBB0CBB 
 284      108740D8 
 284      DA8E90
 285 0080 4B1604B1 		.ascii	"K\026\004\261\345]\244\032\242\233-HUDA\223\227\210"
 285      E55DA41A 
 285      A29B2D48 
 285      55444193 
 285      9788
 286 0092 3D3DB18A 		.ascii	"==\261\212F\320RO\242\236\304=6\247\025t\324\223\251"
 286      46D0524F 
 286      A29EC43D 
 286      36A71574 
 286      D493A9
 287 00a5 A7836806 		.ascii	"\247\203h\006'\007_\364\202\201\316[\350\274AP\250g"
 287      27075FF4 
 287      8281CE5B 
 287      E8BC4150 
 287      A867
 288 00b7 A49E917B 		.ascii	"\244\236\221{lN\001\023K1\011\261[\232\021\0367\347"
 288      6C4E0113 
 288      4B3109B1 
 288      5B9A111E 
 288      37E7
 289 00c9 E8F0782C 		.ascii	"\350\360x,\033_n\006\013\233\267\010\0214-\212\246E"
 289      1B5F6E06 
 289      0B9BB708 
 289      11342D8A 
 289      A645
 290 00db 0856EA45 		.ascii	"\010V\352ER/\022\254,\310\0126\366b\023b\030Z4E\213"
 290      522F12AC 
 290      2CC80A36 
 290      F6621362 
 290      185A3445 
 291 00f0 61E3CBA3 		.ascii	"a\343\313\243\202\005F\003\220\027U\006\224%\210\032"
ARM GAS  C:\Users\JEFFSN~1\AppData\Local\Temp\ccE5sBAf.s 			page 22


 291      82054603 
 291      90175506 
 291      9425881A 
 292 0100 49AB93F5 		.ascii	"I\253\223\365\006\243b\2125[\"\"\255\266\230\250h\310"
 292      06A3628A 
 292      355B2222 
 292      ADB698A8 
 292      68C8
 293 0112 124D883D 		.ascii	"\022M\210=6\376\373\267\360\217\000\215\233\375\265"
 293      36FEFBB7 
 293      F08F008D 
 293      9BFDB5
 294 0121 C2FCFD2A 		.ascii	"\302\374\375*~n\355\353{C=\340\203\\\021\2411\201\305"
 294      7E6EEDEB 
 294      7B433DE0 
 294      835C11A1 
 294      3181C5
 295 0134 C07E988F 		.ascii	"\300~\230\217\243\232\306F|\226a!W\004 I\227\207\332"
 295      A39AC646 
 295      7C966121 
 295      57042049 
 295      9787DA
 296 0147 4A8DC415 		.ascii	"J\215\304\025 \002\273\233\036u\367+\342b@\370\275\242"
 296      2002BB9B 
 296      1E75F72B 
 296      E26240F8 
 296      BDA2
 297 0159 AAC16349 		.ascii	"\252\301cI\334\247\252\331\252\332\231\254J\271\242"
 297      DCA7AAD9 
 297      AADA99AC 
 297      4AB9A2
 298 0168 08E52062 		.ascii	"\010\345 b<8\010v8\000v\204\207\020T@\"\216.\177\354"
 298      3C380876 
 298      38007684 
 298      87105440 
 298      228E2E7F 
 299 017d 796E1097 		.ascii	"yn\020\227\321\314o\374\267\013\215<s\3279\243\272$"
 299      D1CC6FFC 
 299      B70B8D3C 
 299      73D739A3 
 299      BA24
 300 018f 57D4C021 		.ascii	"W\324\300!\226\372\246\035\226\220D\015\202\303\220"
 300      96FAA61D 
 300      9690440D 
 300      82C390
 301 019e 48A2F3EF 		.ascii	"H\242\363\357\226w+\342r\232\331\343\256\3506%\224\221"
 301      96772BE2 
 301      729AD9E3 
 301      AEE83625 
 301      9491
 302 01b0 4CDFEE7C 		.ascii	"L\337\356|\363N\325\227\035O\326\375y\342\272\344\301"
 302      F34ED597 
 302      1D4FD6FD 
 302      79E2BAE4 
 302      C1
 303 01c1 D1DE9AEA 		.ascii	"\321\336\232\352\275z\361#\232\331]\342\375C\341\231"
 303      BD7AF123 
ARM GAS  C:\Users\JEFFSN~1\AppData\Local\Temp\ccE5sBAf.s 			page 23


 303      9AD95DE2 
 303      FD43E199 
 304 01d1 A5EDA622 		.ascii	"\245\355\246\"\325\347\212'\313V\205/\313\363\256\265"
 304      D5E78A27 
 304      CB56852F 
 304      CBF3AEB5 
 305 01e1 BAB66BC4 		.ascii	"\272\266k\304U4\357z\307\266?-<og\273Q\255Re\222V\375"
 305      5534EF7A 
 305      C7B63F2D 
 305      3C6F67BB 
 305      51AD5265 
 306 01f8 1F697DDE 		.ascii	"\037i}\336\027\337\231\2649\204\340x8\002\011\340\305"
 306      17DF99B4 
 306      3984E078 
 306      380209E0 
 306      C5
 307 0209 7F9590C0 		.ascii	"\177\225\220\300(\206\243\240\305\032\026\303g*W\372"
 307      2886A3A0 
 307      C51A16C3 
 307      672A57FA 
 308 0219 D4B131B7 		.ascii	"\324\2611\267\352+2\237\351\265\276\016x\337\222\026"
 308      EA2B329F 
 308      E9B5BE0E 
 308      78DF9216 
 309 0229 91591991 		.ascii	"\221Y\031\221y=\020\366\014xXk$FA$\333D^\315\304X\211"
 309      793D10F6 
 309      0C78586B 
 309      24464124 
 309      DB445ECD 
 310 0240 B1111347 		.ascii	"\261\021\023G\314\014bf\022C\030\324\316\"&\236\230"
 310      CC0C6266 
 310      124318D4 
 310      CE22269E 
 310      98
 311 0251 D9C4CC21 		.ascii	"\331\304\314!&\201\230\271\304\314\003B\360\002\362"
 311      268198B9 
 311      C4CC0342 
 311      F002F2
 312 0260 BA909845 		.ascii	"\272\220\230E\304 4\204k\335bG\001A\300?\342\000\270"
 312      C4203484 
 312      6BDD6247 
 312      0141C03F 
 312      E200B8
 313 0273 095BA476 		.ascii	"\011[\244v\267\250\305{\254\255}\320\243\313\372G\315"
 313      B7A8C57B 
 313      ACAD7DD0 
 313      A3CBFA47 
 313      CD
 314 0284 53D5885C 		.ascii	"S\325\210\\Q7&\220cy\014\262p\262\214\372@\240\273\304"
 314      51372690 
 314      63790CB2 
 314      70B28CFA 
 314      40A0BBC4 
 315 0298 F5E36844 		.ascii	"\365\343hD\222q\223X\262\374R\262~\014\257\201\3408"
 315      92719358 
 315      B2FC52B2 
 315      7E0CAF81 
ARM GAS  C:\Users\JEFFSN~1\AppData\Local\Temp\ccE5sBAf.s 			page 24


 315      E038
 316 02aa 4D368492 		.ascii	"M6\204\222+I\262\214nCN\217\373^I\034\317v\213zJs@\020"
 316      2B49B28C 
 316      6E434E8F 
 316      FB5E491C 
 316      CF768B7A 
 317 02c2 912F46F4 		.ascii	"\221/F\364C\343\250\247\267\366\0236k\304\330\205\271"
 317      43E3A8A7 
 317      B7F61336 
 317      6BC4D885 
 317      B9
 318 02d3 8D977444 		.ascii	"\215\227tD\250F\332\266\246\342\326Z\205\271{6\273T"
 318      A846DAB6 
 318      A6E2D65A 
 318      85B97B36 
 318      BB54
 319 02e5 0D1E2ABB 		.ascii	"\015\036*\273\376\360\226y7\224\272r\260\356%\250\301"
 319      FEF09679 
 319      3794BA72 
 319      B0EE25A8 
 319      C1
 320 02f6 5A3941B4 		.ascii	"Z9A\264\002\265\260\033\220\037\334\3177\265\011\014"
 320      02B5B01B 
 320      901FDCCF 
 320      37B5090C 
 321 0306 5061989E 		.ascii	"Pa\230\236\321\356|\231\200h@\206:\034\033\254\361\010"
 321      D1EE7C99 
 321      80684086 
 321      3A1C1BAC 
 321      F108
 322 0318 A9512135 		.ascii	"\251Q!5\336p\217\224\330\307\351\251|P\373\324D2p\253"
 322      DE708F94 
 322      D8C7E9A9 
 322      7C50FBD4 
 322      443270AB 
 323 032c E1245762 		.ascii	"\341$Wb@\320\240\037\215\"\215\276/\216\323\021\012"
 323      40D0A01F 
 323      8D228DBE 
 323      2F8ED311 
 323      0A
 324 033d 5670F0A9 		.ascii	"Vp\360\251P\260\204:$\026\374\023'^\0376\253E52\233"
 324      50B0843A 
 324      2416FC13 
 324      275E1F36 
 324      AB453532 
 325 0352 2D2B9DC7 		.ascii	"-+\235\307\261\302\246u\250DC\330)\016t\355\220\310"
 325      B1C2A675 
 325      A84443D8 
 325      290E74ED 
 325      90C8
 326 0364 74383526 		.ascii	"t85&J\315\301\347-\253\230\267\305\305\230\311\276W"
 326      4ACDC1E7 
 326      2DAB98B7 
 326      C5C598C9 
 326      BE57
 327 0376 59AE0932 		.ascii	"Y\256\0112c\206z\314\314i\312L\003f\2060O\351~\\w\034"
 327      63867ACC 
ARM GAS  C:\Users\JEFFSN~1\AppData\Local\Temp\ccE5sBAf.s 			page 25


 327      CC69CA4C 
 327      03668630 
 327      4FE97E5C 
 328 038c D882569C 		.ascii	"\330\202V\234s\330\355\356\220\030\301\371\034\246z"
 328      73D8EDEE 
 328      9018C1F9 
 328      1CA67A
 329 039b F0E42EED 		.ascii	"\360\344.\3558\301\276\020\301g\202\004kY\276\215A|"
 329      38C1BE10 
 329      C1678204 
 329      6B59BE8D 
 329      417C
 330 03ad FDB4BA93 		.ascii	"\375\264\272\223\356_\302\013A#\016\305\353\024\002"
 330      EE5FC20B 
 330      41230EC5 
 330      EB1402
 331 03bc AF7A4AB4 		.ascii	"\257zJ\264_hQ6\272]\231ow\324\323\3676\3036M\227z\226"
 331      5F685136 
 331      BA5D996F 
 331      77D4D3F7 
 331      36C3364D 
 332 03d3 17F28417 		.ascii	"\027\362\204\027bf\361'\006+N\360\256\371\0204\275j"
 332      6266F127 
 332      062B4EF0 
 332      AEF91034 
 332      BD6A
 333 03e5 21E76821 		.ascii	"!\347h!fD\351\356\015\321=%\233\315\234MR\270\036\345"
 333      6644E9EE 
 333      0DD13D25 
 333      9BCD9C4D 
 333      52B81EE5 
 334 03f9 9945AAF1 		.ascii	"\231E\252\361\312\037x\033\2250\301\030P\216\216\354"
 334      CA1F781B 
 334      9530C118 
 334      508E8EEC 
 335 0409 6B78C87F 		.ascii	"kx\310\177E\307q\237\265_\356\224\031\343.\2251\236"
 335      45C7719F 
 335      B55FEE94 
 335      19E32E95 
 335      319E
 336 041b 7BA8ACC4 		.ascii	"{\250\254\304D\227r\251j\022\271=\340|\250\274\026\274"
 336      449772A9 
 336      6A12B93D 
 336      E07CA8BC 
 336      16BC
 337 042d 5C78F725 		.ascii	"\\x\367%\254\262V\266\267\341\252A\267\236\303^\354"
 337      ACB256B6 
 337      B7E1AA41 
 337      B79EC35E 
 337      EC
 338 043e 7F14E007 		.ascii	"\177\024\340\007g+\207}\372\354\311\372\211\250\027"
 338      672B877D 
 338      FAECC9FA 
 338      89A817
 339 044d 42A86D0C 		.ascii	"B\250m\0145t4$|4.r\324\241q\324\323\003\015\036=C-\340"
 339      35743424 
 339      7C342E72 
ARM GAS  C:\Users\JEFFSN~1\AppData\Local\Temp\ccE5sBAf.s 			page 26


 339      D4A171D4 
 339      D3030D1E 
 340 0465 A857AF16 		.ascii	"\250W\257\026\225\351'\302\266\207`/a\330`u\243\236"
 340      95E927C2 
 340      B687602F 
 340      61D86075 
 340      A39E
 341 0477 73F55BB9 		.ascii	"s\365[\271\324\342pb\377\366\246\001\023\303\312\343"
 341      D4E27062 
 341      FFF6A601 
 341      13C3CAE3 
 342 0487 58A72E94 		.ascii	"X\247.\224\371,\343=\351\010\341\374:Ij3\030\304\263"
 342      F92CE33D 
 342      E908E1FC 
 342      3A496A33 
 342      18C4B3
 343 049a F3FE060B 		.ascii	"\363\376\006\013+w\014\301\345I\035\236\022\355\012"
 343      2B770CC1 
 343      E5491D9E 
 343      12ED0A
 344 04a9 EDD80C56 		.ascii	"\355\330\014VTo\375\247\014s\346t\242\270\032,\340}"
 344      546FFDA7 
 344      0C73E674 
 344      A2B81A2C 
 344      E07D
 345 04bb E4160D2C 		.ascii	"\344\026\015,\270\370\344p\253\304\364%C'\016\243\347"
 345      B8F8E470 
 345      ABC4F425 
 345      43270EA3 
 345      E7
 346 04cc B79A6FD1 		.ascii	"\267\232o\321\020\326w#j\024\331\351\256S^>\373\012"
 346      10D67723 
 346      6A14D9E9 
 346      AE535E3E 
 346      FB0A
 347 04de 2A93882A 		.ascii	"*\223\210*\012\275#W\202j\2539\356\373Vf\3079\233\223"
 347      0ABD2357 
 347      826AAB39 
 347      EEFB5666 
 347      C7399B93 
 348 04f2 D370E7C6 		.ascii	"\323p\347\3066q\\\200]!\001v\323\355\310\254W#;\202"
 348      36715C80 
 348      5D210176 
 348      D3EDC8AC 
 348      57233B82 
 349 0506 BD9AA0A2 		.ascii	"\275\232\240\242\325\223Tt\215\365\273\245\265\350\200"
 349      D5935474 
 349      8DF5BBA5 
 349      B5E880
 350 0515 C208D4C1 		.ascii	"\302\010\324\301uZQ@0\241\266\267\330\351\353j\370\222"
 350      755A5140 
 350      30A1B6B7 
 350      D8E9EB6A 
 350      F892
 351 0527 953B6B02 		.ascii	"\225;k\002\036L\304\272\021\316\215\235\005\037=\333"
 351      1E4CC4BA 
 351      11CE8D9D 
ARM GAS  C:\Users\JEFFSN~1\AppData\Local\Temp\ccE5sBAf.s 			page 27


 351      051F3DDB 
 352 0537 BC4966DC 		.ascii	"\274If\334\000\3640nz\334\203\234\033{\210\233!!\026"
 352      00F4306E 
 352      7ADC839C 
 352      1B7B889B 
 352      212116
 353 054a 1D5C0A01 		.ascii	"\035\\\012\001\301\314I\030\365\0146\324\361\260\331"
 353      C1CC4918 
 353      F50C36D4 
 353      F1B0D9
 354 0559 D35DEFBF 		.ascii	"\323]\357\277M\222\304\034\026\377\375\315\207~3\333"
 354      4D92C41C 
 354      16FFFDCD 
 354      877E33DB 
 355 0569 D108C0EF 		.ascii	"\321\010\300\357\223$1%Z/\345p\016\343\360l\301+qx3"
 355      93243125 
 355      5A2FE570 
 355      0EE3F06C 
 355      C12B7178 
 356 057e 286E429A 		.ascii	"(nB\232\205\234|Z\377\213\363\253XE\011\323-x+\234\264"
 356      859C7C5A 
 356      FF8BF3AB 
 356      584509D3 
 356      2D782B9C 
 357 0593 781C1C54 		.ascii	"x\034\034TP\217{\017\337~|\230\202\"\370\315Q\354\275"
 357      508F7B0F 
 357      DF7E7C98 
 357      8222F8CD 
 357      51ECBD
 358 05a6 5810D4C8 		.ascii	"X\020\324\310\224\202\270\315o$\212\366\327\336w\030"
 358      9482B8CD 
 358      6F248AF6 
 358      D7DE7718 
 359 05b6 DCBC30D2 		.ascii	"\334\2740\322#\211 \003\202\225\243\206\370\231\366"
 359      23892003 
 359      8295A386 
 359      F899F6
 360 05c5 E6E9A3B0 		.ascii	"\346\351\243\260\370\313\340\021\020\355|U\262\253\202"
 360      F8CBE011 
 360      10ED7C55 
 360      B2AB82
 361 05d4 DF4022DC 		.ascii	"\337@\"\334\001{\3045\035\036=\266\271\315k`\243\000"
 361      017BC435 
 361      1D1E3DB6 
 361      B9CD6B60 
 361      A300
 362 05e6 FD608F24 		.ascii	"\375`\217$\325\333\020\376\270\345\335mq\262r\026L'"
 362      D5DB10FE 
 362      B8E5DD6D 
 362      71B27216 
 362      4C27
 363 05f8 A9BBE1EC 		.ascii	"\251\273\341\354\314\305\301\343\032\252\347\354\314"
 363      CCC5C1E3 
 363      1AAAE7EC 
 363      CC
 364 0605 0DDB4E0C 		.ascii	"\015\333N\014\302\037\327XDQ!\226:\013\376\367\336\366"
 364      C21FD758 
ARM GAS  C:\Users\JEFFSN~1\AppData\Local\Temp\ccE5sBAf.s 			page 28


 364      44512196 
 364      3A0BFEF7 
 364      DEF6
 365 0617 87FF17EC 		.ascii	"\207\377\027\354m\345J_8]\323\356M\372G\263\210~S,|"
 365      6DE54A5F 
 365      385DD3EE 
 365      4DFA47B3 
 365      887E532C 
 366 062c 35890DD0 		.ascii	"5\211\015\320\365\026\321vF\223\257\260\373\220\355"
 366      F516D176 
 366      4693AFB0 
 366      FB90ED
 367 063b BBB992A4 		.ascii	"\273\271\222\244\361m\000\036\305\337N\257}\340Hw8\223"
 367      F16D001E 
 367      C5DF4EAF 
 367      7DE04877 
 367      3893
 368 064d 331DA96B 		.ascii	"3\035\251k\22326:S\034k>N\312X\261t\315\212\344\317"
 368      9332363A 
 368      531C6B3E 
 368      4ECA58B1 
 368      74CD8AE4 
 369 0662 931CE91B 		.ascii	"\223\034\351\033\034k?L\317\\\221\226\221\262~q\012"
 369      1C6B3F4C 
 369      CF5C9196 
 369      91B27E71 
 369      0A
 370 0673 32A4A4AD 		.ascii	"2\244\244\255\177o\335\027\353R\035N\235\323\261!3\331"
 370      7F6FDD17 
 370      EB521D4E 
 370      9DD3B121 
 370      33D9
 371 0685 9969C848 		.ascii	"\231i\310HK\015\016\245lt:\223\234):Gz\362gi\216\324"
 371      4B0D0EA5 
 371      6C743A93 
 371      9C293A47 
 371      7AF26769 
 372 069b 7F01084F 		.ascii	"\177\001\010O\015T"
 372      0D54
 373              		.text
 374              		.section	.gnu.lto_CapSense_IntClock_SetSourceRegister.63312bd9,"",%progbits
 375 0000 789C8D54 		.ascii	"x\234\215T]h\034U\024>\347\336\335\231\375M\326\246"
 375      5D681C55 
 375      143EE7DE 
 375      DD99FD4D 
 375      D6A6
 376 0012 696C9A5F 		.ascii	"il\232_JX\212P\205 \370 \364!\242\370&\346\321J)\333"
 376      4A588A50 
 376      8520F820 
 376      F421A2F8 
 376      26E6D14A 
 377 0028 7D908644 		.ascii	"}\220\206D\326V\004\037\366\356n\326F\005)\224VK\015"
 377      D656041F 
 377      F6EE6ED6 
 377      46052994 
 377      564B0D
 378 003b 29144935 		.ascii	")\024I5M\323\306\232umm'\251\366IlS\364\305\200h\324"
ARM GAS  C:\Users\JEFFSN~1\AppData\Local\Temp\ccE5sBAf.s 			page 29


 378      4DD3C69A 
 378      756D6D27 
 378      A9F6496C 
 378      53F4C580 
 379 0051 28D26ED3 		.ascii	"(\322n\323\252\321\212\335\365\234{g7c\324%\003{v\356"
 379      AAD18ADD 
 379      F59C7B67 
 379      3763D425 
 379      037B76EE 
 380 0065 BDDF77E6 		.ascii	"\275\337w\346|\33793>@\340\353\224\005\3608\375\037"
 380      7CDF3933 
 380      3E40E0EB 
 380      9405F038 
 380      FD1F
 381 0077 A21F4600 		.ascii	"\242\037F\000\305\301\317\0012\001!\344H\034T\310\342"
 381      C5C1CF01 
 381      320121E4 
 381      481C54C8 
 381      E2
 382 0088 1891C2E7 		.ascii	"\030\221\302\347Y\371\204\377B\007\257\276x\220V~\014"
 382      59F984FF 
 382      4207AFBE 
 382      7890567E 
 382      0C
 383 0099 1B8A256C 		.ascii	"\033\212%l\015\012i\220-\002\236U@\0045%\244)\301*%"
 383      0D0A6990 
 383      2D029E55 
 383      40043525 
 383      A429C12A 
 384 00ae 54BD0923 		.ascii	"T\275\011#\362\215\012 \244\205\364\371-;\020\014\205"
 384      F28D0A20 
 384      A485F4F9 
 384      2D3B100C 
 384      85
 385 00bf 318DBF89 		.ascii	"1\215\277\211{\002\347\016,\025\305\266qE\3277?L\367"
 385      7B02E70E 
 385      2C15C5B6 
 385      7145D737 
 385      3F4CF7
 386 00d2 AA930EE6 		.ascii	"\252\223\016\346%@Eh\005\200\343\270\215P\363\307_9"
 386      25404568 
 386      0580E3B8 
 386      8D50F3C7 
 386      5F39
 387 00e4 1196DB11 		.ascii	"\021\226\333\021\350\376\314\333\207\206E\374\035\245"
 387      E8FECCDB 
 387      878645FC 
 387      1DA5
 388 00f2 B24ACD3F 		.ascii	"\262J\315?\253d^\"\236DI\014\354m\303\207\332\2006\000"
 388      AB645E22 
 388      9E44490C 
 388      EC6DC387 
 388      DA803600 
 389 0106 DFC53883 		.ascii	"\337\3058\203g/\227\343\362\021\315;\370\365\351\261"
 389      672F97E3 
 389      F211CD3B 
 389      F8F5E9B1 
ARM GAS  C:\Users\JEFFSN~1\AppData\Local\Temp\ccE5sBAf.s 			page 30


 390 0116 48CF09E6 		.ascii	"H\317\011\3469\243\013\3217\225\223\351b\356{^._\204"
 390      39A30BD1 
 390      379593E9 
 390      62EE7B5E 
 390      2E5F84
 391 0129 FDB4F2BB 		.ascii	"\375\264\362\273\323\370\253\310K\201\\\344\365\345"
 391      D3F8ABC8 
 391      4B815CE4 
 391      F5E5
 392 0137 CF46C3BC 		.ascii	"\317F\303\274\224\030\243e~\364\342\253Q\271Cg]\371"
 392      9418A365 
 392      7EF4E2AB 
 392      51B94367 
 392      5DF9
 393 0149 E5FBC946 		.ascii	"\345\373\311F7\353\261c\015o)'KY}x\332d\235\3046<\205"
 393      37EBB163 
 393      0D6F2927 
 393      4B597D78 
 393      DA649DC4 
 394 0160 B5BC8B67 		.ascii	"\265\274\213g\313\207\243\3260\253\355\302)\354\301"
 394      CB87A3D6 
 394      30ABEDC2 
 394      29ECC1
 395 016f 09EC315A 		.ascii	"\011\3541Z\361\014Z\3245Q\335\235z\332Q\225JN9G\267"
 395      F10C5AD4 
 395      3551DD9D 
 395      7ADA5195 
 395      4A4E3947 
 396 0184 CC96B76C 		.ascii	"\314\226\267l\365\001\037X\300G6\262\272\000\351\364"
 396      F5011F58 
 396      C04736B2 
 396      BA00E9F4 
 397 0194 07398439 		.ascii	"\0079\2049D(XQ\016\015\034\0329\304\370`\003\207&^n"
 397      44285851 
 397      0E0D1C1A 
 397      39C4F860 
 397      0387265E 
 398 01a9 E4D0CC61 		.ascii	"\344\320\314a\023\207\026>\330\314\241\225\003\373\346"
 398      1387163E 
 398      D8CCA195 
 398      03FBE6
 399 01b8 6FE7830E 		.ascii	"o\347\203\016\016\235\034\2728t\363\001\3002U\311}\274"
 399      0E9D1CBA 
 399      3874F301 
 399      C03255C9 
 399      7DBC
 400 01ca 2D04FFCB 		.ascii	"-\004\377\313\2370\307\202\271\356\234\364\221\266b"
 400      9F30C782 
 400      B9EE9CF4 
 400      91B662
 401 01d9 F1C6829D 		.ascii	"\361\306\202\235\276\247F\224\212\345\245]\021$\007"
 401      BEA74694 
 401      8AE5A55D 
 401      112407
 402 01e8 CF629AE8 		.ascii	"\317b\232\350\001XD\241\025\222\010B\003\223\251\007"
 402      015844A1 
 402      15920842 
ARM GAS  C:\Users\JEFFSN~1\AppData\Local\Temp\ccE5sBAf.s 			page 31


 402      0393A907 
 403 01f8 866CFD8B 		.ascii	"\206l\375\213\034\254\320C\000\24759T#O0\331\202oqx"
 403      1CACD043 
 403      00A73539 
 403      54234F30 
 403      D9826F71 
 404 020d 21F7DDCC 		.ascii	"!\367\335\314\375\253\354\251\033\305\273Q\356\217\237"
 404      FDABECA9 
 404      1BC5BB51 
 404      EE8F9F
 405 021c 3AFFBE6B 		.ascii	":\377\276k\367m!a$.\011\375UnQ\032\260\3559\365\301"
 405      F76D2161 
 405      242E09FD 
 405      556E511A 
 405      B0ED39F5 
 406 0231 274DE6F4 		.ascii	"'M\346\364\307\231\227We\324r\205)\327\271\032\332\017"
 406      C7999757 
 406      65D47285 
 406      29D7B91A 
 406      DA0F
 407 0243 576DB984 		.ascii	"Wm\271\204s\177\276V\272y\004\015<@\360#\371\271\253"
 407      737FBE56 
 407      BA79040D 
 407      3C40F023 
 407      F9B9AB
 408 0256 36C3237A 		.ascii	"6\303#z\034&s\271k~\263|#\223Q\234p\272t\376\2505\206"
 408      1C2673B9 
 408      6B7EB37C 
 408      2393519C 
 408      70BA74FE 
 409 026d A399619A 		.ascii	"\243\231a\232\354(\316\320D|\300i\261\200c\010K\230"
 409      EC28CED0 
 409      447CC069 
 409      B1806308 
 409      4B98
 410 027f FBC332E9 		.ascii	"\373\3032\351\202&c\2414Qp\3058\200\037\022\224\036"
 410      822663A1 
 410      345170C5 
 410      38801F12 
 410      941E
 411 0291 6B1E592F 		.ascii	"k\036Y/[\221\262Q\016\3205\226o>jr\206\353Q>2\005d\357"
 411      5B91B251 
 411      0ED03596 
 411      6F3E6A72 
 411      86EB513E 
 412 02a9 1C58A969 		.ascii	"\034X\251i\212\020\207\213\372\313-*J[<\362\327\017"
 412      8A10878B 
 412      FACB2D2A 
 412      4A5B3CF2 
 412      D70F
 413 02bb 9FD32F84 		.ascii	"\237\323/\204\205/\341y]S\366\216m \015\344\253WG\243"
 413      852FE179 
 413      5D53F68E 
 413      6D200DE4 
 413      AB5747A3 
 414 02cf 66357821 		.ascii	"f5x!1\332\375\037\031\031\245z\341\237u]\320Rb\332w"
 414      31DAFD1F 
ARM GAS  C:\Users\JEFFSN~1\AppData\Local\Temp\ccE5sBAf.s 			page 32


 414      1919A57A 
 414      E19F755D 
 414      D05262DA 
 415 02e4 0B66AF80 		.ascii	"\013f\257\200i\323x\241\335m\271\247\2136\034\337*\365"
 415      69D378A1 
 415      DD6DB9A7 
 415      8B361CDF 
 415      2AF5
 416 02f6 44ACFC47 		.ascii	"D\254\374G\217\003p\355>C\236(\244\335\036{\232\032"
 416      8F0370ED 
 416      3E439E28 
 416      A4DD1E7B 
 416      9A1A
 417 0308 8465CB34 		.ascii	"\204e\3134\265\\r\015\333P\317\260\217W\015+U\015k\""
 417      B55C720D 
 417      DB50CFB0 
 417      8F570D2B 
 417      550D6B22 
 418 031c 8ED7B08D 		.ascii	"\216\327\260\215\264\265\326\241\3465\016m\322\260f"
 418      B4B5D6A1 
 418      E6350E6D 
 418      D2B066
 419 032b 2FA48576 		.ascii	"/\244\205v\327\357\320E\355P\213i\366\225[\325Z6\327"
 419      D7EFD045 
 419      ED508B69 
 419      F6955BD5 
 419      5A36D7
 420 033e 2BFE923B 		.ascii	"+\376\222;n\325B[\015\376\365\273\323_\352q\213\022"
 420      6ED5425B 
 420      0DFEF5BB 
 420      D35FEA71 
 420      8B12
 421 0350 029DF58E 		.ascii	"\002\235\365\216\333\254\256\240U\333\030\202\371\035"
 421      DBACAEA0 
 421      55DB1882 
 421      F91D
 422 035e EEBB71CB 		.ascii	"\356\273q\313\265\261\255\036w\256f\343R\255\364v\342"
 422      B5B1AD1E 
 422      77AE66E3 
 422      52ADF476 
 422      E2
 423 036f 78ABEBA0 		.ascii	"x\253\353\240\255\2656v\256\261\261K\303:\275\220n\332"
 423      ADB53676 
 423      AEB1B14B 
 423      C33ABD90 
 423      6EDA
 424 0381 5DBF8D97 		.ascii	"]\277\215\227\265\210n-\"\254\277j?c\326\251<\303\\"
 424      B5886E2D 
 424      22ACBF6A 
 424      3F63D6A9 
 424      3CC35C
 425 0394 3D22CBF4 		.ascii	"=\"\313\364\021\243m\372\030=\360Dr0\231\332\275/\271"
 425      11A36DFA 
 425      183DF044 
 425      723099DA 
 425      BD2FB9
 426 03a7 6757FFD0 		.ascii	"gW\377\320\376T\"\271\363\251\376\241\276\207w\366\355"
ARM GAS  C:\Users\JEFFSN~1\AppData\Local\Temp\ccE5sBAf.s 			page 33


 426      FE5422B9 
 426      F3A9FEA1 
 426      BE8777F6 
 426      ED
 427 03b8 7EBE3F39 		.ascii	"~\276?9\370Br\327\223\203\373\372\006\206\022{\267'"
 427      F84272D7 
 427      9383FBFA 
 427      0686127B 
 427      B727
 428 03ca 209818D8 		.ascii	" \230\030\330k@\326\320\300\236\376T\302N\354O\245\036"
 428      6B40D6D0 
 428      C09EFE54 
 428      C24EEC4F 
 428      A51E
 429 03dc 7BEEC5BF 		.ascii	"{\356\305\277\001\202\0152E"
 429      01820D32 
 429      45
 430              		.text
 431              		.section	.gnu.lto_.symbol_nodes.63312bd9,"",%progbits
 432 0000 789C55C8 		.ascii	"x\234U\310\311\015\2000\020CQ'3!K\027TjJ\240\006\216"
 432      C90D8030 
 432      10435127 
 432      33214B17 
 432      546A4AA0 
 433 0016 14430748 		.ascii	"\024C\007H\210B\020\011\234\354\313\227\237#\340D_\004"
 433      88421009 
 433      9CECCB97 
 433      9F23E044 
 433      5F04
 434 0028 81F5C0C8 		.ascii	"\201\365\300\310\276\314\035\002\203BdT0\232B\242+L"
 434      BECC1D02 
 434      83426454 
 434      309A42A2 
 434      2B4C
 435 003a 4C0A9993 		.ascii	"L\012\231\223BaVh,\012\316\252P\331\004\254\026l\327"
 435      42615668 
 435      2C0ACEAA 
 435      50D904AC 
 435      166CD7
 436 004d 13AC3AEE 		.ascii	"\023\254:\356\321\346\377o\345\373x\001\227\2634b"
 436      D1E6FF6F 
 436      E5FB7801 
 436      97B33462 
 437              		.text
 438              		.section	.gnu.lto_.refs.63312bd9,"",%progbits
 439 0000 789C6361 		.ascii	"x\234ca`\004B \000\000\0009\000\007"
 439      60044220 
 439      00000039 
 439      0007
 440              		.text
 441              		.section	.gnu.lto_.decls.63312bd9,"",%progbits
 442 0000 789C8D55 		.ascii	"x\234\215UkL\024W\024\2363w\027\350\200\322XkM\272i"
 442      6B4C1457 
 442      149E3377 
 442      17E880D2 
 442      586B4DBA 
 443 0015 D09A0D49 		.ascii	"\320\232\015I\023Z\332\324\230\376iS\232\322\376h5%"
ARM GAS  C:\Users\JEFFSN~1\AppData\Local\Temp\ccE5sBAf.s 			page 34


 443      135ADAD4 
 443      98FE6953 
 443      9AD2FE68 
 443      3525
 444 0027 FACBC420 		.ascii	"\372\313\304 L--\005\263\256m\3747<ZQ\333Jie\201Z\024"
 444      4C2D2D05 
 444      B3AE6DFC 
 444      373C5A51 
 444      DB4A6965 
 445 003e D35A7CF1 		.ascii	"\323Z|\361\020+\012>\026\201\345\265 \210\017\036\""
 445      102B0A3E 
 445      1681E5B5 
 445      20880F1E 
 445      22
 446 004f 8B405B23 		.ascii	"\213@[#*F\211Q\213\333s\357\3140ww\207\312M\316\316"
 446      2A468951 
 446      8BDB73EF 
 446      CC307777 
 446      87CA4DCE 
 447 0064 BD77BEF3 		.ascii	"\275w\276\363\235s\276{\356\254E\000\201\216{\021\202"
 447      9D73BE7B 
 447      EEAC4500 
 447      818E7B11 
 447      82
 448 0075 7011A731 		.ascii	"p\021\2471D\020\3748\242po\215`\214H\264#h\225h\325"
 448      4410FC38 
 448      A2706F8D 
 448      608C48B4 
 448      23689568 
 449 008a 6875684D 		.ascii	"huhMh\036\264V\264\016\264N\264\013h\027\205\320A}-"
 449      681EB456 
 449      B40EB44E 
 449      B40B6817 
 449      85D0417D 
 450 009f 1AA70DAD 		.ascii	"\032\247\015\255\037\355\212\366\016\264\367\301\243"
 450      1FED8AF6 
 450      0EB4F7C1 
 450      A3
 451 00ac F2293E95 		.ascii	"\362)>\225&>\325Z\256\324g\001\332B\264\206 \377a\264"
 451      263ED55A 
 451      AED46701 
 451      DA42B486 
 451      20FF61B4 
 452 00c0 6B683EB4 		.ascii	"kh>\264!\216\257\332\204\217\326i\325\370jg\311\243"
 452      218EAFDA 
 452      848FD669 
 452      D5F86A67 
 452      C9A3
 453 00d2 CEC4AF49 		.ascii	"\316\304\257I\363\343s\320\343\352~M&~T\317\260\240"
 453      F3E373D0 
 453      E3EA7E4D 
 453      267E54CF 
 453      B0A0
 454 00e4 78232631 		.ascii	"x#&1=&\276\255s\310\265\325\304\217\236\235\345\177"
 454      3D26BEAD 
 454      73C8B5D5 
 454      C48F9E9D 
ARM GAS  C:\Users\JEFFSN~1\AppData\Local\Temp\ccE5sBAf.s 			page 35


 454      E57F
 455 00f6 7C3A4C7C 		.ascii	"|:L|:\237\342\323i\342C{#Z\010=\233Z\315\227\362\214"
 455      3A9FE2D3 
 455      69E2437B 
 455      235A083D 
 455      9B5ACD97 
 456 010c A1B5A38D 		.ascii	"\241\265\243\215\2435j\274v!\360\254\210\306Ec\230i"
 456      A3356ABC 
 456      7621F0AC 
 456      88C64563 
 456      9869
 457 011e 48FB6F3E 		.ascii	"H\373o>\247Cp\037\214p\374z<{P\015D\343i\232\245\226"
 457      A743701F 
 457      8C70FC7A 
 457      3C7B500D 
 457      44E3699A 
 458 0134 69117637 		.ascii	"i\021v7\2246Z\007\241\037@\0006\004\355.\011tG{\322"
 458      94365A07 
 458      A11F4000 
 458      3604ED2E 
 458      0974477B 
 459 0149 09A80B51 		.ascii	"\011\250\013Q\327\006t\220.\027\203\203 2\374\314\276"
 459      D7067490 
 459      2E178383 
 459      2032FCCC 
 459      BE
 460 015a 8E9B89E9 		.ascii	"\216\233\211\351\327\207\261\0053CGB )e5\226\270\026"
 460      D787B105 
 460      33434742 
 460      20296535 
 460      96B816
 461 016d 0D078E4F 		.ascii	"\015\007\216O\313^\213\017|XFM\364\242\037\271\233w"
 461      CB5E8B0F 
 461      7C58464D 
 461      F4A21FB9 
 461      9B77
 462 017f 4610E4C4 		.ascii	"F\020\344\304\371\360\303\362\367\343\016+8\362\025"
 462      F9F0C3F2 
 462      F7E30E2B 
 462      38F215
 463 018e 457CCB50 		.ascii	"E|\313P\246'\267j7\271/\302\002\011,\270\274\333Y2:"
 463      A627B76A 
 463      37B92FC2 
 463      02092CB8 
 463      BCDB5932 
 464 01a3 1F970B25 		.ascii	"\037\227\013%\210\301\345t\333/%\342\342B\346\227\243"
 464      88C1E574 
 464      DB2F25E2 
 464      E242E697 
 464      A3
 465 01b4 C45860CD 		.ascii	"\304X`\315\"8\00468\010x8p\030\026\343\357z\213\312"
 465      22380436 
 465      38087838 
 465      701816E3 
 465      EF7A8BCA 
 466 01c8 74AEC25F 		.ascii	"t\256\302_\021\275t\257\262\267J\361\271\246^/V\334"
 466      11BD74AF 
ARM GAS  C:\Users\JEFFSN~1\AppData\Local\Temp\ccE5sBAf.s 			page 36


 466      B2B74AF1 
 466      B9A65E2F 
 466      56DC
 467 01da B9E82652 		.ascii	"\271\350&R\024\224\003\201\003\020GS\304)}\374\001\203"
 467      14940381 
 467      03104753 
 467      C4297DFC 
 467      0183
 468 01ec 98FC1158 		.ascii	"\230\374\021X\212\236\277\0157\\\017'+Y\242\367}5=D"
 468      8A9EBF0D 
 468      375C0F27 
 468      2B59A2F7 
 468      7D353D44 
 469 0200 6571977A 		.ascii	"eq\227z\242\224\374,Ey\207qT\030\034\025<G%\343\230"
 469      A294FC2C 
 469      45798771 
 469      54181C15 
 469      3C4725E3 
 470 0215 F27ABF03 		.ascii	"\362z\277\003\362)\343\310\353\036\251\261j\034E-<G"
 470      F229E3C8 
 470      EB1EA9B1 
 470      6A1C452D 
 470      3C47
 471 0227 95C151C5 		.ascii	"\225\301Q\305sT3\216\372=}\203\321$\033\030I\3457c\007"
 471      7354338E 
 471      FA3D7D83 
 471      D1241B18 
 471      49E53763 
 472 023c 2250099B 		.ascii	"\"P\011\233\004~\240\353\211\223\017\347\251k\372\272"
 472      047EA0EB 
 472      89930FE7 
 472      A96BFABA 
 473 024c F8C7D127 		.ascii	"\370\307\321'\221\244\214a\305\336\321C7,\020+\355\247"
 473      91A48C61 
 473      C5DED143 
 473      372C102B 
 473      EDA7
 474 025e 42F9F674 		.ascii	"B\371\366t\244\273\266\322\312kA\202?\215\2106\011\177"
 474      A4BBB6D2 
 474      CA6B4182 
 474      3F8D8836 
 474      097F
 475 0270 F314255B 		.ascii	"\363\024%[\231\334\247\204-\026\340\015\033\274f\023"
 475      99DCA784 
 475      2D16E00D 
 475      1BBC6613 
 476 0280 E038C452 		.ascii	"\3408\304RV\212\202c(n\015\212\213\021\306]{n\206Y\260"
 476      568A8263 
 476      286E0D8A 
 476      8B11C65D 
 476      7B6E8659 
 477 0295 13190FAA 		.ascii	"\023\031\017\252\214{\207\353\256N\204\315z\036'\331"
 477      8C7B87EB 
 477      AE4E84CD 
 477      7A1E27D9 
 478 02a5 799C00ED 		.ascii	"y\234\000\355@\224\374\235\177[f\016\344\371\302\034"
 478      4094FC9D 
ARM GAS  C:\Users\JEFFSN~1\AppData\Local\Temp\ccE5sBAf.s 			page 37


 478      7F5B660E 
 478      E4F9C21C 
 479 02b5 A515FD62 		.ascii	"\245\025\375b(\014\216\032i\035\345\205\250cB\364ul"
 479      280C8E1A 
 479      691DE585 
 479      A86342F4 
 479      756C
 480 02c7 F3449336 		.ascii	"\363D\2236U\210\337\037=\236\244\035bG!\374\204S\302"
 480      5588DF1F 
 480      3D9EA41D 
 480      624721FC 
 480      8453C2
 481 02da AE2A515E 		.ascii	"\256*Q^\346\251\221\310m\025\334\354\177\340\216V\333"
 481      E6A991C8 
 481      6D15DCEC 
 481      7FE08E56 
 481      DB
 482 02eb 49C4E585 		.ascii	"I\304\345\205I\357\257\221j;=\213:\335>\326\3227\017"
 482      49EFAF91 
 482      6A3B3D8B 
 482      3ADD3ED6 
 482      D2370F
 483 02fe A4582682 		.ascii	"\244X&\202\222\243H\261\002\2701\375\263\230>\234C\031"
 483      92A348B1 
 483      02B831FD 
 483      B3983E9C 
 483      4319
 484 0310 EC9A0CA7 		.ascii	"\354\232\014\247q\363\024nj\202\356\370R\025\264\001"
 484      71F3146E 
 484      6A82EEF8 
 484      5215B401 
 485 0320 85386364 		.ascii	"\2058cdn\227\324B\273\266\356\254\006^\025\2123di\014"
 485      6E97D442 
 485      BBB6EEAC 
 485      065E158A 
 485      3364690C 
 486 0334 68D3B2AA 		.ascii	"h\323\262\252\354\225(\212\217\2122n/:\252(\333\320"
 486      EC95288A 
 486      8F8A326E 
 486      2F3AAA28 
 486      DBD0
 487 0346 CF425150 		.ascii	"\317BQPop\327\363\25241Un\366T\366[\311\224Z\350)\337"
 487      6F70D7F3 
 487      AA343155 
 487      6EF654F6 
 487      5BC9945A 
 488 035d 9306BDC7 		.ascii	"\223\006\275\307N\026\222\231n\247\3426\0334\315<\215"
 488      4E169299 
 488      6EA7E236 
 488      1B34CD3C 
 488      8D
 489 036e 87D19C1A 		.ascii	"\207\321\234\032\270\345\222\210K\275\227\256\366\355"
 489      B8E59288 
 489      4BBD97AE 
 489      F6ED
 490 037c B5911ACD 		.ascii	"\265\221\032\315\231+z\253R\222\026\203\244\205'ie$"
 490      992B7AAB 
ARM GAS  C:\Users\JEFFSN~1\AppData\Local\Temp\ccE5sBAf.s 			page 38


 490      52921683 
 490      A4852769 
 490      6524
 491 038e A50313A5 		.ascii	"\245\003\023\245\204\324\253$\335;\232s\242\371\372"
 491      84D4AB24 
 491      DD3B9A73 
 491      A2F9FA
 492 039d 6B03EA6F 		.ascii	"k\003\352o\017\250\377\261\347`\277vM\335\305\003F\342"
 492      0FA8FFB1 
 492      E760BF76 
 492      4DDDC503 
 492      46E2
 493 03af 88823623 		.ascii	"\210\2026#f\033\037\263\203\305l>1}'\234\014\2511\217"
 493      661B1FB3 
 493      83C56C3E 
 493      317D279C 
 493      0CA9318F 
 494 03c3 7F7BFD6E 		.ascii	"\177{\375n\224\252\243\273\373\232\2368%\361\032$^\236"
 494      94AAA3BB 
 494      FB9A9E38 
 494      25F11A24 
 494      5E9E
 495 03d5 A4939114 		.ascii	"\244\223\221\024\345\334\371\347\031\222E`\266\026\367"
 495      E5DCF9E7 
 495      19924560 
 495      B616F7
 496 03e4 76FBCBA3 		.ascii	"v\373\313\243\330\036=\305\363\3006\247\276\177\\@f"
 496      D81E3DC5 
 496      F3C036A7 
 496      BE7F5C40 
 496      66
 497 03f5 EDFB1E56 		.ascii	"\355\373\036V`\267\336\367\007;vL\211Z\205?\375`T\210"
 497      60B7DEF7 
 497      073B764C 
 497      895A853F 
 497      FD605488 
 498 0409 30E83292 		.ascii	"0\3502\222\353\342\223\273\300\222\2734]0j%\373\325"
 498      EBE293BB 
 498      C092BB34 
 498      5D306A25 
 498      FBD5
 499 041b E4F63D68 		.ascii	"\344\366=h\031\324\277D\205\203\374\321\364\032$\275"
 499      19D4BF44 
 499      8583FCD1 
 499      F41A24BD 
 500 042b 3CC94546 		.ascii	"<\311EFr?\367\336\3450)\217\366\367\234\356y\347\215"
 500      723FF7DE 
 500      E530298F 
 500      F6F79CEE 
 500      79E78D
 501 043e 327F3869 		.ascii	"2\1778igA\305\232]\305\273\302\325\033\022\354\336g"
 501      6741C59A 
 501      5DC5BBC2 
 501      D51B12EC 
 501      DE67
 502 0450 E2AE7F70 		.ascii	"\342\256\177pV\227\024d\341\315\276\202\212]6\222\273"
 502      56971464 
ARM GAS  C:\Users\JEFFSN~1\AppData\Local\Temp\ccE5sBAf.s 			page 39


 502      E1CDBE82 
 502      8A5D3692 
 502      BB
 503 0461 04DA0539 		.ascii	"\004\332\0059p\273\321\015Q\333\351\255C\371\026|\300"
 503      70BBD10D 
 503      51DBE9AD 
 503      43F9167C 
 503      C0
 504 0472 80867EFD 		.ascii	"\200\206~\375\020\305\376=\360\211\340\277\032\213n"
 504      10C5FE3D 
 504      F089E0BF 
 504      1A8B6E
 505 0481 896AFE73 		.ascii	"\211j\376s\271\242\350\361\257\273\3539r^-\3005\272"
 505      B9A2E8F1 
 505      AFBBEB39 
 505      725E2DC0 
 505      35BA
 506 0493 BDD4AA7F 		.ascii	"\275\324\252\177\012\335}\237+J\004\014a\264A#\255\001"
 506      0ADD7D9F 
 506      2B4A040C 
 506      61B44123 
 506      AD01
 507 04a5 D03E84A1 		.ascii	"\320>\204\241\001\256\232\007\310:\237{:\\O)\177.\036"
 507      01AE9A07 
 507      C83A9F7B 
 507      3A5C4F29 
 507      7F2E1E
 508 04b8 77B6DEDC 		.ascii	"w\266\336\334\037\301W|-\240\342a\255\342aV\361\304"
 508      1FC1577C 
 508      2DA0E261 
 508      ADE26156 
 508      F1C4
 509 04ca B0BF40E4 		.ascii	"\260\277@\344\301C\001`\237\006\366Q0i\352\255<+\201"
 509      C1430160 
 509      9F06F651 
 509      3069EAAD 
 509      3C2B81
 510 04dd 64037C0F 		.ascii	"d\003|\017y\264\312\311l\356\230\004\030\241\345\301"
 510      79B4CAC9 
 510      6CEE9804 
 510      18A1E5C1 
 511 04ed 757C3D8A 		.ascii	"u|=\212\356%\012\305\364\000\333f\213\311\267\331\234"
 511      EE250AC5 
 511      F400DB66 
 511      8BC9B7D9 
 511      9C
 512 04fe FED066F5 		.ascii	"\376\320f\365z\272\010\037\233^!#\366\230\026{\214%"
 512      7ABA081F 
 512      9B5E2123 
 512      F698167B 
 512      8C25
 513 0510 5A70E3E7 		.ascii	"Zp\343\347t\036\333\030\200\035\327\260\364\371BB\362"
 513      741EDB18 
 513      801DD7B0 
 513      F4F94242 
 513      F2
 514 0521 C6243963 		.ascii	"\306$9c\223\274\356\303\014gBzf\312\027\353\222\234"
ARM GAS  C:\Users\JEFFSN~1\AppData\Local\Temp\ccE5sBAf.s 			page 40


 514      93BCEEC3 
 514      0C67427A 
 514      66CA17EB 
 514      929C
 515 0533 C90E6744 		.ascii	"\311\016gD\342\307\253c\022\342\343\205W\022\345\014"
 515      E2C7AB63 
 515      12E2E385 
 515      5712E50C 
 516 0543 D991EC94 		.ascii	"\331\221\354\224S\327%env\244\310kW%e&\274\2716\304"
 516      53D72565 
 516      6E76A4C8 
 516      6B572565 
 516      26BCB936 
 517 0558 2F2E4558 		.ascii	"/.EXdF\226\271\361E\363\355w\351\354%\323\370\031\251"
 517      644696B9 
 517      F145F3ED 
 517      77E9EC25 
 517      D3F819A9 
 518 056c EBB7ACCA 		.ascii	"\353\267\254\312\374ZvX7\247e8W,1\317\341\325\224-\316"
 518      FC5A7658 
 518      37A76538 
 518      572C31CF 
 518      E1D5942D 
 519 0581 2D1BE54D 		.ascii	"-\033\345Mq\237\011\313Bi\022e\347{i_\245\245\312\216"
 519      719F09CB 
 519      42691265 
 519      E77B695F 
 519      A5A5CA8E 
 520 0595 4FE40D69 		.ascii	"O\344\015i\233\234\262#\214\222\305/_b\022Rv~\224\231"
 520      9B9CB223 
 520      8C92C52F 
 520      5F621252 
 520      767E9499 
 521 05a9 2AEBC097 		.ascii	"*\353\300\227C\021\011\351r\262\203\307\230\260$>\225"
 521      431109E9 
 521      72B283C7 
 521      98B0243E 
 521      95
 522 05ba 05116A01 		.ascii	"\005\021j\001:\306$\357\244\220\274M\210\222\202\211"
 522      3AC624EF 
 522      A490BC4D 
 522      88928289 
 523 05ca 2C0E79C3 		.ascii	",\016y\303\012+\376\304/\377\017`\027\207\016"
 523      0A2BFEC4 
 523      2FFF0F60 
 523      17870E
 524              		.text
 525              		.section	.gnu.lto_.symtab.63312bd9,"",%progbits
 526 0000 43617053 		.ascii	"CapSense_IntClock_Start\000"
 526      656E7365 
 526      5F496E74 
 526      436C6F63 
 526      6B5F5374 
 527 0018 00       		.ascii	"\000"
 528 0019 00       		.ascii	"\000"
 529 001a 00       		.ascii	"\000"
 530 001b 00000000 		.ascii	"\000\000\000\000\000\000\000\000"
ARM GAS  C:\Users\JEFFSN~1\AppData\Local\Temp\ccE5sBAf.s 			page 41


 530      00000000 
 531 0023 AD000000 		.ascii	"\255\000\000\000"
 532 0027 43617053 		.ascii	"CapSense_IntClock_Stop\000"
 532      656E7365 
 532      5F496E74 
 532      436C6F63 
 532      6B5F5374 
 533 003e 00       		.ascii	"\000"
 534 003f 00       		.ascii	"\000"
 535 0040 00       		.ascii	"\000"
 536 0041 00000000 		.ascii	"\000\000\000\000\000\000\000\000"
 536      00000000 
 537 0049 AF000000 		.ascii	"\257\000\000\000"
 538 004d 43617053 		.ascii	"CapSense_IntClock_StopBlock\000"
 538      656E7365 
 538      5F496E74 
 538      436C6F63 
 538      6B5F5374 
 539 0069 00       		.ascii	"\000"
 540 006a 00       		.ascii	"\000"
 541 006b 00       		.ascii	"\000"
 542 006c 00000000 		.ascii	"\000\000\000\000\000\000\000\000"
 542      00000000 
 543 0074 B1000000 		.ascii	"\261\000\000\000"
 544 0078 43617053 		.ascii	"CapSense_IntClock_StandbyPower\000"
 544      656E7365 
 544      5F496E74 
 544      436C6F63 
 544      6B5F5374 
 545 0097 00       		.ascii	"\000"
 546 0098 00       		.ascii	"\000"
 547 0099 00       		.ascii	"\000"
 548 009a 00000000 		.ascii	"\000\000\000\000\000\000\000\000"
 548      00000000 
 549 00a2 BA000000 		.ascii	"\272\000\000\000"
 550 00a6 43617053 		.ascii	"CapSense_IntClock_GetDividerRegister\000"
 550      656E7365 
 550      5F496E74 
 550      436C6F63 
 550      6B5F4765 
 551 00cb 00       		.ascii	"\000"
 552 00cc 00       		.ascii	"\000"
 553 00cd 00       		.ascii	"\000"
 554 00ce 00000000 		.ascii	"\000\000\000\000\000\000\000\000"
 554      00000000 
 555 00d6 C4000000 		.ascii	"\304\000\000\000"
 556 00da 43617053 		.ascii	"CapSense_IntClock_SetModeRegister\000"
 556      656E7365 
 556      5F496E74 
 556      436C6F63 
 556      6B5F5365 
 557 00fc 00       		.ascii	"\000"
 558 00fd 00       		.ascii	"\000"
 559 00fe 00       		.ascii	"\000"
 560 00ff 00000000 		.ascii	"\000\000\000\000\000\000\000\000"
 560      00000000 
 561 0107 C6000000 		.ascii	"\306\000\000\000"
ARM GAS  C:\Users\JEFFSN~1\AppData\Local\Temp\ccE5sBAf.s 			page 42


 562 010b 43617053 		.ascii	"CapSense_IntClock_ClearModeRegister\000"
 562      656E7365 
 562      5F496E74 
 562      436C6F63 
 562      6B5F436C 
 563 012f 00       		.ascii	"\000"
 564 0130 00       		.ascii	"\000"
 565 0131 00       		.ascii	"\000"
 566 0132 00000000 		.ascii	"\000\000\000\000\000\000\000\000"
 566      00000000 
 567 013a C8000000 		.ascii	"\310\000\000\000"
 568 013e 43617053 		.ascii	"CapSense_IntClock_GetModeRegister\000"
 568      656E7365 
 568      5F496E74 
 568      436C6F63 
 568      6B5F4765 
 569 0160 00       		.ascii	"\000"
 570 0161 00       		.ascii	"\000"
 571 0162 00       		.ascii	"\000"
 572 0163 00000000 		.ascii	"\000\000\000\000\000\000\000\000"
 572      00000000 
 573 016b CB000000 		.ascii	"\313\000\000\000"
 574 016f 43617053 		.ascii	"CapSense_IntClock_GetSourceRegister\000"
 574      656E7365 
 574      5F496E74 
 574      436C6F63 
 574      6B5F4765 
 575 0193 00       		.ascii	"\000"
 576 0194 00       		.ascii	"\000"
 577 0195 00       		.ascii	"\000"
 578 0196 00000000 		.ascii	"\000\000\000\000\000\000\000\000"
 578      00000000 
 579 019e CD000000 		.ascii	"\315\000\000\000"
 580 01a2 43617053 		.ascii	"CapSense_IntClock_SetDividerRegister\000"
 580      656E7365 
 580      5F496E74 
 580      436C6F63 
 580      6B5F5365 
 581 01c7 00       		.ascii	"\000"
 582 01c8 00       		.ascii	"\000"
 583 01c9 00       		.ascii	"\000"
 584 01ca 00000000 		.ascii	"\000\000\000\000\000\000\000\000"
 584      00000000 
 585 01d2 D2000000 		.ascii	"\322\000\000\000"
 586 01d6 43617053 		.ascii	"CapSense_IntClock_SetSourceRegister\000"
 586      656E7365 
 586      5F496E74 
 586      436C6F63 
 586      6B5F5365 
 587 01fa 00       		.ascii	"\000"
 588 01fb 00       		.ascii	"\000"
 589 01fc 00       		.ascii	"\000"
 590 01fd 00000000 		.ascii	"\000\000\000\000\000\000\000\000"
 590      00000000 
 591 0205 D4000000 		.ascii	"\324\000\000\000"
 592              		.text
 593              		.section	.gnu.lto_.opts,"",%progbits
ARM GAS  C:\Users\JEFFSN~1\AppData\Local\Temp\ccE5sBAf.s 			page 43


 594 0000 272D666D 		.ascii	"'-fmath-errno' '-fsigned-zeros' '-ftrapping-math' '"
 594      6174682D 
 594      6572726E 
 594      6F272027 
 594      2D667369 
 595 0033 2D666E6F 		.ascii	"-fno-trapv' '-fno-strict-overflow' '-fno-openmp' '-"
 595      2D747261 
 595      70762720 
 595      272D666E 
 595      6F2D7374 
 596 0066 666E6F2D 		.ascii	"fno-openacc' '-mcpu=cortex-m3' '-mthumb' '-g' '-Og'"
 596      6F70656E 
 596      61636327 
 596      20272D6D 
 596      6370753D 
 597 0099 20272D66 		.ascii	" '-ffunction-sections' '-ffat-lto-objects' '-finlin"
 597      66756E63 
 597      74696F6E 
 597      2D736563 
 597      74696F6E 
 598 00cc 652D6675 		.ascii	"e-functions' '-flto'\000"
 598      6E637469 
 598      6F6E7327 
 598      20272D66 
 598      6C746F27 
 599              		.text
 600              		.cfi_sections	.debug_frame
 601              		.section	.text.CapSense_IntClock_Start,"ax",%progbits
 602              		.align	2
 603              		.global	CapSense_IntClock_Start
 604              		.thumb
 605              		.thumb_func
 606              		.type	CapSense_IntClock_Start, %function
 607              	CapSense_IntClock_Start:
 608              	.LFB0:
 609              		.file 1 "Generated_Source\\PSoC5\\CapSense_IntClock.c"
   1:Generated_Source\PSoC5/CapSense_IntClock.c **** /*******************************************************************************
   2:Generated_Source\PSoC5/CapSense_IntClock.c **** * File Name: CapSense_IntClock.c
   3:Generated_Source\PSoC5/CapSense_IntClock.c **** * Version 2.10
   4:Generated_Source\PSoC5/CapSense_IntClock.c **** *
   5:Generated_Source\PSoC5/CapSense_IntClock.c **** *  Description:
   6:Generated_Source\PSoC5/CapSense_IntClock.c **** *   This file provides the source code to the API for the clock component.
   7:Generated_Source\PSoC5/CapSense_IntClock.c **** *
   8:Generated_Source\PSoC5/CapSense_IntClock.c **** *  Note:
   9:Generated_Source\PSoC5/CapSense_IntClock.c **** *
  10:Generated_Source\PSoC5/CapSense_IntClock.c **** ********************************************************************************
  11:Generated_Source\PSoC5/CapSense_IntClock.c **** * Copyright 2008-2012, Cypress Semiconductor Corporation.  All rights reserved.
  12:Generated_Source\PSoC5/CapSense_IntClock.c **** * You may use this file only in accordance with the license, terms, conditions, 
  13:Generated_Source\PSoC5/CapSense_IntClock.c **** * disclaimers, and limitations in the end user license agreement accompanying 
  14:Generated_Source\PSoC5/CapSense_IntClock.c **** * the software package with which this file was provided.
  15:Generated_Source\PSoC5/CapSense_IntClock.c **** *******************************************************************************/
  16:Generated_Source\PSoC5/CapSense_IntClock.c **** 
  17:Generated_Source\PSoC5/CapSense_IntClock.c **** #include <cydevice_trm.h>
  18:Generated_Source\PSoC5/CapSense_IntClock.c **** #include "CapSense_IntClock.h"
  19:Generated_Source\PSoC5/CapSense_IntClock.c **** 
  20:Generated_Source\PSoC5/CapSense_IntClock.c **** /* Clock Distribution registers. */
  21:Generated_Source\PSoC5/CapSense_IntClock.c **** #define CLK_DIST_LD              (* (reg8 *) CYREG_CLKDIST_LD)
ARM GAS  C:\Users\JEFFSN~1\AppData\Local\Temp\ccE5sBAf.s 			page 44


  22:Generated_Source\PSoC5/CapSense_IntClock.c **** #define CLK_DIST_BCFG2           (* (reg8 *) CYREG_CLKDIST_BCFG2)
  23:Generated_Source\PSoC5/CapSense_IntClock.c **** #define BCFG2_MASK               (0x80u)
  24:Generated_Source\PSoC5/CapSense_IntClock.c **** #define CLK_DIST_DMASK           (* (reg8 *) CYREG_CLKDIST_DMASK)
  25:Generated_Source\PSoC5/CapSense_IntClock.c **** #define CLK_DIST_AMASK           (* (reg8 *) CYREG_CLKDIST_AMASK)
  26:Generated_Source\PSoC5/CapSense_IntClock.c **** 
  27:Generated_Source\PSoC5/CapSense_IntClock.c **** #define HAS_CLKDIST_LD_DISABLE   (CY_PSOC3 || CY_PSOC5LP)
  28:Generated_Source\PSoC5/CapSense_IntClock.c **** 
  29:Generated_Source\PSoC5/CapSense_IntClock.c **** 
  30:Generated_Source\PSoC5/CapSense_IntClock.c **** /*******************************************************************************
  31:Generated_Source\PSoC5/CapSense_IntClock.c **** * Function Name: CapSense_IntClock_Start
  32:Generated_Source\PSoC5/CapSense_IntClock.c **** ********************************************************************************
  33:Generated_Source\PSoC5/CapSense_IntClock.c **** *
  34:Generated_Source\PSoC5/CapSense_IntClock.c **** * Summary:
  35:Generated_Source\PSoC5/CapSense_IntClock.c **** *  Starts the clock. Note that on startup, clocks may be already running if the
  36:Generated_Source\PSoC5/CapSense_IntClock.c **** *  "Start on Reset" option is enabled in the DWR.
  37:Generated_Source\PSoC5/CapSense_IntClock.c **** *
  38:Generated_Source\PSoC5/CapSense_IntClock.c **** * Parameters:
  39:Generated_Source\PSoC5/CapSense_IntClock.c **** *  None
  40:Generated_Source\PSoC5/CapSense_IntClock.c **** *
  41:Generated_Source\PSoC5/CapSense_IntClock.c **** * Returns:
  42:Generated_Source\PSoC5/CapSense_IntClock.c **** *  None
  43:Generated_Source\PSoC5/CapSense_IntClock.c **** *
  44:Generated_Source\PSoC5/CapSense_IntClock.c **** *******************************************************************************/
  45:Generated_Source\PSoC5/CapSense_IntClock.c **** void CapSense_IntClock_Start(void) 
  46:Generated_Source\PSoC5/CapSense_IntClock.c **** {
 610              		.loc 1 46 0
 611              		.cfi_startproc
 612              		@ args = 0, pretend = 0, frame = 0
 613              		@ frame_needed = 0, uses_anonymous_args = 0
 614              		@ link register save eliminated.
  47:Generated_Source\PSoC5/CapSense_IntClock.c ****     /* Set the bit to enable the clock. */
  48:Generated_Source\PSoC5/CapSense_IntClock.c ****     CapSense_IntClock_CLKEN |= CapSense_IntClock_CLKEN_MASK;
 615              		.loc 1 48 0
 616 0000 054A     		ldr	r2, .L2
 617 0002 1378     		ldrb	r3, [r2]	@ zero_extendqisi2
 618 0004 43F00803 		orr	r3, r3, #8
 619 0008 1370     		strb	r3, [r2]
  49:Generated_Source\PSoC5/CapSense_IntClock.c **** 	CapSense_IntClock_CLKSTBY |= CapSense_IntClock_CLKSTBY_MASK;
 620              		.loc 1 49 0
 621 000a 1032     		adds	r2, r2, #16
 622 000c 1378     		ldrb	r3, [r2]	@ zero_extendqisi2
 623 000e 43F00803 		orr	r3, r3, #8
 624 0012 1370     		strb	r3, [r2]
 625 0014 7047     		bx	lr
 626              	.L3:
 627 0016 00BF     		.align	2
 628              	.L2:
 629 0018 A2430040 		.word	1073759138
 630              		.cfi_endproc
 631              	.LFE0:
 632              		.size	CapSense_IntClock_Start, .-CapSense_IntClock_Start
 633              		.section	.text.CapSense_IntClock_Stop,"ax",%progbits
 634              		.align	2
 635              		.global	CapSense_IntClock_Stop
 636              		.thumb
 637              		.thumb_func
 638              		.type	CapSense_IntClock_Stop, %function
ARM GAS  C:\Users\JEFFSN~1\AppData\Local\Temp\ccE5sBAf.s 			page 45


 639              	CapSense_IntClock_Stop:
 640              	.LFB1:
  50:Generated_Source\PSoC5/CapSense_IntClock.c **** }
  51:Generated_Source\PSoC5/CapSense_IntClock.c **** 
  52:Generated_Source\PSoC5/CapSense_IntClock.c **** 
  53:Generated_Source\PSoC5/CapSense_IntClock.c **** /*******************************************************************************
  54:Generated_Source\PSoC5/CapSense_IntClock.c **** * Function Name: CapSense_IntClock_Stop
  55:Generated_Source\PSoC5/CapSense_IntClock.c **** ********************************************************************************
  56:Generated_Source\PSoC5/CapSense_IntClock.c **** *
  57:Generated_Source\PSoC5/CapSense_IntClock.c **** * Summary:
  58:Generated_Source\PSoC5/CapSense_IntClock.c **** *  Stops the clock and returns immediately. This API does not require the
  59:Generated_Source\PSoC5/CapSense_IntClock.c **** *  source clock to be running but may return before the hardware is actually
  60:Generated_Source\PSoC5/CapSense_IntClock.c **** *  disabled. If the settings of the clock are changed after calling this
  61:Generated_Source\PSoC5/CapSense_IntClock.c **** *  function, the clock may glitch when it is started. To avoid the clock
  62:Generated_Source\PSoC5/CapSense_IntClock.c **** *  glitch, use the StopBlock function.
  63:Generated_Source\PSoC5/CapSense_IntClock.c **** *
  64:Generated_Source\PSoC5/CapSense_IntClock.c **** * Parameters:
  65:Generated_Source\PSoC5/CapSense_IntClock.c **** *  None
  66:Generated_Source\PSoC5/CapSense_IntClock.c **** *
  67:Generated_Source\PSoC5/CapSense_IntClock.c **** * Returns:
  68:Generated_Source\PSoC5/CapSense_IntClock.c **** *  None
  69:Generated_Source\PSoC5/CapSense_IntClock.c **** *
  70:Generated_Source\PSoC5/CapSense_IntClock.c **** *******************************************************************************/
  71:Generated_Source\PSoC5/CapSense_IntClock.c **** void CapSense_IntClock_Stop(void) 
  72:Generated_Source\PSoC5/CapSense_IntClock.c **** {
 641              		.loc 1 72 0
 642              		.cfi_startproc
 643              		@ args = 0, pretend = 0, frame = 0
 644              		@ frame_needed = 0, uses_anonymous_args = 0
 645              		@ link register save eliminated.
  73:Generated_Source\PSoC5/CapSense_IntClock.c ****     /* Clear the bit to disable the clock. */
  74:Generated_Source\PSoC5/CapSense_IntClock.c ****     CapSense_IntClock_CLKEN &= (uint8)(~CapSense_IntClock_CLKEN_MASK);
 646              		.loc 1 74 0
 647 0000 054A     		ldr	r2, .L5
 648 0002 1378     		ldrb	r3, [r2]	@ zero_extendqisi2
 649 0004 03F0F703 		and	r3, r3, #247
 650 0008 1370     		strb	r3, [r2]
  75:Generated_Source\PSoC5/CapSense_IntClock.c **** 	CapSense_IntClock_CLKSTBY &= (uint8)(~CapSense_IntClock_CLKSTBY_MASK);
 651              		.loc 1 75 0
 652 000a 1032     		adds	r2, r2, #16
 653 000c 1378     		ldrb	r3, [r2]	@ zero_extendqisi2
 654 000e 03F0F703 		and	r3, r3, #247
 655 0012 1370     		strb	r3, [r2]
 656 0014 7047     		bx	lr
 657              	.L6:
 658 0016 00BF     		.align	2
 659              	.L5:
 660 0018 A2430040 		.word	1073759138
 661              		.cfi_endproc
 662              	.LFE1:
 663              		.size	CapSense_IntClock_Stop, .-CapSense_IntClock_Stop
 664              		.section	.text.CapSense_IntClock_StopBlock,"ax",%progbits
 665              		.align	2
 666              		.global	CapSense_IntClock_StopBlock
 667              		.thumb
 668              		.thumb_func
 669              		.type	CapSense_IntClock_StopBlock, %function
ARM GAS  C:\Users\JEFFSN~1\AppData\Local\Temp\ccE5sBAf.s 			page 46


 670              	CapSense_IntClock_StopBlock:
 671              	.LFB2:
  76:Generated_Source\PSoC5/CapSense_IntClock.c **** }
  77:Generated_Source\PSoC5/CapSense_IntClock.c **** 
  78:Generated_Source\PSoC5/CapSense_IntClock.c **** 
  79:Generated_Source\PSoC5/CapSense_IntClock.c **** #if(CY_PSOC3 || CY_PSOC5LP)
  80:Generated_Source\PSoC5/CapSense_IntClock.c **** 
  81:Generated_Source\PSoC5/CapSense_IntClock.c **** 
  82:Generated_Source\PSoC5/CapSense_IntClock.c **** /*******************************************************************************
  83:Generated_Source\PSoC5/CapSense_IntClock.c **** * Function Name: CapSense_IntClock_StopBlock
  84:Generated_Source\PSoC5/CapSense_IntClock.c **** ********************************************************************************
  85:Generated_Source\PSoC5/CapSense_IntClock.c **** *
  86:Generated_Source\PSoC5/CapSense_IntClock.c **** * Summary:
  87:Generated_Source\PSoC5/CapSense_IntClock.c **** *  Stops the clock and waits for the hardware to actually be disabled before
  88:Generated_Source\PSoC5/CapSense_IntClock.c **** *  returning. This ensures that the clock is never truncated (high part of the
  89:Generated_Source\PSoC5/CapSense_IntClock.c **** *  cycle will terminate before the clock is disabled and the API returns).
  90:Generated_Source\PSoC5/CapSense_IntClock.c **** *  Note that the source clock must be running or this API will never return as
  91:Generated_Source\PSoC5/CapSense_IntClock.c **** *  a stopped clock cannot be disabled.
  92:Generated_Source\PSoC5/CapSense_IntClock.c **** *
  93:Generated_Source\PSoC5/CapSense_IntClock.c **** * Parameters:
  94:Generated_Source\PSoC5/CapSense_IntClock.c **** *  None
  95:Generated_Source\PSoC5/CapSense_IntClock.c **** *
  96:Generated_Source\PSoC5/CapSense_IntClock.c **** * Returns:
  97:Generated_Source\PSoC5/CapSense_IntClock.c **** *  None
  98:Generated_Source\PSoC5/CapSense_IntClock.c **** *
  99:Generated_Source\PSoC5/CapSense_IntClock.c **** *******************************************************************************/
 100:Generated_Source\PSoC5/CapSense_IntClock.c **** void CapSense_IntClock_StopBlock(void) 
 101:Generated_Source\PSoC5/CapSense_IntClock.c **** {
 672              		.loc 1 101 0
 673              		.cfi_startproc
 674              		@ args = 0, pretend = 0, frame = 0
 675              		@ frame_needed = 0, uses_anonymous_args = 0
 676              		@ link register save eliminated.
 102:Generated_Source\PSoC5/CapSense_IntClock.c ****     if ((CapSense_IntClock_CLKEN & CapSense_IntClock_CLKEN_MASK) != 0u)
 677              		.loc 1 102 0
 678 0000 164B     		ldr	r3, .L10
 679 0002 1B78     		ldrb	r3, [r3]	@ zero_extendqisi2
 680 0004 13F0080F 		tst	r3, #8
 681 0008 27D0     		beq	.L7
 682              	.LBB2:
 103:Generated_Source\PSoC5/CapSense_IntClock.c ****     {
 104:Generated_Source\PSoC5/CapSense_IntClock.c **** #if HAS_CLKDIST_LD_DISABLE
 105:Generated_Source\PSoC5/CapSense_IntClock.c ****         uint16 oldDivider;
 106:Generated_Source\PSoC5/CapSense_IntClock.c **** 
 107:Generated_Source\PSoC5/CapSense_IntClock.c ****         CLK_DIST_LD = 0u;
 683              		.loc 1 107 0
 684 000a 1549     		ldr	r1, .L10+4
 685 000c 0023     		movs	r3, #0
 686 000e 0B70     		strb	r3, [r1]
 108:Generated_Source\PSoC5/CapSense_IntClock.c **** 
 109:Generated_Source\PSoC5/CapSense_IntClock.c ****         /* Clear all the mask bits except ours. */
 110:Generated_Source\PSoC5/CapSense_IntClock.c **** #if defined(CapSense_IntClock__CFG3)
 111:Generated_Source\PSoC5/CapSense_IntClock.c ****         CLK_DIST_AMASK = CapSense_IntClock_CLKEN_MASK;
 112:Generated_Source\PSoC5/CapSense_IntClock.c ****         CLK_DIST_DMASK = 0x00u;
 113:Generated_Source\PSoC5/CapSense_IntClock.c **** #else
 114:Generated_Source\PSoC5/CapSense_IntClock.c ****         CLK_DIST_DMASK = CapSense_IntClock_CLKEN_MASK;
 687              		.loc 1 114 0
ARM GAS  C:\Users\JEFFSN~1\AppData\Local\Temp\ccE5sBAf.s 			page 47


 688 0010 0820     		movs	r0, #8
 689 0012 144A     		ldr	r2, .L10+8
 690 0014 1070     		strb	r0, [r2]
 115:Generated_Source\PSoC5/CapSense_IntClock.c ****         CLK_DIST_AMASK = 0x00u;
 691              		.loc 1 115 0
 692 0016 0432     		adds	r2, r2, #4
 693 0018 1370     		strb	r3, [r2]
 116:Generated_Source\PSoC5/CapSense_IntClock.c **** #endif /* CapSense_IntClock__CFG3 */
 117:Generated_Source\PSoC5/CapSense_IntClock.c **** 
 118:Generated_Source\PSoC5/CapSense_IntClock.c ****         /* Clear mask of bus clock. */
 119:Generated_Source\PSoC5/CapSense_IntClock.c ****         CLK_DIST_BCFG2 &= (uint8)(~BCFG2_MASK);
 694              		.loc 1 119 0
 695 001a 0C3A     		subs	r2, r2, #12
 696 001c 1378     		ldrb	r3, [r2]	@ zero_extendqisi2
 697 001e 03F07F03 		and	r3, r3, #127
 698 0022 1370     		strb	r3, [r2]
 120:Generated_Source\PSoC5/CapSense_IntClock.c **** 
 121:Generated_Source\PSoC5/CapSense_IntClock.c ****         oldDivider = CY_GET_REG16(CapSense_IntClock_DIV_PTR);
 699              		.loc 1 121 0
 700 0024 104B     		ldr	r3, .L10+12
 701 0026 1A88     		ldrh	r2, [r3]
 702 0028 92B2     		uxth	r2, r2
 703              	.LVL0:
 122:Generated_Source\PSoC5/CapSense_IntClock.c ****         CY_SET_REG16(CYREG_CLKDIST_WRK0, oldDivider);
 704              		.loc 1 122 0
 705 002a 8A3B     		subs	r3, r3, #138
 706 002c 1A80     		strh	r2, [r3]	@ movhi
 123:Generated_Source\PSoC5/CapSense_IntClock.c ****         CLK_DIST_LD = CYCLK_LD_DISABLE | CYCLK_LD_SYNC_EN | CYCLK_LD_LOAD;
 707              		.loc 1 123 0
 708 002e 0723     		movs	r3, #7
 709 0030 0B70     		strb	r3, [r1]
 710              	.L9:
 124:Generated_Source\PSoC5/CapSense_IntClock.c **** 
 125:Generated_Source\PSoC5/CapSense_IntClock.c ****         /* Wait for clock to be disabled */
 126:Generated_Source\PSoC5/CapSense_IntClock.c ****         while ((CLK_DIST_LD & CYCLK_LD_LOAD) != 0u) { }
 711              		.loc 1 126 0 discriminator 1
 712 0032 0B4B     		ldr	r3, .L10+4
 713 0034 1B78     		ldrb	r3, [r3]	@ zero_extendqisi2
 714 0036 13F0010F 		tst	r3, #1
 715 003a FAD1     		bne	.L9
 127:Generated_Source\PSoC5/CapSense_IntClock.c **** #endif /* HAS_CLKDIST_LD_DISABLE */
 128:Generated_Source\PSoC5/CapSense_IntClock.c **** 
 129:Generated_Source\PSoC5/CapSense_IntClock.c ****         /* Clear the bit to disable the clock. */
 130:Generated_Source\PSoC5/CapSense_IntClock.c ****         CapSense_IntClock_CLKEN &= (uint8)(~CapSense_IntClock_CLKEN_MASK);
 716              		.loc 1 130 0
 717 003c 0749     		ldr	r1, .L10
 718 003e 0B78     		ldrb	r3, [r1]	@ zero_extendqisi2
 719 0040 03F0F703 		and	r3, r3, #247
 720 0044 0B70     		strb	r3, [r1]
 131:Generated_Source\PSoC5/CapSense_IntClock.c ****         CapSense_IntClock_CLKSTBY &= (uint8)(~CapSense_IntClock_CLKSTBY_MASK);
 721              		.loc 1 131 0
 722 0046 1031     		adds	r1, r1, #16
 723 0048 0B78     		ldrb	r3, [r1]	@ zero_extendqisi2
 724 004a 03F0F703 		and	r3, r3, #247
 725 004e 0B70     		strb	r3, [r1]
 132:Generated_Source\PSoC5/CapSense_IntClock.c **** 
 133:Generated_Source\PSoC5/CapSense_IntClock.c **** #if HAS_CLKDIST_LD_DISABLE
ARM GAS  C:\Users\JEFFSN~1\AppData\Local\Temp\ccE5sBAf.s 			page 48


 134:Generated_Source\PSoC5/CapSense_IntClock.c ****         /* Clear the disable bit */
 135:Generated_Source\PSoC5/CapSense_IntClock.c ****         CLK_DIST_LD = 0x00u;
 726              		.loc 1 135 0
 727 0050 0021     		movs	r1, #0
 728 0052 034B     		ldr	r3, .L10+4
 729 0054 1970     		strb	r1, [r3]
 136:Generated_Source\PSoC5/CapSense_IntClock.c ****         CY_SET_REG16(CapSense_IntClock_DIV_PTR, oldDivider);
 730              		.loc 1 136 0
 731 0056 8B33     		adds	r3, r3, #139
 732 0058 1A80     		strh	r2, [r3]	@ movhi
 733              	.LVL1:
 734              	.L7:
 735 005a 7047     		bx	lr
 736              	.L11:
 737              		.align	2
 738              	.L10:
 739 005c A2430040 		.word	1073759138
 740 0060 01400040 		.word	1073758209
 741 0064 10400040 		.word	1073758224
 742 0068 8C400040 		.word	1073758348
 743              	.LBE2:
 744              		.cfi_endproc
 745              	.LFE2:
 746              		.size	CapSense_IntClock_StopBlock, .-CapSense_IntClock_StopBlock
 747              		.section	.text.CapSense_IntClock_StandbyPower,"ax",%progbits
 748              		.align	2
 749              		.global	CapSense_IntClock_StandbyPower
 750              		.thumb
 751              		.thumb_func
 752              		.type	CapSense_IntClock_StandbyPower, %function
 753              	CapSense_IntClock_StandbyPower:
 754              	.LFB3:
 137:Generated_Source\PSoC5/CapSense_IntClock.c **** #endif /* HAS_CLKDIST_LD_DISABLE */
 138:Generated_Source\PSoC5/CapSense_IntClock.c ****     }
 139:Generated_Source\PSoC5/CapSense_IntClock.c **** }
 140:Generated_Source\PSoC5/CapSense_IntClock.c **** #endif /* (CY_PSOC3 || CY_PSOC5LP) */
 141:Generated_Source\PSoC5/CapSense_IntClock.c **** 
 142:Generated_Source\PSoC5/CapSense_IntClock.c **** 
 143:Generated_Source\PSoC5/CapSense_IntClock.c **** /*******************************************************************************
 144:Generated_Source\PSoC5/CapSense_IntClock.c **** * Function Name: CapSense_IntClock_StandbyPower
 145:Generated_Source\PSoC5/CapSense_IntClock.c **** ********************************************************************************
 146:Generated_Source\PSoC5/CapSense_IntClock.c **** *
 147:Generated_Source\PSoC5/CapSense_IntClock.c **** * Summary:
 148:Generated_Source\PSoC5/CapSense_IntClock.c **** *  Sets whether the clock is active in standby mode.
 149:Generated_Source\PSoC5/CapSense_IntClock.c **** *
 150:Generated_Source\PSoC5/CapSense_IntClock.c **** * Parameters:
 151:Generated_Source\PSoC5/CapSense_IntClock.c **** *  state:  0 to disable clock during standby, nonzero to enable.
 152:Generated_Source\PSoC5/CapSense_IntClock.c **** *
 153:Generated_Source\PSoC5/CapSense_IntClock.c **** * Returns:
 154:Generated_Source\PSoC5/CapSense_IntClock.c **** *  None
 155:Generated_Source\PSoC5/CapSense_IntClock.c **** *
 156:Generated_Source\PSoC5/CapSense_IntClock.c **** *******************************************************************************/
 157:Generated_Source\PSoC5/CapSense_IntClock.c **** void CapSense_IntClock_StandbyPower(uint8 state) 
 158:Generated_Source\PSoC5/CapSense_IntClock.c **** {
 755              		.loc 1 158 0
 756              		.cfi_startproc
 757              		@ args = 0, pretend = 0, frame = 0
ARM GAS  C:\Users\JEFFSN~1\AppData\Local\Temp\ccE5sBAf.s 			page 49


 758              		@ frame_needed = 0, uses_anonymous_args = 0
 759              		@ link register save eliminated.
 760              	.LVL2:
 159:Generated_Source\PSoC5/CapSense_IntClock.c ****     if(state == 0u)
 761              		.loc 1 159 0
 762 0000 28B9     		cbnz	r0, .L13
 160:Generated_Source\PSoC5/CapSense_IntClock.c ****     {
 161:Generated_Source\PSoC5/CapSense_IntClock.c ****         CapSense_IntClock_CLKSTBY &= (uint8)(~CapSense_IntClock_CLKSTBY_MASK);
 763              		.loc 1 161 0
 764 0002 064A     		ldr	r2, .L15
 765 0004 1378     		ldrb	r3, [r2]	@ zero_extendqisi2
 766 0006 03F0F703 		and	r3, r3, #247
 767 000a 1370     		strb	r3, [r2]
 768 000c 7047     		bx	lr
 769              	.L13:
 162:Generated_Source\PSoC5/CapSense_IntClock.c ****     }
 163:Generated_Source\PSoC5/CapSense_IntClock.c ****     else
 164:Generated_Source\PSoC5/CapSense_IntClock.c ****     {
 165:Generated_Source\PSoC5/CapSense_IntClock.c ****         CapSense_IntClock_CLKSTBY |= CapSense_IntClock_CLKSTBY_MASK;
 770              		.loc 1 165 0
 771 000e 034A     		ldr	r2, .L15
 772 0010 1378     		ldrb	r3, [r2]	@ zero_extendqisi2
 773 0012 43F00803 		orr	r3, r3, #8
 774 0016 1370     		strb	r3, [r2]
 775 0018 7047     		bx	lr
 776              	.L16:
 777 001a 00BF     		.align	2
 778              	.L15:
 779 001c B2430040 		.word	1073759154
 780              		.cfi_endproc
 781              	.LFE3:
 782              		.size	CapSense_IntClock_StandbyPower, .-CapSense_IntClock_StandbyPower
 783              		.section	.text.CapSense_IntClock_GetDividerRegister,"ax",%progbits
 784              		.align	2
 785              		.global	CapSense_IntClock_GetDividerRegister
 786              		.thumb
 787              		.thumb_func
 788              		.type	CapSense_IntClock_GetDividerRegister, %function
 789              	CapSense_IntClock_GetDividerRegister:
 790              	.LFB5:
 166:Generated_Source\PSoC5/CapSense_IntClock.c ****     }
 167:Generated_Source\PSoC5/CapSense_IntClock.c **** }
 168:Generated_Source\PSoC5/CapSense_IntClock.c **** 
 169:Generated_Source\PSoC5/CapSense_IntClock.c **** 
 170:Generated_Source\PSoC5/CapSense_IntClock.c **** /*******************************************************************************
 171:Generated_Source\PSoC5/CapSense_IntClock.c **** * Function Name: CapSense_IntClock_SetDividerRegister
 172:Generated_Source\PSoC5/CapSense_IntClock.c **** ********************************************************************************
 173:Generated_Source\PSoC5/CapSense_IntClock.c **** *
 174:Generated_Source\PSoC5/CapSense_IntClock.c **** * Summary:
 175:Generated_Source\PSoC5/CapSense_IntClock.c **** *  Modifies the clock divider and, thus, the frequency. When the clock divider
 176:Generated_Source\PSoC5/CapSense_IntClock.c **** *  register is set to zero or changed from zero, the clock will be temporarily
 177:Generated_Source\PSoC5/CapSense_IntClock.c **** *  disabled in order to change the SSS mode bit. If the clock is enabled when
 178:Generated_Source\PSoC5/CapSense_IntClock.c **** *  SetDividerRegister is called, then the source clock must be running.
 179:Generated_Source\PSoC5/CapSense_IntClock.c **** *
 180:Generated_Source\PSoC5/CapSense_IntClock.c **** * Parameters:
 181:Generated_Source\PSoC5/CapSense_IntClock.c **** *  clkDivider:  Divider register value (0-65,535). This value is NOT the
 182:Generated_Source\PSoC5/CapSense_IntClock.c **** *    divider; the clock hardware divides by clkDivider plus one. For example,
ARM GAS  C:\Users\JEFFSN~1\AppData\Local\Temp\ccE5sBAf.s 			page 50


 183:Generated_Source\PSoC5/CapSense_IntClock.c **** *    to divide the clock by 2, this parameter should be set to 1.
 184:Generated_Source\PSoC5/CapSense_IntClock.c **** *  restart:  If nonzero, restarts the clock divider: the current clock cycle
 185:Generated_Source\PSoC5/CapSense_IntClock.c **** *   will be truncated and the new divide value will take effect immediately. If
 186:Generated_Source\PSoC5/CapSense_IntClock.c **** *   zero, the new divide value will take effect at the end of the current clock
 187:Generated_Source\PSoC5/CapSense_IntClock.c **** *   cycle.
 188:Generated_Source\PSoC5/CapSense_IntClock.c **** *
 189:Generated_Source\PSoC5/CapSense_IntClock.c **** * Returns:
 190:Generated_Source\PSoC5/CapSense_IntClock.c **** *  None
 191:Generated_Source\PSoC5/CapSense_IntClock.c **** *
 192:Generated_Source\PSoC5/CapSense_IntClock.c **** *******************************************************************************/
 193:Generated_Source\PSoC5/CapSense_IntClock.c **** void CapSense_IntClock_SetDividerRegister(uint16 clkDivider, uint8 restart)
 194:Generated_Source\PSoC5/CapSense_IntClock.c ****                                 
 195:Generated_Source\PSoC5/CapSense_IntClock.c **** {
 196:Generated_Source\PSoC5/CapSense_IntClock.c ****     uint8 enabled;
 197:Generated_Source\PSoC5/CapSense_IntClock.c **** 
 198:Generated_Source\PSoC5/CapSense_IntClock.c ****     uint8 currSrc = CapSense_IntClock_GetSourceRegister();
 199:Generated_Source\PSoC5/CapSense_IntClock.c ****     uint16 oldDivider = CapSense_IntClock_GetDividerRegister();
 200:Generated_Source\PSoC5/CapSense_IntClock.c **** 
 201:Generated_Source\PSoC5/CapSense_IntClock.c ****     if (clkDivider != oldDivider)
 202:Generated_Source\PSoC5/CapSense_IntClock.c ****     {
 203:Generated_Source\PSoC5/CapSense_IntClock.c ****         enabled = CapSense_IntClock_CLKEN & CapSense_IntClock_CLKEN_MASK;
 204:Generated_Source\PSoC5/CapSense_IntClock.c **** 
 205:Generated_Source\PSoC5/CapSense_IntClock.c ****         if ((currSrc == (uint8)CYCLK_SRC_SEL_CLK_SYNC_D) && ((oldDivider == 0u) || (clkDivider == 0
 206:Generated_Source\PSoC5/CapSense_IntClock.c ****         {
 207:Generated_Source\PSoC5/CapSense_IntClock.c ****             /* Moving to/from SSS requires correct ordering to prevent halting the clock    */
 208:Generated_Source\PSoC5/CapSense_IntClock.c ****             if (oldDivider == 0u)
 209:Generated_Source\PSoC5/CapSense_IntClock.c ****             {
 210:Generated_Source\PSoC5/CapSense_IntClock.c ****                 /* Moving away from SSS, set the divider first so when SSS is cleared we    */
 211:Generated_Source\PSoC5/CapSense_IntClock.c ****                 /* don't halt the clock.  Using the shadow load isn't required as the       */
 212:Generated_Source\PSoC5/CapSense_IntClock.c ****                 /* divider is ignored while SSS is set.                                     */
 213:Generated_Source\PSoC5/CapSense_IntClock.c ****                 CY_SET_REG16(CapSense_IntClock_DIV_PTR, clkDivider);
 214:Generated_Source\PSoC5/CapSense_IntClock.c ****                 CapSense_IntClock_MOD_SRC &= (uint8)(~CYCLK_SSS);
 215:Generated_Source\PSoC5/CapSense_IntClock.c ****             }
 216:Generated_Source\PSoC5/CapSense_IntClock.c ****             else
 217:Generated_Source\PSoC5/CapSense_IntClock.c ****             {
 218:Generated_Source\PSoC5/CapSense_IntClock.c ****                 /* Moving to SSS, set SSS which then ignores the divider and we can set     */
 219:Generated_Source\PSoC5/CapSense_IntClock.c ****                 /* it without bothering with the shadow load.                               */
 220:Generated_Source\PSoC5/CapSense_IntClock.c ****                 CapSense_IntClock_MOD_SRC |= CYCLK_SSS;
 221:Generated_Source\PSoC5/CapSense_IntClock.c ****                 CY_SET_REG16(CapSense_IntClock_DIV_PTR, clkDivider);
 222:Generated_Source\PSoC5/CapSense_IntClock.c ****             }
 223:Generated_Source\PSoC5/CapSense_IntClock.c ****         }
 224:Generated_Source\PSoC5/CapSense_IntClock.c ****         else
 225:Generated_Source\PSoC5/CapSense_IntClock.c ****         {
 226:Generated_Source\PSoC5/CapSense_IntClock.c **** 			
 227:Generated_Source\PSoC5/CapSense_IntClock.c ****             if (enabled != 0u)
 228:Generated_Source\PSoC5/CapSense_IntClock.c ****             {
 229:Generated_Source\PSoC5/CapSense_IntClock.c ****                 CLK_DIST_LD = 0x00u;
 230:Generated_Source\PSoC5/CapSense_IntClock.c **** 
 231:Generated_Source\PSoC5/CapSense_IntClock.c ****                 /* Clear all the mask bits except ours. */
 232:Generated_Source\PSoC5/CapSense_IntClock.c **** #if defined(CapSense_IntClock__CFG3)
 233:Generated_Source\PSoC5/CapSense_IntClock.c ****                 CLK_DIST_AMASK = CapSense_IntClock_CLKEN_MASK;
 234:Generated_Source\PSoC5/CapSense_IntClock.c ****                 CLK_DIST_DMASK = 0x00u;
 235:Generated_Source\PSoC5/CapSense_IntClock.c **** #else
 236:Generated_Source\PSoC5/CapSense_IntClock.c ****                 CLK_DIST_DMASK = CapSense_IntClock_CLKEN_MASK;
 237:Generated_Source\PSoC5/CapSense_IntClock.c ****                 CLK_DIST_AMASK = 0x00u;
 238:Generated_Source\PSoC5/CapSense_IntClock.c **** #endif /* CapSense_IntClock__CFG3 */
 239:Generated_Source\PSoC5/CapSense_IntClock.c ****                 /* Clear mask of bus clock. */
ARM GAS  C:\Users\JEFFSN~1\AppData\Local\Temp\ccE5sBAf.s 			page 51


 240:Generated_Source\PSoC5/CapSense_IntClock.c ****                 CLK_DIST_BCFG2 &= (uint8)(~BCFG2_MASK);
 241:Generated_Source\PSoC5/CapSense_IntClock.c **** 
 242:Generated_Source\PSoC5/CapSense_IntClock.c ****                 /* If clock is currently enabled, disable it if async or going from N-to-1*/
 243:Generated_Source\PSoC5/CapSense_IntClock.c ****                 if (((CapSense_IntClock_MOD_SRC & CYCLK_SYNC) == 0u) || (clkDivider == 0u))
 244:Generated_Source\PSoC5/CapSense_IntClock.c ****                 {
 245:Generated_Source\PSoC5/CapSense_IntClock.c **** #if HAS_CLKDIST_LD_DISABLE
 246:Generated_Source\PSoC5/CapSense_IntClock.c ****                     CY_SET_REG16(CYREG_CLKDIST_WRK0, oldDivider);
 247:Generated_Source\PSoC5/CapSense_IntClock.c ****                     CLK_DIST_LD = CYCLK_LD_DISABLE|CYCLK_LD_SYNC_EN|CYCLK_LD_LOAD;
 248:Generated_Source\PSoC5/CapSense_IntClock.c **** 
 249:Generated_Source\PSoC5/CapSense_IntClock.c ****                     /* Wait for clock to be disabled */
 250:Generated_Source\PSoC5/CapSense_IntClock.c ****                     while ((CLK_DIST_LD & CYCLK_LD_LOAD) != 0u) { }
 251:Generated_Source\PSoC5/CapSense_IntClock.c **** #endif /* HAS_CLKDIST_LD_DISABLE */
 252:Generated_Source\PSoC5/CapSense_IntClock.c **** 
 253:Generated_Source\PSoC5/CapSense_IntClock.c ****                     CapSense_IntClock_CLKEN &= (uint8)(~CapSense_IntClock_CLKEN_MASK);
 254:Generated_Source\PSoC5/CapSense_IntClock.c **** 
 255:Generated_Source\PSoC5/CapSense_IntClock.c **** #if HAS_CLKDIST_LD_DISABLE
 256:Generated_Source\PSoC5/CapSense_IntClock.c ****                     /* Clear the disable bit */
 257:Generated_Source\PSoC5/CapSense_IntClock.c ****                     CLK_DIST_LD = 0x00u;
 258:Generated_Source\PSoC5/CapSense_IntClock.c **** #endif /* HAS_CLKDIST_LD_DISABLE */
 259:Generated_Source\PSoC5/CapSense_IntClock.c ****                 }
 260:Generated_Source\PSoC5/CapSense_IntClock.c ****             }
 261:Generated_Source\PSoC5/CapSense_IntClock.c **** 
 262:Generated_Source\PSoC5/CapSense_IntClock.c ****             /* Load divide value. */
 263:Generated_Source\PSoC5/CapSense_IntClock.c ****             if ((CapSense_IntClock_CLKEN & CapSense_IntClock_CLKEN_MASK) != 0u)
 264:Generated_Source\PSoC5/CapSense_IntClock.c ****             {
 265:Generated_Source\PSoC5/CapSense_IntClock.c ****                 /* If the clock is still enabled, use the shadow registers */
 266:Generated_Source\PSoC5/CapSense_IntClock.c ****                 CY_SET_REG16(CYREG_CLKDIST_WRK0, clkDivider);
 267:Generated_Source\PSoC5/CapSense_IntClock.c **** 
 268:Generated_Source\PSoC5/CapSense_IntClock.c ****                 CLK_DIST_LD = (CYCLK_LD_LOAD | ((restart != 0u) ? CYCLK_LD_SYNC_EN : 0x00u));
 269:Generated_Source\PSoC5/CapSense_IntClock.c ****                 while ((CLK_DIST_LD & CYCLK_LD_LOAD) != 0u) { }
 270:Generated_Source\PSoC5/CapSense_IntClock.c ****             }
 271:Generated_Source\PSoC5/CapSense_IntClock.c ****             else
 272:Generated_Source\PSoC5/CapSense_IntClock.c ****             {
 273:Generated_Source\PSoC5/CapSense_IntClock.c ****                 /* If the clock is disabled, set the divider directly */
 274:Generated_Source\PSoC5/CapSense_IntClock.c ****                 CY_SET_REG16(CapSense_IntClock_DIV_PTR, clkDivider);
 275:Generated_Source\PSoC5/CapSense_IntClock.c **** 				CapSense_IntClock_CLKEN |= enabled;
 276:Generated_Source\PSoC5/CapSense_IntClock.c ****             }
 277:Generated_Source\PSoC5/CapSense_IntClock.c ****         }
 278:Generated_Source\PSoC5/CapSense_IntClock.c ****     }
 279:Generated_Source\PSoC5/CapSense_IntClock.c **** }
 280:Generated_Source\PSoC5/CapSense_IntClock.c **** 
 281:Generated_Source\PSoC5/CapSense_IntClock.c **** 
 282:Generated_Source\PSoC5/CapSense_IntClock.c **** /*******************************************************************************
 283:Generated_Source\PSoC5/CapSense_IntClock.c **** * Function Name: CapSense_IntClock_GetDividerRegister
 284:Generated_Source\PSoC5/CapSense_IntClock.c **** ********************************************************************************
 285:Generated_Source\PSoC5/CapSense_IntClock.c **** *
 286:Generated_Source\PSoC5/CapSense_IntClock.c **** * Summary:
 287:Generated_Source\PSoC5/CapSense_IntClock.c **** *  Gets the clock divider register value.
 288:Generated_Source\PSoC5/CapSense_IntClock.c **** *
 289:Generated_Source\PSoC5/CapSense_IntClock.c **** * Parameters:
 290:Generated_Source\PSoC5/CapSense_IntClock.c **** *  None
 291:Generated_Source\PSoC5/CapSense_IntClock.c **** *
 292:Generated_Source\PSoC5/CapSense_IntClock.c **** * Returns:
 293:Generated_Source\PSoC5/CapSense_IntClock.c **** *  Divide value of the clock minus 1. For example, if the clock is set to
 294:Generated_Source\PSoC5/CapSense_IntClock.c **** *  divide by 2, the return value will be 1.
 295:Generated_Source\PSoC5/CapSense_IntClock.c **** *
 296:Generated_Source\PSoC5/CapSense_IntClock.c **** *******************************************************************************/
ARM GAS  C:\Users\JEFFSN~1\AppData\Local\Temp\ccE5sBAf.s 			page 52


 297:Generated_Source\PSoC5/CapSense_IntClock.c **** uint16 CapSense_IntClock_GetDividerRegister(void) 
 298:Generated_Source\PSoC5/CapSense_IntClock.c **** {
 791              		.loc 1 298 0
 792              		.cfi_startproc
 793              		@ args = 0, pretend = 0, frame = 0
 794              		@ frame_needed = 0, uses_anonymous_args = 0
 795              		@ link register save eliminated.
 299:Generated_Source\PSoC5/CapSense_IntClock.c ****     return CY_GET_REG16(CapSense_IntClock_DIV_PTR);
 796              		.loc 1 299 0
 797 0000 014B     		ldr	r3, .L18
 798 0002 1888     		ldrh	r0, [r3]
 300:Generated_Source\PSoC5/CapSense_IntClock.c **** }
 799              		.loc 1 300 0
 800 0004 80B2     		uxth	r0, r0
 801 0006 7047     		bx	lr
 802              	.L19:
 803              		.align	2
 804              	.L18:
 805 0008 8C400040 		.word	1073758348
 806              		.cfi_endproc
 807              	.LFE5:
 808              		.size	CapSense_IntClock_GetDividerRegister, .-CapSense_IntClock_GetDividerRegister
 809              		.section	.text.CapSense_IntClock_SetModeRegister,"ax",%progbits
 810              		.align	2
 811              		.global	CapSense_IntClock_SetModeRegister
 812              		.thumb
 813              		.thumb_func
 814              		.type	CapSense_IntClock_SetModeRegister, %function
 815              	CapSense_IntClock_SetModeRegister:
 816              	.LFB6:
 301:Generated_Source\PSoC5/CapSense_IntClock.c **** 
 302:Generated_Source\PSoC5/CapSense_IntClock.c **** 
 303:Generated_Source\PSoC5/CapSense_IntClock.c **** /*******************************************************************************
 304:Generated_Source\PSoC5/CapSense_IntClock.c **** * Function Name: CapSense_IntClock_SetModeRegister
 305:Generated_Source\PSoC5/CapSense_IntClock.c **** ********************************************************************************
 306:Generated_Source\PSoC5/CapSense_IntClock.c **** *
 307:Generated_Source\PSoC5/CapSense_IntClock.c **** * Summary:
 308:Generated_Source\PSoC5/CapSense_IntClock.c **** *  Sets flags that control the operating mode of the clock. This function only
 309:Generated_Source\PSoC5/CapSense_IntClock.c **** *  changes flags from 0 to 1; flags that are already 1 will remain unchanged.
 310:Generated_Source\PSoC5/CapSense_IntClock.c **** *  To clear flags, use the ClearModeRegister function. The clock must be
 311:Generated_Source\PSoC5/CapSense_IntClock.c **** *  disabled before changing the mode.
 312:Generated_Source\PSoC5/CapSense_IntClock.c **** *
 313:Generated_Source\PSoC5/CapSense_IntClock.c **** * Parameters:
 314:Generated_Source\PSoC5/CapSense_IntClock.c **** *  clkMode: Bit mask containing the bits to set. For PSoC 3 and PSoC 5,
 315:Generated_Source\PSoC5/CapSense_IntClock.c **** *   clkMode should be a set of the following optional bits or'ed together.
 316:Generated_Source\PSoC5/CapSense_IntClock.c **** *   - CYCLK_EARLY Enable early phase mode. Rising edge of output clock will
 317:Generated_Source\PSoC5/CapSense_IntClock.c **** *                 occur when the divider count reaches half of the divide
 318:Generated_Source\PSoC5/CapSense_IntClock.c **** *                 value.
 319:Generated_Source\PSoC5/CapSense_IntClock.c **** *   - CYCLK_DUTY  Enable 50% duty cycle output. When enabled, the output clock
 320:Generated_Source\PSoC5/CapSense_IntClock.c **** *                 is asserted for approximately half of its period. When
 321:Generated_Source\PSoC5/CapSense_IntClock.c **** *                 disabled, the output clock is asserted for one period of the
 322:Generated_Source\PSoC5/CapSense_IntClock.c **** *                 source clock.
 323:Generated_Source\PSoC5/CapSense_IntClock.c **** *   - CYCLK_SYNC  Enable output synchronization to master clock. This should
 324:Generated_Source\PSoC5/CapSense_IntClock.c **** *                 be enabled for all synchronous clocks.
 325:Generated_Source\PSoC5/CapSense_IntClock.c **** *   See the Technical Reference Manual for details about setting the mode of
 326:Generated_Source\PSoC5/CapSense_IntClock.c **** *   the clock. Specifically, see the CLKDIST.DCFG.CFG2 register.
 327:Generated_Source\PSoC5/CapSense_IntClock.c **** *
ARM GAS  C:\Users\JEFFSN~1\AppData\Local\Temp\ccE5sBAf.s 			page 53


 328:Generated_Source\PSoC5/CapSense_IntClock.c **** * Returns:
 329:Generated_Source\PSoC5/CapSense_IntClock.c **** *  None
 330:Generated_Source\PSoC5/CapSense_IntClock.c **** *
 331:Generated_Source\PSoC5/CapSense_IntClock.c **** *******************************************************************************/
 332:Generated_Source\PSoC5/CapSense_IntClock.c **** void CapSense_IntClock_SetModeRegister(uint8 modeBitMask) 
 333:Generated_Source\PSoC5/CapSense_IntClock.c **** {
 817              		.loc 1 333 0
 818              		.cfi_startproc
 819              		@ args = 0, pretend = 0, frame = 0
 820              		@ frame_needed = 0, uses_anonymous_args = 0
 821              		@ link register save eliminated.
 822              	.LVL3:
 334:Generated_Source\PSoC5/CapSense_IntClock.c ****     CapSense_IntClock_MOD_SRC |= modeBitMask & (uint8)CapSense_IntClock_MODE_MASK;
 823              		.loc 1 334 0
 824 0000 034B     		ldr	r3, .L21
 825 0002 1A78     		ldrb	r2, [r3]	@ zero_extendqisi2
 826 0004 00F0F800 		and	r0, r0, #248
 827              	.LVL4:
 828 0008 1043     		orrs	r0, r0, r2
 829 000a 1870     		strb	r0, [r3]
 830 000c 7047     		bx	lr
 831              	.L22:
 832 000e 00BF     		.align	2
 833              	.L21:
 834 0010 8E400040 		.word	1073758350
 835              		.cfi_endproc
 836              	.LFE6:
 837              		.size	CapSense_IntClock_SetModeRegister, .-CapSense_IntClock_SetModeRegister
 838              		.section	.text.CapSense_IntClock_ClearModeRegister,"ax",%progbits
 839              		.align	2
 840              		.global	CapSense_IntClock_ClearModeRegister
 841              		.thumb
 842              		.thumb_func
 843              		.type	CapSense_IntClock_ClearModeRegister, %function
 844              	CapSense_IntClock_ClearModeRegister:
 845              	.LFB7:
 335:Generated_Source\PSoC5/CapSense_IntClock.c **** }
 336:Generated_Source\PSoC5/CapSense_IntClock.c **** 
 337:Generated_Source\PSoC5/CapSense_IntClock.c **** 
 338:Generated_Source\PSoC5/CapSense_IntClock.c **** /*******************************************************************************
 339:Generated_Source\PSoC5/CapSense_IntClock.c **** * Function Name: CapSense_IntClock_ClearModeRegister
 340:Generated_Source\PSoC5/CapSense_IntClock.c **** ********************************************************************************
 341:Generated_Source\PSoC5/CapSense_IntClock.c **** *
 342:Generated_Source\PSoC5/CapSense_IntClock.c **** * Summary:
 343:Generated_Source\PSoC5/CapSense_IntClock.c **** *  Clears flags that control the operating mode of the clock. This function
 344:Generated_Source\PSoC5/CapSense_IntClock.c **** *  only changes flags from 1 to 0; flags that are already 0 will remain
 345:Generated_Source\PSoC5/CapSense_IntClock.c **** *  unchanged. To set flags, use the SetModeRegister function. The clock must be
 346:Generated_Source\PSoC5/CapSense_IntClock.c **** *  disabled before changing the mode.
 347:Generated_Source\PSoC5/CapSense_IntClock.c **** *
 348:Generated_Source\PSoC5/CapSense_IntClock.c **** * Parameters:
 349:Generated_Source\PSoC5/CapSense_IntClock.c **** *  clkMode: Bit mask containing the bits to clear. For PSoC 3 and PSoC 5,
 350:Generated_Source\PSoC5/CapSense_IntClock.c **** *   clkMode should be a set of the following optional bits or'ed together.
 351:Generated_Source\PSoC5/CapSense_IntClock.c **** *   - CYCLK_EARLY Enable early phase mode. Rising edge of output clock will
 352:Generated_Source\PSoC5/CapSense_IntClock.c **** *                 occur when the divider count reaches half of the divide
 353:Generated_Source\PSoC5/CapSense_IntClock.c **** *                 value.
 354:Generated_Source\PSoC5/CapSense_IntClock.c **** *   - CYCLK_DUTY  Enable 50% duty cycle output. When enabled, the output clock
 355:Generated_Source\PSoC5/CapSense_IntClock.c **** *                 is asserted for approximately half of its period. When
ARM GAS  C:\Users\JEFFSN~1\AppData\Local\Temp\ccE5sBAf.s 			page 54


 356:Generated_Source\PSoC5/CapSense_IntClock.c **** *                 disabled, the output clock is asserted for one period of the
 357:Generated_Source\PSoC5/CapSense_IntClock.c **** *                 source clock.
 358:Generated_Source\PSoC5/CapSense_IntClock.c **** *   - CYCLK_SYNC  Enable output synchronization to master clock. This should
 359:Generated_Source\PSoC5/CapSense_IntClock.c **** *                 be enabled for all synchronous clocks.
 360:Generated_Source\PSoC5/CapSense_IntClock.c **** *   See the Technical Reference Manual for details about setting the mode of
 361:Generated_Source\PSoC5/CapSense_IntClock.c **** *   the clock. Specifically, see the CLKDIST.DCFG.CFG2 register.
 362:Generated_Source\PSoC5/CapSense_IntClock.c **** *
 363:Generated_Source\PSoC5/CapSense_IntClock.c **** * Returns:
 364:Generated_Source\PSoC5/CapSense_IntClock.c **** *  None
 365:Generated_Source\PSoC5/CapSense_IntClock.c **** *
 366:Generated_Source\PSoC5/CapSense_IntClock.c **** *******************************************************************************/
 367:Generated_Source\PSoC5/CapSense_IntClock.c **** void CapSense_IntClock_ClearModeRegister(uint8 modeBitMask) 
 368:Generated_Source\PSoC5/CapSense_IntClock.c **** {
 846              		.loc 1 368 0
 847              		.cfi_startproc
 848              		@ args = 0, pretend = 0, frame = 0
 849              		@ frame_needed = 0, uses_anonymous_args = 0
 850              		@ link register save eliminated.
 851              	.LVL5:
 369:Generated_Source\PSoC5/CapSense_IntClock.c ****     CapSense_IntClock_MOD_SRC &= (uint8)(~modeBitMask) | (uint8)(~(uint8)(CapSense_IntClock_MODE_MA
 852              		.loc 1 369 0
 853 0000 044B     		ldr	r3, .L24
 854 0002 1A78     		ldrb	r2, [r3]	@ zero_extendqisi2
 855 0004 C043     		mvns	r0, r0
 856              	.LVL6:
 857 0006 C0B2     		uxtb	r0, r0
 858 0008 40F00700 		orr	r0, r0, #7
 859 000c 1040     		ands	r0, r0, r2
 860 000e 1870     		strb	r0, [r3]
 861 0010 7047     		bx	lr
 862              	.L25:
 863 0012 00BF     		.align	2
 864              	.L24:
 865 0014 8E400040 		.word	1073758350
 866              		.cfi_endproc
 867              	.LFE7:
 868              		.size	CapSense_IntClock_ClearModeRegister, .-CapSense_IntClock_ClearModeRegister
 869              		.section	.text.CapSense_IntClock_GetModeRegister,"ax",%progbits
 870              		.align	2
 871              		.global	CapSense_IntClock_GetModeRegister
 872              		.thumb
 873              		.thumb_func
 874              		.type	CapSense_IntClock_GetModeRegister, %function
 875              	CapSense_IntClock_GetModeRegister:
 876              	.LFB8:
 370:Generated_Source\PSoC5/CapSense_IntClock.c **** }
 371:Generated_Source\PSoC5/CapSense_IntClock.c **** 
 372:Generated_Source\PSoC5/CapSense_IntClock.c **** 
 373:Generated_Source\PSoC5/CapSense_IntClock.c **** /*******************************************************************************
 374:Generated_Source\PSoC5/CapSense_IntClock.c **** * Function Name: CapSense_IntClock_GetModeRegister
 375:Generated_Source\PSoC5/CapSense_IntClock.c **** ********************************************************************************
 376:Generated_Source\PSoC5/CapSense_IntClock.c **** *
 377:Generated_Source\PSoC5/CapSense_IntClock.c **** * Summary:
 378:Generated_Source\PSoC5/CapSense_IntClock.c **** *  Gets the clock mode register value.
 379:Generated_Source\PSoC5/CapSense_IntClock.c **** *
 380:Generated_Source\PSoC5/CapSense_IntClock.c **** * Parameters:
 381:Generated_Source\PSoC5/CapSense_IntClock.c **** *  None
ARM GAS  C:\Users\JEFFSN~1\AppData\Local\Temp\ccE5sBAf.s 			page 55


 382:Generated_Source\PSoC5/CapSense_IntClock.c **** *
 383:Generated_Source\PSoC5/CapSense_IntClock.c **** * Returns:
 384:Generated_Source\PSoC5/CapSense_IntClock.c **** *  Bit mask representing the enabled mode bits. See the SetModeRegister and
 385:Generated_Source\PSoC5/CapSense_IntClock.c **** *  ClearModeRegister descriptions for details about the mode bits.
 386:Generated_Source\PSoC5/CapSense_IntClock.c **** *
 387:Generated_Source\PSoC5/CapSense_IntClock.c **** *******************************************************************************/
 388:Generated_Source\PSoC5/CapSense_IntClock.c **** uint8 CapSense_IntClock_GetModeRegister(void) 
 389:Generated_Source\PSoC5/CapSense_IntClock.c **** {
 877              		.loc 1 389 0
 878              		.cfi_startproc
 879              		@ args = 0, pretend = 0, frame = 0
 880              		@ frame_needed = 0, uses_anonymous_args = 0
 881              		@ link register save eliminated.
 390:Generated_Source\PSoC5/CapSense_IntClock.c ****     return CapSense_IntClock_MOD_SRC & (uint8)(CapSense_IntClock_MODE_MASK);
 882              		.loc 1 390 0
 883 0000 024B     		ldr	r3, .L27
 884 0002 1878     		ldrb	r0, [r3]	@ zero_extendqisi2
 391:Generated_Source\PSoC5/CapSense_IntClock.c **** }
 885              		.loc 1 391 0
 886 0004 00F0F800 		and	r0, r0, #248
 887 0008 7047     		bx	lr
 888              	.L28:
 889 000a 00BF     		.align	2
 890              	.L27:
 891 000c 8E400040 		.word	1073758350
 892              		.cfi_endproc
 893              	.LFE8:
 894              		.size	CapSense_IntClock_GetModeRegister, .-CapSense_IntClock_GetModeRegister
 895              		.section	.text.CapSense_IntClock_GetSourceRegister,"ax",%progbits
 896              		.align	2
 897              		.global	CapSense_IntClock_GetSourceRegister
 898              		.thumb
 899              		.thumb_func
 900              		.type	CapSense_IntClock_GetSourceRegister, %function
 901              	CapSense_IntClock_GetSourceRegister:
 902              	.LFB10:
 392:Generated_Source\PSoC5/CapSense_IntClock.c **** 
 393:Generated_Source\PSoC5/CapSense_IntClock.c **** 
 394:Generated_Source\PSoC5/CapSense_IntClock.c **** /*******************************************************************************
 395:Generated_Source\PSoC5/CapSense_IntClock.c **** * Function Name: CapSense_IntClock_SetSourceRegister
 396:Generated_Source\PSoC5/CapSense_IntClock.c **** ********************************************************************************
 397:Generated_Source\PSoC5/CapSense_IntClock.c **** *
 398:Generated_Source\PSoC5/CapSense_IntClock.c **** * Summary:
 399:Generated_Source\PSoC5/CapSense_IntClock.c **** *  Sets the input source of the clock. The clock must be disabled before
 400:Generated_Source\PSoC5/CapSense_IntClock.c **** *  changing the source. The old and new clock sources must be running.
 401:Generated_Source\PSoC5/CapSense_IntClock.c **** *
 402:Generated_Source\PSoC5/CapSense_IntClock.c **** * Parameters:
 403:Generated_Source\PSoC5/CapSense_IntClock.c **** *  clkSource:  For PSoC 3 and PSoC 5 devices, clkSource should be one of the
 404:Generated_Source\PSoC5/CapSense_IntClock.c **** *   following input sources:
 405:Generated_Source\PSoC5/CapSense_IntClock.c **** *   - CYCLK_SRC_SEL_SYNC_DIG
 406:Generated_Source\PSoC5/CapSense_IntClock.c **** *   - CYCLK_SRC_SEL_IMO
 407:Generated_Source\PSoC5/CapSense_IntClock.c **** *   - CYCLK_SRC_SEL_XTALM
 408:Generated_Source\PSoC5/CapSense_IntClock.c **** *   - CYCLK_SRC_SEL_ILO
 409:Generated_Source\PSoC5/CapSense_IntClock.c **** *   - CYCLK_SRC_SEL_PLL
 410:Generated_Source\PSoC5/CapSense_IntClock.c **** *   - CYCLK_SRC_SEL_XTALK
 411:Generated_Source\PSoC5/CapSense_IntClock.c **** *   - CYCLK_SRC_SEL_DSI_G
 412:Generated_Source\PSoC5/CapSense_IntClock.c **** *   - CYCLK_SRC_SEL_DSI_D/CYCLK_SRC_SEL_DSI_A
ARM GAS  C:\Users\JEFFSN~1\AppData\Local\Temp\ccE5sBAf.s 			page 56


 413:Generated_Source\PSoC5/CapSense_IntClock.c **** *   See the Technical Reference Manual for details on clock sources.
 414:Generated_Source\PSoC5/CapSense_IntClock.c **** *
 415:Generated_Source\PSoC5/CapSense_IntClock.c **** * Returns:
 416:Generated_Source\PSoC5/CapSense_IntClock.c **** *  None
 417:Generated_Source\PSoC5/CapSense_IntClock.c **** *
 418:Generated_Source\PSoC5/CapSense_IntClock.c **** *******************************************************************************/
 419:Generated_Source\PSoC5/CapSense_IntClock.c **** void CapSense_IntClock_SetSourceRegister(uint8 clkSource) 
 420:Generated_Source\PSoC5/CapSense_IntClock.c **** {
 421:Generated_Source\PSoC5/CapSense_IntClock.c ****     uint16 currDiv = CapSense_IntClock_GetDividerRegister();
 422:Generated_Source\PSoC5/CapSense_IntClock.c ****     uint8 oldSrc = CapSense_IntClock_GetSourceRegister();
 423:Generated_Source\PSoC5/CapSense_IntClock.c **** 
 424:Generated_Source\PSoC5/CapSense_IntClock.c ****     if (((oldSrc != ((uint8)CYCLK_SRC_SEL_CLK_SYNC_D)) && 
 425:Generated_Source\PSoC5/CapSense_IntClock.c ****         (clkSource == ((uint8)CYCLK_SRC_SEL_CLK_SYNC_D))) && (currDiv == 0u))
 426:Generated_Source\PSoC5/CapSense_IntClock.c ****     {
 427:Generated_Source\PSoC5/CapSense_IntClock.c ****         /* Switching to Master and divider is 1, set SSS, which will output master, */
 428:Generated_Source\PSoC5/CapSense_IntClock.c ****         /* then set the source so we are consistent.                                */
 429:Generated_Source\PSoC5/CapSense_IntClock.c ****         CapSense_IntClock_MOD_SRC |= CYCLK_SSS;
 430:Generated_Source\PSoC5/CapSense_IntClock.c ****         CapSense_IntClock_MOD_SRC =
 431:Generated_Source\PSoC5/CapSense_IntClock.c ****             (CapSense_IntClock_MOD_SRC & (uint8)(~CapSense_IntClock_SRC_SEL_MSK)) | clkSource;
 432:Generated_Source\PSoC5/CapSense_IntClock.c ****     }
 433:Generated_Source\PSoC5/CapSense_IntClock.c ****     else if (((oldSrc == ((uint8)CYCLK_SRC_SEL_CLK_SYNC_D)) && 
 434:Generated_Source\PSoC5/CapSense_IntClock.c ****             (clkSource != ((uint8)CYCLK_SRC_SEL_CLK_SYNC_D))) && (currDiv == 0u))
 435:Generated_Source\PSoC5/CapSense_IntClock.c ****     {
 436:Generated_Source\PSoC5/CapSense_IntClock.c ****         /* Switching from Master to not and divider is 1, set source, so we don't   */
 437:Generated_Source\PSoC5/CapSense_IntClock.c ****         /* lock when we clear SSS.                                                  */
 438:Generated_Source\PSoC5/CapSense_IntClock.c ****         CapSense_IntClock_MOD_SRC =
 439:Generated_Source\PSoC5/CapSense_IntClock.c ****             (CapSense_IntClock_MOD_SRC & (uint8)(~CapSense_IntClock_SRC_SEL_MSK)) | clkSource;
 440:Generated_Source\PSoC5/CapSense_IntClock.c ****         CapSense_IntClock_MOD_SRC &= (uint8)(~CYCLK_SSS);
 441:Generated_Source\PSoC5/CapSense_IntClock.c ****     }
 442:Generated_Source\PSoC5/CapSense_IntClock.c ****     else
 443:Generated_Source\PSoC5/CapSense_IntClock.c ****     {
 444:Generated_Source\PSoC5/CapSense_IntClock.c ****         CapSense_IntClock_MOD_SRC =
 445:Generated_Source\PSoC5/CapSense_IntClock.c ****             (CapSense_IntClock_MOD_SRC & (uint8)(~CapSense_IntClock_SRC_SEL_MSK)) | clkSource;
 446:Generated_Source\PSoC5/CapSense_IntClock.c ****     }
 447:Generated_Source\PSoC5/CapSense_IntClock.c **** }
 448:Generated_Source\PSoC5/CapSense_IntClock.c **** 
 449:Generated_Source\PSoC5/CapSense_IntClock.c **** 
 450:Generated_Source\PSoC5/CapSense_IntClock.c **** /*******************************************************************************
 451:Generated_Source\PSoC5/CapSense_IntClock.c **** * Function Name: CapSense_IntClock_GetSourceRegister
 452:Generated_Source\PSoC5/CapSense_IntClock.c **** ********************************************************************************
 453:Generated_Source\PSoC5/CapSense_IntClock.c **** *
 454:Generated_Source\PSoC5/CapSense_IntClock.c **** * Summary:
 455:Generated_Source\PSoC5/CapSense_IntClock.c **** *  Gets the input source of the clock.
 456:Generated_Source\PSoC5/CapSense_IntClock.c **** *
 457:Generated_Source\PSoC5/CapSense_IntClock.c **** * Parameters:
 458:Generated_Source\PSoC5/CapSense_IntClock.c **** *  None
 459:Generated_Source\PSoC5/CapSense_IntClock.c **** *
 460:Generated_Source\PSoC5/CapSense_IntClock.c **** * Returns:
 461:Generated_Source\PSoC5/CapSense_IntClock.c **** *  The input source of the clock. See SetSourceRegister for details.
 462:Generated_Source\PSoC5/CapSense_IntClock.c **** *
 463:Generated_Source\PSoC5/CapSense_IntClock.c **** *******************************************************************************/
 464:Generated_Source\PSoC5/CapSense_IntClock.c **** uint8 CapSense_IntClock_GetSourceRegister(void) 
 465:Generated_Source\PSoC5/CapSense_IntClock.c **** {
 903              		.loc 1 465 0
 904              		.cfi_startproc
 905              		@ args = 0, pretend = 0, frame = 0
 906              		@ frame_needed = 0, uses_anonymous_args = 0
ARM GAS  C:\Users\JEFFSN~1\AppData\Local\Temp\ccE5sBAf.s 			page 57


 907              		@ link register save eliminated.
 466:Generated_Source\PSoC5/CapSense_IntClock.c ****     return CapSense_IntClock_MOD_SRC & CapSense_IntClock_SRC_SEL_MSK;
 908              		.loc 1 466 0
 909 0000 024B     		ldr	r3, .L30
 910 0002 1878     		ldrb	r0, [r3]	@ zero_extendqisi2
 467:Generated_Source\PSoC5/CapSense_IntClock.c **** }
 911              		.loc 1 467 0
 912 0004 00F00700 		and	r0, r0, #7
 913 0008 7047     		bx	lr
 914              	.L31:
 915 000a 00BF     		.align	2
 916              	.L30:
 917 000c 8E400040 		.word	1073758350
 918              		.cfi_endproc
 919              	.LFE10:
 920              		.size	CapSense_IntClock_GetSourceRegister, .-CapSense_IntClock_GetSourceRegister
 921              		.section	.text.CapSense_IntClock_SetDividerRegister,"ax",%progbits
 922              		.align	2
 923              		.global	CapSense_IntClock_SetDividerRegister
 924              		.thumb
 925              		.thumb_func
 926              		.type	CapSense_IntClock_SetDividerRegister, %function
 927              	CapSense_IntClock_SetDividerRegister:
 928              	.LFB4:
 195:Generated_Source\PSoC5/CapSense_IntClock.c ****     uint8 enabled;
 929              		.loc 1 195 0
 930              		.cfi_startproc
 931              		@ args = 0, pretend = 0, frame = 0
 932              		@ frame_needed = 0, uses_anonymous_args = 0
 933              	.LVL7:
 934 0000 70B5     		push	{r4, r5, r6, lr}
 935              		.cfi_def_cfa_offset 16
 936              		.cfi_offset 4, -16
 937              		.cfi_offset 5, -12
 938              		.cfi_offset 6, -8
 939              		.cfi_offset 14, -4
 940 0002 0446     		mov	r4, r0
 941 0004 0D46     		mov	r5, r1
 198:Generated_Source\PSoC5/CapSense_IntClock.c ****     uint16 oldDivider = CapSense_IntClock_GetDividerRegister();
 942              		.loc 1 198 0
 943 0006 FFF7FEFF 		bl	CapSense_IntClock_GetSourceRegister
 944              	.LVL8:
 945 000a 0646     		mov	r6, r0
 946              	.LVL9:
 199:Generated_Source\PSoC5/CapSense_IntClock.c **** 
 947              		.loc 1 199 0
 948 000c FFF7FEFF 		bl	CapSense_IntClock_GetDividerRegister
 949              	.LVL10:
 201:Generated_Source\PSoC5/CapSense_IntClock.c ****     {
 950              		.loc 1 201 0
 951 0010 A042     		cmp	r0, r4
 952 0012 57D0     		beq	.L32
 203:Generated_Source\PSoC5/CapSense_IntClock.c **** 
 953              		.loc 1 203 0
 954 0014 2C4B     		ldr	r3, .L45
 955 0016 1B78     		ldrb	r3, [r3]	@ zero_extendqisi2
 956 0018 03F00803 		and	r3, r3, #8
ARM GAS  C:\Users\JEFFSN~1\AppData\Local\Temp\ccE5sBAf.s 			page 58


 957 001c DAB2     		uxtb	r2, r3
 958              	.LVL11:
 205:Generated_Source\PSoC5/CapSense_IntClock.c ****         {
 959              		.loc 1 205 0
 960 001e 96B9     		cbnz	r6, .L34
 205:Generated_Source\PSoC5/CapSense_IntClock.c ****         {
 961              		.loc 1 205 0 is_stmt 0 discriminator 1
 962 0020 00B1     		cbz	r0, .L35
 205:Generated_Source\PSoC5/CapSense_IntClock.c ****         {
 963              		.loc 1 205 0 discriminator 2
 964 0022 84B9     		cbnz	r4, .L34
 965              	.L35:
 208:Generated_Source\PSoC5/CapSense_IntClock.c ****             {
 966              		.loc 1 208 0 is_stmt 1
 967 0024 38B9     		cbnz	r0, .L36
 213:Generated_Source\PSoC5/CapSense_IntClock.c ****                 CapSense_IntClock_MOD_SRC &= (uint8)(~CYCLK_SSS);
 968              		.loc 1 213 0
 969 0026 294B     		ldr	r3, .L45+4
 970 0028 1C80     		strh	r4, [r3]	@ movhi
 214:Generated_Source\PSoC5/CapSense_IntClock.c ****             }
 971              		.loc 1 214 0
 972 002a 294A     		ldr	r2, .L45+8
 973              	.LVL12:
 974 002c 1378     		ldrb	r3, [r2]	@ zero_extendqisi2
 975 002e 03F0BF03 		and	r3, r3, #191
 976 0032 1370     		strb	r3, [r2]
 977 0034 70BD     		pop	{r4, r5, r6, pc}
 978              	.LVL13:
 979              	.L36:
 220:Generated_Source\PSoC5/CapSense_IntClock.c ****                 CY_SET_REG16(CapSense_IntClock_DIV_PTR, clkDivider);
 980              		.loc 1 220 0
 981 0036 264A     		ldr	r2, .L45+8
 982              	.LVL14:
 983 0038 1378     		ldrb	r3, [r2]	@ zero_extendqisi2
 984              	.LVL15:
 985 003a 43F04003 		orr	r3, r3, #64
 986 003e 1370     		strb	r3, [r2]
 221:Generated_Source\PSoC5/CapSense_IntClock.c ****             }
 987              		.loc 1 221 0
 988 0040 224B     		ldr	r3, .L45+4
 989 0042 1C80     		strh	r4, [r3]	@ movhi
 990 0044 70BD     		pop	{r4, r5, r6, pc}
 991              	.LVL16:
 992              	.L34:
 227:Generated_Source\PSoC5/CapSense_IntClock.c ****             {
 993              		.loc 1 227 0
 994 0046 22B3     		cbz	r2, .L37
 229:Generated_Source\PSoC5/CapSense_IntClock.c **** 
 995              		.loc 1 229 0
 996 0048 0023     		movs	r3, #0
 997 004a 2249     		ldr	r1, .L45+12
 998 004c 0B70     		strb	r3, [r1]
 236:Generated_Source\PSoC5/CapSense_IntClock.c ****                 CLK_DIST_AMASK = 0x00u;
 999              		.loc 1 236 0
 1000 004e 0826     		movs	r6, #8
 1001              	.LVL17:
 1002 0050 0F31     		adds	r1, r1, #15
ARM GAS  C:\Users\JEFFSN~1\AppData\Local\Temp\ccE5sBAf.s 			page 59


 1003 0052 0E70     		strb	r6, [r1]
 237:Generated_Source\PSoC5/CapSense_IntClock.c **** #endif /* CapSense_IntClock__CFG3 */
 1004              		.loc 1 237 0
 1005 0054 0431     		adds	r1, r1, #4
 1006 0056 0B70     		strb	r3, [r1]
 240:Generated_Source\PSoC5/CapSense_IntClock.c **** 
 1007              		.loc 1 240 0
 1008 0058 0C39     		subs	r1, r1, #12
 1009 005a 0B78     		ldrb	r3, [r1]	@ zero_extendqisi2
 1010 005c 03F07F03 		and	r3, r3, #127
 1011 0060 0B70     		strb	r3, [r1]
 243:Generated_Source\PSoC5/CapSense_IntClock.c ****                 {
 1012              		.loc 1 243 0
 1013 0062 1B4B     		ldr	r3, .L45+8
 1014 0064 1B78     		ldrb	r3, [r3]	@ zero_extendqisi2
 1015 0066 13F0080F 		tst	r3, #8
 1016 006a 00D0     		beq	.L38
 243:Generated_Source\PSoC5/CapSense_IntClock.c ****                 {
 1017              		.loc 1 243 0 is_stmt 0 discriminator 1
 1018 006c 8CB9     		cbnz	r4, .L37
 1019              	.L38:
 246:Generated_Source\PSoC5/CapSense_IntClock.c ****                     CLK_DIST_LD = CYCLK_LD_DISABLE|CYCLK_LD_SYNC_EN|CYCLK_LD_LOAD;
 1020              		.loc 1 246 0 is_stmt 1
 1021 006e 1A4B     		ldr	r3, .L45+16
 1022 0070 1880     		strh	r0, [r3]	@ movhi
 247:Generated_Source\PSoC5/CapSense_IntClock.c **** 
 1023              		.loc 1 247 0
 1024 0072 0721     		movs	r1, #7
 1025 0074 013B     		subs	r3, r3, #1
 1026 0076 1970     		strb	r1, [r3]
 1027              	.L39:
 250:Generated_Source\PSoC5/CapSense_IntClock.c **** #endif /* HAS_CLKDIST_LD_DISABLE */
 1028              		.loc 1 250 0 discriminator 1
 1029 0078 164B     		ldr	r3, .L45+12
 1030 007a 1B78     		ldrb	r3, [r3]	@ zero_extendqisi2
 1031 007c 13F0010F 		tst	r3, #1
 1032 0080 FAD1     		bne	.L39
 253:Generated_Source\PSoC5/CapSense_IntClock.c **** 
 1033              		.loc 1 253 0
 1034 0082 1149     		ldr	r1, .L45
 1035 0084 0B78     		ldrb	r3, [r1]	@ zero_extendqisi2
 1036 0086 03F0F703 		and	r3, r3, #247
 1037 008a 0B70     		strb	r3, [r1]
 257:Generated_Source\PSoC5/CapSense_IntClock.c **** #endif /* HAS_CLKDIST_LD_DISABLE */
 1038              		.loc 1 257 0
 1039 008c 0021     		movs	r1, #0
 1040 008e 114B     		ldr	r3, .L45+12
 1041 0090 1970     		strb	r1, [r3]
 1042              	.L37:
 263:Generated_Source\PSoC5/CapSense_IntClock.c ****             {
 1043              		.loc 1 263 0
 1044 0092 0D4B     		ldr	r3, .L45
 1045 0094 1B78     		ldrb	r3, [r3]	@ zero_extendqisi2
 1046 0096 13F0080F 		tst	r3, #8
 1047 009a 0DD0     		beq	.L40
 266:Generated_Source\PSoC5/CapSense_IntClock.c **** 
 1048              		.loc 1 266 0
ARM GAS  C:\Users\JEFFSN~1\AppData\Local\Temp\ccE5sBAf.s 			page 60


 1049 009c 0E4B     		ldr	r3, .L45+16
 1050 009e 1C80     		strh	r4, [r3]	@ movhi
 268:Generated_Source\PSoC5/CapSense_IntClock.c ****                 while ((CLK_DIST_LD & CYCLK_LD_LOAD) != 0u) { }
 1051              		.loc 1 268 0
 1052 00a0 0DB1     		cbz	r5, .L43
 1053 00a2 0322     		movs	r2, #3
 1054              	.LVL18:
 1055 00a4 00E0     		b	.L41
 1056              	.LVL19:
 1057              	.L43:
 1058 00a6 0122     		movs	r2, #1
 1059              	.LVL20:
 1060              	.L41:
 268:Generated_Source\PSoC5/CapSense_IntClock.c ****                 while ((CLK_DIST_LD & CYCLK_LD_LOAD) != 0u) { }
 1061              		.loc 1 268 0 is_stmt 0 discriminator 4
 1062 00a8 0A4B     		ldr	r3, .L45+12
 1063 00aa 1A70     		strb	r2, [r3]
 1064              	.L42:
 269:Generated_Source\PSoC5/CapSense_IntClock.c ****             }
 1065              		.loc 1 269 0 is_stmt 1 discriminator 1
 1066 00ac 094B     		ldr	r3, .L45+12
 1067 00ae 1B78     		ldrb	r3, [r3]	@ zero_extendqisi2
 1068 00b0 13F0010F 		tst	r3, #1
 1069 00b4 FAD1     		bne	.L42
 1070 00b6 70BD     		pop	{r4, r5, r6, pc}
 1071              	.LVL21:
 1072              	.L40:
 274:Generated_Source\PSoC5/CapSense_IntClock.c **** 				CapSense_IntClock_CLKEN |= enabled;
 1073              		.loc 1 274 0
 1074 00b8 044B     		ldr	r3, .L45+4
 1075 00ba 1C80     		strh	r4, [r3]	@ movhi
 275:Generated_Source\PSoC5/CapSense_IntClock.c ****             }
 1076              		.loc 1 275 0
 1077 00bc 0249     		ldr	r1, .L45
 1078 00be 0B78     		ldrb	r3, [r1]	@ zero_extendqisi2
 1079 00c0 1343     		orrs	r3, r3, r2
 1080 00c2 0B70     		strb	r3, [r1]
 1081              	.LVL22:
 1082              	.L32:
 1083 00c4 70BD     		pop	{r4, r5, r6, pc}
 1084              	.L46:
 1085 00c6 00BF     		.align	2
 1086              	.L45:
 1087 00c8 A2430040 		.word	1073759138
 1088 00cc 8C400040 		.word	1073758348
 1089 00d0 8E400040 		.word	1073758350
 1090 00d4 01400040 		.word	1073758209
 1091 00d8 02400040 		.word	1073758210
 1092              		.cfi_endproc
 1093              	.LFE4:
 1094              		.size	CapSense_IntClock_SetDividerRegister, .-CapSense_IntClock_SetDividerRegister
 1095              		.section	.text.CapSense_IntClock_SetSourceRegister,"ax",%progbits
 1096              		.align	2
 1097              		.global	CapSense_IntClock_SetSourceRegister
 1098              		.thumb
 1099              		.thumb_func
 1100              		.type	CapSense_IntClock_SetSourceRegister, %function
ARM GAS  C:\Users\JEFFSN~1\AppData\Local\Temp\ccE5sBAf.s 			page 61


 1101              	CapSense_IntClock_SetSourceRegister:
 1102              	.LFB9:
 420:Generated_Source\PSoC5/CapSense_IntClock.c ****     uint16 currDiv = CapSense_IntClock_GetDividerRegister();
 1103              		.loc 1 420 0
 1104              		.cfi_startproc
 1105              		@ args = 0, pretend = 0, frame = 0
 1106              		@ frame_needed = 0, uses_anonymous_args = 0
 1107              	.LVL23:
 1108 0000 38B5     		push	{r3, r4, r5, lr}
 1109              		.cfi_def_cfa_offset 16
 1110              		.cfi_offset 3, -16
 1111              		.cfi_offset 4, -12
 1112              		.cfi_offset 5, -8
 1113              		.cfi_offset 14, -4
 1114 0002 0446     		mov	r4, r0
 421:Generated_Source\PSoC5/CapSense_IntClock.c ****     uint8 oldSrc = CapSense_IntClock_GetSourceRegister();
 1115              		.loc 1 421 0
 1116 0004 FFF7FEFF 		bl	CapSense_IntClock_GetDividerRegister
 1117              	.LVL24:
 1118 0008 0546     		mov	r5, r0
 1119              	.LVL25:
 422:Generated_Source\PSoC5/CapSense_IntClock.c **** 
 1120              		.loc 1 422 0
 1121 000a FFF7FEFF 		bl	CapSense_IntClock_GetSourceRegister
 1122              	.LVL26:
 424:Generated_Source\PSoC5/CapSense_IntClock.c ****         (clkSource == ((uint8)CYCLK_SRC_SEL_CLK_SYNC_D))) && (currDiv == 0u))
 1123              		.loc 1 424 0
 1124 000e 0346     		mov	r3, r0
 1125 0010 60B1     		cbz	r0, .L48
 424:Generated_Source\PSoC5/CapSense_IntClock.c ****         (clkSource == ((uint8)CYCLK_SRC_SEL_CLK_SYNC_D))) && (currDiv == 0u))
 1126              		.loc 1 424 0 is_stmt 0 discriminator 1
 1127 0012 5CB9     		cbnz	r4, .L48
 425:Generated_Source\PSoC5/CapSense_IntClock.c ****     {
 1128              		.loc 1 425 0 is_stmt 1
 1129 0014 55B9     		cbnz	r5, .L48
 429:Generated_Source\PSoC5/CapSense_IntClock.c ****         CapSense_IntClock_MOD_SRC =
 1130              		.loc 1 429 0
 1131 0016 104A     		ldr	r2, .L52
 1132 0018 1378     		ldrb	r3, [r2]	@ zero_extendqisi2
 1133 001a 43F04003 		orr	r3, r3, #64
 1134 001e 1370     		strb	r3, [r2]
 431:Generated_Source\PSoC5/CapSense_IntClock.c ****     }
 1135              		.loc 1 431 0
 1136 0020 1378     		ldrb	r3, [r2]	@ zero_extendqisi2
 430:Generated_Source\PSoC5/CapSense_IntClock.c ****             (CapSense_IntClock_MOD_SRC & (uint8)(~CapSense_IntClock_SRC_SEL_MSK)) | clkSource;
 1137              		.loc 1 430 0
 1138 0022 03F0F803 		and	r3, r3, #248
 1139 0026 1C43     		orrs	r4, r4, r3
 1140 0028 1470     		strb	r4, [r2]
 1141 002a 38BD     		pop	{r3, r4, r5, pc}
 1142              	.LVL27:
 1143              	.L48:
 433:Generated_Source\PSoC5/CapSense_IntClock.c ****             (clkSource != ((uint8)CYCLK_SRC_SEL_CLK_SYNC_D))) && (currDiv == 0u))
 1144              		.loc 1 433 0
 1145 002c 63B9     		cbnz	r3, .L50
 433:Generated_Source\PSoC5/CapSense_IntClock.c ****             (clkSource != ((uint8)CYCLK_SRC_SEL_CLK_SYNC_D))) && (currDiv == 0u))
 1146              		.loc 1 433 0 is_stmt 0 discriminator 1
ARM GAS  C:\Users\JEFFSN~1\AppData\Local\Temp\ccE5sBAf.s 			page 62


 1147 002e 5CB1     		cbz	r4, .L50
 434:Generated_Source\PSoC5/CapSense_IntClock.c ****     {
 1148              		.loc 1 434 0 is_stmt 1
 1149 0030 55B9     		cbnz	r5, .L50
 439:Generated_Source\PSoC5/CapSense_IntClock.c ****         CapSense_IntClock_MOD_SRC &= (uint8)(~CYCLK_SSS);
 1150              		.loc 1 439 0
 1151 0032 094A     		ldr	r2, .L52
 1152 0034 1378     		ldrb	r3, [r2]	@ zero_extendqisi2
 438:Generated_Source\PSoC5/CapSense_IntClock.c ****             (CapSense_IntClock_MOD_SRC & (uint8)(~CapSense_IntClock_SRC_SEL_MSK)) | clkSource;
 1153              		.loc 1 438 0
 1154 0036 03F0F803 		and	r3, r3, #248
 1155 003a 1C43     		orrs	r4, r4, r3
 1156 003c 1470     		strb	r4, [r2]
 440:Generated_Source\PSoC5/CapSense_IntClock.c ****     }
 1157              		.loc 1 440 0
 1158 003e 1378     		ldrb	r3, [r2]	@ zero_extendqisi2
 1159 0040 03F0BF03 		and	r3, r3, #191
 1160 0044 1370     		strb	r3, [r2]
 1161 0046 38BD     		pop	{r3, r4, r5, pc}
 1162              	.LVL28:
 1163              	.L50:
 445:Generated_Source\PSoC5/CapSense_IntClock.c ****     }
 1164              		.loc 1 445 0
 1165 0048 034A     		ldr	r2, .L52
 1166 004a 1378     		ldrb	r3, [r2]	@ zero_extendqisi2
 444:Generated_Source\PSoC5/CapSense_IntClock.c ****             (CapSense_IntClock_MOD_SRC & (uint8)(~CapSense_IntClock_SRC_SEL_MSK)) | clkSource;
 1167              		.loc 1 444 0
 1168 004c 03F0F803 		and	r3, r3, #248
 1169 0050 1C43     		orrs	r4, r4, r3
 1170 0052 1470     		strb	r4, [r2]
 1171 0054 38BD     		pop	{r3, r4, r5, pc}
 1172              	.LVL29:
 1173              	.L53:
 1174 0056 00BF     		.align	2
 1175              	.L52:
 1176 0058 8E400040 		.word	1073758350
 1177              		.cfi_endproc
 1178              	.LFE9:
 1179              		.size	CapSense_IntClock_SetSourceRegister, .-CapSense_IntClock_SetSourceRegister
 1180              		.text
 1181              	.Letext0:
 1182              		.file 2 "Generated_Source\\PSoC5/cytypes.h"