ARM GAS  C:\Users\JEFFSN~1\AppData\Local\Temp\ccZ02wCn.s 			page 1


   1              		.syntax unified
   2              		.cpu cortex-m3
   3              		.fpu softvfp
   4              		.eabi_attribute 20, 1
   5              		.eabi_attribute 21, 1
   6              		.eabi_attribute 23, 3
   7              		.eabi_attribute 24, 1
   8              		.eabi_attribute 25, 1
   9              		.eabi_attribute 26, 1
  10              		.eabi_attribute 30, 6
  11              		.eabi_attribute 34, 1
  12              		.eabi_attribute 18, 4
  13              		.thumb
  14              		.syntax unified
  15              		.file	"CapSense_INT.c"
  16              		.text
  17              	.Ltext0:
  18              		.cfi_sections	.debug_frame
  19              		.section	.text.CapSense_IsrCH0_ISR,"ax",%progbits
  20              		.align	2
  21              		.global	CapSense_IsrCH0_ISR
  22              		.thumb
  23              		.thumb_func
  24              		.type	CapSense_IsrCH0_ISR, %function
  25              	CapSense_IsrCH0_ISR:
  26              	.LFB0:
  27              		.file 1 "Generated_Source\\PSoC5\\CapSense_INT.c"
   1:Generated_Source\PSoC5/CapSense_INT.c **** /*******************************************************************************
   2:Generated_Source\PSoC5/CapSense_INT.c **** * File Name: CapSense_INT.c
   3:Generated_Source\PSoC5/CapSense_INT.c **** * Version 3.50
   4:Generated_Source\PSoC5/CapSense_INT.c **** *
   5:Generated_Source\PSoC5/CapSense_INT.c **** * Description:
   6:Generated_Source\PSoC5/CapSense_INT.c **** *  This file provides the source code of Interrupt Service Routine (ISR)
   7:Generated_Source\PSoC5/CapSense_INT.c **** *  for CapSense CSD component.
   8:Generated_Source\PSoC5/CapSense_INT.c **** *
   9:Generated_Source\PSoC5/CapSense_INT.c **** * Note:
  10:Generated_Source\PSoC5/CapSense_INT.c **** *
  11:Generated_Source\PSoC5/CapSense_INT.c **** ********************************************************************************
  12:Generated_Source\PSoC5/CapSense_INT.c **** * Copyright 2008-2013, Cypress Semiconductor Corporation.  All rights reserved.
  13:Generated_Source\PSoC5/CapSense_INT.c **** * You may use this file only in accordance with the license, terms, conditions,
  14:Generated_Source\PSoC5/CapSense_INT.c **** * disclaimers, and limitations in the end user license agreement accompanying
  15:Generated_Source\PSoC5/CapSense_INT.c **** * the software package with which this file was provided.
  16:Generated_Source\PSoC5/CapSense_INT.c **** *******************************************************************************/
  17:Generated_Source\PSoC5/CapSense_INT.c **** 
  18:Generated_Source\PSoC5/CapSense_INT.c **** #include "CapSense.h"
  19:Generated_Source\PSoC5/CapSense_INT.c **** 
  20:Generated_Source\PSoC5/CapSense_INT.c **** 
  21:Generated_Source\PSoC5/CapSense_INT.c **** 
  22:Generated_Source\PSoC5/CapSense_INT.c **** /*******************************************************************************
  23:Generated_Source\PSoC5/CapSense_INT.c **** *  Place your includes, defines and code here 
  24:Generated_Source\PSoC5/CapSense_INT.c **** ********************************************************************************/
  25:Generated_Source\PSoC5/CapSense_INT.c **** /* `#START CapSense_IsrCH_ISR_intc` */
  26:Generated_Source\PSoC5/CapSense_INT.c **** 
  27:Generated_Source\PSoC5/CapSense_INT.c **** /* `#END` */
  28:Generated_Source\PSoC5/CapSense_INT.c **** 
  29:Generated_Source\PSoC5/CapSense_INT.c **** 
  30:Generated_Source\PSoC5/CapSense_INT.c **** #if (CapSense_DESIGN_TYPE == CapSense_ONE_CHANNEL_DESIGN)
ARM GAS  C:\Users\JEFFSN~1\AppData\Local\Temp\ccZ02wCn.s 			page 2


  31:Generated_Source\PSoC5/CapSense_INT.c ****     /*******************************************************************************
  32:Generated_Source\PSoC5/CapSense_INT.c ****     * Function Name: CapSense_IsrCH0_ISR
  33:Generated_Source\PSoC5/CapSense_INT.c ****     ********************************************************************************
  34:Generated_Source\PSoC5/CapSense_INT.c ****     *
  35:Generated_Source\PSoC5/CapSense_INT.c ****     * Summary:
  36:Generated_Source\PSoC5/CapSense_INT.c ****     *  This ISR is executed when measure window is closed. The measure window 
  37:Generated_Source\PSoC5/CapSense_INT.c ****     *  depends on scan resolution parameter of sensor. 
  38:Generated_Source\PSoC5/CapSense_INT.c ****     *  The ISR has two modes: 
  39:Generated_Source\PSoC5/CapSense_INT.c ****     *   1. Scans single sensor and stores measure result.
  40:Generated_Source\PSoC5/CapSense_INT.c ****     *   2. Stores result of current measure and starts next scan till all 
  41:Generated_Source\PSoC5/CapSense_INT.c ****     *      enabled sensors will be scanned.
  42:Generated_Source\PSoC5/CapSense_INT.c ****     *  This interrupt handler only used in one channel designs.
  43:Generated_Source\PSoC5/CapSense_INT.c ****     *
  44:Generated_Source\PSoC5/CapSense_INT.c ****     * Parameters:
  45:Generated_Source\PSoC5/CapSense_INT.c ****     *  None
  46:Generated_Source\PSoC5/CapSense_INT.c ****     *
  47:Generated_Source\PSoC5/CapSense_INT.c ****     * Return:
  48:Generated_Source\PSoC5/CapSense_INT.c ****     *  None
  49:Generated_Source\PSoC5/CapSense_INT.c ****     *
  50:Generated_Source\PSoC5/CapSense_INT.c ****     * Global Variables:
  51:Generated_Source\PSoC5/CapSense_INT.c ****     *  CapSense_csv - used to provide status and mode of scanning process.
  52:Generated_Source\PSoC5/CapSense_INT.c ****     *   Mode - single scan or scan of all enabled sensors.
  53:Generated_Source\PSoC5/CapSense_INT.c ****     *   Status - scan in progress or ready for new scan.
  54:Generated_Source\PSoC5/CapSense_INT.c ****     *  CapSense_sensorIndex - used to store sensor scanning sensor number.
  55:Generated_Source\PSoC5/CapSense_INT.c ****     *
  56:Generated_Source\PSoC5/CapSense_INT.c ****     * Reentrant:
  57:Generated_Source\PSoC5/CapSense_INT.c ****     *  No
  58:Generated_Source\PSoC5/CapSense_INT.c ****     *
  59:Generated_Source\PSoC5/CapSense_INT.c ****     *******************************************************************************/
  60:Generated_Source\PSoC5/CapSense_INT.c ****     CY_ISR(CapSense_IsrCH0_ISR)
  61:Generated_Source\PSoC5/CapSense_INT.c ****     {
  62:Generated_Source\PSoC5/CapSense_INT.c ****         #ifdef CapSense_ONE_CHANNEL_CH0_ISR_ENTRY_CALLBACK
  63:Generated_Source\PSoC5/CapSense_INT.c ****             CapSense_IsrCH0_ISR_EntryCallback();
  64:Generated_Source\PSoC5/CapSense_INT.c ****         #endif /* CapSense_ONE_CHANNEL_CH0_ISR_ENTRY_CALLBACK */
  65:Generated_Source\PSoC5/CapSense_INT.c **** 
  66:Generated_Source\PSoC5/CapSense_INT.c ****         /*  Place your Interrupt code here. */
  67:Generated_Source\PSoC5/CapSense_INT.c ****         /* `#START CapSense_ONE_CHANNEL_IsrCH0_ISR_ENTER` */
  68:Generated_Source\PSoC5/CapSense_INT.c **** 
  69:Generated_Source\PSoC5/CapSense_INT.c ****         /* `#END` */
  70:Generated_Source\PSoC5/CapSense_INT.c **** 
  71:Generated_Source\PSoC5/CapSense_INT.c ****         /* Save results and disable sensor */
  72:Generated_Source\PSoC5/CapSense_INT.c ****         CapSense_PostScan(CapSense_sensorIndex);
  73:Generated_Source\PSoC5/CapSense_INT.c ****                 
  74:Generated_Source\PSoC5/CapSense_INT.c ****         if ((CapSense_csv & CapSense_SW_CTRL_SINGLE_SCAN) != 0u)
  75:Generated_Source\PSoC5/CapSense_INT.c ****         {
  76:Generated_Source\PSoC5/CapSense_INT.c ****             CapSense_csv &= (uint8)~CapSense_SW_STS_BUSY;
  77:Generated_Source\PSoC5/CapSense_INT.c ****         }
  78:Generated_Source\PSoC5/CapSense_INT.c ****         else
  79:Generated_Source\PSoC5/CapSense_INT.c ****         {
  80:Generated_Source\PSoC5/CapSense_INT.c ****             /* Proceed the scanning */
  81:Generated_Source\PSoC5/CapSense_INT.c ****             CapSense_sensorIndex = CapSense_FindNextSensor(CapSense_sensorIndex);
  82:Generated_Source\PSoC5/CapSense_INT.c ****             
  83:Generated_Source\PSoC5/CapSense_INT.c ****             /* Check end of scan */
  84:Generated_Source\PSoC5/CapSense_INT.c ****             if(CapSense_sensorIndex < CapSense_TOTAL_SENSOR_COUNT)
  85:Generated_Source\PSoC5/CapSense_INT.c ****             {
  86:Generated_Source\PSoC5/CapSense_INT.c ****                 CapSense_PreScan(CapSense_sensorIndex);
  87:Generated_Source\PSoC5/CapSense_INT.c ****             }
ARM GAS  C:\Users\JEFFSN~1\AppData\Local\Temp\ccZ02wCn.s 			page 3


  88:Generated_Source\PSoC5/CapSense_INT.c ****             else
  89:Generated_Source\PSoC5/CapSense_INT.c ****             {
  90:Generated_Source\PSoC5/CapSense_INT.c ****                 CapSense_csv &= (uint8)~CapSense_SW_STS_BUSY;
  91:Generated_Source\PSoC5/CapSense_INT.c ****             } 
  92:Generated_Source\PSoC5/CapSense_INT.c ****         }
  93:Generated_Source\PSoC5/CapSense_INT.c **** 
  94:Generated_Source\PSoC5/CapSense_INT.c ****         /*  Place your Interrupt code here. */
  95:Generated_Source\PSoC5/CapSense_INT.c ****         /* `#START CapSense_ONE_CHANNEL_IsrCH0_ISR_EXIT` */
  96:Generated_Source\PSoC5/CapSense_INT.c **** 
  97:Generated_Source\PSoC5/CapSense_INT.c ****         /* `#END` */
  98:Generated_Source\PSoC5/CapSense_INT.c **** 
  99:Generated_Source\PSoC5/CapSense_INT.c ****         #ifdef CapSense_ONE_CHANNEL_CH0_ISR_EXIT_CALLBACK
 100:Generated_Source\PSoC5/CapSense_INT.c ****             CapSense_IsrCH0_ISR_ExitCallback();
 101:Generated_Source\PSoC5/CapSense_INT.c ****         #endif /* CapSense_ONE_CHANNEL_CH0_ISR_EXIT_CALLBACK */
 102:Generated_Source\PSoC5/CapSense_INT.c ****     }
 103:Generated_Source\PSoC5/CapSense_INT.c ****  #endif  /* (CapSense_DESIGN_TYPE == CapSense_ONE_CHANNEL_DESIGN) */
 104:Generated_Source\PSoC5/CapSense_INT.c **** 
 105:Generated_Source\PSoC5/CapSense_INT.c **** 
 106:Generated_Source\PSoC5/CapSense_INT.c ****  #if (CapSense_DESIGN_TYPE == CapSense_TWO_CHANNELS_DESIGN)   
 107:Generated_Source\PSoC5/CapSense_INT.c ****     /*******************************************************************************
 108:Generated_Source\PSoC5/CapSense_INT.c ****     * Function Name: CapSense_IsrCH0_ISR
 109:Generated_Source\PSoC5/CapSense_INT.c ****     ********************************************************************************
 110:Generated_Source\PSoC5/CapSense_INT.c ****     *
 111:Generated_Source\PSoC5/CapSense_INT.c ****     * Summary:
 112:Generated_Source\PSoC5/CapSense_INT.c ****     *  This ISR is executed when measure window is closed. The measure window 
 113:Generated_Source\PSoC5/CapSense_INT.c ****     *  depends on scan resolution parameter of sensor. 
 114:Generated_Source\PSoC5/CapSense_INT.c ****     *  The ISR has two modes: 
 115:Generated_Source\PSoC5/CapSense_INT.c ****     *   1. Scans single sensor or pair of sensors and stores measure result.
 116:Generated_Source\PSoC5/CapSense_INT.c ****     *   2. Stores results of current measure when complete scan of sensors pair or 
 117:Generated_Source\PSoC5/CapSense_INT.c ****     *      sensor scan and starts next enabled sensors pair or sensor scan. 
 118:Generated_Source\PSoC5/CapSense_INT.c ****     *  This interrupt handler only used in two channel designs.
 119:Generated_Source\PSoC5/CapSense_INT.c ****     *  The synchronization is added to scanning process. The ISR channel 0 or 
 120:Generated_Source\PSoC5/CapSense_INT.c ****     *  channel 1 stores the result and starts next scan. It depends which channel
 121:Generated_Source\PSoC5/CapSense_INT.c ****     *  scans longer. The biggest scan resolution parameter of sensor within pair 
 122:Generated_Source\PSoC5/CapSense_INT.c ****     *  defines scanning time of pair.
 123:Generated_Source\PSoC5/CapSense_INT.c ****     *
 124:Generated_Source\PSoC5/CapSense_INT.c ****     * Parameters:
 125:Generated_Source\PSoC5/CapSense_INT.c ****     *  None
 126:Generated_Source\PSoC5/CapSense_INT.c ****     *
 127:Generated_Source\PSoC5/CapSense_INT.c ****     * Return:
 128:Generated_Source\PSoC5/CapSense_INT.c ****     *  None
 129:Generated_Source\PSoC5/CapSense_INT.c ****     *
 130:Generated_Source\PSoC5/CapSense_INT.c ****     * Global Variables:
 131:Generated_Source\PSoC5/CapSense_INT.c ****     *  CapSense_csv - used to provide status and mode of scanning process.
 132:Generated_Source\PSoC5/CapSense_INT.c ****     *   Mode - single scan or scan of all enabled sensors.
 133:Generated_Source\PSoC5/CapSense_INT.c ****     *   Status - scan in progress or ready for new scan.
 134:Generated_Source\PSoC5/CapSense_INT.c ****     *  CapSense_sensorIndex - used to store sensor scanning sensor number.
 135:Generated_Source\PSoC5/CapSense_INT.c ****     *
 136:Generated_Source\PSoC5/CapSense_INT.c ****     * Reentrant:
 137:Generated_Source\PSoC5/CapSense_INT.c ****     *  No
 138:Generated_Source\PSoC5/CapSense_INT.c ****     *
 139:Generated_Source\PSoC5/CapSense_INT.c ****     *******************************************************************************/
 140:Generated_Source\PSoC5/CapSense_INT.c ****     CY_ISR(CapSense_IsrCH0_ISR)
 141:Generated_Source\PSoC5/CapSense_INT.c ****     {
  28              		.loc 1 141 0
  29              		.cfi_startproc
  30              		@ args = 0, pretend = 0, frame = 0
ARM GAS  C:\Users\JEFFSN~1\AppData\Local\Temp\ccZ02wCn.s 			page 4


  31              		@ frame_needed = 1, uses_anonymous_args = 0
  32 0000 80B5     		push	{r7, lr}
  33              		.cfi_def_cfa_offset 8
  34              		.cfi_offset 7, -8
  35              		.cfi_offset 14, -4
  36 0002 00AF     		add	r7, sp, #0
  37              		.cfi_def_cfa_register 7
 142:Generated_Source\PSoC5/CapSense_INT.c ****         #ifdef CapSense_TWO_CHANNEL_CH0_ISR_ENTRY_CALLBACK
 143:Generated_Source\PSoC5/CapSense_INT.c ****             CapSense_IsrCH0_ISR_EntryCallback();
 144:Generated_Source\PSoC5/CapSense_INT.c ****         #endif /* CapSense_TWO_CHANNEL_CH0_ISR_ENTRY_CALLBACK */
 145:Generated_Source\PSoC5/CapSense_INT.c **** 
 146:Generated_Source\PSoC5/CapSense_INT.c ****         /*  Place your Interrupt code here. */
 147:Generated_Source\PSoC5/CapSense_INT.c ****         /* `#START CapSense_TWO_CHANNELS_IsrCH0_ISR_ENTER` */
 148:Generated_Source\PSoC5/CapSense_INT.c **** 
 149:Generated_Source\PSoC5/CapSense_INT.c ****         /* `#END` */
 150:Generated_Source\PSoC5/CapSense_INT.c ****         
 151:Generated_Source\PSoC5/CapSense_INT.c ****         CapSense_CONTROL_REG &= ~CapSense_CTRL_WINDOW_EN__CH0;
  38              		.loc 1 151 0
  39 0004 244A     		ldr	r2, .L8
  40 0006 244B     		ldr	r3, .L8
  41 0008 1B78     		ldrb	r3, [r3]
  42 000a DBB2     		uxtb	r3, r3
  43 000c 23F00403 		bic	r3, r3, #4
  44 0010 DBB2     		uxtb	r3, r3
  45 0012 1370     		strb	r3, [r2]
 152:Generated_Source\PSoC5/CapSense_INT.c ****         CapSense_PostScanCh0(CapSense_sensorIndex);
  46              		.loc 1 152 0
  47 0014 214B     		ldr	r3, .L8+4
  48 0016 1B78     		ldrb	r3, [r3]
  49 0018 DBB2     		uxtb	r3, r3
  50 001a 1846     		mov	r0, r3
  51 001c FFF7FEFF 		bl	CapSense_PostScanCh0
 153:Generated_Source\PSoC5/CapSense_INT.c ****         
 154:Generated_Source\PSoC5/CapSense_INT.c ****         if((CapSense_CONTROL_REG & CapSense_CTRL_WINDOW_EN__CH1) == 0u)
  52              		.loc 1 154 0
  53 0020 1D4B     		ldr	r3, .L8
  54 0022 1B78     		ldrb	r3, [r3]
  55 0024 DBB2     		uxtb	r3, r3
  56 0026 03F00803 		and	r3, r3, #8
  57 002a 002B     		cmp	r3, #0
  58 002c 31D1     		bne	.L7
 155:Generated_Source\PSoC5/CapSense_INT.c ****         {
 156:Generated_Source\PSoC5/CapSense_INT.c ****             if ((CapSense_csv & CapSense_SW_CTRL_SINGLE_SCAN) != 0u)
  59              		.loc 1 156 0
  60 002e 1C4B     		ldr	r3, .L8+8
  61 0030 1B78     		ldrb	r3, [r3]
  62 0032 DBB2     		uxtb	r3, r3
  63 0034 5BB2     		sxtb	r3, r3
  64 0036 002B     		cmp	r3, #0
  65 0038 08DA     		bge	.L3
 157:Generated_Source\PSoC5/CapSense_INT.c ****             {
 158:Generated_Source\PSoC5/CapSense_INT.c ****                 CapSense_csv &= (uint8)~CapSense_SW_STS_BUSY;
  66              		.loc 1 158 0
  67 003a 194B     		ldr	r3, .L8+8
  68 003c 1B78     		ldrb	r3, [r3]
  69 003e DBB2     		uxtb	r3, r3
  70 0040 23F00103 		bic	r3, r3, #1
ARM GAS  C:\Users\JEFFSN~1\AppData\Local\Temp\ccZ02wCn.s 			page 5


  71 0044 DAB2     		uxtb	r2, r3
  72 0046 164B     		ldr	r3, .L8+8
  73 0048 1A70     		strb	r2, [r3]
 159:Generated_Source\PSoC5/CapSense_INT.c ****             }
 160:Generated_Source\PSoC5/CapSense_INT.c ****             else
 161:Generated_Source\PSoC5/CapSense_INT.c ****             {
 162:Generated_Source\PSoC5/CapSense_INT.c ****                 /* Procced the scanning */
 163:Generated_Source\PSoC5/CapSense_INT.c ****                 CapSense_sensorIndex = CapSense_FindNextPair(CapSense_sensorIndex);
 164:Generated_Source\PSoC5/CapSense_INT.c ****                 
 165:Generated_Source\PSoC5/CapSense_INT.c ****                 /* Check end of scan conditions */
 166:Generated_Source\PSoC5/CapSense_INT.c ****                 if((CapSense_sensorIndex < CapSense_TOTAL_SENSOR_COUNT__CH0) || 
 167:Generated_Source\PSoC5/CapSense_INT.c ****                    (CapSense_sensorIndex < CapSense_TOTAL_SENSOR_COUNT__CH1))
 168:Generated_Source\PSoC5/CapSense_INT.c ****                 {
 169:Generated_Source\PSoC5/CapSense_INT.c ****                     CapSense_PreScan(CapSense_sensorIndex);
 170:Generated_Source\PSoC5/CapSense_INT.c ****                 }
 171:Generated_Source\PSoC5/CapSense_INT.c ****                 else
 172:Generated_Source\PSoC5/CapSense_INT.c ****                 {
 173:Generated_Source\PSoC5/CapSense_INT.c ****                     CapSense_csv &= (uint8)~CapSense_SW_STS_BUSY;
 174:Generated_Source\PSoC5/CapSense_INT.c ****                 }
 175:Generated_Source\PSoC5/CapSense_INT.c ****             }
 176:Generated_Source\PSoC5/CapSense_INT.c ****         }
 177:Generated_Source\PSoC5/CapSense_INT.c ****         else
 178:Generated_Source\PSoC5/CapSense_INT.c ****         {
 179:Generated_Source\PSoC5/CapSense_INT.c ****             /* Do nothing */
 180:Generated_Source\PSoC5/CapSense_INT.c ****         }
 181:Generated_Source\PSoC5/CapSense_INT.c **** 
 182:Generated_Source\PSoC5/CapSense_INT.c **** 		/*  Place your Interrupt code here. */
 183:Generated_Source\PSoC5/CapSense_INT.c ****         /* `#START CapSense_TWO_CHANNELS_IsrCH0_ISR_EXIT` */
 184:Generated_Source\PSoC5/CapSense_INT.c **** 
 185:Generated_Source\PSoC5/CapSense_INT.c ****         /* `#END` */
 186:Generated_Source\PSoC5/CapSense_INT.c **** 
 187:Generated_Source\PSoC5/CapSense_INT.c ****         #ifdef CapSense_TWO_CHANNEL_CH0_ISR_EXIT_CALLBACK
 188:Generated_Source\PSoC5/CapSense_INT.c ****             CapSense_IsrCH0_ISR_ExitCallback();
 189:Generated_Source\PSoC5/CapSense_INT.c ****         #endif /* CapSense_TWO_CHANNEL_CH0_ISR_EXIT_CALLBACK */
 190:Generated_Source\PSoC5/CapSense_INT.c ****     }
  74              		.loc 1 190 0
  75 004a 22E0     		b	.L7
  76              	.L3:
 163:Generated_Source\PSoC5/CapSense_INT.c ****                 
  77              		.loc 1 163 0
  78 004c 134B     		ldr	r3, .L8+4
  79 004e 1B78     		ldrb	r3, [r3]
  80 0050 DBB2     		uxtb	r3, r3
  81 0052 1846     		mov	r0, r3
  82 0054 FFF7FEFF 		bl	CapSense_FindNextPair
  83 0058 0346     		mov	r3, r0
  84 005a 1A46     		mov	r2, r3
  85 005c 0F4B     		ldr	r3, .L8+4
  86 005e 1A70     		strb	r2, [r3]
 166:Generated_Source\PSoC5/CapSense_INT.c ****                    (CapSense_sensorIndex < CapSense_TOTAL_SENSOR_COUNT__CH1))
  87              		.loc 1 166 0
  88 0060 0E4B     		ldr	r3, .L8+4
  89 0062 1B78     		ldrb	r3, [r3]
  90 0064 DBB2     		uxtb	r3, r3
  91 0066 032B     		cmp	r3, #3
  92 0068 04D9     		bls	.L5
 167:Generated_Source\PSoC5/CapSense_INT.c ****                 {
ARM GAS  C:\Users\JEFFSN~1\AppData\Local\Temp\ccZ02wCn.s 			page 6


  93              		.loc 1 167 0 discriminator 1
  94 006a 0C4B     		ldr	r3, .L8+4
  95 006c 1B78     		ldrb	r3, [r3]
  96 006e DBB2     		uxtb	r3, r3
 166:Generated_Source\PSoC5/CapSense_INT.c ****                    (CapSense_sensorIndex < CapSense_TOTAL_SENSOR_COUNT__CH1))
  97              		.loc 1 166 0 discriminator 1
  98 0070 032B     		cmp	r3, #3
  99 0072 06D8     		bhi	.L6
 100              	.L5:
 169:Generated_Source\PSoC5/CapSense_INT.c ****                 }
 101              		.loc 1 169 0
 102 0074 094B     		ldr	r3, .L8+4
 103 0076 1B78     		ldrb	r3, [r3]
 104 0078 DBB2     		uxtb	r3, r3
 105 007a 1846     		mov	r0, r3
 106 007c FFF7FEFF 		bl	CapSense_PreScan
 107              		.loc 1 190 0
 108 0080 07E0     		b	.L7
 109              	.L6:
 173:Generated_Source\PSoC5/CapSense_INT.c ****                 }
 110              		.loc 1 173 0
 111 0082 074B     		ldr	r3, .L8+8
 112 0084 1B78     		ldrb	r3, [r3]
 113 0086 DBB2     		uxtb	r3, r3
 114 0088 23F00103 		bic	r3, r3, #1
 115 008c DAB2     		uxtb	r2, r3
 116 008e 044B     		ldr	r3, .L8+8
 117 0090 1A70     		strb	r2, [r3]
 118              	.L7:
 119              		.loc 1 190 0
 120 0092 00BF     		nop
 121 0094 80BD     		pop	{r7, pc}
 122              	.L9:
 123 0096 00BF     		.align	2
 124              	.L8:
 125 0098 7A640040 		.word	1073767546
 126 009c 00000000 		.word	CapSense_sensorIndex
 127 00a0 00000000 		.word	CapSense_csv
 128              		.cfi_endproc
 129              	.LFE0:
 130              		.size	CapSense_IsrCH0_ISR, .-CapSense_IsrCH0_ISR
 131              		.section	.text.CapSense_IsrCH1_ISR,"ax",%progbits
 132              		.align	2
 133              		.global	CapSense_IsrCH1_ISR
 134              		.thumb
 135              		.thumb_func
 136              		.type	CapSense_IsrCH1_ISR, %function
 137              	CapSense_IsrCH1_ISR:
 138              	.LFB1:
 191:Generated_Source\PSoC5/CapSense_INT.c **** 
 192:Generated_Source\PSoC5/CapSense_INT.c ****     
 193:Generated_Source\PSoC5/CapSense_INT.c ****     /*******************************************************************************
 194:Generated_Source\PSoC5/CapSense_INT.c ****     * Function Name: CapSense_IsrCH1_ISR
 195:Generated_Source\PSoC5/CapSense_INT.c ****     ********************************************************************************
 196:Generated_Source\PSoC5/CapSense_INT.c ****     *
 197:Generated_Source\PSoC5/CapSense_INT.c ****     * Summary:
 198:Generated_Source\PSoC5/CapSense_INT.c ****     *  This ISR is executed when measure window is closed. The measure window 
ARM GAS  C:\Users\JEFFSN~1\AppData\Local\Temp\ccZ02wCn.s 			page 7


 199:Generated_Source\PSoC5/CapSense_INT.c ****     *  depends on scan resolution parameter of sensor. 
 200:Generated_Source\PSoC5/CapSense_INT.c ****     *  The ISR has two modes: 
 201:Generated_Source\PSoC5/CapSense_INT.c ****     *   1. Scans single sensor or pair of sensors and stores measure result.
 202:Generated_Source\PSoC5/CapSense_INT.c ****     *   2. Stores results of current measure when complete scan of sensors pair or 
 203:Generated_Source\PSoC5/CapSense_INT.c ****     *      sensor scan and starts next enabled sensors pair or sensor scan. 
 204:Generated_Source\PSoC5/CapSense_INT.c ****     *  This interrupt handler only used in two channel designs.
 205:Generated_Source\PSoC5/CapSense_INT.c ****     *  The synchronization is added to scanning process. The ISR channel 0 or 
 206:Generated_Source\PSoC5/CapSense_INT.c ****     *  channel 1 stores the result and starts next scan. It depends which channel
 207:Generated_Source\PSoC5/CapSense_INT.c ****     *  scans longer. The biggest scan resolution parameter of sensor within pair 
 208:Generated_Source\PSoC5/CapSense_INT.c ****     *  defines scanning time of pair.
 209:Generated_Source\PSoC5/CapSense_INT.c ****     *
 210:Generated_Source\PSoC5/CapSense_INT.c ****     * Parameters:
 211:Generated_Source\PSoC5/CapSense_INT.c ****     *  None
 212:Generated_Source\PSoC5/CapSense_INT.c ****     *
 213:Generated_Source\PSoC5/CapSense_INT.c ****     * Return:
 214:Generated_Source\PSoC5/CapSense_INT.c ****     *  None
 215:Generated_Source\PSoC5/CapSense_INT.c ****     *
 216:Generated_Source\PSoC5/CapSense_INT.c ****     * Global Variables:
 217:Generated_Source\PSoC5/CapSense_INT.c ****     *  CapSense_csv - used to provide status and mode of scanning process.
 218:Generated_Source\PSoC5/CapSense_INT.c ****     *   Mode - single scan or scan of all enabled sensors.
 219:Generated_Source\PSoC5/CapSense_INT.c ****     *   Status - scan in progress or ready for new scan.
 220:Generated_Source\PSoC5/CapSense_INT.c ****     *  CapSense_sensorIndex - used to store sensor scanning sensor number.
 221:Generated_Source\PSoC5/CapSense_INT.c ****     *
 222:Generated_Source\PSoC5/CapSense_INT.c ****     * Reentrant:
 223:Generated_Source\PSoC5/CapSense_INT.c ****     *  No
 224:Generated_Source\PSoC5/CapSense_INT.c ****     *
 225:Generated_Source\PSoC5/CapSense_INT.c ****     *******************************************************************************/
 226:Generated_Source\PSoC5/CapSense_INT.c ****     CY_ISR(CapSense_IsrCH1_ISR)
 227:Generated_Source\PSoC5/CapSense_INT.c ****     {
 139              		.loc 1 227 0
 140              		.cfi_startproc
 141              		@ args = 0, pretend = 0, frame = 0
 142              		@ frame_needed = 1, uses_anonymous_args = 0
 143 0000 80B5     		push	{r7, lr}
 144              		.cfi_def_cfa_offset 8
 145              		.cfi_offset 7, -8
 146              		.cfi_offset 14, -4
 147 0002 00AF     		add	r7, sp, #0
 148              		.cfi_def_cfa_register 7
 228:Generated_Source\PSoC5/CapSense_INT.c ****         #ifdef CapSense_TWO_CHANNEL_CH1_ISR_ENTRY_CALLBACK
 229:Generated_Source\PSoC5/CapSense_INT.c ****             CapSense_IsrCH1_ISR_EntryCallback();
 230:Generated_Source\PSoC5/CapSense_INT.c ****         #endif /* CapSense_TWO_CHANNEL_CH1_ISR_ENTRY_CALLBACK */
 231:Generated_Source\PSoC5/CapSense_INT.c **** 
 232:Generated_Source\PSoC5/CapSense_INT.c ****         /*  Place your Interrupt code here */
 233:Generated_Source\PSoC5/CapSense_INT.c ****         /* `#START CapSense_TWO_CHANNELS_IsrCH1_ISR_ENTER` */
 234:Generated_Source\PSoC5/CapSense_INT.c **** 
 235:Generated_Source\PSoC5/CapSense_INT.c ****         /* `#END` */
 236:Generated_Source\PSoC5/CapSense_INT.c ****         
 237:Generated_Source\PSoC5/CapSense_INT.c ****         CapSense_CONTROL_REG &= (uint8)~CapSense_CTRL_WINDOW_EN__CH1;
 149              		.loc 1 237 0
 150 0004 254A     		ldr	r2, .L17
 151 0006 254B     		ldr	r3, .L17
 152 0008 1B78     		ldrb	r3, [r3]
 153 000a DBB2     		uxtb	r3, r3
 154 000c 23F00803 		bic	r3, r3, #8
 155 0010 DBB2     		uxtb	r3, r3
 156 0012 1370     		strb	r3, [r2]
ARM GAS  C:\Users\JEFFSN~1\AppData\Local\Temp\ccZ02wCn.s 			page 8


 238:Generated_Source\PSoC5/CapSense_INT.c ****         CapSense_PostScanCh1(CapSense_sensorIndex + CapSense_TOTAL_SENSOR_COUNT__CH0);
 157              		.loc 1 238 0
 158 0014 224B     		ldr	r3, .L17+4
 159 0016 1B78     		ldrb	r3, [r3]
 160 0018 DBB2     		uxtb	r3, r3
 161 001a 0433     		adds	r3, r3, #4
 162 001c DBB2     		uxtb	r3, r3
 163 001e 1846     		mov	r0, r3
 164 0020 FFF7FEFF 		bl	CapSense_PostScanCh1
 239:Generated_Source\PSoC5/CapSense_INT.c ****         
 240:Generated_Source\PSoC5/CapSense_INT.c ****         if((CapSense_CONTROL_REG & CapSense_CTRL_WINDOW_EN__CH0) == 0u)
 165              		.loc 1 240 0
 166 0024 1D4B     		ldr	r3, .L17
 167 0026 1B78     		ldrb	r3, [r3]
 168 0028 DBB2     		uxtb	r3, r3
 169 002a 03F00403 		and	r3, r3, #4
 170 002e 002B     		cmp	r3, #0
 171 0030 31D1     		bne	.L16
 241:Generated_Source\PSoC5/CapSense_INT.c ****         {
 242:Generated_Source\PSoC5/CapSense_INT.c ****             if ((CapSense_csv & CapSense_SW_CTRL_SINGLE_SCAN) != 0u)
 172              		.loc 1 242 0
 173 0032 1C4B     		ldr	r3, .L17+8
 174 0034 1B78     		ldrb	r3, [r3]
 175 0036 DBB2     		uxtb	r3, r3
 176 0038 5BB2     		sxtb	r3, r3
 177 003a 002B     		cmp	r3, #0
 178 003c 08DA     		bge	.L12
 243:Generated_Source\PSoC5/CapSense_INT.c ****             {
 244:Generated_Source\PSoC5/CapSense_INT.c ****                 CapSense_csv &= (uint8)~CapSense_SW_STS_BUSY;
 179              		.loc 1 244 0
 180 003e 194B     		ldr	r3, .L17+8
 181 0040 1B78     		ldrb	r3, [r3]
 182 0042 DBB2     		uxtb	r3, r3
 183 0044 23F00103 		bic	r3, r3, #1
 184 0048 DAB2     		uxtb	r2, r3
 185 004a 164B     		ldr	r3, .L17+8
 186 004c 1A70     		strb	r2, [r3]
 245:Generated_Source\PSoC5/CapSense_INT.c ****             }
 246:Generated_Source\PSoC5/CapSense_INT.c ****             else 
 247:Generated_Source\PSoC5/CapSense_INT.c ****             {
 248:Generated_Source\PSoC5/CapSense_INT.c ****                 /* Procced the scanning */
 249:Generated_Source\PSoC5/CapSense_INT.c ****                 CapSense_sensorIndex = CapSense_FindNextPair(CapSense_sensorIndex);
 250:Generated_Source\PSoC5/CapSense_INT.c ****                 
 251:Generated_Source\PSoC5/CapSense_INT.c ****                 /* Check end of scan conditions */
 252:Generated_Source\PSoC5/CapSense_INT.c ****                 if((CapSense_sensorIndex < CapSense_TOTAL_SENSOR_COUNT__CH0) || 
 253:Generated_Source\PSoC5/CapSense_INT.c ****                    (CapSense_sensorIndex < CapSense_TOTAL_SENSOR_COUNT__CH1))
 254:Generated_Source\PSoC5/CapSense_INT.c ****                 {
 255:Generated_Source\PSoC5/CapSense_INT.c ****                     CapSense_PreScan(CapSense_sensorIndex);
 256:Generated_Source\PSoC5/CapSense_INT.c ****                 }
 257:Generated_Source\PSoC5/CapSense_INT.c ****                 else
 258:Generated_Source\PSoC5/CapSense_INT.c ****                 {
 259:Generated_Source\PSoC5/CapSense_INT.c ****                     CapSense_csv &= ~CapSense_SW_STS_BUSY;
 260:Generated_Source\PSoC5/CapSense_INT.c ****                 }
 261:Generated_Source\PSoC5/CapSense_INT.c ****             }
 262:Generated_Source\PSoC5/CapSense_INT.c ****         }
 263:Generated_Source\PSoC5/CapSense_INT.c ****         else
 264:Generated_Source\PSoC5/CapSense_INT.c ****         {
ARM GAS  C:\Users\JEFFSN~1\AppData\Local\Temp\ccZ02wCn.s 			page 9


 265:Generated_Source\PSoC5/CapSense_INT.c ****             /* Do nothing */
 266:Generated_Source\PSoC5/CapSense_INT.c ****         }
 267:Generated_Source\PSoC5/CapSense_INT.c **** 
 268:Generated_Source\PSoC5/CapSense_INT.c **** 		/*  Place your Interrupt code here */
 269:Generated_Source\PSoC5/CapSense_INT.c ****         /* `#START CapSense_TWO_CHANNELS_IsrCH1_ISR_EXIT` */
 270:Generated_Source\PSoC5/CapSense_INT.c **** 
 271:Generated_Source\PSoC5/CapSense_INT.c ****         /* `#END` */
 272:Generated_Source\PSoC5/CapSense_INT.c **** 
 273:Generated_Source\PSoC5/CapSense_INT.c ****         #ifdef CapSense_TWO_CHANNEL_CH1_ISR_EXIT_CALLBACK
 274:Generated_Source\PSoC5/CapSense_INT.c ****             CapSense_IsrCH1_ISR_ExitCallback();
 275:Generated_Source\PSoC5/CapSense_INT.c ****         #endif /* CapSense_TWO_CHANNEL_CH1_ISR_EXIT_CALLBACK */
 276:Generated_Source\PSoC5/CapSense_INT.c ****     }
 187              		.loc 1 276 0
 188 004e 22E0     		b	.L16
 189              	.L12:
 249:Generated_Source\PSoC5/CapSense_INT.c ****                 
 190              		.loc 1 249 0
 191 0050 134B     		ldr	r3, .L17+4
 192 0052 1B78     		ldrb	r3, [r3]
 193 0054 DBB2     		uxtb	r3, r3
 194 0056 1846     		mov	r0, r3
 195 0058 FFF7FEFF 		bl	CapSense_FindNextPair
 196 005c 0346     		mov	r3, r0
 197 005e 1A46     		mov	r2, r3
 198 0060 0F4B     		ldr	r3, .L17+4
 199 0062 1A70     		strb	r2, [r3]
 252:Generated_Source\PSoC5/CapSense_INT.c ****                    (CapSense_sensorIndex < CapSense_TOTAL_SENSOR_COUNT__CH1))
 200              		.loc 1 252 0
 201 0064 0E4B     		ldr	r3, .L17+4
 202 0066 1B78     		ldrb	r3, [r3]
 203 0068 DBB2     		uxtb	r3, r3
 204 006a 032B     		cmp	r3, #3
 205 006c 04D9     		bls	.L14
 253:Generated_Source\PSoC5/CapSense_INT.c ****                 {
 206              		.loc 1 253 0 discriminator 1
 207 006e 0C4B     		ldr	r3, .L17+4
 208 0070 1B78     		ldrb	r3, [r3]
 209 0072 DBB2     		uxtb	r3, r3
 252:Generated_Source\PSoC5/CapSense_INT.c ****                    (CapSense_sensorIndex < CapSense_TOTAL_SENSOR_COUNT__CH1))
 210              		.loc 1 252 0 discriminator 1
 211 0074 032B     		cmp	r3, #3
 212 0076 06D8     		bhi	.L15
 213              	.L14:
 255:Generated_Source\PSoC5/CapSense_INT.c ****                 }
 214              		.loc 1 255 0
 215 0078 094B     		ldr	r3, .L17+4
 216 007a 1B78     		ldrb	r3, [r3]
 217 007c DBB2     		uxtb	r3, r3
 218 007e 1846     		mov	r0, r3
 219 0080 FFF7FEFF 		bl	CapSense_PreScan
 220              		.loc 1 276 0
 221 0084 07E0     		b	.L16
 222              	.L15:
 259:Generated_Source\PSoC5/CapSense_INT.c ****                 }
 223              		.loc 1 259 0
 224 0086 074B     		ldr	r3, .L17+8
 225 0088 1B78     		ldrb	r3, [r3]
ARM GAS  C:\Users\JEFFSN~1\AppData\Local\Temp\ccZ02wCn.s 			page 10


 226 008a DBB2     		uxtb	r3, r3
 227 008c 23F00103 		bic	r3, r3, #1
 228 0090 DAB2     		uxtb	r2, r3
 229 0092 044B     		ldr	r3, .L17+8
 230 0094 1A70     		strb	r2, [r3]
 231              	.L16:
 232              		.loc 1 276 0
 233 0096 00BF     		nop
 234 0098 80BD     		pop	{r7, pc}
 235              	.L18:
 236 009a 00BF     		.align	2
 237              	.L17:
 238 009c 7A640040 		.word	1073767546
 239 00a0 00000000 		.word	CapSense_sensorIndex
 240 00a4 00000000 		.word	CapSense_csv
 241              		.cfi_endproc
 242              	.LFE1:
 243              		.size	CapSense_IsrCH1_ISR, .-CapSense_IsrCH1_ISR
 244              		.text
 245              	.Letext0:
 246              		.file 2 "Generated_Source\\PSoC5\\cytypes.h"
 247              		.file 3 "Generated_Source\\PSoC5\\CapSense.h"
 248              		.section	.debug_info,"",%progbits
 249              	.Ldebug_info0:
 250 0000 E2000000 		.4byte	0xe2
 251 0004 0400     		.2byte	0x4
 252 0006 00000000 		.4byte	.Ldebug_abbrev0
 253 000a 04       		.byte	0x4
 254 000b 01       		.uleb128 0x1
 255 000c 98000000 		.4byte	.LASF20
 256 0010 0C       		.byte	0xc
 257 0011 0E000000 		.4byte	.LASF21
 258 0015 33010000 		.4byte	.LASF22
 259 0019 00000000 		.4byte	.Ldebug_ranges0+0
 260 001d 00000000 		.4byte	0
 261 0021 00000000 		.4byte	.Ldebug_line0
 262 0025 02       		.uleb128 0x2
 263 0026 01       		.byte	0x1
 264 0027 06       		.byte	0x6
 265 0028 F3010000 		.4byte	.LASF0
 266 002c 02       		.uleb128 0x2
 267 002d 01       		.byte	0x1
 268 002e 08       		.byte	0x8
 269 002f 41000000 		.4byte	.LASF1
 270 0033 02       		.uleb128 0x2
 271 0034 02       		.byte	0x2
 272 0035 05       		.byte	0x5
 273 0036 0B020000 		.4byte	.LASF2
 274 003a 02       		.uleb128 0x2
 275 003b 02       		.byte	0x2
 276 003c 07       		.byte	0x7
 277 003d E0010000 		.4byte	.LASF3
 278 0041 02       		.uleb128 0x2
 279 0042 04       		.byte	0x4
 280 0043 05       		.byte	0x5
 281 0044 A7010000 		.4byte	.LASF4
 282 0048 02       		.uleb128 0x2
ARM GAS  C:\Users\JEFFSN~1\AppData\Local\Temp\ccZ02wCn.s 			page 11


 283 0049 04       		.byte	0x4
 284 004a 07       		.byte	0x7
 285 004b 69000000 		.4byte	.LASF5
 286 004f 02       		.uleb128 0x2
 287 0050 08       		.byte	0x8
 288 0051 05       		.byte	0x5
 289 0052 00000000 		.4byte	.LASF6
 290 0056 02       		.uleb128 0x2
 291 0057 08       		.byte	0x8
 292 0058 07       		.byte	0x7
 293 0059 7B000000 		.4byte	.LASF7
 294 005d 03       		.uleb128 0x3
 295 005e 04       		.byte	0x4
 296 005f 05       		.byte	0x5
 297 0060 696E7400 		.ascii	"int\000"
 298 0064 02       		.uleb128 0x2
 299 0065 04       		.byte	0x4
 300 0066 07       		.byte	0x7
 301 0067 34000000 		.4byte	.LASF8
 302 006b 04       		.uleb128 0x4
 303 006c 63000000 		.4byte	.LASF12
 304 0070 02       		.byte	0x2
 305 0071 E401     		.2byte	0x1e4
 306 0073 2C000000 		.4byte	0x2c
 307 0077 02       		.uleb128 0x2
 308 0078 04       		.byte	0x4
 309 0079 04       		.byte	0x4
 310 007a 92000000 		.4byte	.LASF9
 311 007e 02       		.uleb128 0x2
 312 007f 08       		.byte	0x8
 313 0080 04       		.byte	0x4
 314 0081 C4010000 		.4byte	.LASF10
 315 0085 02       		.uleb128 0x2
 316 0086 01       		.byte	0x1
 317 0087 08       		.byte	0x8
 318 0088 A2010000 		.4byte	.LASF11
 319 008c 04       		.uleb128 0x4
 320 008d 15020000 		.4byte	.LASF13
 321 0091 02       		.byte	0x2
 322 0092 8E02     		.2byte	0x28e
 323 0094 98000000 		.4byte	0x98
 324 0098 05       		.uleb128 0x5
 325 0099 6B000000 		.4byte	0x6b
 326 009d 02       		.uleb128 0x2
 327 009e 08       		.byte	0x8
 328 009f 04       		.byte	0x4
 329 00a0 FF010000 		.4byte	.LASF14
 330 00a4 02       		.uleb128 0x2
 331 00a5 04       		.byte	0x4
 332 00a6 07       		.byte	0x7
 333 00a7 1A020000 		.4byte	.LASF15
 334 00ab 06       		.uleb128 0x6
 335 00ac 4F000000 		.4byte	.LASF16
 336 00b0 01       		.byte	0x1
 337 00b1 8C       		.byte	0x8c
 338 00b2 00000000 		.4byte	.LFB0
 339 00b6 A4000000 		.4byte	.LFE0-.LFB0
ARM GAS  C:\Users\JEFFSN~1\AppData\Local\Temp\ccZ02wCn.s 			page 12


 340 00ba 01       		.uleb128 0x1
 341 00bb 9C       		.byte	0x9c
 342 00bc 06       		.uleb128 0x6
 343 00bd B0010000 		.4byte	.LASF17
 344 00c1 01       		.byte	0x1
 345 00c2 E2       		.byte	0xe2
 346 00c3 00000000 		.4byte	.LFB1
 347 00c7 A8000000 		.4byte	.LFE1-.LFB1
 348 00cb 01       		.uleb128 0x1
 349 00cc 9C       		.byte	0x9c
 350 00cd 07       		.uleb128 0x7
 351 00ce 26010000 		.4byte	.LASF18
 352 00d2 03       		.byte	0x3
 353 00d3 C302     		.2byte	0x2c3
 354 00d5 98000000 		.4byte	0x98
 355 00d9 07       		.uleb128 0x7
 356 00da CB010000 		.4byte	.LASF19
 357 00de 03       		.byte	0x3
 358 00df C402     		.2byte	0x2c4
 359 00e1 98000000 		.4byte	0x98
 360 00e5 00       		.byte	0
 361              		.section	.debug_abbrev,"",%progbits
 362              	.Ldebug_abbrev0:
 363 0000 01       		.uleb128 0x1
 364 0001 11       		.uleb128 0x11
 365 0002 01       		.byte	0x1
 366 0003 25       		.uleb128 0x25
 367 0004 0E       		.uleb128 0xe
 368 0005 13       		.uleb128 0x13
 369 0006 0B       		.uleb128 0xb
 370 0007 03       		.uleb128 0x3
 371 0008 0E       		.uleb128 0xe
 372 0009 1B       		.uleb128 0x1b
 373 000a 0E       		.uleb128 0xe
 374 000b 55       		.uleb128 0x55
 375 000c 17       		.uleb128 0x17
 376 000d 11       		.uleb128 0x11
 377 000e 01       		.uleb128 0x1
 378 000f 10       		.uleb128 0x10
 379 0010 17       		.uleb128 0x17
 380 0011 00       		.byte	0
 381 0012 00       		.byte	0
 382 0013 02       		.uleb128 0x2
 383 0014 24       		.uleb128 0x24
 384 0015 00       		.byte	0
 385 0016 0B       		.uleb128 0xb
 386 0017 0B       		.uleb128 0xb
 387 0018 3E       		.uleb128 0x3e
 388 0019 0B       		.uleb128 0xb
 389 001a 03       		.uleb128 0x3
 390 001b 0E       		.uleb128 0xe
 391 001c 00       		.byte	0
 392 001d 00       		.byte	0
 393 001e 03       		.uleb128 0x3
 394 001f 24       		.uleb128 0x24
 395 0020 00       		.byte	0
 396 0021 0B       		.uleb128 0xb
ARM GAS  C:\Users\JEFFSN~1\AppData\Local\Temp\ccZ02wCn.s 			page 13


 397 0022 0B       		.uleb128 0xb
 398 0023 3E       		.uleb128 0x3e
 399 0024 0B       		.uleb128 0xb
 400 0025 03       		.uleb128 0x3
 401 0026 08       		.uleb128 0x8
 402 0027 00       		.byte	0
 403 0028 00       		.byte	0
 404 0029 04       		.uleb128 0x4
 405 002a 16       		.uleb128 0x16
 406 002b 00       		.byte	0
 407 002c 03       		.uleb128 0x3
 408 002d 0E       		.uleb128 0xe
 409 002e 3A       		.uleb128 0x3a
 410 002f 0B       		.uleb128 0xb
 411 0030 3B       		.uleb128 0x3b
 412 0031 05       		.uleb128 0x5
 413 0032 49       		.uleb128 0x49
 414 0033 13       		.uleb128 0x13
 415 0034 00       		.byte	0
 416 0035 00       		.byte	0
 417 0036 05       		.uleb128 0x5
 418 0037 35       		.uleb128 0x35
 419 0038 00       		.byte	0
 420 0039 49       		.uleb128 0x49
 421 003a 13       		.uleb128 0x13
 422 003b 00       		.byte	0
 423 003c 00       		.byte	0
 424 003d 06       		.uleb128 0x6
 425 003e 2E       		.uleb128 0x2e
 426 003f 00       		.byte	0
 427 0040 3F       		.uleb128 0x3f
 428 0041 19       		.uleb128 0x19
 429 0042 03       		.uleb128 0x3
 430 0043 0E       		.uleb128 0xe
 431 0044 3A       		.uleb128 0x3a
 432 0045 0B       		.uleb128 0xb
 433 0046 3B       		.uleb128 0x3b
 434 0047 0B       		.uleb128 0xb
 435 0048 27       		.uleb128 0x27
 436 0049 19       		.uleb128 0x19
 437 004a 11       		.uleb128 0x11
 438 004b 01       		.uleb128 0x1
 439 004c 12       		.uleb128 0x12
 440 004d 06       		.uleb128 0x6
 441 004e 40       		.uleb128 0x40
 442 004f 18       		.uleb128 0x18
 443 0050 9642     		.uleb128 0x2116
 444 0052 19       		.uleb128 0x19
 445 0053 00       		.byte	0
 446 0054 00       		.byte	0
 447 0055 07       		.uleb128 0x7
 448 0056 34       		.uleb128 0x34
 449 0057 00       		.byte	0
 450 0058 03       		.uleb128 0x3
 451 0059 0E       		.uleb128 0xe
 452 005a 3A       		.uleb128 0x3a
 453 005b 0B       		.uleb128 0xb
ARM GAS  C:\Users\JEFFSN~1\AppData\Local\Temp\ccZ02wCn.s 			page 14


 454 005c 3B       		.uleb128 0x3b
 455 005d 05       		.uleb128 0x5
 456 005e 49       		.uleb128 0x49
 457 005f 13       		.uleb128 0x13
 458 0060 3F       		.uleb128 0x3f
 459 0061 19       		.uleb128 0x19
 460 0062 3C       		.uleb128 0x3c
 461 0063 19       		.uleb128 0x19
 462 0064 00       		.byte	0
 463 0065 00       		.byte	0
 464 0066 00       		.byte	0
 465              		.section	.debug_aranges,"",%progbits
 466 0000 24000000 		.4byte	0x24
 467 0004 0200     		.2byte	0x2
 468 0006 00000000 		.4byte	.Ldebug_info0
 469 000a 04       		.byte	0x4
 470 000b 00       		.byte	0
 471 000c 0000     		.2byte	0
 472 000e 0000     		.2byte	0
 473 0010 00000000 		.4byte	.LFB0
 474 0014 A4000000 		.4byte	.LFE0-.LFB0
 475 0018 00000000 		.4byte	.LFB1
 476 001c A8000000 		.4byte	.LFE1-.LFB1
 477 0020 00000000 		.4byte	0
 478 0024 00000000 		.4byte	0
 479              		.section	.debug_ranges,"",%progbits
 480              	.Ldebug_ranges0:
 481 0000 00000000 		.4byte	.LFB0
 482 0004 A4000000 		.4byte	.LFE0
 483 0008 00000000 		.4byte	.LFB1
 484 000c A8000000 		.4byte	.LFE1
 485 0010 00000000 		.4byte	0
 486 0014 00000000 		.4byte	0
 487              		.section	.debug_line,"",%progbits
 488              	.Ldebug_line0:
 489 0000 C1000000 		.section	.debug_str,"MS",%progbits,1
 489      02005700 
 489      00000201 
 489      FB0E0D00 
 489      01010101 
 490              	.LASF6:
 491 0000 6C6F6E67 		.ascii	"long long int\000"
 491      206C6F6E 
 491      6720696E 
 491      7400
 492              	.LASF21:
 493 000e 47656E65 		.ascii	"Generated_Source\\PSoC5\\CapSense_INT.c\000"
 493      72617465 
 493      645F536F 
 493      75726365 
 493      5C50536F 
 494              	.LASF8:
 495 0034 756E7369 		.ascii	"unsigned int\000"
 495      676E6564 
 495      20696E74 
 495      00
 496              	.LASF1:
ARM GAS  C:\Users\JEFFSN~1\AppData\Local\Temp\ccZ02wCn.s 			page 15


 497 0041 756E7369 		.ascii	"unsigned char\000"
 497      676E6564 
 497      20636861 
 497      7200
 498              	.LASF16:
 499 004f 43617053 		.ascii	"CapSense_IsrCH0_ISR\000"
 499      656E7365 
 499      5F497372 
 499      4348305F 
 499      49535200 
 500              	.LASF12:
 501 0063 75696E74 		.ascii	"uint8\000"
 501      3800
 502              	.LASF5:
 503 0069 6C6F6E67 		.ascii	"long unsigned int\000"
 503      20756E73 
 503      69676E65 
 503      6420696E 
 503      7400
 504              	.LASF7:
 505 007b 6C6F6E67 		.ascii	"long long unsigned int\000"
 505      206C6F6E 
 505      6720756E 
 505      7369676E 
 505      65642069 
 506              	.LASF9:
 507 0092 666C6F61 		.ascii	"float\000"
 507      7400
 508              	.LASF20:
 509 0098 474E5520 		.ascii	"GNU C11 5.4.1 20160609 (release) [ARM/embedded-5-br"
 509      43313120 
 509      352E342E 
 509      31203230 
 509      31363036 
 510 00cb 616E6368 		.ascii	"anch revision 237715] -mcpu=cortex-m3 -mthumb -g -O"
 510      20726576 
 510      6973696F 
 510      6E203233 
 510      37373135 
 511 00fe 30202D66 		.ascii	"0 -ffunction-sections -ffat-lto-objects\000"
 511      66756E63 
 511      74696F6E 
 511      2D736563 
 511      74696F6E 
 512              	.LASF18:
 513 0126 43617053 		.ascii	"CapSense_csv\000"
 513      656E7365 
 513      5F637376 
 513      00
 514              	.LASF22:
 515 0133 433A5C55 		.ascii	"C:\\Users\\JeffSnyder\\dev\\Electrobass_embedded\\P"
 515      73657273 
 515      5C4A6566 
 515      66536E79 
 515      6465725C 
 516 0161 534F4335 		.ascii	"SOC5_electrobass_stringsensors\\CE210514_PSOC3_5_Th"
 516      5F656C65 
ARM GAS  C:\Users\JEFFSN~1\AppData\Local\Temp\ccZ02wCn.s 			page 16


 516      6374726F 
 516      62617373 
 516      5F737472 
 517 0193 65726D69 		.ascii	"ermistor.cydsn\000"
 517      73746F72 
 517      2E637964 
 517      736E00
 518              	.LASF11:
 519 01a2 63686172 		.ascii	"char\000"
 519      00
 520              	.LASF4:
 521 01a7 6C6F6E67 		.ascii	"long int\000"
 521      20696E74 
 521      00
 522              	.LASF17:
 523 01b0 43617053 		.ascii	"CapSense_IsrCH1_ISR\000"
 523      656E7365 
 523      5F497372 
 523      4348315F 
 523      49535200 
 524              	.LASF10:
 525 01c4 646F7562 		.ascii	"double\000"
 525      6C6500
 526              	.LASF19:
 527 01cb 43617053 		.ascii	"CapSense_sensorIndex\000"
 527      656E7365 
 527      5F73656E 
 527      736F7249 
 527      6E646578 
 528              	.LASF3:
 529 01e0 73686F72 		.ascii	"short unsigned int\000"
 529      7420756E 
 529      7369676E 
 529      65642069 
 529      6E7400
 530              	.LASF0:
 531 01f3 7369676E 		.ascii	"signed char\000"
 531      65642063 
 531      68617200 
 532              	.LASF14:
 533 01ff 6C6F6E67 		.ascii	"long double\000"
 533      20646F75 
 533      626C6500 
 534              	.LASF2:
 535 020b 73686F72 		.ascii	"short int\000"
 535      7420696E 
 535      7400
 536              	.LASF13:
 537 0215 72656738 		.ascii	"reg8\000"
 537      00
 538              	.LASF15:
 539 021a 73697A65 		.ascii	"sizetype\000"
 539      74797065 
 539      00
 540              		.ident	"GCC: (GNU Tools for ARM Embedded Processors) 5.4.1 20160609 (release) [ARM/embedded-5-bran
