ARM GAS  C:\Users\JEFFSN~1\AppData\Local\Temp\ccIRfv6V.s 			page 1


   1              		.syntax unified
   2              		.cpu cortex-m3
   3              		.fpu softvfp
   4              		.eabi_attribute 20, 1
   5              		.eabi_attribute 21, 1
   6              		.eabi_attribute 23, 3
   7              		.eabi_attribute 24, 1
   8              		.eabi_attribute 25, 1
   9              		.eabi_attribute 26, 1
  10              		.eabi_attribute 30, 2
  11              		.eabi_attribute 34, 1
  12              		.eabi_attribute 18, 4
  13              		.thumb
  14              		.syntax unified
  15              		.file	"CapSense_CompCH0_PM.c"
  16              		.text
  17              	.Ltext0:
  18              		.section	.gnu.lto_.profile.807cfced,"",%progbits
  19 0000 789C6361 		.ascii	"x\234ca`d`a`\000\222\252\374\000\000\303\000?"
  19      60646061 
  19      600092AA 
  19      FC0000C3 
  19      003F
  20              		.text
  21              		.section	.gnu.lto_.icf.807cfced,"",%progbits
  22 0000 789C6361 		.ascii	"x\234ca`d\000\001\005\006\004`eX?\363A\013\023#\230"
  22      60640001 
  22      05060460 
  22      65583FF3 
  22      410B1323 
  23 0015 645AB9E5 		.ascii	"dZ\271\345\313$n\346I\333\027\337ef\371\265xV\027+\003"
  23      CB246EE6 
  23      49DB17DF 
  23      6566F9B5 
  23      7856172B 
  24 002a 00EAFB0E 		.ascii	"\000\352\373\016\021"
  24      11
  25              		.text
  26              		.section	.gnu.lto_.jmpfuncs.807cfced,"",%progbits
  27 0000 789C6361 		.ascii	"x\234ca`d\000\001\001\006\004`\001b\240(\023\224\311"
  27      60640001 
  27      01060460 
  27      0162A028 
  27      1394C9
  28 0013 00000308 		.ascii	"\000\000\003\010\000!"
  28      0021
  29              		.text
  30              		.section	.gnu.lto_.inline.807cfced,"",%progbits
  31 0000 789C6361 		.ascii	"x\234ca`d\000\2010\006\004`a``fbd`\0022\331\026\310"
  31      60640081 
  31      30060460 
  31      61606066 
  31      62646002 
  32 0018 8328A022 		.ascii	"\203(\240\"t\021&\006.A\240\010\317\004?\204\".\260"
  32      74112606 
  32      2E41A008 
  32      CF043F84 
ARM GAS  C:\Users\JEFFSN~1\AppData\Local\Temp\ccIRfv6V.s 			page 2


  32      222EB0
  33 002b 667676A0 		.ascii	"fvv\2408\333\007=Tq\006\000\366\220\005\346"
  33      38DB073D 
  33      54710600 
  33      F69005E6 
  34              		.text
  35              		.section	.gnu.lto_.pureconst.807cfced,"",%progbits
  36 0000 789C6361 		.ascii	"x\234ca`d\340d```a\0002\230\244X$\000\001y\000L"
  36      6064E064 
  36      60606061 
  36      003298A4 
  36      58240001 
  37              		.text
  38              		.section	.gnu.lto_CapSense_CompCH0_SaveConfig.807cfced,"",%progbits
  39 0000 789C6361 		.ascii	"x\234ca`d\000\201j \326\007bi fdf`d\232p\216\201\241"
  39      60640081 
  39      6A20D607 
  39      62692066 
  39      64666064 
  40 0019 91838991 		.ascii	"\221\203\211\221\021\304h\340`d\250gb\254g\374\312\364"
  40      11C468E0 
  40      6064A867 
  40      62AC67FC 
  40      CAF4
  41 002b 9789F150 		.ascii	"\227\211\361P\373\263\235L\232\313\033\200\340\301\321"
  41      FBB39D4C 
  41      9ACB1B80 
  41      E0C1D1
  42 003a C9CC0D2B 		.ascii	"\311\314\015+\0160\266230\374g\002\233\304\300\270\234"
  42      0E30B632 
  42      3330FC67 
  42      029BC4C0 
  42      B89C
  43 004c 519301A8 		.ascii	"Q\223\001\250\354\321\306\177Sy\331Z@\312\024 \222\214"
  43      ECD1C67F 
  43      5379D95A 
  43      40CA1420 
  43      928C
  44 005e 2B18D940 		.ascii	"+\030\331@\326\255\017:\320\360\377\177s\303\201\371"
  44      D6AD0F3A 
  44      D0F0FF7F 
  44      73C381F9 
  45 006e AC4F9980 		.ascii	"\254O\231\200\022\037\200\030d\315G \007H3\277bd\002"
  45      121F8018 
  45      64CD4720 
  45      074833BF 
  45      626402
  46 0081 29059BF6 		.ascii	")\005\233\366\201\211\021$\006T\241\353\236\232\227"
  46      81891124 
  46      0654A1EB 
  46      9E9A97
  47 0090 5A945892 		.ascii	"Z\224X\222\232\022\037\234_Z\224\234\032\023\020\234"
  47      9A121F9C 
  47      5F5A949C 
  47      1A13109C 
  48 00a0 EF6C1AE3 		.ascii	"\357l\032\343\234X\020\234\232W\234\032\357\234\237"
  48      9C58109C 
ARM GAS  C:\Users\JEFFSN~1\AppData\Local\Temp\ccIRfv6V.s 			page 3


  48      9A579C1A 
  48      EF9C9F
  49 00af 5BE0EC61 		.ascii	"[\340\354a\020\037\340\253\227\314\000\000g\315<\240"
  49      101FE0AB 
  49      97CC0000 
  49      67CD3CA0 
  50              		.text
  51              		.section	.gnu.lto_CapSense_CompCH0_RestoreConfig.807cfced,"",%progbits
  52 0000 789C6361 		.ascii	"x\234ca`d\000\201j \326\007bi fdf`d\232p\216\201\241"
  52      60640081 
  52      6A20D607 
  52      62692066 
  52      64666064 
  53 0019 91838991 		.ascii	"\221\203\211\221\021\304h\340`d\250gb\254g\374\312\364"
  53      11C468E0 
  53      6064A867 
  53      62AC67FC 
  53      CAF4
  54 002b 9789F150 		.ascii	"\227\211\361P\373\263\235L\232\313\033\200\340\301\321"
  54      FBB39D4C 
  54      9ACB1B80 
  54      E0C1D1
  55 003a 79CC0D2B 		.ascii	"y\314\015+\0160\266230\374g\002\233\304\300\270\234"
  55      0E30B632 
  55      3330FC67 
  55      029BC4C0 
  55      B89C
  56 004c 519301A8 		.ascii	"Q\223\001\250\354\321\306\177Sy\331Z@\312\024 \222\214"
  56      ECD1C67F 
  56      5379D95A 
  56      40CA1420 
  56      928C
  57 005e 2B18D940 		.ascii	"+\030\331@\326\255\017:\320\360\377\177s\303\201\357"
  57      D6AD0F3A 
  57      D0F0FF7F 
  57      73C381EF 
  58 006e AC5F9981 		.ascii	"\254_\231\201\022\037\200\030d\315G&&\020\315\374\212"
  58      121F8018 
  58      64CD4726 
  58      2610CDFC 
  58      8A
  59 007f 9109A414 		.ascii	"\221\011\244\024l\332\007&F\220\030P\205\256{j^jQbI"
  59      6CDA0726 
  59      46901850 
  59      85AE7B6A 
  59      5E6A5162 
  60 0094 6A4A7C70 		.ascii	"jJ|p~iQrjL@p\276\263i\214sbApj^qj\274s~n\201\263\207"
  60      7E695172 
  60      6A4C4070 
  60      BEB3698C 
  60      73624170 
  61 00b3 417C80AF 		.ascii	"A|\200\257^2\003\000\223\205=\024"
  61      5E320300 
  61      93853D14 
  62              		.text
  63              		.section	.gnu.lto_CapSense_CompCH0_Sleep.807cfced,"",%progbits
  64 0000 789C8D91 		.ascii	"x\234\215\221\317k\023Q\020\307\347\373\336\356f\211"
ARM GAS  C:\Users\JEFFSN~1\AppData\Local\Temp\ccIRfv6V.s 			page 4


  64      CF6B1351 
  64      10C7E7FB 
  64      DEEE6689 
  65 0010 0DF80794 		.ascii	"\015\370\007\224\340\265\007M/^\275\004\254\027\241"
  65      E0B5074D 
  65      2F5EBD04 
  65      AC17A1
  66 001f 986B2194 		.ascii	"\230k!\224v\2176\245\3529/\335\304X\017b\305z\020\244"
  66      768F36A5 
  66      EA392FDD 
  66      C4580F62 
  66      C57A10A4 
  67 0033 C7D41F31 		.ascii	"\307\324\0371\211\266j\240\207\030*\275\024E\250x\250"
  67      89B66AA0 
  67      87182ABD 
  67      1445A878 
  67      A8
  68 0044 887A8812 		.ascii	"\210z\210\022\212\244\320\036\374\221\304\231]\255\202"
  68      8AA4D01E 
  68      FC91C499 
  68      5DAD82
  69 0053 503AB0FB 		.ascii	"P:\260\373\336\316\373\276\371|w\306\"\220\304\244\""
  69      DECEFBBE 
  69      F97C77C6 
  69      2290C4A4 
  69      22
  70 0064 4AF07A8A 		.ascii	"J\360z\212\0378\004u\375%Q\316UJ\257\306\311D\255\315"
  70      1F380475 
  70      FD2551CE 
  70      554AAFC6 
  70      C944ADCD 
  71 0078 0499010D 		.ascii	"\004\231\001\015;L[\17766 \033\343\202\262J[6\262\330"
  71      3B4C5B7F 
  71      3636201B 
  71      E382B24A 
  71      5B36B2D8 
  72 008c 535D8566 		.ascii	"S]\205f\261UWC%\303\361\341E{\330,5P\320D}\025\300\010"
  72      B1555743 
  72      25C3F1E1 
  72      457BD82C 
  72      3550D044 
  73 00a4 250C11CB 		.ascii	"%\014\021\313>\325z\0131'/\262c\341!\226\340\210\243"
  73      3ED57A0B 
  73      31272FB2 
  73      63E12196 
  73      E088A3
  74 00b7 CAB986E9 		.ascii	"\312\271\206\351\367}\323x\353<\277\031q\025\0254,y"
  74      F77DD378 
  74      EB3CBF19 
  74      71151534 
  74      2C79
  75 00c9 11755827 		.ascii	"\021uX'\320\035\245d\325-4\277_\375z\273\012\271\353"
  75      D01DA564 
  75      D52D34BF 
  75      5FFD7ABB 
  75      0AB9EB
  76 00dc 6B8BEBDE 		.ascii	"k\213\353\336*4_EvUA+\010\346\306\217\317\225X\370Y"
ARM GAS  C:\Users\JEFFSN~1\AppData\Local\Temp\ccIRfv6V.s 			page 5


  76      2A345F45 
  76      7655412B 
  76      08E6C68F 
  76      CF9558F8 
  77 00f1 2AE68C28 		.ascii	"*\346\214(\366z\335\362\300\"\356\344\362lL\343\036"
  77      F67ADDF2 
  77      C022EEE4 
  77      F26C4CE3 
  77      1E
  78 0102 06711783 		.ascii	"\006q\027\203\314\277\217EP\013\376\317\323\344k\025"
  78      CCBF8F45 
  78      500BFECF 
  78      D3E46B15 
  79 0112 965B5E5B 		.ascii	"\226[^[\277\354\312}p<`\331G\344\267\374x\310\223\337"
  79      BFECCA7D 
  79      703C60D9 
  79      47E4B7FC 
  79      78C893DF 
  80 0126 AD6CD7BF 		.ascii	"\255l\327\277\305B\001\241,uH\374iZ\215\263\275\331"
  80      C54201A1 
  80      2C7548FC 
  80      695A8DB3 
  80      BDD9
  81 0138 DDEABBD7 		.ascii	"\335\352\273\327GD\375\2575+\260V\257ooE\262]s\305\230"
  81      4744FDAF 
  81      352BB056 
  81      AF6F6F45 
  81      B25D73C5 
  82 014d A39C9BE3 		.ascii	"\243\234\233\343&I\272\275\361f-*\366L\220\267Q\341"
  82      2649BABD 
  82      F1662D2A 
  82      F64C90B7 
  82      51E1
  83 015f CE3E94C2 		.ascii	"\316>\224\302|x\355Yu\316M\224\245kf\236\355;\250\262"
  83      7C78ED59 
  83      75CE4D94 
  83      A56B669E 
  83      ED3BA8B2 
  84 0173 E95ED05B 		.ascii	"\351^\320[\324\220`\311Jq\243\026\025\212\303\216\037"
  84      D49060C9 
  84      4A71A316 
  84      158AC38E 
  84      1F
  85 0184 05867694 		.ascii	"\005\206v\224E\233\211\300N\347\375\276\235\303\362"
  85      459B89C0 
  85      4EE7FDBE 
  85      9DC3F2
  86 0193 1F1FC85F 		.ascii	"\037\037\310_\376\313_\011\370\373\177\311\303\304\223"
  86      FECB5F09 
  86      F8FB7FC9 
  86      C3C493
  87 01a2 DF7C3B18 		.ascii	"\337|;\030\327\027\370\215\371u%\374\377\033\020\351"
  87      D717F88D 
  87      F97525FC 
  87      FF1B10E9 
  88 01b2 F3C4084F 		.ascii	"\363\304\010O\221\345Y\273\324\306lca$\220Jt\370\220"
  88      91E559BB 
ARM GAS  C:\Users\JEFFSN~1\AppData\Local\Temp\ccIRfv6V.s 			page 6


  88      D4C66C63 
  88      6124904A 
  88      74F890
  89 01c5 4B30E8F8 		.ascii	"K0\350\370\2107\345\315\214_\364&\323\251\314\245\231"
  89      8837E5CD 
  89      8C5FF426 
  89      D3A9CCA5 
  89      99
  90 01d6 096F6C34 		.ascii	"\011ol4\225I\236\034K\216O\247\274\251\013^:\2319?\235"
  90      95499E1C 
  90      4B8E4FA7 
  90      BCA90B5E 
  90      3A99393F 
  91 01eb 3C339C1E 		.ascii	"<3\234\036={b\202~\001R~\351p"
  91      3D7B6282 
  91      7E01527E 
  91      E970
  92              		.text
  93              		.section	.gnu.lto_CapSense_CompCH0_Wakeup.807cfced,"",%progbits
  94 0000 789C654F 		.ascii	"x\234eO\277KBQ\030\375\276{\237?\020\303\376\200\210"
  94      BF4B4251 
  94      18FDBE7B 
  94      9F3F10C3 
  94      FE8088
  95 0013 5607D3A1 		.ascii	"V\007\323\241\326\026\207\"\010$i\023D\354\215\251X"
  95      D6168722 
  95      08246913 
  95      44EC8DA9 
  95      58
  96 0024 CDEFFAE3 		.ascii	"\315\357\372\343U.\021Em\341\250\375.h\310\246\227\210"
  96      552E1145 
  96      6DE1A8FD 
  96      2E68C8A6 
  96      9788
  97 0036 42444D2D 		.ascii	"BDM-\265T\220\2044(\324\024\317\327w\237CC\007.\337"
  97      B5549084 
  97      3428D414 
  97      CFD7779F 
  97      4343072E 
  98 004b E5DC73EE 		.ascii	"\345\334s\3569\237\002\010\022\0134\2024'\350\240\003"
  98      399F0208 
  98      120B3482 
  98      3427E8A0 
  98      03
  99 005c 906DDD03 		.ascii	"\220m\335\003\344\334\214\361\246\017\204G\271\235\002"
  99      E4DC8CF1 
  99      A60F8447 
  99      B99D02
 100 006b E1E5A80C 		.ascii	"\341\345\250\014h\005Q^\204\033Ac\\A\015\277\231\311"
 100      6805515E 
 100      841B4163 
 100      5C410DBF 
 100      99C9
 101 007d B0BEDEAE 		.ascii	"\260\276\336\2561\177E\020^\336\177B\242j\240\316\001"
 101      317F4510 
 101      5EDE7F42 
 101      A26AA0CE 
ARM GAS  C:\Users\JEFFSN~1\AppData\Local\Temp\ccIRfv6V.s 			page 7


 101      01
 102 008e 2C664700 		.ascii	",fG\000V\320\017${\273\350\357\0169\213R66x\304*:e\217"
 102      56D00F24 
 102      7BBBE8EF 
 102      0E398B52 
 102      363678C4 
 103 00a6 B3794358 		.ascii	"\263yCXVA\030=\327\315\266\307\301A\347DwI\"\343z\214"
 103      5641183D 
 103      D7CDB6C7 
 103      C141E744 
 103      774922E3 
 104 00bc C9C9DB98 		.ascii	"\311\311\333\230\277\356\231=\227t\0258\247\037\367"
 104      BFEE993D 
 104      97741538 
 104      A71FF7
 105 00cb F4FA83EB 		.ascii	"\364\372\203\353\213\351\234\241\014\250\325>\237]\232"
 105      8BE99CA1 
 105      0CA8D53E 
 105      9F5D9A
 106 00da 29368418 		.ascii	")6\204\030&\256D\035$\335\271{lx\312\270\237\0236\317"
 106      26AE441D 
 106      24DDB97B 
 106      6C78CAB8 
 106      9F1336CF 
 107 00ee F1908A1F 		.ascii	"\361\220\212\037\340\210\375\270yu^r\007\003:ms\204"
 107      E088FDB8 
 107      79755E72 
 107      07033A6D 
 107      7384
 108 0100 65ECDB9D 		.ascii	"e\354\333\235\361\030\203\360\212\305\247\302\350_\330"
 108      F11883F0 
 108      8AC5A7C2 
 108      E85FD8
 109 010f 65A3B5E6 		.ascii	"e\243\265\346\226aH8\221v\220\33584}\374\003\013\206"
 109      96614838 
 109      917690DD 
 109      38347DFC 
 109      030B86
 110 0122 D9F24AF1 		.ascii	"\331\362J\361\377\"\016\213\352\001\236\242F{9m\223"
 110      FF220E8B 
 110      EA019EA2 
 110      467B396D 
 110      93
 111 0133 622FD4C1 		.ascii	"b/\324\301\274\2613k\233$\272$#\232\032\004\246\325"
 111      BCB1336B 
 111      9B24BA24 
 111      239A1A04 
 111      A6D5
 112 0145 949A4DAC 		.ascii	"\224\232M\254\250\213\361hz5\233Tc\221h:<\031\013'2"
 112      A88BF168 
 112      7A359B54 
 112      6391683A 
 112      3C190B27 
 113 015a 5135B5AC 		.ascii	"Q5\265\254\306\303\351\245Lx&\024\217\314\215'\341\027"
 113      C6C3E9A5 
 113      4C782614 
 113      8FCC8D27 
ARM GAS  C:\Users\JEFFSN~1\AppData\Local\Temp\ccIRfv6V.s 			page 8


 113      E117
 114 016c 717789F9 		.ascii	"qw\211\371"
 115              		.text
 116              		.section	.gnu.lto_.symbol_nodes.807cfced,"",%progbits
 117 0000 789C558A 		.ascii	"x\234U\212\271\015\2000\020\004\347\036\273\000b\002"
 117      B90D8030 
 117      1004E71E 
 117      BB006202 
 118 0010 28149D4B 		.ascii	"(\024\235K\240\036DHL\017H\324\2018\021\341MV3\273\216"
 118      A01E4448 
 118      4C0F48D4 
 118      813811E1 
 118      4D5633BB 
 119 0025 B0905109 		.ascii	"\260\220Q\011XO\310\332\332\234BCza\241\235(\320\006"
 119      584FC8DA 
 119      DA9C4243 
 119      7A61A19D 
 119      28D006
 120 0038 30F5B06E 		.ascii	"0\365\260n\220\022\376\211<\264)\271F\371\263i\341\270"
 120      9012FE89 
 120      3CB429B9 
 120      46F9B369 
 120      E1B8
 121 004a 1E31AFDC 		.ascii	"\0361\257\334\373\310\013\200\236\032\230"
 121      FBC80B80 
 121      9E1A98
 122              		.text
 123              		.section	.gnu.lto_.refs.807cfced,"",%progbits
 124 0000 789C05C1 		.ascii	"x\234\005\301\261\001\000\000\010\303\240\304\326\325"
 124      B1010000 
 124      08C3A0C4 
 124      D6D5
 125 000e FFCF158A 		.ascii	"\377\317\025\212\0340cj\326\022y\002r\0002"
 125      1C30636A 
 125      D6127902 
 125      720032
 126              		.text
 127              		.section	.gnu.lto_.decls.807cfced,"",%progbits
 128 0000 789C8D94 		.ascii	"x\234\215\224\177LSW\024\307\357y\257\024x\355\372\207"
 128      7F4C5357 
 128      14C7EF79 
 128      AF1478ED 
 128      FA87
 129 0012 6C4AB26E 		.ascii	"lJ\262naF\223f\211\010[L\374kY\322m\372\3176\263F\367"
 129      61469366 
 129      89085B4C 
 129      FC6B59D2 
 129      6DFACF36 
 130 0029 8F0929F5 		.ascii	"\217\011)\365\351\234\256\255\245]\342\177\227\037c"
 130      E99CAEAD 
 130      A55DE27F 
 130      971F63
 131 0038 2A7F0CA6 		.ascii	"*\177\014\246\262\024d0\311\020'\264h\251\300P\250\200"
 131      B2146430 
 131      C91027B4 
 131      68A9C050 
 131      A880
ARM GAS  C:\Users\JEFFSN~1\AppData\Local\Temp\ccIRfv6V.s 			page 9


 132 004a 5845B391 		.ascii	"XE\263\221\221%\004\2035\250\323\271E\026\232,f`w\356"
 132      91250483 
 132      35A8D3B9 
 132      45169A2C 
 132      666077EE 
 133 005e 7DEFF98A 		.ascii	"}\357\371\212-\2337\234\307=\367}\317\347\234{\356}"
 133      2D9B379C 
 133      C73DF77D 
 133      CFE79C7B 
 133      EE7D
 134 0070 3510206C 		.ascii	"5\020 l\014\346\020\362)NK\320R8\320%;\210>\214h\335"
 134      0CE610F2 
 134      294E4BD0 
 134      5238D025 
 134      3B883E8C 
 135 0086 6861B4B3 		.ascii	"ha\264\263h\021\264(Z\037\032#\\&\313G\267\272\2561"
 135      6811B428 
 135      5A1F1A23 
 135      5C26CB47 
 135      B7BAAE31 
 136 009a 405D7B76 		.ascii	"@]{v\204\263\350\302Yt,g\276\252\263\242]C\213\243M"
 136      84B3E8C2 
 136      59742C67 
 136      BEAAB3A2 
 136      5D438BA3 
 137 00af A08DA20D 		.ascii	"\240\215\242\015\241]G\353R\031\303h\202\032\027]\241"
 137      A15D47EB 
 137      5219C368 
 137      821A175D 
 137      A1
 138 00c0 46B687DC 		.ascii	"F\266\207\3344\346\377\261\"\377\261\337%\001R\255\275"
 138      34E6FFB1 
 138      22FFB1DF 
 138      250152AD 
 138      BD
 139 00d1 5FE5CDC0 		.ascii	"_\345\315\3004\210Dm*\001P\236\300\215(\306]\234\010"
 139      3488446D 
 139      2A01509E 
 139      C08D28C6 
 139      5D9C08
 140 00e4 4499684B 		.ascii	"D\231hKO\007Q%\2026\325a\374O\215\207\22468D\247\203"
 140      4F075125 
 140      8236D561 
 140      FC4F8D87 
 140      94363844 
 141 00fa 1AA4F85A 		.ascii	"\032\244\370Z_\325 \020\364\004\240\270ZD\032\357\231"
 141      5FD52010 
 141      F404A0B8 
 141      5A441AEF 
 141      99
 142 010b 8AB49AB5 		.ascii	"\212\264\232\2654\274\035|\323\217\016U\327\232D\001"
 142      34BC1D7C 
 142      D38F0E55 
 142      D79A4401 
 143 011b D8FCD6E3 		.ascii	"\330\374\326\343\316\367\212\273(\216zJ\205\267\364"
 143      CEF78ABB 
 143      288E7A4A 
ARM GAS  C:\Users\JEFFSN~1\AppData\Local\Temp\ccIRfv6V.s 			page 10


 143      85B7F4
 144 012a CE4CD6F4 		.ascii	"\316L\326\364\234\020\223\002\254\222\300\200\356_7"
 144      9C109302 
 144      AC92C080 
 144      EE5F37
 145 0139 9AE62CE8 		.ascii	"\232\346,\350\276(A\021\272KW\233\233\204\302F\036W"
 145      BE284111 
 145      BA4B579B 
 145      9B84C246 
 145      1E57
 146 014b 4D8B0CB0 		.ascii	"M\213\014\260c5\234\001+\374\000x(\320\005\205\370,"
 146      63359C01 
 146      2BFC0078 
 146      28D00585 
 146      F82C
 147 015d 3728A4D1 		.ascii	"7(\244\321\206G\017\215k\333\350|\017M\264\016\274\021"
 147      86470F8D 
 147      6BDBE87C 
 147      0F4DB40E 
 147      BC11
 148 016f A4B11A4A 		.ascii	"\244\261\032J+\005\246\202N\020\3414\024\263\";\331"
 148      2B05A682 
 148      4E10E134 
 148      14B3223B 
 148      D9
 149 0180 19103805 		.ascii	"\031\0208\0053Xo7\254\305\310\331\303\1777\347\213\333"
 149      33586F37 
 149      ACC5C8D9 
 149      C37F37E7 
 149      8BDB
 150 0192 79A11763 		.ascii	"y\241\027c\223\303\026\205\022K\312\3640\245U\006\216"
 150      93C31685 
 150      124BCAF4 
 150      30A55506 
 150      8E
 151 01a3 08E98850 		.ascii	"\010\351\210P:\"\314\021\355\035\301E\263\350\347\210"
 151      3A22CC11 
 151      ED1DC145 
 151      B3E8E788 
 152 01b3 F854B0C3 		.ascii	"\370T\260\303\200\2106DL\215\233i}%\245osF\217\316\350"
 152      80883644 
 152      4C8D9B69 
 152      7D25A56F 
 152      73468FCE 
 153 01c8 49679CE5 		.ascii	"Ig\234\345\214\321\207s\225 \326\001\2074\366\207gA"
 153      8CD18773 
 153      9520D601 
 153      8734F687 
 153      6741
 154 01da 85CC5E49 		.ascii	"\205\314^I\207\234\323!\347\322!\021\016\251\033\213"
 154      879CD321 
 154      E7D22111 
 154      0EA91B8B 
 155 01ea DEB488ED 		.ascii	"\336\264\210\355\012dh\262\3766\253$Aib\241\356\235"
 155      0A6468B2 
 155      FE36AB24 
 155      416962A1 
ARM GAS  C:\Users\JEFFSN~1\AppData\Local\Temp\ccIRfv6V.s 			page 11


 155      EE9D
 156 01fc 86F6DA58 		.ascii	"\206\366\332X=\360\276A\257N\351\345\024\234D9\341X"
 156      3DF0BE41 
 156      AF4EE9E5 
 156      149C4439 
 156      E158
 157 020e A8654010 		.ascii	"\250e@\020\357(\204\351\261\373\267\314\012!\326R+\006"
 157      EF2884E9 
 157      B1FBB7CC 
 157      0A21D652 
 157      2B06
 158 0220 E988D28D 		.ascii	"\351\210\322\215\363z\370y-\274\217\207\177{aq\321\""
 158      F37AF879 
 158      2DBC8F87 
 158      7F7B6171 
 158      D122
 159 0232 2E2AE123 		.ascii	".*\341#\2157\247\314\3421\345\016\204\277\270s:\017"
 159      8D37A7CC 
 159      E231E50E 
 159      84BFB873 
 159      3A0F
 160 0244 CFD62A41 		.ascii	"\317\326*A\012\230\377\307\300\343\027\024\237\275\016"
 160      0A98FFC7 
 160      C0E31714 
 160      9FBD0E
 161 0253 36CC3D31 		.ascii	"6\314=1\211m\\+\3742w\346\201\001lR\007;\372D\313\321"
 161      896D5C2B 
 161      FC3277E6 
 161      81016C52 
 161      073BFA44 
 162 0269 DDDF7C89 		.ascii	"\335\337|\211\367\006\206@\202\013zj\253\204\317CxD"
 162      F7068640 
 162      820B7A6A 
 162      AB84CF43 
 162      7844
 163 027b 74FE2435 		.ascii	"t\376$5\026\022x\323\012%V\002\027\301\306\250L\005"
 163      161278D3 
 163      0A255602 
 163      17C1C6A8 
 163      4C05
 164 028d 83785D7E 		.ascii	"\203x]~\304\353\262$\210S\343}\337\233`]\201\355$\013"
 164      C4EBB224 
 164      8853E37D 
 164      DF9B605D 
 164      81ED240B 
 165 02a1 492C4C6C 		.ascii	"I,Llh\016QZm\344\330\001\304\306\240@Cld\027\254\224"
 165      680E515A 
 165      6DE4D801 
 165      C4C6A040 
 165      436C6417 
 166 02b7 7DFA0DAC 		.ascii	"}\372\015\254\204\371*J\341\200\226\200p%\342\341\022"
 166      84F92A4A 
 166      E1809680 
 166      7025E2E1 
 166      12
 167 02c8 661A8675 		.ascii	"f\032\206u\274\001\274\326XD\2464\217\275'j\225\352"
 167      BC01BCD6 
ARM GAS  C:\Users\JEFFSN~1\AppData\Local\Temp\ccIRfv6V.s 			page 12


 167      5844A634 
 167      8FBD276A 
 167      95EA
 168 02da 450F3D39 		.ascii	"E\017=9\321g\026\343\312\366~\377\351n\322\004\005\266"
 168      D16716E3 
 168      CAF67EFF 
 168      E96ED204 
 168      05B6
 169 02ec 2C6C1843 		.ascii	",l\030C\344\312\370\301|l\303(\276\036\321\333\300\222"
 169      E4CAF8C1 
 169      7C6CC328 
 169      BE1ED1DB 
 169      C092
 170 02fe F11CB7A7 		.ascii	"\361\034\267\247O\035\311]\337N)\036Xk\364@\262\212"
 170      4F1DC95D 
 170      DF4E291E 
 170      586BF440 
 170      B28A
 171 0310 6EE5DA7E 		.ascii	"n\345\332~E\373\264\372~\376;t\031\326cL\262f\341W\243"
 171      45FBB4FA 
 171      7EFE3B74 
 171      19D6634C 
 171      B266E157 
 172 0325 844DAC7E 		.ascii	"\204M\254~\256&\302\215\007\337\245r\305{\312>\"\307"
 172      AE26C28D 
 172      07DFA572 
 172      C57BCA3E 
 172      22C7
 173 0337 83C77341 		.ascii	"\203\307sA\262e\011\277\232%\\;\315\017\233\276\256"
 173      B26509BF 
 173      9A255C3B 
 173      CD0F9BBE 
 173      AE
 174 0348 A44510C7 		.ascii	"\244E\020\307\266_\321\2671\016\222\262\215\336\237"
 174      B65FD1B7 
 174      310E92B2 
 174      8DDE9F
 175 0357 FF0CE798 		.ascii	"\377\014\347\230\217\260C\302\257~U\334\302\225\372"
 175      8FB043C2 
 175      AF7E55DC 
 175      C295FA
 176 0366 777F0DCC 		.ascii	"w\177\015\314\374\302\341\177T/\314\317\034\025\226"
 176      FCC2E17F 
 176      542FCCCF 
 176      1C1596
 177 0375 A9D99675 		.ascii	"\251\331\226u\365\204\252\236\340\352\177\356\206\177"
 177      F584AA9E 
 177      E0EA7FEE 
 177      867F
 178 0383 332F53B3 		.ascii	"3/S\263\353\254\253\257\203Y\253\007\247\344e\273\323"
 178      EBACABAF 
 178      8359AB07 
 178      A7E465BB 
 178      D3
 179 0394 EB90DD15 		.ascii	"\353\220\335\025r\231\335\363\231\327\276\265\244\314"
 179      7299DDF3 
 179      99D7BEB5 
ARM GAS  C:\Users\JEFFSN~1\AppData\Local\Temp\ccIRfv6V.s 			page 13


 179      A4CC
 180 03a2 E1FC5CB6 		.ascii	"\341\374\\\266{\334\273\367\356\311\333\362\301\366"
 180      7BDCBBF7 
 180      EEC9DBF2 
 180      C1F6
 181 03b0 227B6929 		.ascii	"\"{i)\331\260Ev\313>\247_\336U\346\360\004|.y\3476\207"
 181      D9B04576 
 181      CB3EA75F 
 181      DE55E6F0 
 181      047C2E79 
 182 03c7 C7BE6967 		.ascii	"\307\276igF\354\266\367\213]\344\325\214\345\217\344"
 182      46ECB6F7 
 182      8B5DE4D5 
 182      8CE58FE4 
 183 03d7 0ABFC7A7 		.ascii	"\012\277\307\247RWgf\334/\313\3365\031\313\037;\367"
 183      52576766 
 183      DC2FCBDE 
 183      3519CB1F 
 183      3BF7
 184 03e9 C901EF4B 		.ascii	"\311\001\357K\231r\277\307\373\372sVT\374\011\311\004"
 184      9972BFC7 
 184      FBFA7356 
 184      54FC09C9 
 184      04
 185 03fa BFEB7696 		.ascii	"\277\353v\226\357\2273\327\313\235\256}\001\257I\346"
 185      EF9733D7 
 185      CB9DAE7D 
 185      01AF49E6 
 186 040a AF1D7EA4 		.ascii	"\257\035~\244\347\004\366\272\375\233_[!\231\353\240"
 186      E704F6BA 
 186      FD9B5F5B 
 186      2199EBA0 
 187 041a FFA057AE 		.ascii	"\377\240W\256\300\034\257\254\300r\370}\001\227\337"
 187      C01CAFAC 
 187      C072F87D 
 187      0197DF
 188 0429 E093F76C 		.ascii	"\340\223\367l\376\027\011j)\202"
 188      FE17096A 
 188      2982
 189              		.text
 190              		.section	.gnu.lto_.symtab.807cfced,"",%progbits
 191 0000 43617053 		.ascii	"CapSense_CompCH0_SaveConfig\000"
 191      656E7365 
 191      5F436F6D 
 191      70434830 
 191      5F536176 
 192 001c 00       		.ascii	"\000"
 193 001d 00       		.ascii	"\000"
 194 001e 00       		.ascii	"\000"
 195 001f 00000000 		.ascii	"\000\000\000\000\000\000\000\000"
 195      00000000 
 196 0027 AD000000 		.ascii	"\255\000\000\000"
 197 002b 43617053 		.ascii	"CapSense_CompCH0_RestoreConfig\000"
 197      656E7365 
 197      5F436F6D 
 197      70434830 
 197      5F526573 
ARM GAS  C:\Users\JEFFSN~1\AppData\Local\Temp\ccIRfv6V.s 			page 14


 198 004a 00       		.ascii	"\000"
 199 004b 00       		.ascii	"\000"
 200 004c 00       		.ascii	"\000"
 201 004d 00000000 		.ascii	"\000\000\000\000\000\000\000\000"
 201      00000000 
 202 0055 AF000000 		.ascii	"\257\000\000\000"
 203 0059 43617053 		.ascii	"CapSense_CompCH0_Sleep\000"
 203      656E7365 
 203      5F436F6D 
 203      70434830 
 203      5F536C65 
 204 0070 00       		.ascii	"\000"
 205 0071 00       		.ascii	"\000"
 206 0072 00       		.ascii	"\000"
 207 0073 00000000 		.ascii	"\000\000\000\000\000\000\000\000"
 207      00000000 
 208 007b B1000000 		.ascii	"\261\000\000\000"
 209 007f 43617053 		.ascii	"CapSense_CompCH0_Wakeup\000"
 209      656E7365 
 209      5F436F6D 
 209      70434830 
 209      5F57616B 
 210 0097 00       		.ascii	"\000"
 211 0098 00       		.ascii	"\000"
 212 0099 00       		.ascii	"\000"
 213 009a 00000000 		.ascii	"\000\000\000\000\000\000\000\000"
 213      00000000 
 214 00a2 B3000000 		.ascii	"\263\000\000\000"
 215 00a6 43617053 		.ascii	"CapSense_CompCH0_Stop\000"
 215      656E7365 
 215      5F436F6D 
 215      70434830 
 215      5F53746F 
 216 00bc 00       		.ascii	"\000"
 217 00bd 02       		.ascii	"\002"
 218 00be 00       		.ascii	"\000"
 219 00bf 00000000 		.ascii	"\000\000\000\000\000\000\000\000"
 219      00000000 
 220 00c7 B5000000 		.ascii	"\265\000\000\000"
 221 00cb 43617053 		.ascii	"CapSense_CompCH0_Enable\000"
 221      656E7365 
 221      5F436F6D 
 221      70434830 
 221      5F456E61 
 222 00e3 00       		.ascii	"\000"
 223 00e4 02       		.ascii	"\002"
 224 00e5 00       		.ascii	"\000"
 225 00e6 00000000 		.ascii	"\000\000\000\000\000\000\000\000"
 225      00000000 
 226 00ee B7000000 		.ascii	"\267\000\000\000"
 227              		.text
 228              		.section	.gnu.lto_.opts,"",%progbits
 229 0000 272D666D 		.ascii	"'-fmath-errno' '-fsigned-zeros' '-ftrapping-math' '"
 229      6174682D 
 229      6572726E 
 229      6F272027 
 229      2D667369 
ARM GAS  C:\Users\JEFFSN~1\AppData\Local\Temp\ccIRfv6V.s 			page 15


 230 0033 2D666E6F 		.ascii	"-fno-trapv' '-fno-openmp' '-fno-openacc' '-mcpu=cor"
 230      2D747261 
 230      70762720 
 230      272D666E 
 230      6F2D6F70 
 231 0066 7465782D 		.ascii	"tex-m3' '-mthumb' '-g' '-O3' '-ffunction-sections' "
 231      6D332720 
 231      272D6D74 
 231      68756D62 
 231      2720272D 
 232 0099 272D6666 		.ascii	"'-ffat-lto-objects' '-finline-functions' '-flto'\000"
 232      61742D6C 
 232      746F2D6F 
 232      626A6563 
 232      74732720 
 233              		.text
 234              		.cfi_sections	.debug_frame
 235              		.section	.text.CapSense_CompCH0_SaveConfig,"ax",%progbits
 236              		.align	2
 237              		.global	CapSense_CompCH0_SaveConfig
 238              		.thumb
 239              		.thumb_func
 240              		.type	CapSense_CompCH0_SaveConfig, %function
 241              	CapSense_CompCH0_SaveConfig:
 242              	.LFB5:
 243              		.cfi_startproc
 244              		@ args = 0, pretend = 0, frame = 0
 245              		@ frame_needed = 0, uses_anonymous_args = 0
 246              		@ link register save eliminated.
 247 0000 7047     		bx	lr
 248              		.cfi_endproc
 249              	.LFE5:
 250              		.size	CapSense_CompCH0_SaveConfig, .-CapSense_CompCH0_SaveConfig
 251 0002 00BF     		.section	.text.CapSense_CompCH0_RestoreConfig,"ax",%progbits
 252              		.align	2
 253              		.global	CapSense_CompCH0_RestoreConfig
 254              		.thumb
 255              		.thumb_func
 256              		.type	CapSense_CompCH0_RestoreConfig, %function
 257              	CapSense_CompCH0_RestoreConfig:
 258              	.LFB1:
 259              		.file 1 "Generated_Source\\PSoC5\\CapSense_CompCH0_PM.c"
   1:Generated_Source\PSoC5/CapSense_CompCH0_PM.c **** /*******************************************************************************
   2:Generated_Source\PSoC5/CapSense_CompCH0_PM.c **** * File Name: CapSense_CompCH0.c
   3:Generated_Source\PSoC5/CapSense_CompCH0_PM.c **** * Version 2.0
   4:Generated_Source\PSoC5/CapSense_CompCH0_PM.c **** *
   5:Generated_Source\PSoC5/CapSense_CompCH0_PM.c **** * Description:
   6:Generated_Source\PSoC5/CapSense_CompCH0_PM.c **** *  This file provides the power management source code APIs for the
   7:Generated_Source\PSoC5/CapSense_CompCH0_PM.c **** *  Comparator.
   8:Generated_Source\PSoC5/CapSense_CompCH0_PM.c **** *
   9:Generated_Source\PSoC5/CapSense_CompCH0_PM.c **** * Note:
  10:Generated_Source\PSoC5/CapSense_CompCH0_PM.c **** *  None
  11:Generated_Source\PSoC5/CapSense_CompCH0_PM.c **** *
  12:Generated_Source\PSoC5/CapSense_CompCH0_PM.c **** ********************************************************************************
  13:Generated_Source\PSoC5/CapSense_CompCH0_PM.c **** * Copyright 2008-2012, Cypress Semiconductor Corporation.  All rights reserved.
  14:Generated_Source\PSoC5/CapSense_CompCH0_PM.c **** * You may use this file only in accordance with the license, terms, conditions, 
  15:Generated_Source\PSoC5/CapSense_CompCH0_PM.c **** * disclaimers, and limitations in the end user license agreement accompanying 
ARM GAS  C:\Users\JEFFSN~1\AppData\Local\Temp\ccIRfv6V.s 			page 16


  16:Generated_Source\PSoC5/CapSense_CompCH0_PM.c **** * the software package with which this file was provided.
  17:Generated_Source\PSoC5/CapSense_CompCH0_PM.c **** *******************************************************************************/
  18:Generated_Source\PSoC5/CapSense_CompCH0_PM.c **** 
  19:Generated_Source\PSoC5/CapSense_CompCH0_PM.c **** #include "CapSense_CompCH0.h"
  20:Generated_Source\PSoC5/CapSense_CompCH0_PM.c **** 
  21:Generated_Source\PSoC5/CapSense_CompCH0_PM.c **** static CapSense_CompCH0_backupStruct CapSense_CompCH0_backup;
  22:Generated_Source\PSoC5/CapSense_CompCH0_PM.c **** 
  23:Generated_Source\PSoC5/CapSense_CompCH0_PM.c **** 
  24:Generated_Source\PSoC5/CapSense_CompCH0_PM.c **** /*******************************************************************************
  25:Generated_Source\PSoC5/CapSense_CompCH0_PM.c **** * Function Name: CapSense_CompCH0_SaveConfig
  26:Generated_Source\PSoC5/CapSense_CompCH0_PM.c **** ********************************************************************************
  27:Generated_Source\PSoC5/CapSense_CompCH0_PM.c **** *
  28:Generated_Source\PSoC5/CapSense_CompCH0_PM.c **** * Summary:
  29:Generated_Source\PSoC5/CapSense_CompCH0_PM.c **** *  Save the current user configuration
  30:Generated_Source\PSoC5/CapSense_CompCH0_PM.c **** *
  31:Generated_Source\PSoC5/CapSense_CompCH0_PM.c **** * Parameters:
  32:Generated_Source\PSoC5/CapSense_CompCH0_PM.c **** *  void:
  33:Generated_Source\PSoC5/CapSense_CompCH0_PM.c **** *
  34:Generated_Source\PSoC5/CapSense_CompCH0_PM.c **** * Return:
  35:Generated_Source\PSoC5/CapSense_CompCH0_PM.c **** *  void
  36:Generated_Source\PSoC5/CapSense_CompCH0_PM.c **** *
  37:Generated_Source\PSoC5/CapSense_CompCH0_PM.c **** *******************************************************************************/
  38:Generated_Source\PSoC5/CapSense_CompCH0_PM.c **** void CapSense_CompCH0_SaveConfig(void) 
  39:Generated_Source\PSoC5/CapSense_CompCH0_PM.c **** {
  40:Generated_Source\PSoC5/CapSense_CompCH0_PM.c ****     /* Empty since all are system reset for retention flops */
  41:Generated_Source\PSoC5/CapSense_CompCH0_PM.c **** }
  42:Generated_Source\PSoC5/CapSense_CompCH0_PM.c **** 
  43:Generated_Source\PSoC5/CapSense_CompCH0_PM.c **** 
  44:Generated_Source\PSoC5/CapSense_CompCH0_PM.c **** /*******************************************************************************
  45:Generated_Source\PSoC5/CapSense_CompCH0_PM.c **** * Function Name: CapSense_CompCH0_RestoreConfig
  46:Generated_Source\PSoC5/CapSense_CompCH0_PM.c **** ********************************************************************************
  47:Generated_Source\PSoC5/CapSense_CompCH0_PM.c **** *
  48:Generated_Source\PSoC5/CapSense_CompCH0_PM.c **** * Summary:
  49:Generated_Source\PSoC5/CapSense_CompCH0_PM.c **** *  Restores the current user configuration.
  50:Generated_Source\PSoC5/CapSense_CompCH0_PM.c **** *
  51:Generated_Source\PSoC5/CapSense_CompCH0_PM.c **** * Parameters:
  52:Generated_Source\PSoC5/CapSense_CompCH0_PM.c **** *  void
  53:Generated_Source\PSoC5/CapSense_CompCH0_PM.c **** *
  54:Generated_Source\PSoC5/CapSense_CompCH0_PM.c **** * Return:
  55:Generated_Source\PSoC5/CapSense_CompCH0_PM.c **** *  void
  56:Generated_Source\PSoC5/CapSense_CompCH0_PM.c **** *
  57:Generated_Source\PSoC5/CapSense_CompCH0_PM.c **** ********************************************************************************/
  58:Generated_Source\PSoC5/CapSense_CompCH0_PM.c **** void CapSense_CompCH0_RestoreConfig(void) 
  59:Generated_Source\PSoC5/CapSense_CompCH0_PM.c **** {
 260              		.loc 1 59 0
 261              		.cfi_startproc
 262              		@ args = 0, pretend = 0, frame = 0
 263              		@ frame_needed = 0, uses_anonymous_args = 0
 264              		@ link register save eliminated.
 265 0000 7047     		bx	lr
 266              		.cfi_endproc
 267              	.LFE1:
 268              		.size	CapSense_CompCH0_RestoreConfig, .-CapSense_CompCH0_RestoreConfig
 269 0002 00BF     		.section	.text.CapSense_CompCH0_Sleep,"ax",%progbits
 270              		.align	2
 271              		.global	CapSense_CompCH0_Sleep
 272              		.thumb
ARM GAS  C:\Users\JEFFSN~1\AppData\Local\Temp\ccIRfv6V.s 			page 17


 273              		.thumb_func
 274              		.type	CapSense_CompCH0_Sleep, %function
 275              	CapSense_CompCH0_Sleep:
 276              	.LFB2:
  60:Generated_Source\PSoC5/CapSense_CompCH0_PM.c ****     /* Empty since all are system reset for retention flops */    
  61:Generated_Source\PSoC5/CapSense_CompCH0_PM.c **** }
  62:Generated_Source\PSoC5/CapSense_CompCH0_PM.c **** 
  63:Generated_Source\PSoC5/CapSense_CompCH0_PM.c **** 
  64:Generated_Source\PSoC5/CapSense_CompCH0_PM.c **** /*******************************************************************************
  65:Generated_Source\PSoC5/CapSense_CompCH0_PM.c **** * Function Name: CapSense_CompCH0_Sleep
  66:Generated_Source\PSoC5/CapSense_CompCH0_PM.c **** ********************************************************************************
  67:Generated_Source\PSoC5/CapSense_CompCH0_PM.c **** *
  68:Generated_Source\PSoC5/CapSense_CompCH0_PM.c **** * Summary:
  69:Generated_Source\PSoC5/CapSense_CompCH0_PM.c **** *  Stop and Save the user configuration
  70:Generated_Source\PSoC5/CapSense_CompCH0_PM.c **** *
  71:Generated_Source\PSoC5/CapSense_CompCH0_PM.c **** * Parameters:
  72:Generated_Source\PSoC5/CapSense_CompCH0_PM.c **** *  void:
  73:Generated_Source\PSoC5/CapSense_CompCH0_PM.c **** *
  74:Generated_Source\PSoC5/CapSense_CompCH0_PM.c **** * Return:
  75:Generated_Source\PSoC5/CapSense_CompCH0_PM.c **** *  void
  76:Generated_Source\PSoC5/CapSense_CompCH0_PM.c **** *
  77:Generated_Source\PSoC5/CapSense_CompCH0_PM.c **** * Global variables:
  78:Generated_Source\PSoC5/CapSense_CompCH0_PM.c **** *  CapSense_CompCH0_backup.enableState:  Is modified depending on the enable 
  79:Generated_Source\PSoC5/CapSense_CompCH0_PM.c **** *   state of the block before entering sleep mode.
  80:Generated_Source\PSoC5/CapSense_CompCH0_PM.c **** *
  81:Generated_Source\PSoC5/CapSense_CompCH0_PM.c **** *******************************************************************************/
  82:Generated_Source\PSoC5/CapSense_CompCH0_PM.c **** void CapSense_CompCH0_Sleep(void) 
  83:Generated_Source\PSoC5/CapSense_CompCH0_PM.c **** {
 277              		.loc 1 83 0
 278              		.cfi_startproc
 279              		@ args = 0, pretend = 0, frame = 0
 280              		@ frame_needed = 0, uses_anonymous_args = 0
 281              		@ link register save eliminated.
  84:Generated_Source\PSoC5/CapSense_CompCH0_PM.c ****     /* Save Comp's enable state */    
  85:Generated_Source\PSoC5/CapSense_CompCH0_PM.c ****     if(CapSense_CompCH0_ACT_PWR_EN == (CapSense_CompCH0_PWRMGR & CapSense_CompCH0_ACT_PWR_EN))
 282              		.loc 1 85 0
 283 0000 034B     		ldr	r3, .L4
 284 0002 044A     		ldr	r2, .L4+4
 285 0004 1B78     		ldrb	r3, [r3]	@ zero_extendqisi2
 286 0006 03F00103 		and	r3, r3, #1
 287 000a 1370     		strb	r3, [r2]
  86:Generated_Source\PSoC5/CapSense_CompCH0_PM.c ****     {
  87:Generated_Source\PSoC5/CapSense_CompCH0_PM.c ****         /* Comp is enabled */
  88:Generated_Source\PSoC5/CapSense_CompCH0_PM.c ****         CapSense_CompCH0_backup.enableState = 1u;
  89:Generated_Source\PSoC5/CapSense_CompCH0_PM.c ****     }
  90:Generated_Source\PSoC5/CapSense_CompCH0_PM.c ****     else
  91:Generated_Source\PSoC5/CapSense_CompCH0_PM.c ****     {
  92:Generated_Source\PSoC5/CapSense_CompCH0_PM.c ****         /* Comp is disabled */
  93:Generated_Source\PSoC5/CapSense_CompCH0_PM.c ****         CapSense_CompCH0_backup.enableState = 0u;
  94:Generated_Source\PSoC5/CapSense_CompCH0_PM.c ****     }    
  95:Generated_Source\PSoC5/CapSense_CompCH0_PM.c ****     
  96:Generated_Source\PSoC5/CapSense_CompCH0_PM.c ****     CapSense_CompCH0_Stop();
 288              		.loc 1 96 0
 289 000c FFF7FEBF 		b	CapSense_CompCH0_Stop
 290              	.LVL0:
 291              	.L5:
 292              		.align	2
ARM GAS  C:\Users\JEFFSN~1\AppData\Local\Temp\ccIRfv6V.s 			page 18


 293              	.L4:
 294 0010 A7430040 		.word	1073759143
 295 0014 00000000 		.word	.LANCHOR0
 296              		.cfi_endproc
 297              	.LFE2:
 298              		.size	CapSense_CompCH0_Sleep, .-CapSense_CompCH0_Sleep
 299              		.section	.text.CapSense_CompCH0_Wakeup,"ax",%progbits
 300              		.align	2
 301              		.global	CapSense_CompCH0_Wakeup
 302              		.thumb
 303              		.thumb_func
 304              		.type	CapSense_CompCH0_Wakeup, %function
 305              	CapSense_CompCH0_Wakeup:
 306              	.LFB3:
  97:Generated_Source\PSoC5/CapSense_CompCH0_PM.c ****     CapSense_CompCH0_SaveConfig();
  98:Generated_Source\PSoC5/CapSense_CompCH0_PM.c **** }
  99:Generated_Source\PSoC5/CapSense_CompCH0_PM.c **** 
 100:Generated_Source\PSoC5/CapSense_CompCH0_PM.c **** 
 101:Generated_Source\PSoC5/CapSense_CompCH0_PM.c **** /*******************************************************************************
 102:Generated_Source\PSoC5/CapSense_CompCH0_PM.c **** * Function Name: CapSense_CompCH0_Wakeup
 103:Generated_Source\PSoC5/CapSense_CompCH0_PM.c **** ********************************************************************************
 104:Generated_Source\PSoC5/CapSense_CompCH0_PM.c **** *
 105:Generated_Source\PSoC5/CapSense_CompCH0_PM.c **** * Summary:
 106:Generated_Source\PSoC5/CapSense_CompCH0_PM.c **** *  Restores and enables the user configuration
 107:Generated_Source\PSoC5/CapSense_CompCH0_PM.c **** *  
 108:Generated_Source\PSoC5/CapSense_CompCH0_PM.c **** * Parameters:
 109:Generated_Source\PSoC5/CapSense_CompCH0_PM.c **** *  void
 110:Generated_Source\PSoC5/CapSense_CompCH0_PM.c **** *
 111:Generated_Source\PSoC5/CapSense_CompCH0_PM.c **** * Return:
 112:Generated_Source\PSoC5/CapSense_CompCH0_PM.c **** *  void
 113:Generated_Source\PSoC5/CapSense_CompCH0_PM.c **** *
 114:Generated_Source\PSoC5/CapSense_CompCH0_PM.c **** * Global variables:
 115:Generated_Source\PSoC5/CapSense_CompCH0_PM.c **** *  CapSense_CompCH0_backup.enableState:  Is used to restore the enable state of 
 116:Generated_Source\PSoC5/CapSense_CompCH0_PM.c **** *  block on wakeup from sleep mode.
 117:Generated_Source\PSoC5/CapSense_CompCH0_PM.c **** *
 118:Generated_Source\PSoC5/CapSense_CompCH0_PM.c **** *******************************************************************************/
 119:Generated_Source\PSoC5/CapSense_CompCH0_PM.c **** void CapSense_CompCH0_Wakeup(void) 
 120:Generated_Source\PSoC5/CapSense_CompCH0_PM.c **** {
 307              		.loc 1 120 0
 308              		.cfi_startproc
 309              		@ args = 0, pretend = 0, frame = 0
 310              		@ frame_needed = 0, uses_anonymous_args = 0
 311              		@ link register save eliminated.
 121:Generated_Source\PSoC5/CapSense_CompCH0_PM.c ****     CapSense_CompCH0_RestoreConfig();
 122:Generated_Source\PSoC5/CapSense_CompCH0_PM.c ****     
 123:Generated_Source\PSoC5/CapSense_CompCH0_PM.c ****     if(CapSense_CompCH0_backup.enableState == 1u)
 312              		.loc 1 123 0
 313 0000 034B     		ldr	r3, .L10
 314 0002 1B78     		ldrb	r3, [r3]	@ zero_extendqisi2
 315 0004 012B     		cmp	r3, #1
 316 0006 00D0     		beq	.L9
 317 0008 7047     		bx	lr
 318              	.L9:
 124:Generated_Source\PSoC5/CapSense_CompCH0_PM.c ****     {
 125:Generated_Source\PSoC5/CapSense_CompCH0_PM.c ****         /* Enable Comp's operation */
 126:Generated_Source\PSoC5/CapSense_CompCH0_PM.c ****         CapSense_CompCH0_Enable();
 319              		.loc 1 126 0
ARM GAS  C:\Users\JEFFSN~1\AppData\Local\Temp\ccIRfv6V.s 			page 19


 320 000a FFF7FEBF 		b	CapSense_CompCH0_Enable
 321              	.LVL1:
 322              	.L11:
 323 000e 00BF     		.align	2
 324              	.L10:
 325 0010 00000000 		.word	.LANCHOR0
 326              		.cfi_endproc
 327              	.LFE3:
 328              		.size	CapSense_CompCH0_Wakeup, .-CapSense_CompCH0_Wakeup
 329              		.bss
 330              		.align	2
 331              		.set	.LANCHOR0,. + 0
 332              		.type	CapSense_CompCH0_backup, %object
 333              		.size	CapSense_CompCH0_backup, 1
 334              	CapSense_CompCH0_backup:
 335 0000 00       		.space	1
 336              		.text
 337              	.Letext0:
 338              		.file 2 "Generated_Source\\PSoC5\\cytypes.h"
 339              		.file 3 "Generated_Source\\PSoC5\\CapSense_CompCH0.h"