ARM GAS  C:\Users\JEFFSN~1\AppData\Local\Temp\cc4Jbhvf.s 			page 1


   1              		.syntax unified
   2              		.cpu cortex-m3
   3              		.fpu softvfp
   4              		.eabi_attribute 20, 1
   5              		.eabi_attribute 21, 1
   6              		.eabi_attribute 23, 3
   7              		.eabi_attribute 24, 1
   8              		.eabi_attribute 25, 1
   9              		.eabi_attribute 26, 1
  10              		.eabi_attribute 30, 1
  11              		.eabi_attribute 34, 1
  12              		.eabi_attribute 18, 4
  13              		.thumb
  14              		.syntax unified
  15              		.file	"CapSense_IdacCH1_PM.c"
  16              		.text
  17              	.Ltext0:
  18              		.section	.gnu.lto_.profile.1c02d3dd,"",%progbits
  19 0000 789C6361 		.ascii	"x\234ca`d`a`\000\222\261:\000\001P\000\224"
  19      60646061 
  19      600092B1 
  19      3A000150 
  19      0094
  20              		.text
  21              		.section	.gnu.lto_.inline.1c02d3dd,"",%progbits
  22 0000 789C6361 		.ascii	"x\234ca`d\000\201,\006\004`a`\340dgd`\3429\021\310\300"
  22      60640081 
  22      2C060460 
  22      6160E064 
  22      676460E2 
  23 0018 B6409E09 		.ascii	"\266@\236\011$\306\304 \312\015\024R\371\320\313\010"
  23      24C6C420 
  23      CA0D1452 
  23      F9D0CB08 
  24 0028 176366E0 		.ascii	"\027cf\340\226\006)\233\340\007\027b\344\202\021,\014"
  24      9606299B 
  24      E0071762 
  24      E482112C 
  24      0C
  25 0039 DCC24049 		.ascii	"\334\302@I\216\177\206\0103\270\201r\023\374\020j\030"
  25      8E7F8608 
  25      33B88172 
  25      13FC106A 
  25      18
  26 004a 006CE50A 		.ascii	"\000l\345\012\031"
  26      19
  27              		.text
  28              		.section	.gnu.lto_.jmpfuncs.1c02d3dd,"",%progbits
  29 0000 789C6361 		.ascii	"x\234ca`d\000\001a\006\004`\001b&\006\006f\030\033\010"
  29      60640001 
  29      61060460 
  29      01622606 
  29      0666181B 
  30 0015 0003DF00 		.ascii	"\000\003\337\000&"
  30      26
  31              		.text
  32              		.section	.gnu.lto_.pureconst.1c02d3dd,"",%progbits
ARM GAS  C:\Users\JEFFSN~1\AppData\Local\Temp\cc4Jbhvf.s 			page 2


  33 0000 789C6361 		.ascii	"x\234ca`d\340d```a\220b\222b\226b\221\002\000\002\275"
  33      6064E064 
  33      60606061 
  33      90629262 
  33      96629102 
  34 0017 0084     		.ascii	"\000\204"
  35              		.text
  36              		.section	.gnu.lto_CapSense_IdacCH1_SaveConfig.1c02d3dd,"",%progbits
  37 0000 789C4D91 		.ascii	"x\234M\221\317k\023A\024\307\337wf7\011\255\021\377"
  37      CF6B1341 
  37      14C7DF77 
  37      663709AD 
  37      11FF
  38 0012 8022BDF6 		.ascii	"\200\"\275\366\320.\005\375\013\002\3768\010\245\271"
  38      D02E05FD 
  38      0B02FE38 
  38      08A5B9
  39 0021 16424CF7 		.ascii	"\026BL\367\332J\255\347L\272\211\266\036D)\355\241P"
  39      DA4AADE7 
  39      4CBA89B6 
  39      1E4429ED 
  39      A150
  40 0033 82426DFD 		.ascii	"\202Bm\375Q\223\326\203.\210\204`{\322\226B\364\240"
  40      5193D683 
  40      2E888460 
  40      7BD29642 
  40      F4A0
  41 0045 97AA18A5 		.ascii	"\227\252\030\245\346\320\210\036\024\333\370\336\016"
  41      E6D0881E 
  41      14DBF8DE 
  41      0E
  42 0052 D80EECCC 		.ascii	"\330\016\354\314\354\233\357\274\357\347\275q\010$\243"
  42      EC9BEFBC 
  42      EFE7BD71 
  42      0824A3
  43 0061 C58BC7EB 		.ascii	"\305\213\307\353\031\376\340\022\324\355-\242BB)\335"
  43      19FEE012 
  43      D4ED2DA2 
  43      424229DD 
  44 0071 F0C87439 		.ascii	"\360\310t9/N\2239\241\341\330\260\003\310\306$@y\245"
  44      2F4E9339 
  44      A1E1D8B0 
  44      03C8C624 
  44      4079A5
  45 0084 1DE4F14B 		.ascii	"\035\344\361K\035(\324o4C\325\267lx\354n\314j\263RC"
  45      1D28D46F 
  45      3443D5B7 
  45      6C78EC6E 
  45      CC6AB352 
  46 0099 49137554 		.ascii	"I\023uTdAXF\037\261\354\323\332\341\\2V\024Y\257=\304"
  46      64415846 
  46      1FB1ECD3 
  46      DAE15C32 
  46      561459AF 
  47 00af 0A62C251 		.ascii	"\012b\302Q\031\256\231N'0\265\262\333VqE%v\224\311\225"
  47      19AE994E 
  47      2730B5B2 
ARM GAS  C:\Users\JEFFSN~1\AppData\Local\Temp\cc4Jbhvf.s 			page 3


  47      DB567145 
  47      257694C9 
  48 00c4 89689FB5 		.ascii	"\211h\237\265\342\333VJV\335D\375\317\315\315\015-\327"
  48      E2DB564A 
  48      56DD44FD 
  48      CFCDCD0D 
  48      2DD7
  49 00d6 03ED70EA 		.ascii	"\003\355p\352\371R};\376S\225\264\2028mM\357\376H\330"
  49      F9527D3B 
  49      FE5395B4 
  49      82386D4D 
  49      EFFE48D8 
  50 00ea DFA56AC1 		.ascii	"\337\245j\301\210\342\373\316\267\245X\031\213\205\""
  50      88E2FBCE 
  50      B7A55819 
  50      8B8522
  51 00f9 B3693C44 		.ascii	"\263i<D\017\036\240\207\021\036\241\014j\"\370{\216"
  51      0F1EA087 
  51      111EA10C 
  51      6A22F87B 
  51      8E
  52 010a 02AD6CBA 		.ascii	"\002\255l\272\366\233\205\317'\345>\320\213\307,\373"
  52      F69B85CF 
  52      27E53ED0 
  52      8BC72CFB 
  53 011a 88E2FBE0 		.ascii	"\210\342\373\340\262\365\223\212+\255\360w\322\012\010"
  53      B2F5938A 
  53      2BADF077 
  53      D20A08
  54 0129 AB928704 		.ascii	"\253\222\207\004OS\303\263t\357\276t[\265+t__^OZ\234"
  54      4F53C3B3 
  54      74EFBE74 
  54      5BB52B74 
  54      5F5F5E4F 
  55 013f C2338B73 		.ascii	"\3023\213s\277a\356u\035\341<\371\217S\2618S\363w\007"
  55      BF61EE75 
  55      1DE13CF9 
  55      8F53B138 
  55      53F37707 
  56 0153 24C1F1DA 		.ascii	"$\301\361\332\234\250\2660l}\210\347\017\314\2641\247"
  56      9CA8B630 
  56      6C7D88E7 
  56      0FCCB431 
  56      A7
  57 0164 3836C38D 		.ascii	"86\303\215\226\360\336\353\267\257\242\204&\212\273"
  57      96F0DEEB 
  57      B7AFA284 
  57      268ABB
  58 0173 58E3D7A9 		.ascii	"X\343\327\251JJ>\274\365\274:\223\360V\245\363\346\016"
  58      4A4A3EBC 
  58      F5BC3A93 
  58      F056A5F3 
  58      E60E
  59 0185 1BC6B0CE 		.ascii	"\033\306\260\3166\207\321\373\340)<\306\214\370\235"
  59      3687D1FB 
  59      E0293CC6 
  59      8CF89D
ARM GAS  C:\Users\JEFFSN~1\AppData\Local\Temp\cc4Jbhvf.s 			page 4


  60 0194 A8BD7B98 		.ascii	"\250\275{\230\252\205\256\270Ge\355sO9\314\342\376\363"
  60      AA85AEB8 
  60      4765ED73 
  60      4F39CCE2 
  60      FEF3
  61 01a6 FE983F91 		.ascii	"\376\230?\221\235\364G3\351\361k\0239\177d(=\236:;\222"
  61      9DF44733 
  61      E9F16B13 
  61      397F6428 
  61      3D9E3A3B 
  62 01bb CA5E49FB 		.ascii	"\312^I\373cW\375\314\305\321l.ua03ti G\377\000m\"\273"
  62      6357FDCC 
  62      C5D16C2E 
  62      75613033 
  62      74692047 
  63 01d4 5B       		.ascii	"["
  64              		.text
  65              		.section	.gnu.lto_CapSense_IdacCH1_RestoreConfig.1c02d3dd,"",%progbits
  66 0000 789C9553 		.ascii	"x\234\225SMHTQ\024>\347\336\367\336<\206\231\246\332"
  66      4D485451 
  66      143EE7DE 
  66      F7DE3C86 
  66      99A6DA
  67 0013 66E1A685 		.ascii	"f\341\246\205\013\033Z\264\251\345\200\325B\220\334"
  67      0B1B5AB4 
  67      A9E580D5 
  67      4290DC
  68 0022 0A623ADB 		.ascii	"\012b:\3331\254\326\336qfJ[X\033E\2140\202I\373U3\323"
  68      31ACD6DE 
  68      71664A5B 
  68      581B458C 
  68      308249FB 
  69 0039 51B349A4 		.ascii	"Q\263I\244\240l\"\260\215Bi\301\024f\341\204aEj\347"
  69      A06C22B0 
  69      8D4269C1 
  69      1466E184 
  69      61456AE7 
  70 004d DCEBA844 		.ascii	"\334\353\250D\014\365\340\235\373\336\271\337\375\276"
  70      0CF5E09D 
  70      FBDEB9DF 
  70      FDBE
  71 005b EF7DF73E 		.ascii	"\357}\367>\013\020\370\332c\001\004i,\247\033=\200\342"
  71      0B10F8DA 
  71      63010469 
  71      2CA71B3D 
  71      80E2
  72 006d 520620EA 		.ascii	"R\006 \352\012!\247\203\240\274\316\330>P>),\036\275"
  72      0A21A783 
  72      A0BCCED8 
  72      3E503E29 
  72      2C1EBD
  73 0080 36F77C16 		.ascii	"6\367|\026:\006d\347\037\034D~P.B\243\220\226\355`#"
  73      3A0664E7 
  73      1F1C447E 
  73      502E42A3 
  73      9096ED60 
  74 0095 7E13AB02 		.ascii	"~\023\253\002'\316gS\242\244[\3215\227\354\222\252'"
ARM GAS  C:\Users\JEFFSN~1\AppData\Local\Temp\cc4Jbhvf.s 			page 5


  74      27CE6753 
  74      A2A45BD1 
  74      3597EC92 
  74      AA27
  75 00a7 8D0909B0 		.ascii	"\215\011\011\260.\2646`7\226\000\301\336\365\257\265"
  75      2EB43660 
  75      379600C1 
  75      DEF5AFB5 
  76 00b7 F99D38C3 		.ascii	"\371\2358\303\212\315$\366\240\303\006{O\244\325\372"
  76      8ACD24F6 
  76      A0C3067B 
  76      4FA4D5FA 
  77 00c7 7A4CA557 		.ascii	"zL\245W\355\234o\227\200\204D\213\213\315\305\341\342"
  77      ED9C6F97 
  77      8084448B 
  77      8BCDC5E1 
  77      E2
  78 00d8 E1E272F1 		.ascii	"\341\342r\361r\361q\361s\011p\001X\":6\227\023\202G"
  78      72F171F1 
  78      73097001 
  78      58223A36 
  78      97138247 
  79 00ec 99C5899F 		.ascii	"\231\305\211\237\027\326\236JV\210I\213\324\333\023"
  79      17D69E4A 
  79      5688498B 
  79      D4DB13
  80 00fb 132F3DCB 		.ascii	"\023/=\313\"!\005\262\231L\363\334W\327\274&\373\242"
  80      222105B2 
  80      994CF3DC 
  80      57D7BC26 
  80      FBA2
  81 010d 8A119F5E 		.ascii	"\212\021\237^}L:]x%\032'\373\022ob\021\336\300\"ry\013"
  81      7D4C3A5D 
  81      78251A27 
  81      FB126F62 
  81      11DEC022 
  82 0124 BB10B218 		.ascii	"\273\020\262\030\373U\0061)\014]\356E\347\373\035\274"
  82      FB550631 
  82      290C5DEE 
  82      45E7FB1D 
  82      BC
  83 0135 1EB1186F 		.ascii	"\036\261\030o\023l\036\3433\261\223F\217C\351]L\375"
  83      136C1EE3 
  83      33B19346 
  83      8F43E95D 
  83      4CFD
  84 0147 F01B00E0 		.ascii	"\360\033\000\340\035\346\001\266'a:h\334e:\016\033\264"
  84      1DE601B6 
  84      27613A68 
  84      DC653A0E 
  84      1BB4
  85 0159 43E895D6 		.ascii	"C\350\225\326\231)i\354\\\0344v\332\006&\257\372\266"
  85      992969EC 
  85      5C1C3476 
  85      DA0626AF 
  85      FAB6
  86 016b ECDCDDB4 		.ascii	"\354\334\335\264\323\273\335\216m\326w\216.?\263\215"
ARM GAS  C:\Users\JEFFSN~1\AppData\Local\Temp\cc4Jbhvf.s 			page 6


  86      D3BBDD8E 
  86      6DD6778E 
  86      2E3FB38D 
  87 017b 9A8B7DC6 		.ascii	"\232\213}\306\316l,b\004\354m\372\026<\337m\364\337"
  87      CE6C2C62 
  87      04EC6DFA 
  87      163CDF6D 
  87      F4DF
  88 018d 7474A299 		.ascii	"tt\242\231\367\024R\353\317\2539\006\354\032\374\345"
  88      F71452EB 
  88      CFAB3906 
  88      EC1AFCE5 
  89 019d B79FB3FA 		.ascii	"\267\237\263\372\373%\256 \336#(\221\266k\302Bl\003"
  89      FB25AE20 
  89      DE232891 
  89      B66BC242 
  89      6C03
  90 01af C4461C04 		.ascii	"\304F\034\004n\032\351\177\3628`8\275\333\367\307\322"
  90      6E1AE97F 
  90      F2386038 
  90      BDDBF7C7 
  90      D2
  91 01c0 FB934A2D 		.ascii	"\373\223J-\316z\032WU\263R;\251\327B\347\211\333\013"
  91      CE7A1A57 
  91      55B3523B 
  91      A9D742E7 
  91      89DB0B
  92 01d3 53AF27BD 		.ascii	"S\257'\275L\254t\337\306A:\204\367\231\232&[\207\373"
  92      4CAC74DF 
  92      C6413A84 
  92      F7999A26 
  92      5B87FB
  93 01e6 5ADC6069 		.ascii	"Z\334`iB:\370\200t\326\364\371\303!\014jo\363\3737\314"
  93      423AF880 
  93      74D6F4F9 
  93      C3210C6A 
  93      6FF3FB37 
  94 01fb B57F183F 		.ascii	"\265\177\030?\3477YG\207L\326\327\247\3255M\033'\342"
  94      E7375947 
  94      874CD6D7 
  94      A7D5354D 
  94      1B27E2
  95 020e 23C09E87 		.ascii	"#\300\236\2077=\247\264g/\350\324\276l\246\346+\364"
  95      373DA7B4 
  95      672FE8D4 
  95      BE6CA6E6 
  95      2BF4
  96 0220 9D231BA9 		.ascii	"\235#\033\251}\337H\315Ox\275/\377\224\322\250V\364"
  96      7DDF48CD 
  96      4F78BD2F 
  96      FF94D2A8 
  96      56F4
  97 0232 EB0DB3A1 		.ascii	"\353\015\263\241e\257\344\270rS\371\270\002\377\221"
  97      65AFE4B8 
  97      7253F9B8 
  97      02FF91
  98 0241 CFD8DFF3 		.ascii	"\317\330\337\363y\270\225\317\370\237\371\024\014\343"
ARM GAS  C:\Users\JEFFSN~1\AppData\Local\Temp\cc4Jbhvf.s 			page 7


  98      79B895CF 
  98      F89FF914 
  98      0CE3
  99 024f 91B616D0 		.ascii	"\221\266\026\320\326\034\375\253-`S:U\306k\365\021["
  99      D61CFDAB 
  99      2D60533A 
  99      55C66BF5 
  99      115B
 100 0261 A2FF8BDA 		.ascii	"\242\377\213\332\304]z4\034\0117\324\234\011\327UW\326"
 100      C45D7A34 
 100      1C0937D4 
 100      9C09D755 
 100      57D6
 101 0273 9F6DA80D 		.ascii	"\237m\250\015WUT\326\207\016U\205jNU\206#\247\303\325"
 101      575554D6 
 101      870E5585 
 101      6A4E5586 
 101      23A7C3D5 
 102 0287 C7EB6A6A 		.ascii	"\307\353jjC\307\016VW\224\037\250\205\337N\012h\201"
 102      43C70E56 
 102      57941FA8 
 102      85DF4E0A 
 102      6881
 103              		.text
 104              		.section	.gnu.lto_CapSense_IdacCH1_Sleep.1c02d3dd,"",%progbits
 105 0000 789C8D91 		.ascii	"x\234\215\221\317k\023A\024\307\337wf\223\215\321\322"
 105      CF6B1341 
 105      14C7DF77 
 105      66938DD1 
 105      D2
 106 0011 FE012578 		.ascii	"\376\001%x\355A\243\007\257^\002V\017B1\327B\010\351"
 106      ED41A307 
 106      AF5E0256 
 106      0F4231D7 
 106      4208E9
 107 0024 5E5B897A 		.ascii	"^[\211z\316\244\233%\326CQD\221\242\364\330\370\243"
 107      CEA49B25 
 107      D6435144 
 107      91A2F4D8 
 107      F8A3
 108 0036 2651AB0D 		.ascii	"&Q\253\015\006\335\006\305KQ\204\326K/\352!H\251\220"
 108      06DD06C5 
 108      4B5184D6 
 108      4B2FEA21 
 108      48A990
 109 0049 6A8B28B6 		.ascii	"j\213(\266\361\275\335Z\005Q\034\230\235\3317\337y\237"
 109      F1BDDD5A 
 109      05511C98 
 109      9DD937DF 
 109      799F
 110 005b EFBC6711 		.ascii	"\357\274g\021H\306\244\"J\362z\224'\242\004u\361%Q1"
 110      48C6A422 
 110      4AF27A94 
 110      27A20475 
 110      F1255131 
 111 006f A6946E26 		.ascii	"\246\224n&\310\304\255\245$\231}\032\2210l\375\334D"
 111      C8C4ADA5 
ARM GAS  C:\Users\JEFFSN~1\AppData\Local\Temp\cc4Jbhvf.s 			page 8


 111      24997D1A 
 111      91306CFD 
 111      DC44
 112 0081 00D99818 		.ascii	"\000\331\230\030\250\240\264\025A\001\233jK\241Un7\324"
 112      A8A0B415 
 112      41019B6A 
 112      4BA1556E 
 112      37D4
 113 0093 C08CE1F1 		.ascii	"\300\214\341\361\326\373t\310T|x\232\250\253\002\030"
 113      D6FB74C8 
 113      547C789A 
 113      A8AB0218 
 114 00a3 610603C4 		.ascii	"a\006\003\304\262\367\365\355+=\321\222\310\366\207"
 114      B2F7F5ED 
 114      2B3DD192 
 114      C8F687
 115 00b2 87A8202A 		.ascii	"\207\250 *\216\252\247|\323\355\272\306\277l/<\261\367"
 115      8EAAA77C 
 115      D3EDBAC6 
 115      BF6C2F3C 
 115      B1F7
 116 00c4 28F2342C 		.ascii	"(\3624,\371\020uX'\320u\245d\325m\264\276]xs\275\006"
 116      F9107558 
 116      27D075A5 
 116      64D56DB4 
 116      BE5D7873 
 117 00da B9EB6A8B 		.ascii	"\271\353j\213\363^\365Z\257\354\015\345i\005\301l._"
 117      F35EF55A 
 117      AFEC0DE5 
 117      6905C16C 
 117      2E5F
 118 00ec CB877F95 		.ascii	"\313\207\177\225r\321\210`\352sg\241w\0327\212%\366"
 118      72D18860 
 118      EA7367A1 
 118      771A378A 
 118      25F6
 119 00fe A5710BFD 		.ascii	"\245q\013\375\270\211~\306\337\3064\250\015\367\373"
 119      B8897EC6 
 119      DFC634A8 
 119      0DF7FB
 120 010d 3172B50A 		.ascii	"1r\265\012\263=\357~\361{\345>\240p\207e\357PZq\023"
 120      B33DEF7E 
 120      F17BE53E 
 120      A0708765 
 120      EF505A71 
 121 0122 214E5E5B 		.ascii	"!N^[]k|\355\011\005\204Y\311CbOS3\301\356\3067:\355"
 121      5D6B7CED 
 121      09058459 
 121      C943624F 
 121      5333C1EE 
 122 013a D77B45FD 		.ascii	"\327{E\375\2733+p\326h\254\255\330\205-s\336\230>\216"
 122      BB332B70 
 122      D668ACAD 
 122      D8852D73 
 122      DE983E8E 
 123 014e 4D708D24 		.ascii	"Mp\215$\274\272\270\374,.\366L\020\217\240\312\205\275"
 123      BCBAB8FC 
ARM GAS  C:\Users\JEFFSN~1\AppData\Local\Temp\cc4Jbhvf.s 			page 9


 123      2C2EF64C 
 123      108FA0CA 
 123      85BD
 124 0160 2B89F970 		.ascii	"+\211\371pr\2766\021K\316J\321\314%\266\037E\215Mo\007"
 124      72BE3611 
 124      4BCE4AD1 
 124      CC25B61F 
 124      458D4D6F 
 125 0175 A5451D49 		.ascii	"\245E\035I\226\314\225\027\353q\241D\001\334\013\014"
 125      96CC9517 
 125      EB71A144 
 125      01DC0B0C 
 126 0185 AD2B8B96 		.ascii	"\255+\213\226\222\201\235\332\307];\377\313\277\377"
 126      92819DDA 
 126      C75D3BFF 
 126      CBBFFF
 127 0194 4FFE835F 		.ascii	"O\376\203_\374\271\200\277\373J\356%\036\356\360#A\267"
 127      FCB980BF 
 127      FB4AEE25 
 127      1EEEF023 
 127      41B7
 128 01a6 3EC0F51F 		.ascii	">\300\365\037\277P\302\377\263\000v\227\033Fx\204\002"
 128      BF50C2FF 
 128      B3007697 
 128      1B467884 
 128      02
 129 01b7 B73A46A2 		.ascii	"\267:F\242m\332\177\2252\021\363;\322U\214\373O\007"
 129      6DDA7F95 
 129      3211F33B 
 129      D2558CFB 
 129      4F07
 130 01c9 03A98C0E 		.ascii	"\003\251\214\016\347a\032+\016\014:\243N>{\326\031\311"
 130      E7611A2B 
 130      0E0C3AA3 
 130      4E3E7BD6 
 130      19C9
 131 01db A4C7CEE5 		.ascii	"\244\307\316\345s\316\360Pz,ud8\225=\235vF\3178\231"
 131      73CEF050 
 131      7A2C7564 
 131      38953D9D 
 131      7646CF38 
 132 01f0 1323D95C 		.ascii	"\023#\331\\\352\370\341\314\320\311\2039\372\001\360"
 132      EAF8E1CC 
 132      D0C98339 
 132      FA01F0
 133 01ff FFF859   		.ascii	"\377\370Y"
 134              		.text
 135              		.section	.gnu.lto_CapSense_IdacCH1_Wakeup.1c02d3dd,"",%progbits
 136 0000 789C7551 		.ascii	"x\234uQ\317K\033A\030\375\336\314\270Y\027\305\376\001"
 136      CF4B1B41 
 136      18FDDECC 
 136      B85917C5 
 136      FE01
 137 0012 225E73D0 		.ascii	"\"^s\320 \330k/9\264\026\012b\256B\010q\257*V\317\231"
 137      20D86B2F 
 137      39B4160A 
 137      62AE4208 
ARM GAS  C:\Users\JEFFSN~1\AppData\Local\Temp\cc4Jbhvf.s 			page 10


 137      71AF2A56 
 138 0028 98ACAD3D 		.ascii	"\230\254\255=\224^\352\245\210P\301\237\255\032\025"
 138      945EEAA5 
 138      8850C19F 
 138      AD1A15
 139 0037 341E641B 		.ascii	"4\036d\033D!\210?@/\355\245\355\301\212\364`\245\275"
 139      4421883F 
 139      402FEDA5 
 139      EDC18AF4 
 139      60A5BD
 140 004a 1474FBCD 		.ascii	"\024t\373\315\004\332\202\355\007\273\263\373\315{\337"
 140      04DA82ED 
 140      07BBB3FB 
 140      CD7BDF
 141 0059 7B6F4611 		.ascii	"{oF\021\310\224\020D\011^;\371A\035A\2748 \312\273B"
 141      C8941044 
 141      095E3BF9 
 141      411D41BC 
 141      3820CABB 
 142 006e C8DD26D2 		.ascii	"\310\335&\322\236\252\336#\335 \241jm\005\230\017\355"
 142      9EAADE23 
 142      DD20A16A 
 142      6D05980F 
 142      ED
 143 007f 8272422A 		.ascii	"\202rB*\344\360C\\\013T\236\234\225E|Vs}\014\246;\364"
 143      E4F0435C 
 143      0B549E9C 
 143      95457C56 
 143      737D0CA6 
 144 0095 5C884012 		.ascii	"\\\210@\022E\302J\020f\021'\206}.\335\274lt\212\006"
 144      45C24A10 
 144      66112786 
 144      7D2EDDBC 
 144      6C748A06 
 145 00a9 D65ADBC4 		.ascii	"\326Z\333\304\034\034\343c\271'\324QT\320\341+\357\335"
 145      1C1CE363 
 145      B927D451 
 145      54D0E12B 
 145      EFDD
 146 00bb 91E72A0A 		.ascii	"\221\347*\012$\034\363\"\272d\234\321\374\306Ny\225"
 146      241CF322 
 146      BA649CD1 
 146      FCC64E79 
 146      95
 147 00cc E7288493 		.ascii	"\347(\204\223Ua\230ff\271\374\365C,w\255\237j}'\220"
 147      55619866 
 147      66B9FCF5 
 147      432C77AD 
 147      9F6A7D27 
 148 00e1 22124CC1 		.ascii	"\"\022L\301<rL\226t\206\321\255\322\376U\314\200\013"
 148      3C724C96 
 148      7486D1AD 
 148      D2FE55CC 
 148      800B
 149 00f3 52317C22 		.ascii	"R1|\"\250\034\306\276\213\200\275\337f\253q6m\332\027"
 149      A81CC6BE 
 149      8B80BDDF 
ARM GAS  C:\Users\JEFFSN~1\AppData\Local\Temp\cc4Jbhvf.s 			page 11


 149      66AB7136 
 149      6DDA17
 150 0106 FBA73BDE 		.ascii	"\373\247;\336\024&\363\332\366\353\260\310I\027\320"
 150      1426F3DA 
 150      F6EBB0C8 
 150      4917D0
 151 0115 6C379F6F 		.ascii	"l7\237o\256\214\273\211\266@:x\203)\334\330\220x\213"
 151      AE8CBB89 
 151      B6403A78 
 151      8329DCD8 
 151      90788B
 152 0128 047D42F1 		.ascii	"\004}B\361}\241\345\217\330\372\316\336\230k\304\300"
 152      7DA1E58F 
 152      D8FACEDE 
 152      986BC4C0 
 153 0138 B564E864 		.ascii	"\265d\350drH\332m\26216\252\015\377\215\301S\261\374"
 153      7248DA6D 
 153      B23136AA 
 153      0DFF8DC1 
 153      53B1FC
 154 014b 3B46E5E7 		.ascii	";F\345\347\263\253xm\260\363w\212\230M1\361e{\254\261"
 154      B3AB786D 
 154      B0F3778A 
 154      984D31F1 
 154      657BACB1 
 155 015f F69BDFC8 		.ascii	"\366\233\337\310k#=s\242_\333\004E\276\011\027%4c\305"
 155      6B233D73 
 155      A25FDB04 
 155      45BE0917 
 155      253463C5 
 156 0173 18C02A5B 		.ascii	"\030\300*[\246s\250\177\013\327G\354\216\260\306\302"
 156      A673A87F 
 156      0BD747EC 
 156      8EB0C6C2 
 157 0183 AC1448CF 		.ascii	"\254\024H\317\032V\366\340/0\032\036?\264<S\227|\322"
 157      1A56F6E0 
 157      2F301A1E 
 157      3FB43C53 
 157      977CD2
 158 0196 DC669F6D 		.ascii	"\334f\237m\367\375~\177(3\354\367\245S\003#CY\277\267"
 158      F7FD7E7F 
 158      2833ECF7 
 158      A5530323 
 158      4359BFB7 
 159 01aa 3B3590BC 		.ascii	";5\220\274\333\233\314\014\246\374\376\307~\272\253"
 159      DB9BCC0C 
 159      A6FCFEC7 
 159      7EBAAB
 160 01b9 2F934D3E 		.ascii	"/\223M>\350Hw?j\317\322/\375\305\301Q"
 160      E848773F 
 160      6ACFD22F 
 160      FDC5C151 
 161              		.text
 162              		.section	.gnu.lto_.symbol_nodes.1c02d3dd,"",%progbits
 163 0000 789C558C 		.ascii	"x\234U\214\273\021\2030\020\005\367>\222rb\002S\351"
 163      BB118330 
 163      1005F73E 
ARM GAS  C:\Users\JEFFSN~1\AppData\Local\Temp\cc4Jbhvf.s 			page 12


 163      92726202 
 163      53E9
 164 0012 29A0006A 		.ascii	")\240\000j`\034\271\0072bj\260]\010c\341\010]\262\263"
 164      601CB907 
 164      32626AB0 
 164      5D0863E1 
 164      085DB2B3 
 165 0026 FB66CE11 		.ascii	"\373f\316\021\236\264S\011X\016hx\325\011\022\324\001"
 165      9EB45309 
 165      580E6878 
 165      D50912D4 
 165      01
 166 0037 4C35A41B 		.ascii	"L5\244\033\324B\373\340a]\220\024\376\017\355E}4/\221"
 166      D442FBE0 
 166      615D9014 
 166      FE0FED45 
 166      7D342F91 
 167 004b 3ACF91EF 		.ascii	":\317\221\357n\226\330?\247\230\301\367\242+\353\373"
 167      6E96D83F 
 167      A798C1F7 
 167      A22BEBFB 
 168 005b 6261DE46 		.ascii	"ba\336F\363\314\276\215\374\000\007\273$)"
 168      F3CCBE8D 
 168      FC0007BB 
 168      2429
 169              		.text
 170              		.section	.gnu.lto_.refs.1c02d3dd,"",%progbits
 171 0000 789C0DC7 		.ascii	"x\234\015\307\261\015\000 \020\003\261\273\020\032\032"
 171      B10D0020 
 171      1003B1BB 
 171      101A1A
 172 000f 0660FF3D 		.ascii	"\006`\377=\371\306\222\213<\030u'x\360fi\347\026\303"
 172      F9C6928B 
 172      3C187527 
 172      78F06669 
 172      E716C3
 173 0022 0707B900 		.ascii	"\007\007\271\000b"
 173      62
 174              		.text
 175              		.section	.gnu.lto_.decls.1c02d3dd,"",%progbits
 176 0000 789C9594 		.ascii	"x\234\225\224]L\034U\024\307\347\314\014\013\014\310"
 176      5D4C1C55 
 176      14C7E7CC 
 176      0C0B0CC8 
 177 0010 9AA215E3 		.ascii	"\232\242\025\343j\260\241\0111\021\305F\323\247j\202"
 177      6AB0A109 
 177      3111C546 
 177      D3A76A82 
 178 0020 5A7CD034 		.ascii	"Z|\3204n\300\227\032\262,cm\212\260\302n\223\276]>J"
 178      6EC0971A 
 178      B22C636D 
 178      8AB0C26E 
 178      93BE5D3E 
 179 0035 AD352D34 		.ascii	"\2555-4\264\270|[\022,\024\272[(U@\350\000\"\024\212"
 179      B4B87C5B 
 179      122C14BA 
 179      5B285540 
ARM GAS  C:\Users\JEFFSN~1\AppData\Local\Temp\cc4Jbhvf.s 			page 13


 179      E8002214 
 180 004a A57C3436 		.ascii	"\245|46\333X,\324\244J\015\012\265\241\012\353\271w"
 180      DB582CD4 
 180      A44A0D0A 
 180      B5A10AEB 
 180      B977
 181 005c 669921CB 		.ascii	"f\231!\313j\275p\366\316\275\373?\277s\356\271gV\344"
 181      6ABD70F6 
 181      CEBDFB3F 
 181      BF73EEB9 
 181      6756E4
 182 006f 80A363D0 		.ascii	"\200\243c\320\304q\307\360\261\024\315\217#\014\367"
 182      C471C7F0 
 182      B114CD8F 
 182      230CF7
 183 007e D2397D84 		.ascii	"\3229}\204\243\265\242y\320\316\241\265\243u\240\365"
 183      A3B5A279 
 183      D0CEA1B5 
 183      A375A0F5 
 184 008e A2296894 		.ascii	"\242)h\2242\306\255\037\255\232\037\345X\320&\320\306"
 184      32C6AD1F 
 184      AD9A1FE5 
 184      58D026D0 
 184      C6
 185 009f D126D146 		.ascii	"\321&\321F\321\2725\277amn\015\301\361\374O\216'\004"
 185      D1BA35BF 
 185      616D6E0D 
 185      C1F1FC4F 
 185      8E2704
 186 00b2 87E61DF9 		.ascii	"\207\346\035\371\037\234)\264\026\315\177\010M\320\374"
 186      1F9C29B4 
 186      16CD7F08 
 186      4DD0FC
 187 00c1 3AFE253F 		.ascii	":\376%?Z\213(\0037\3000r\003\261\246\321z\014|Q\363"
 187      5A8B2803 
 187      37C03072 
 187      03B1A6D1 
 187      7A0C7C51 
 188 00d6 F76875EC 		.ascii	"\367hu\354\015\021c\205\207\352\276\332\2010\037\\\007"
 188      0D116385 
 188      87EABEDA 
 188      81301F5C 
 188      07
 189 00e7 E0800D4E 		.ascii	"\340\200\015N\273;\216\356h3}\000u\301s\032\013\002"
 189      BB3B8EEE 
 189      68337D00 
 189      75C1731A 
 189      0B02
 190 00f9 224DCDFE 		.ascii	"\"M\315\376\360\237g\372\265\375\200n-\246?0\364-X\033"
 190      F09F67FA 
 190      B5FD806E 
 190      2DA63F30 
 190      F42D581B 
 191 010d 0125AC87 		.ascii	"\001%\254\207R\252\276\3045\257;\030xZ\366Z|0\206eh"
 191      52AABEC4 
 191      35AF3B18 
 191      785AF65A 
ARM GAS  C:\Users\JEFFSN~1\AppData\Local\Temp\cc4Jbhvf.s 			page 14


 191      7C308665 
 192 0122 2170E8D5 		.ascii	"!p\350\325\302\305?\242\004d\342\363\315\345\323o&\265"
 192      C2C53FA2 
 192      0464E2F3 
 192      CDE5D36F 
 192      26B5
 193 0134 101CA584 		.ascii	"\020\034\245\204\360;\364\312\\-\366V\013K<l\222@\304"
 193      F03BF4CA 
 193      5C2DF656 
 193      0B4B3C6C 
 193      9240C4
 194 0147 E5EF6395 		.ascii	"\345\357c\225\2631\270|L\202x\\\256\\\252\252\344\343"
 194      B331B87C 
 194      4C82785C 
 194      AE5CAAAA 
 194      E4E3
 195 0159 4E32BF22 		.ascii	"N2\277\"\022/B\372f8\003\026h\006\274,h\2018\374\314"
 195      122F42FA 
 195      66380316 
 195      6806BC2C 
 195      688138FC 
 196 016e 1455D2CF 		.ascii	"\024U\322\317u\255J\314\226z2\343%3u\235/\271\211R\214"
 196      75AD4ACC 
 196      967A32E3 
 196      2533759D 
 196      2FB98952 
 197 0183 6E3C55C1 		.ascii	"n<U\301i\020\240\011\222h\212\370H\247/\301\207\311"
 197      6910A009 
 197      92688AF8 
 197      48A72FC1 
 197      87C9
 198 0195 B7C216F4 		.ascii	"\267\302\026\364$\207\216\275*\244\261<\253\207o\037"
 198      24878EBD 
 198      2AA4B13C 
 198      AB876F1F 
 199 01a5 0515A23C 		.ascii	"\005\025\242<\220\311a$\210\214pV'\2345\022<\2140\367"
 199      90C96124 
 199      888C7056 
 199      279C3512 
 199      3C8C30F7 
 200 01b9 D3DF3D91 		.ascii	"\323\337=\221\202SE\034\254\365K\210\250GD\351P4)- "
 200      8253451C 
 200      ACF54B88 
 200      A84744E9 
 200      5034292D 
 201 01ce E435C6F0 		.ascii	"\3445\306\360\352\014\257\221q\2161\036\334\277\362"
 201      EA0CAF91 
 201      718E311E 
 201      DCBFF2
 202 01dd 8A700418 		.ascii	"\212p\004\030\243\245\343\336\254Yc|>bd\264\351\214"
 202      A3A5E3DE 
 202      AC59637C 
 202      3E6264B4 
 202      E98C
 203 01ef 3623A39D 		.ascii	"6#\243\2351\306\273\232+$\241A\205\370|K7Ez\026Bf\026"
 203      31C6BB9A 
 203      2B24A141 
ARM GAS  C:\Users\JEFFSN~1\AppData\Local\Temp\cc4Jbhvf.s 			page 15


 203      85F87C4B 
 203      37457A16 
 204 0206 4777B8DB 		.ascii	"Gw\270\333Hq$c\234\327\031\347A\275.\350`\376\307\177"
 204      48712463 
 204      9CD719E7 
 204      41BD2EE8 
 204      60FEC77F 
 205 021a E9BF6716 		.ascii	"\351\277g\026\346T\177\317\301\271\246\010\274\013\213"
 205      E6547FCF 
 205      C1B9A608 
 205      BC0B8B
 206 0229 047EA0EB 		.ascii	"\004~\240\353\371\316\345G\3245\375\332]6\273\032%\254"
 206      F9CEE547 
 206      D435FDDA 
 206      5D36BB1A 
 206      25AC
 207 023b 322D3F39 		.ascii	"2-?9{\346\216\010\211R#\275\252\031\367Dv\305!Z\373"
 207      7BE68E08 
 207      895223BD 
 207      AA19F744 
 207      76C5215A 
 208 0250 6E90A053 		.ascii	"n\220\240S\217f\221\360\363\023B\012\311\302)b\212\343"
 208      8F6691F0 
 208      F313420A 
 208      C9C22962 
 208      8AE3
 209 0262 609B055E 		.ascii	"`\233\005^\264p\320\005\211\224JU\3605^\357Wx\275\030"
 209      B470D005 
 209      89944A55 
 209      F0355EEF 
 209      5778BD18 
 210 0276 E17645DD 		.ascii	"\341vE\335\257&\021\337\005\306\301{\246\225\351\272"
 210      AF2611DF 
 210      05C6C17B 
 210      A695E9BA 
 211 0286 316F0AD9 		.ascii	"1o\012\331\021=\254#\276\001\255%\332~\350^\206\265"
 211      113DAC23 
 211      BE01AD25 
 211      DA7EE85E 
 211      86B5
 212 0298 0ABC5ED6 		.ascii	"\012\274^\326P\242\340\217$U\301\005=\253\013\201\032"
 212      50A2E08F 
 212      2455C105 
 212      3DAB0B81 
 212      1A
 213 02a9 F4B21A54 		.ascii	"\364\262\032TM\377x\324,4\252};X^R*\251\004\245\246"
 213      4DFF78D4 
 213      2C34AA7D 
 213      3B585E52 
 213      2AA904A5 
 214 02be 4470937E 		.ascii	"Dp\223~\265\035.\352\356\027\003\356\012s\367\325.\325"
 214      B51D2EEA 
 214      EE1703EE 
 214      0A73F7D5 
 214      2ED5
 215 02d0 80D0ABB9 		.ascii	"\200\320\253\271\373\357+f\265\273y\\N,\\\256\211R\273"
 215      FBEF2B66 
ARM GAS  C:\Users\JEFFSN~1\AppData\Local\Temp\cc4Jbhvf.s 			page 16


 215      B5BB795C 
 215      4E2C5CAE 
 215      8952BB
 216 02e3 FB515CF6 		.ascii	"\373Q\\\366\237\2741\025-\\S\245\267\3566\0376\013\267"
 216      9FBC3115 
 216      2D5C53A5 
 216      B7EE361F 
 216      360BB7
 217 02f6 D8425C1D 		.ascii	"\330B\\\035\031\034\217\201\330\204\204\3042vR\205\020"
 217      191C8F81 
 217      D88484C4 
 217      32765285 
 217      10
 218 0307 FAAE0DE0 		.ascii	"\372\256\015\340A\373\331A\277\203X\032\037.a\345\206"
 218      41FBD941 
 218      BF83581A 
 218      1F2E61E5 
 218      86
 219 0318 20018621 		.ascii	" \001\206!\201%q\212\026W\251\373\250\202(\005\002+"
 219      8125718A 
 219      1657A9FB 
 219      A8822805 
 219      022B
 220 032a DBB79829 		.ascii	"\333\267\230)Uk\245~\201z'[\326\244\336\367I\221\211"
 220      556BA57E 
 220      817A275B 
 220      D6A4DEF7 
 220      499189
 221 033d 09073710 		.ascii	"\011\0077\020n\243Bv\247J\225LH\004\025p\332\301\265"
 221      6EA34276 
 221      A74A954C 
 221      48041570 
 221      DAC1B5
 222 0350 17B8B1FA 		.ascii	"\027\270\261\372OE\024\356\262\274y\257o\324\307C\354"
 222      4F4514EE 
 222      B2BC79AF 
 222      6FD4C743 
 222      EC
 223 0361 C659C365 		.ascii	"\306Y\303eL6T\342j\220\366Hl\232Q\224\214\350\365\245"
 223      4C3654E2 
 223      6A90F648 
 223      6C9A5194 
 223      8CE8F5A5 
 224 0375 2159A4C2 		.ascii	"!Y\244\302\225\317\312c\2666\020RO_\360\217\313\011"
 224      95CFCA63 
 224      B6361052 
 224      4F5FF08F 
 224      CB09
 225 0387 4965DA3E 		.ascii	"Ie\332>Uk\250N\037\275\022\030\203\255\350\265T\274"
 225      556BA84E 
 225      1FBD1218 
 225      83ADE8B5 
 225      54BC
 226 0399 78CD2461 		.ascii	"x\315$a\323\025=\\\323\215\335\371\302\037.\034\021"
 226      D3153D5C 
 226      D38DDDF9 
 226      C21F2E1C 
ARM GAS  C:\Users\JEFFSN~1\AppData\Local\Temp\cc4Jbhvf.s 			page 17


 226      11
 227 03aa D879DA4F 		.ascii	"\330y\332O\270O\204\203\224\270\201\373\325\015\334"
 227      B84F8483 
 227      94B881FB 
 227      D50DDC
 228 03b9 03DD9F56 		.ascii	"\003\335\237Vy\274\200\304\3038V\365\212~\220\357AR"
 228      79BC80C4 
 228      C33856F5 
 228      8A7E90EF 
 228      4152
 229 03cb 0FD2F4DB 		.ascii	"\017\322\364\333\200\002\321\237\322\372c\017oJeB\275"
 229      8002D19F 
 229      D2FA630F 
 229      6F4A6542 
 229      BD
 230 03dc 8927209A 		.ascii	"\211' \232\365\023\316(\376\253g~!\302(\246G\326\305"
 230      F513CE28 
 230      FEAB677E 
 230      21C228A6 
 230      47D6C5
 231 03ef 939A7892 		.ascii	"\223\232x\222\211+\257W\217\256\023\323^\325\305S\020"
 231      892BAF57 
 231      8FAE13D3 
 231      5ED5C553 
 231      10
 232 0400 1D48668A 		.ascii	"\035Hf\212\351\027\372\206\007\314F}\317:\375\264\006"
 232      E917FA86 
 232      07CC467D 
 232      CF3AFDB4 
 232      06
 233 0411 A7F35329 		.ascii	"\247\363S)6\207U\316\311\2273\336\312\262\331SR\223"
 233      368755CE 
 233      C99733DE 
 233      CAB2D953 
 233      5293
 234 0423 33ACB6FD 		.ascii	"3\254\266\375rJn\316\007{\367D\354|'->%9\231{~\247\234"
 234      724A6ECE 
 234      077BF744 
 234      EC7C272D 
 234      3E253999 
 235 043b 23E7D99C 		.ascii	"#\347\331\234rV\2065\327\225g\227w\357\262\346\246\274"
 235      72568635 
 235      D7956797 
 235      77EFB2E6 
 235      A6BC
 236 044d BC3BC877 		.ascii	"\274;\310w\327\333Iv\356\231\240\355w\345|gn\236F\335"
 236      D7DB4976 
 236      EE99A0ED 
 236      77E57C67 
 236      6E9E46DD 
 237 0461 1C1C315B 		.ascii	"\034\0341[\226\035O\004m\277g\333'\273\034\217\007\313"
 237      961D4F04 
 237      6DBF67DB 
 237      27BB1C8F 
 237      07CB
 238 0473 9DB98EE7 		.ascii	"\235\271\216\347\0362\243\244\017\271'\203\001\2623"
 238      1E32A3A4 
ARM GAS  C:\Users\JEFFSN~1\AppData\Local\Temp\cc4Jbhvf.s 			page 18


 238      0FB92783 
 238      01B233
 239 0482 DD96ED92 		.ascii	"\335\226\355\222\303\\{s\234\333\237\015\201\262\037"
 239      C35C7B73 
 239      9CDB9F0D 
 239      81B21F
 240 0491 701E70C8 		.ascii	"p\036p\310\371H\010N\355\215\034[f\266\034\274\237i"
 240      F948084E 
 240      ED8D1C5B 
 240      66B61CBC 
 240      9F69
 241 04a3 B3EF7339 		.ascii	"\263\357s9\242d\366\265\325\211P)\313\346\264e\354\247"
 241      A264F6B5 
 241      D5895029 
 241      CBE6B465 
 241      ECA7
 242 04b5 E19E0E21 		.ascii	"\341\236\016!\267:\363\\v\247\230'\357\331\376\017\272"
 242      B73AF35C 
 242      76A79827 
 242      EFD9FE0F 
 242      BA
 243 04c6 CD95A0   		.ascii	"\315\225\240"
 244              		.text
 245              		.section	.gnu.lto_.symtab.1c02d3dd,"",%progbits
 246 0000 43617053 		.ascii	"CapSense_IdacCH1_SaveConfig\000"
 246      656E7365 
 246      5F496461 
 246      63434831 
 246      5F536176 
 247 001c 00       		.ascii	"\000"
 248 001d 00       		.ascii	"\000"
 249 001e 00       		.ascii	"\000"
 250 001f 00000000 		.ascii	"\000\000\000\000\000\000\000\000"
 250      00000000 
 251 0027 AD000000 		.ascii	"\255\000\000\000"
 252 002b 43617053 		.ascii	"CapSense_IdacCH1_RestoreConfig\000"
 252      656E7365 
 252      5F496461 
 252      63434831 
 252      5F526573 
 253 004a 00       		.ascii	"\000"
 254 004b 00       		.ascii	"\000"
 255 004c 00       		.ascii	"\000"
 256 004d 00000000 		.ascii	"\000\000\000\000\000\000\000\000"
 256      00000000 
 257 0055 AF000000 		.ascii	"\257\000\000\000"
 258 0059 43617053 		.ascii	"CapSense_IdacCH1_Sleep\000"
 258      656E7365 
 258      5F496461 
 258      63434831 
 258      5F536C65 
 259 0070 00       		.ascii	"\000"
 260 0071 00       		.ascii	"\000"
 261 0072 00       		.ascii	"\000"
 262 0073 00000000 		.ascii	"\000\000\000\000\000\000\000\000"
 262      00000000 
 263 007b B1000000 		.ascii	"\261\000\000\000"
ARM GAS  C:\Users\JEFFSN~1\AppData\Local\Temp\cc4Jbhvf.s 			page 19


 264 007f 43617053 		.ascii	"CapSense_IdacCH1_Wakeup\000"
 264      656E7365 
 264      5F496461 
 264      63434831 
 264      5F57616B 
 265 0097 00       		.ascii	"\000"
 266 0098 00       		.ascii	"\000"
 267 0099 00       		.ascii	"\000"
 268 009a 00000000 		.ascii	"\000\000\000\000\000\000\000\000"
 268      00000000 
 269 00a2 B3000000 		.ascii	"\263\000\000\000"
 270 00a6 43617053 		.ascii	"CapSense_IdacCH1_Stop\000"
 270      656E7365 
 270      5F496461 
 270      63434831 
 270      5F53746F 
 271 00bc 00       		.ascii	"\000"
 272 00bd 02       		.ascii	"\002"
 273 00be 00       		.ascii	"\000"
 274 00bf 00000000 		.ascii	"\000\000\000\000\000\000\000\000"
 274      00000000 
 275 00c7 B5000000 		.ascii	"\265\000\000\000"
 276 00cb 43617053 		.ascii	"CapSense_IdacCH1_SetValue\000"
 276      656E7365 
 276      5F496461 
 276      63434831 
 276      5F536574 
 277 00e5 00       		.ascii	"\000"
 278 00e6 02       		.ascii	"\002"
 279 00e7 00       		.ascii	"\000"
 280 00e8 00000000 		.ascii	"\000\000\000\000\000\000\000\000"
 280      00000000 
 281 00f0 BE000000 		.ascii	"\276\000\000\000"
 282 00f4 43617053 		.ascii	"CapSense_IdacCH1_Enable\000"
 282      656E7365 
 282      5F496461 
 282      63434831 
 282      5F456E61 
 283 010c 00       		.ascii	"\000"
 284 010d 02       		.ascii	"\002"
 285 010e 00       		.ascii	"\000"
 286 010f 00000000 		.ascii	"\000\000\000\000\000\000\000\000"
 286      00000000 
 287 0117 C0000000 		.ascii	"\300\000\000\000"
 288              		.text
 289              		.section	.gnu.lto_.opts,"",%progbits
 290 0000 272D666D 		.ascii	"'-fmath-errno' '-fsigned-zeros' '-ftrapping-math' '"
 290      6174682D 
 290      6572726E 
 290      6F272027 
 290      2D667369 
 291 0033 2D666E6F 		.ascii	"-fno-trapv' '-fno-strict-overflow' '-fno-openmp' '-"
 291      2D747261 
 291      70762720 
 291      272D666E 
 291      6F2D7374 
 292 0066 666E6F2D 		.ascii	"fno-openacc' '-mcpu=cortex-m3' '-mthumb' '-g' '-Og'"
ARM GAS  C:\Users\JEFFSN~1\AppData\Local\Temp\cc4Jbhvf.s 			page 20


 292      6F70656E 
 292      61636327 
 292      20272D6D 
 292      6370753D 
 293 0099 20272D66 		.ascii	" '-ffunction-sections' '-ffat-lto-objects' '-finlin"
 293      66756E63 
 293      74696F6E 
 293      2D736563 
 293      74696F6E 
 294 00cc 652D6675 		.ascii	"e-functions' '-flto'\000"
 294      6E637469 
 294      6F6E7327 
 294      20272D66 
 294      6C746F27 
 295              		.text
 296              		.cfi_sections	.debug_frame
 297              		.section	.text.CapSense_IdacCH1_SaveConfig,"ax",%progbits
 298              		.align	2
 299              		.global	CapSense_IdacCH1_SaveConfig
 300              		.thumb
 301              		.thumb_func
 302              		.type	CapSense_IdacCH1_SaveConfig, %function
 303              	CapSense_IdacCH1_SaveConfig:
 304              	.LFB0:
 305              		.file 1 "Generated_Source\\PSoC5\\CapSense_IdacCH1_PM.c"
   1:Generated_Source\PSoC5/CapSense_IdacCH1_PM.c **** /*******************************************************************************
   2:Generated_Source\PSoC5/CapSense_IdacCH1_PM.c **** * File Name: CapSense_IdacCH1.c
   3:Generated_Source\PSoC5/CapSense_IdacCH1_PM.c **** * Version 2.0
   4:Generated_Source\PSoC5/CapSense_IdacCH1_PM.c **** *
   5:Generated_Source\PSoC5/CapSense_IdacCH1_PM.c **** * Description:
   6:Generated_Source\PSoC5/CapSense_IdacCH1_PM.c **** *  This file provides the power management source code to API for the
   7:Generated_Source\PSoC5/CapSense_IdacCH1_PM.c **** *  IDAC8.
   8:Generated_Source\PSoC5/CapSense_IdacCH1_PM.c **** *
   9:Generated_Source\PSoC5/CapSense_IdacCH1_PM.c **** * Note:
  10:Generated_Source\PSoC5/CapSense_IdacCH1_PM.c **** *  None
  11:Generated_Source\PSoC5/CapSense_IdacCH1_PM.c **** *
  12:Generated_Source\PSoC5/CapSense_IdacCH1_PM.c **** ********************************************************************************
  13:Generated_Source\PSoC5/CapSense_IdacCH1_PM.c **** * Copyright 2008-2012, Cypress Semiconductor Corporation.  All rights reserved.
  14:Generated_Source\PSoC5/CapSense_IdacCH1_PM.c **** * You may use this file only in accordance with the license, terms, conditions, 
  15:Generated_Source\PSoC5/CapSense_IdacCH1_PM.c **** * disclaimers, and limitations in the end user license agreement accompanying 
  16:Generated_Source\PSoC5/CapSense_IdacCH1_PM.c **** * the software package with which this file was provided.
  17:Generated_Source\PSoC5/CapSense_IdacCH1_PM.c **** *******************************************************************************/
  18:Generated_Source\PSoC5/CapSense_IdacCH1_PM.c **** 
  19:Generated_Source\PSoC5/CapSense_IdacCH1_PM.c **** 
  20:Generated_Source\PSoC5/CapSense_IdacCH1_PM.c **** #include "CapSense_IdacCH1.h"
  21:Generated_Source\PSoC5/CapSense_IdacCH1_PM.c **** 
  22:Generated_Source\PSoC5/CapSense_IdacCH1_PM.c **** static CapSense_IdacCH1_backupStruct CapSense_IdacCH1_backup;
  23:Generated_Source\PSoC5/CapSense_IdacCH1_PM.c **** 
  24:Generated_Source\PSoC5/CapSense_IdacCH1_PM.c **** 
  25:Generated_Source\PSoC5/CapSense_IdacCH1_PM.c **** /*******************************************************************************
  26:Generated_Source\PSoC5/CapSense_IdacCH1_PM.c **** * Function Name: CapSense_IdacCH1_SaveConfig
  27:Generated_Source\PSoC5/CapSense_IdacCH1_PM.c **** ********************************************************************************
  28:Generated_Source\PSoC5/CapSense_IdacCH1_PM.c **** * Summary:
  29:Generated_Source\PSoC5/CapSense_IdacCH1_PM.c **** *  Save the current user configuration
  30:Generated_Source\PSoC5/CapSense_IdacCH1_PM.c **** *
  31:Generated_Source\PSoC5/CapSense_IdacCH1_PM.c **** * Parameters:
  32:Generated_Source\PSoC5/CapSense_IdacCH1_PM.c **** *  void
ARM GAS  C:\Users\JEFFSN~1\AppData\Local\Temp\cc4Jbhvf.s 			page 21


  33:Generated_Source\PSoC5/CapSense_IdacCH1_PM.c **** *
  34:Generated_Source\PSoC5/CapSense_IdacCH1_PM.c **** * Return:
  35:Generated_Source\PSoC5/CapSense_IdacCH1_PM.c **** *  void
  36:Generated_Source\PSoC5/CapSense_IdacCH1_PM.c **** *
  37:Generated_Source\PSoC5/CapSense_IdacCH1_PM.c **** *******************************************************************************/
  38:Generated_Source\PSoC5/CapSense_IdacCH1_PM.c **** void CapSense_IdacCH1_SaveConfig(void) 
  39:Generated_Source\PSoC5/CapSense_IdacCH1_PM.c **** {
 306              		.loc 1 39 0
 307              		.cfi_startproc
 308              		@ args = 0, pretend = 0, frame = 0
 309              		@ frame_needed = 0, uses_anonymous_args = 0
 310              		@ link register save eliminated.
  40:Generated_Source\PSoC5/CapSense_IdacCH1_PM.c ****     if (!((CapSense_IdacCH1_CR1 & CapSense_IdacCH1_SRC_MASK) == CapSense_IdacCH1_SRC_UDB))
 311              		.loc 1 40 0
 312 0000 044B     		ldr	r3, .L3
 313 0002 1B78     		ldrb	r3, [r3]	@ zero_extendqisi2
 314 0004 13F0200F 		tst	r3, #32
 315 0008 03D1     		bne	.L1
  41:Generated_Source\PSoC5/CapSense_IdacCH1_PM.c ****     {
  42:Generated_Source\PSoC5/CapSense_IdacCH1_PM.c ****         CapSense_IdacCH1_backup.data_value = CapSense_IdacCH1_Data;
 316              		.loc 1 42 0
 317 000a 034B     		ldr	r3, .L3+4
 318 000c 1A78     		ldrb	r2, [r3]	@ zero_extendqisi2
 319 000e 034B     		ldr	r3, .L3+8
 320 0010 5A70     		strb	r2, [r3, #1]
 321              	.L1:
 322 0012 7047     		bx	lr
 323              	.L4:
 324              		.align	2
 325              	.L3:
 326 0014 25580040 		.word	1073764389
 327 0018 815B0040 		.word	1073765249
 328 001c 00000000 		.word	.LANCHOR0
 329              		.cfi_endproc
 330              	.LFE0:
 331              		.size	CapSense_IdacCH1_SaveConfig, .-CapSense_IdacCH1_SaveConfig
 332              		.section	.text.CapSense_IdacCH1_RestoreConfig,"ax",%progbits
 333              		.align	2
 334              		.global	CapSense_IdacCH1_RestoreConfig
 335              		.thumb
 336              		.thumb_func
 337              		.type	CapSense_IdacCH1_RestoreConfig, %function
 338              	CapSense_IdacCH1_RestoreConfig:
 339              	.LFB1:
  43:Generated_Source\PSoC5/CapSense_IdacCH1_PM.c ****     }
  44:Generated_Source\PSoC5/CapSense_IdacCH1_PM.c **** }
  45:Generated_Source\PSoC5/CapSense_IdacCH1_PM.c **** 
  46:Generated_Source\PSoC5/CapSense_IdacCH1_PM.c **** 
  47:Generated_Source\PSoC5/CapSense_IdacCH1_PM.c **** /*******************************************************************************
  48:Generated_Source\PSoC5/CapSense_IdacCH1_PM.c **** * Function Name: CapSense_IdacCH1_RestoreConfig
  49:Generated_Source\PSoC5/CapSense_IdacCH1_PM.c **** ********************************************************************************
  50:Generated_Source\PSoC5/CapSense_IdacCH1_PM.c **** *
  51:Generated_Source\PSoC5/CapSense_IdacCH1_PM.c **** * Summary:
  52:Generated_Source\PSoC5/CapSense_IdacCH1_PM.c **** *  Restores the current user configuration.
  53:Generated_Source\PSoC5/CapSense_IdacCH1_PM.c **** *
  54:Generated_Source\PSoC5/CapSense_IdacCH1_PM.c **** * Parameters:
  55:Generated_Source\PSoC5/CapSense_IdacCH1_PM.c **** *  void
ARM GAS  C:\Users\JEFFSN~1\AppData\Local\Temp\cc4Jbhvf.s 			page 22


  56:Generated_Source\PSoC5/CapSense_IdacCH1_PM.c **** *
  57:Generated_Source\PSoC5/CapSense_IdacCH1_PM.c **** * Return:
  58:Generated_Source\PSoC5/CapSense_IdacCH1_PM.c **** *  void
  59:Generated_Source\PSoC5/CapSense_IdacCH1_PM.c **** *
  60:Generated_Source\PSoC5/CapSense_IdacCH1_PM.c **** *******************************************************************************/
  61:Generated_Source\PSoC5/CapSense_IdacCH1_PM.c **** void CapSense_IdacCH1_RestoreConfig(void) 
  62:Generated_Source\PSoC5/CapSense_IdacCH1_PM.c **** {
 340              		.loc 1 62 0
 341              		.cfi_startproc
 342              		@ args = 0, pretend = 0, frame = 0
 343              		@ frame_needed = 0, uses_anonymous_args = 0
 344              		@ link register save eliminated.
  63:Generated_Source\PSoC5/CapSense_IdacCH1_PM.c ****     if (!((CapSense_IdacCH1_CR1 & CapSense_IdacCH1_SRC_MASK) == CapSense_IdacCH1_SRC_UDB))
 345              		.loc 1 63 0
 346 0000 0E4B     		ldr	r3, .L8
 347 0002 1B78     		ldrb	r3, [r3]	@ zero_extendqisi2
 348 0004 13F0200F 		tst	r3, #32
 349 0008 16D1     		bne	.L5
  64:Generated_Source\PSoC5/CapSense_IdacCH1_PM.c ****     {
  65:Generated_Source\PSoC5/CapSense_IdacCH1_PM.c ****         if((CapSense_IdacCH1_Strobe & CapSense_IdacCH1_STRB_MASK) == CapSense_IdacCH1_STRB_EN)
 350              		.loc 1 65 0
 351 000a 0D4B     		ldr	r3, .L8+4
 352 000c 1B78     		ldrb	r3, [r3]	@ zero_extendqisi2
 353 000e 13F0080F 		tst	r3, #8
 354 0012 0DD0     		beq	.L7
  66:Generated_Source\PSoC5/CapSense_IdacCH1_PM.c ****         {
  67:Generated_Source\PSoC5/CapSense_IdacCH1_PM.c ****             CapSense_IdacCH1_Strobe &= (uint8)(~CapSense_IdacCH1_STRB_MASK);
 355              		.loc 1 67 0
 356 0014 0A4B     		ldr	r3, .L8+4
 357 0016 1A78     		ldrb	r2, [r3]	@ zero_extendqisi2
 358 0018 02F0F702 		and	r2, r2, #247
 359 001c 1A70     		strb	r2, [r3]
  68:Generated_Source\PSoC5/CapSense_IdacCH1_PM.c ****             CapSense_IdacCH1_Data = CapSense_IdacCH1_backup.data_value;
 360              		.loc 1 68 0
 361 001e 094A     		ldr	r2, .L8+8
 362 0020 5178     		ldrb	r1, [r2, #1]	@ zero_extendqisi2
 363 0022 094A     		ldr	r2, .L8+12
 364 0024 1170     		strb	r1, [r2]
  69:Generated_Source\PSoC5/CapSense_IdacCH1_PM.c ****             CapSense_IdacCH1_Strobe |= CapSense_IdacCH1_STRB_EN;
 365              		.loc 1 69 0
 366 0026 1A78     		ldrb	r2, [r3]	@ zero_extendqisi2
 367 0028 42F00802 		orr	r2, r2, #8
 368 002c 1A70     		strb	r2, [r3]
 369 002e 7047     		bx	lr
 370              	.L7:
  70:Generated_Source\PSoC5/CapSense_IdacCH1_PM.c ****         }
  71:Generated_Source\PSoC5/CapSense_IdacCH1_PM.c ****         else
  72:Generated_Source\PSoC5/CapSense_IdacCH1_PM.c ****         {
  73:Generated_Source\PSoC5/CapSense_IdacCH1_PM.c ****             CapSense_IdacCH1_Data = CapSense_IdacCH1_backup.data_value;
 371              		.loc 1 73 0
 372 0030 044B     		ldr	r3, .L8+8
 373 0032 5A78     		ldrb	r2, [r3, #1]	@ zero_extendqisi2
 374 0034 044B     		ldr	r3, .L8+12
 375 0036 1A70     		strb	r2, [r3]
 376              	.L5:
 377 0038 7047     		bx	lr
 378              	.L9:
ARM GAS  C:\Users\JEFFSN~1\AppData\Local\Temp\cc4Jbhvf.s 			page 23


 379 003a 00BF     		.align	2
 380              	.L8:
 381 003c 25580040 		.word	1073764389
 382 0040 8F5A0040 		.word	1073765007
 383 0044 00000000 		.word	.LANCHOR0
 384 0048 815B0040 		.word	1073765249
 385              		.cfi_endproc
 386              	.LFE1:
 387              		.size	CapSense_IdacCH1_RestoreConfig, .-CapSense_IdacCH1_RestoreConfig
 388              		.section	.text.CapSense_IdacCH1_Sleep,"ax",%progbits
 389              		.align	2
 390              		.global	CapSense_IdacCH1_Sleep
 391              		.thumb
 392              		.thumb_func
 393              		.type	CapSense_IdacCH1_Sleep, %function
 394              	CapSense_IdacCH1_Sleep:
 395              	.LFB2:
  74:Generated_Source\PSoC5/CapSense_IdacCH1_PM.c ****         }
  75:Generated_Source\PSoC5/CapSense_IdacCH1_PM.c ****     }
  76:Generated_Source\PSoC5/CapSense_IdacCH1_PM.c **** }
  77:Generated_Source\PSoC5/CapSense_IdacCH1_PM.c **** 
  78:Generated_Source\PSoC5/CapSense_IdacCH1_PM.c **** 
  79:Generated_Source\PSoC5/CapSense_IdacCH1_PM.c **** /*******************************************************************************
  80:Generated_Source\PSoC5/CapSense_IdacCH1_PM.c **** * Function Name: CapSense_IdacCH1_Sleep
  81:Generated_Source\PSoC5/CapSense_IdacCH1_PM.c **** ********************************************************************************
  82:Generated_Source\PSoC5/CapSense_IdacCH1_PM.c **** * Summary:
  83:Generated_Source\PSoC5/CapSense_IdacCH1_PM.c **** *  Stop and Save the user configuration
  84:Generated_Source\PSoC5/CapSense_IdacCH1_PM.c **** *
  85:Generated_Source\PSoC5/CapSense_IdacCH1_PM.c **** * Parameters:
  86:Generated_Source\PSoC5/CapSense_IdacCH1_PM.c **** *  void:
  87:Generated_Source\PSoC5/CapSense_IdacCH1_PM.c **** *
  88:Generated_Source\PSoC5/CapSense_IdacCH1_PM.c **** * Return:
  89:Generated_Source\PSoC5/CapSense_IdacCH1_PM.c **** *  void
  90:Generated_Source\PSoC5/CapSense_IdacCH1_PM.c **** *
  91:Generated_Source\PSoC5/CapSense_IdacCH1_PM.c **** * Global variables:
  92:Generated_Source\PSoC5/CapSense_IdacCH1_PM.c **** *  CapSense_IdacCH1_backup.enableState: Is modified depending on the enable 
  93:Generated_Source\PSoC5/CapSense_IdacCH1_PM.c **** *  state of the block before entering sleep mode.
  94:Generated_Source\PSoC5/CapSense_IdacCH1_PM.c **** *
  95:Generated_Source\PSoC5/CapSense_IdacCH1_PM.c **** *******************************************************************************/
  96:Generated_Source\PSoC5/CapSense_IdacCH1_PM.c **** void CapSense_IdacCH1_Sleep(void) 
  97:Generated_Source\PSoC5/CapSense_IdacCH1_PM.c **** {
 396              		.loc 1 97 0
 397              		.cfi_startproc
 398              		@ args = 0, pretend = 0, frame = 0
 399              		@ frame_needed = 0, uses_anonymous_args = 0
 400 0000 08B5     		push	{r3, lr}
 401              		.cfi_def_cfa_offset 8
 402              		.cfi_offset 3, -8
 403              		.cfi_offset 14, -4
  98:Generated_Source\PSoC5/CapSense_IdacCH1_PM.c ****     if(CapSense_IdacCH1_ACT_PWR_EN == (CapSense_IdacCH1_PWRMGR & CapSense_IdacCH1_ACT_PWR_EN))
 404              		.loc 1 98 0
 405 0002 084B     		ldr	r3, .L14
 406 0004 1B78     		ldrb	r3, [r3]	@ zero_extendqisi2
 407 0006 13F0020F 		tst	r3, #2
 408 000a 03D0     		beq	.L11
  99:Generated_Source\PSoC5/CapSense_IdacCH1_PM.c ****     {
 100:Generated_Source\PSoC5/CapSense_IdacCH1_PM.c ****         /* IDAC8 is enabled */
ARM GAS  C:\Users\JEFFSN~1\AppData\Local\Temp\cc4Jbhvf.s 			page 24


 101:Generated_Source\PSoC5/CapSense_IdacCH1_PM.c ****         CapSense_IdacCH1_backup.enableState = 1u;
 409              		.loc 1 101 0
 410 000c 0122     		movs	r2, #1
 411 000e 064B     		ldr	r3, .L14+4
 412 0010 1A70     		strb	r2, [r3]
 413 0012 02E0     		b	.L12
 414              	.L11:
 102:Generated_Source\PSoC5/CapSense_IdacCH1_PM.c ****     }
 103:Generated_Source\PSoC5/CapSense_IdacCH1_PM.c ****     else
 104:Generated_Source\PSoC5/CapSense_IdacCH1_PM.c ****     {
 105:Generated_Source\PSoC5/CapSense_IdacCH1_PM.c ****         /* IDAC8 is disabled */
 106:Generated_Source\PSoC5/CapSense_IdacCH1_PM.c ****         CapSense_IdacCH1_backup.enableState = 0u;
 415              		.loc 1 106 0
 416 0014 0022     		movs	r2, #0
 417 0016 044B     		ldr	r3, .L14+4
 418 0018 1A70     		strb	r2, [r3]
 419              	.L12:
 107:Generated_Source\PSoC5/CapSense_IdacCH1_PM.c ****     }
 108:Generated_Source\PSoC5/CapSense_IdacCH1_PM.c **** 
 109:Generated_Source\PSoC5/CapSense_IdacCH1_PM.c ****     CapSense_IdacCH1_Stop();
 420              		.loc 1 109 0
 421 001a FFF7FEFF 		bl	CapSense_IdacCH1_Stop
 422              	.LVL0:
 110:Generated_Source\PSoC5/CapSense_IdacCH1_PM.c ****     CapSense_IdacCH1_SaveConfig();
 423              		.loc 1 110 0
 424 001e FFF7FEFF 		bl	CapSense_IdacCH1_SaveConfig
 425              	.LVL1:
 426 0022 08BD     		pop	{r3, pc}
 427              	.L15:
 428              		.align	2
 429              	.L14:
 430 0024 A8430040 		.word	1073759144
 431 0028 00000000 		.word	.LANCHOR0
 432              		.cfi_endproc
 433              	.LFE2:
 434              		.size	CapSense_IdacCH1_Sleep, .-CapSense_IdacCH1_Sleep
 435              		.section	.text.CapSense_IdacCH1_Wakeup,"ax",%progbits
 436              		.align	2
 437              		.global	CapSense_IdacCH1_Wakeup
 438              		.thumb
 439              		.thumb_func
 440              		.type	CapSense_IdacCH1_Wakeup, %function
 441              	CapSense_IdacCH1_Wakeup:
 442              	.LFB3:
 111:Generated_Source\PSoC5/CapSense_IdacCH1_PM.c **** }
 112:Generated_Source\PSoC5/CapSense_IdacCH1_PM.c **** 
 113:Generated_Source\PSoC5/CapSense_IdacCH1_PM.c **** 
 114:Generated_Source\PSoC5/CapSense_IdacCH1_PM.c **** /*******************************************************************************
 115:Generated_Source\PSoC5/CapSense_IdacCH1_PM.c **** * Function Name: CapSense_IdacCH1_Wakeup
 116:Generated_Source\PSoC5/CapSense_IdacCH1_PM.c **** ********************************************************************************
 117:Generated_Source\PSoC5/CapSense_IdacCH1_PM.c **** *
 118:Generated_Source\PSoC5/CapSense_IdacCH1_PM.c **** * Summary:
 119:Generated_Source\PSoC5/CapSense_IdacCH1_PM.c **** *  Restores and enables the user configuration
 120:Generated_Source\PSoC5/CapSense_IdacCH1_PM.c **** *  
 121:Generated_Source\PSoC5/CapSense_IdacCH1_PM.c **** * Parameters:
 122:Generated_Source\PSoC5/CapSense_IdacCH1_PM.c **** *  void
 123:Generated_Source\PSoC5/CapSense_IdacCH1_PM.c **** *
ARM GAS  C:\Users\JEFFSN~1\AppData\Local\Temp\cc4Jbhvf.s 			page 25


 124:Generated_Source\PSoC5/CapSense_IdacCH1_PM.c **** * Return:
 125:Generated_Source\PSoC5/CapSense_IdacCH1_PM.c **** *  void
 126:Generated_Source\PSoC5/CapSense_IdacCH1_PM.c **** *
 127:Generated_Source\PSoC5/CapSense_IdacCH1_PM.c **** * Global variables:
 128:Generated_Source\PSoC5/CapSense_IdacCH1_PM.c **** *  CapSense_IdacCH1_backup.enableState: Is used to restore the enable state of 
 129:Generated_Source\PSoC5/CapSense_IdacCH1_PM.c **** *  block on wakeup from sleep mode.
 130:Generated_Source\PSoC5/CapSense_IdacCH1_PM.c **** *
 131:Generated_Source\PSoC5/CapSense_IdacCH1_PM.c **** *******************************************************************************/
 132:Generated_Source\PSoC5/CapSense_IdacCH1_PM.c **** void CapSense_IdacCH1_Wakeup(void) 
 133:Generated_Source\PSoC5/CapSense_IdacCH1_PM.c **** {
 443              		.loc 1 133 0
 444              		.cfi_startproc
 445              		@ args = 0, pretend = 0, frame = 0
 446              		@ frame_needed = 0, uses_anonymous_args = 0
 447 0000 08B5     		push	{r3, lr}
 448              		.cfi_def_cfa_offset 8
 449              		.cfi_offset 3, -8
 450              		.cfi_offset 14, -4
 134:Generated_Source\PSoC5/CapSense_IdacCH1_PM.c ****     CapSense_IdacCH1_RestoreConfig();
 451              		.loc 1 134 0
 452 0002 FFF7FEFF 		bl	CapSense_IdacCH1_RestoreConfig
 453              	.LVL2:
 135:Generated_Source\PSoC5/CapSense_IdacCH1_PM.c ****     
 136:Generated_Source\PSoC5/CapSense_IdacCH1_PM.c ****     if(CapSense_IdacCH1_backup.enableState == 1u)
 454              		.loc 1 136 0
 455 0006 054B     		ldr	r3, .L19
 456 0008 1B78     		ldrb	r3, [r3]	@ zero_extendqisi2
 457 000a 012B     		cmp	r3, #1
 458 000c 05D1     		bne	.L16
 137:Generated_Source\PSoC5/CapSense_IdacCH1_PM.c ****     {
 138:Generated_Source\PSoC5/CapSense_IdacCH1_PM.c ****         /* Enable IDAC8's operation */
 139:Generated_Source\PSoC5/CapSense_IdacCH1_PM.c ****         CapSense_IdacCH1_Enable();
 459              		.loc 1 139 0
 460 000e FFF7FEFF 		bl	CapSense_IdacCH1_Enable
 461              	.LVL3:
 140:Generated_Source\PSoC5/CapSense_IdacCH1_PM.c ****         
 141:Generated_Source\PSoC5/CapSense_IdacCH1_PM.c ****         /* Set the data register */
 142:Generated_Source\PSoC5/CapSense_IdacCH1_PM.c ****         CapSense_IdacCH1_SetValue(CapSense_IdacCH1_Data);
 462              		.loc 1 142 0
 463 0012 034B     		ldr	r3, .L19+4
 464 0014 1878     		ldrb	r0, [r3]	@ zero_extendqisi2
 465 0016 FFF7FEFF 		bl	CapSense_IdacCH1_SetValue
 466              	.LVL4:
 467              	.L16:
 468 001a 08BD     		pop	{r3, pc}
 469              	.L20:
 470              		.align	2
 471              	.L19:
 472 001c 00000000 		.word	.LANCHOR0
 473 0020 815B0040 		.word	1073765249
 474              		.cfi_endproc
 475              	.LFE3:
 476              		.size	CapSense_IdacCH1_Wakeup, .-CapSense_IdacCH1_Wakeup
 477              		.bss
 478              		.align	2
 479              		.set	.LANCHOR0,. + 0
 480              		.type	CapSense_IdacCH1_backup, %object
ARM GAS  C:\Users\JEFFSN~1\AppData\Local\Temp\cc4Jbhvf.s 			page 26


 481              		.size	CapSense_IdacCH1_backup, 2
 482              	CapSense_IdacCH1_backup:
 483 0000 0000     		.space	2
 484              		.text
 485              	.Letext0:
 486              		.file 2 "Generated_Source\\PSoC5\\cytypes.h"
 487              		.file 3 "Generated_Source\\PSoC5\\CapSense_IdacCH1.h"