ARM GAS  C:\Users\JEFFSN~1\AppData\Local\Temp\cccvU2TL.s 			page 1


   1              		.syntax unified
   2              		.cpu cortex-m3
   3              		.fpu softvfp
   4              		.eabi_attribute 20, 1
   5              		.eabi_attribute 21, 1
   6              		.eabi_attribute 23, 3
   7              		.eabi_attribute 24, 1
   8              		.eabi_attribute 25, 1
   9              		.eabi_attribute 26, 1
  10              		.eabi_attribute 30, 1
  11              		.eabi_attribute 34, 1
  12              		.eabi_attribute 18, 4
  13              		.thumb
  14              		.syntax unified
  15              		.file	"CapSense_AMuxCH1.c"
  16              		.text
  17              	.Ltext0:
  18              		.section	.gnu.lto_.profile.ed0dd1c7,"",%progbits
  19 0000 789C6361 		.ascii	"x\234ca`d`a`\000\222\231\322\000\001W\000\217"
  19      60646061 
  19      60009299 
  19      D2000157 
  19      008F
  20              		.text
  21              		.section	.gnu.lto_.inline.ed0dd1c7,"",%progbits
  22 0000 789C6361 		.ascii	"x\234ca`d\000\201%\014\010\300\306\300\300-\301\310"
  22      60640081 
  22      250C08C0 
  22      C6C0C02D 
  22      C1C8
  23 0012 C0C471C0 		.ascii	"\300\304q\300\216\201m\201<\023H\214\211\233\201\201"
  23      8E816D81 
  23      3C13488C 
  23      899B8181 
  24 0022 71821F8C 		.ascii	"q\202\037\214b\340x\006\324\310\304\266\3419\023\222"
  24      62E07806 
  24      D4C8C4B6 
  24      E1391392 
  25 0032 1246901C 		.ascii	"\022F\220\0343\003+/P\212\351\002?\\\206\221\013H\260"
  25      33032B2F 
  25      508AE902 
  25      3F5C8691 
  25      0B48B0
  26 0045 32B0F000 		.ascii	"2\260\360\000\305A\346#\013\263a\027fg`\227@3\005j7"
  26      C541E623 
  26      0BB36117 
  26      66676097 
  26      4033056A 
  27 005a 589A0100 		.ascii	"X\232\001\000\320\263\017)"
  27      D0B30F29 
  28              		.text
  29              		.section	.gnu.lto_.jmpfuncs.ed0dd1c7,"",%progbits
  30 0000 789C6361 		.ascii	"x\234ca`d\000\001\031\006\004`\003\223L@\314\014\304"
  30      60640001 
  30      19060460 
  30      03934C40 
  30      CC0CC4
ARM GAS  C:\Users\JEFFSN~1\AppData\Local\Temp\cccvU2TL.s 			page 2


  31 0013 AC501176 		.ascii	"\254P\021v\260(\000\0074\000?"
  31      B0280007 
  31      34003F
  32              		.text
  33              		.section	.gnu.lto_.pureconst.ed0dd1c7,"",%progbits
  34 0000 789C6361 		.ascii	"x\234ca`d\340e```c\220`\222`\226`\225`\223`\227\000"
  34      6064E065 
  34      60606063 
  34      90609260 
  34      96609560 
  35 0018 00057700 		.ascii	"\000\005w\000\300"
  35      C0
  36              		.text
  37              		.section	.gnu.lto_CapSense_AMuxCH1_FastSelect.ed0dd1c7,"",%progbits
  38 0000 789C954F 		.ascii	"x\234\225OMkSQ\024<s\317{\371\242\202? \225\356J\012"
  38      4D6B5351 
  38      143C73CF 
  38      7BF9A282 
  38      3F2095EE 
  39 0016 4A44FD01 		.ascii	"JD\375\001\222\205\"\010b\266\225\020\342\003\027\222"
  39      92852208 
  39      62B69510 
  39      E2031792 
  40 0026 966AC15D 		.ascii	"\226j\301]n\223<\324\235 \246 HP(i5\032\237\320Ev\257"
  40      6E933CD4 
  40      9D20A620 
  40      48502869 
  40      351A9FD0 
  41 003d 553188D4 		.ascii	"U1\210\324\225\033+bE\212\024\027\015*\010\222\274\236"
  41      951B2B62 
  41      458A1417 
  41      0D2A0892 
  41      BC9E
  42 004f 7B037621 		.ascii	"{\003v!.<p\271\207af\316\214C 3\277\344;N\243\007\227"
  42      2E3C70B9 
  42      876166CE 
  42      8C432033 
  42      BFE43B4E 
  43 0066 A06E6D10 		.ascii	"\240nm\020-$\224\342^\226t\312\351\215\223\036c8#\330"
  43      2D2494E2 
  43      5E9674CA 
  43      E98D931E 
  43      633823D8 
  44 007a 01CCA213 		.ascii	"\001\314\242\023\240\212b\007\025\374T\003\205\365\353"
  44      A08A6207 
  44      15FC5403 
  44      85F5EB
  45 0089 DB5D9569 		.ascii	"\333]\225ii\231O\3760\253\227C\370L\024){\202\320BF"
  45      69994FFE 
  45      30AB9743 
  45      F84C1429 
  45      7B82D042 
  46 009e 58ED0FCF 		.ascii	"X\355\017\317?\306\3700H\366\367\253\367\327\222\223"
  46      3FC6F830 
  46      48F6F7AB 
  46      F7D79293 
  47 00ae 4B5A57B5 		.ascii	"KZW\265\016.h\366\031X\006\213\002\307\322\310\246I"
ARM GAS  C:\Users\JEFFSN~1\AppData\Local\Temp\cccvU2TL.s 			page 3


  47      0E2E68F6 
  47      1958068B 
  47      02C7D2C8 
  47      A649
  48 00c0 00C20A26 		.ascii	"\000\302\012&\015\371s0\274s V7\366\023#S<D\314\344"
  48      0DF97330 
  48      BC732056 
  48      37F61323 
  48      533C44CC 
  49 00d5 EF9C0F75 		.ascii	"\357\234\017u\024\325t\370=\276\326H%Xd\312\205\325"
  49      14D574F8 
  49      3DBED648 
  49      255864CA 
  49      85D5
  50 00e7 D1AE104D 		.ascii	"\321\256\020M\330\276R\346\347mT\033\375\301V\322hk"
  50      D8BE52E6 
  50      E76D541B 
  50      FDC156D2 
  50      686B
  51 00f9 CCE2DBF0 		.ascii	"\314\342\333\360\327\337\306\177(\237\331f\352v\277"
  51      D7DFC67F 
  51      289FD966 
  51      EA76BF
  52 0108 6DC62B03 		.ascii	"m\306+\003}C\353\203\202\335\224\006\006\336y\363\356"
  52      7D43EB83 
  52      82DD9406 
  52      06DE79F3 
  52      EE
  53 0119 45AA897B 		.ascii	"E\252\211{\013\332\342@[j?BZR<F\023\264\205\372f\355"
  53      0BDAE240 
  53      5B6A3F42 
  53      5A523C46 
  53      13B485FA 
  54 012f D0BE6BC7 		.ascii	"\320\276k\307\377\262\2220\256\012\021\360\304\020\311"
  54      FFB29230 
  54      AE0A11F0 
  54      C410C9
  55 013e A460EA65 		.ascii	"\244`\352e\371+\352\341\357Wc\206\375\367I'RR\012\035"
  55      F92BEAE1 
  55      EF576386 
  55      FDF74927 
  55      52520A1D 
  56 0152 5448AC7C 		.ascii	"TH\254|v\255\316\261\351\215\360\366k\365O\241\224\305"
  56      76ADCEB1 
  56      E98DF0F6 
  56      6BF54FA1 
  56      94C5
  57 0164 532B748D 		.ascii	"S+t\215P\312\336\015^>\260e\377\243Z\360\247\3323\251"
  57      50CADE0D 
  57      5E3EB065 
  57      FFA35AF0 
  57      A7DA33A9 
  58 0178 265EB483 		.ascii	"&^\264\203j\270x\306\2365\263+\011%\216\\\233:\345\225"
  58      6AB878C6 
  58      9E35B32B 
  58      09258E5C 
  58      9B3AE595 
ARM GAS  C:\Users\JEFFSN~1\AppData\Local\Temp\cccvU2TL.s 			page 4


  59 018c BDB9E255 		.ascii	"\275\271\342U\357b!?3?W\362\246\317\345gr'\246s\305"
  59      EF62213F 
  59      333F57F2 
  59      A6CFE567 
  59      7227A673 
  60 01a1 D9BC57BE 		.ascii	"\331\274W\276\342\025N\236\235\277\226;}\364H\211\342"
  60      E2154E9E 
  60      9DBF963B 
  60      7DF44889 
  60      E2
  61 01b2 A54BC572 		.ascii	"\245K\305r\331\273\274\007\035[\303O"
  61      D9BBBC07 
  61      1D5BC34F 
  62              		.text
  63              		.section	.gnu.lto_CapSense_AMuxCH1_DisconnectAll.ed0dd1c7,"",%progbits
  64 0000 789C3550 		.ascii	"x\2345P1O\024a\020\2357\337\356\336A\340\244\241\243"
  64      314F1461 
  64      109D37DF 
  64      EEDE41E0 
  64      A4A1A3
  65 0013 A0A1C044 		.ascii	"\240\241\300D\343\305\370\003\314\025\322\210\304kI"
  65      E3C5F803 
  65      CC15D288 
  65      C46B49
  66 0022 C8E55C62 		.ascii	"\310\345\\bu\030\224\304\356>\330;\241\"\020\003\206"
  66      751894C4 
  66      EE3ED83B 
  66      A1221003 
  66      86
  67 0033 021A0A4E 		.ascii	"\002\032\012N\020\310\025&^\003\013Z\232\243\2604&\272"
  67      10C81526 
  67      5E030B5A 
  67      9AA3B034 
  67      26BA
  68 0045 860B319A 		.ascii	"\206\0131\232\000\201N<gvu\222\375f\362v\346\2757\343"
  68      00814E3C 
  68      67767592 
  68      FD66F276 
  68      E6BD37E3 
  69 0059 1048635B 		.ascii	"\020Hc[RV\362\003\371\340\021x\241I4\235f8Ia\222\342"
  69      5256F203 
  69      F9E01178 
  69      A149349D 
  69      66384961 
  70 006f 20EDB0D9 		.ascii	" \355\260\331\371@d;\335\250\203l\227\013(n\323\240"
  70      F940643B 
  70      DDA8836C 
  70      970B286E 
  70      D3A0
  71 0081 321BC745 		.ascii	"2\033\307E\231\035B\350 \025?J}\311W\214\303\331V\203"
  71      991D42E8 
  71      20153F4A 
  71      7DC9578C 
  71      C3D95683 
  72 0095 0737ACC4 		.ascii	"\0077\254\304\327\343\375\254\255\205\250\032\2426\307"
  72      D7E3FDAC 
  72      AD85A81A 
ARM GAS  C:\Users\JEFFSN~1\AppData\Local\Temp\cccvU2TL.s 			page 5


  72      A236C7
  73 00a4 EA840D0C 		.ascii	"\352\204\015\014\222\264\255\355F_\272\314\015h\375"
  73      92B4ADED 
  73      465FBACC 
  73      0D68FD
  74 00b3 A97EF9CB 		.ascii	"\251~\371\313\033X\267v\306\206/\233\335\257l8\335_"
  74      1B58B776 
  74      C6862F9B 
  74      DDAF6C38 
  74      DD5F
  75 00c5 35400D46 		.ascii	"5@\015F\306p\273\017\267\372\342a\351\215\352\177\226"
  75      C670BB0F 
  75      B7FAE261 
  75      E98DEA7F 
  75      96
  76 00d6 BABD8AD2 		.ascii	"\272\275\212\322\367\3435\006\022bl\302\223\275\240"
  76      F7E33506 
  76      12626CC2 
  76      93BDA0
  77 00e5 C8EEC3D0 		.ascii	"\310\356\303\320\266\333\201\015\0273\007{\031\201\025"
  77      B6DB810D 
  77      1733077B 
  77      198115
  78 00f4 74E397E8 		.ascii	"t\343\227\350T\272e\2353fI&\302L\2702\337\033O\313o"
  78      54BA659D 
  78      33664926 
  78      C24CB832 
  78      DF1B4FCB 
  79 0109 A15FAE1E 		.ascii	"\241_\256\036\036\245.X\325\011[P\33136$\2070'\250\204"
  79      1EA52E58 
  79      D5095B50 
  79      D9333624 
  79      873027A8 
  80 011e ABCD8C36 		.ascii	"\253\315\2146\253\221F\343\347\347T\371\312\316Y\333"
  80      AB9146E3 
  80      E7E754F9 
  80      CACE59DB 
  81 012e 5335DC66 		.ascii	"S5\334f\325\177\2032\005F\0266\324B\260\374\242\365"
  81      D57F8332 
  81      05461636 
  81      D442B0FC 
  81      A2F5
  82 0140 EE377420 		.ascii	"\3567t 0\256\3002\365v\366c\2753\341\007\266\205?\002"
  82      30AEC032 
  82      F576F663 
  82      BD33E107 
  82      B6853F02 
  83 0154 FF9797A6 		.ascii	"\377\227\227\246X\316!9\264z\353\241\004\006}C\345("
  83      58CE2139 
  83      B47AEBA1 
  83      04067D43 
  83      E528
  84 0166 184F9894 		.ascii	"\030O\230\224\346\270\366\376\373?\032\017;\261M:\027"
  84      E6B8F6FE 
  84      FB3F1A0F 
  84      3BB14D3A 
  84      17
ARM GAS  C:\Users\JEFFSN~1\AppData\Local\Temp\cccvU2TL.s 			page 6


  85 0177 4671CC35 		.ascii	"Fq\3145\221r\315\3115aru\311\037\262\344\376pl[\343"
  85      9172CDC9 
  85      35617275 
  85      C91FB2E4 
  85      FE706C5B 
  86 018c 548C461D 		.ascii	"T\214F\035r\206\353\367\374\222?Yx\346?\032\313OLM\026"
  86      7286EBF7 
  86      FC923F59 
  86      78E63F1A 
  86      CB4F4C4D 
  87 01a1 FDD191FC 		.ascii	"\375\321\221\374D\356\316h\256\360$\357\227\236\372"
  87      44EECE68 
  87      AEF024EF 
  87      979EFA
  88 01b0 6377EF4F 		.ascii	"cw\357O=\317\015eo\026\311)>.\224\376\002K\330\242C"
  88      3DCF0D65 
  88      6F16C929 
  88      3E2E94FE 
  88      024BD8A2 
  89              		.text
  90              		.section	.gnu.lto_CapSense_AMuxCH1_Start.ed0dd1c7,"",%progbits
  91 0000 789C654F 		.ascii	"x\234eO=HBQ\030\375\316w\237?\010\201KS\015\255F\004"
  91      3D484251 
  91      18FDCE77 
  91      9F3F0881 
  91      4B530DAD 
  92 0016 0DAD4138 		.ascii	"\015\255A8\324\022D\256\202\210\275U\303\022\332\336"
  92      D41244AE 
  92      8288BD55 
  92      C312DADE 
  93 0026 557B585B 		.ascii	"U{X[\020\265\211She\224D\303\333\036\322(55\265D\220"
  93      10B58953 
  93      68659444 
  93      C3DB1ED2 
  93      283535B5 
  94 003c 843418D8 		.ascii	"\2044\030\330h\257\357\332\330\201\313\271|\347\334"
  94      68AFEFDA 
  94      D881CBB9 
  94      7CE7DC
  95 004b F39D6B11 		.ascii	"\363\235k\021\310 .\264 <#\007\212\300\307\217D\345"
  95      C8202EB4 
  95      203C2307 
  95      8AC0C78F 
  95      44E5
  96 005d 2803E6A2 		.ascii	"(\003\346\242\243 \207\341\340\233\307\214n\255\357"
  96      A32087E1 
  96      E09BC78C 
  96      6EADEF
  97 006c 71A2A905 		.ascii	"q\242\251\005\257\347'J\267|\270\212(\340I\022\241\211"
  97      AFE7274A 
  97      B77CB88A 
  97      28E04912 
  97      A189
  98 007e 0489EDAD 		.ascii	"\004\211\355\255\363s:\025>0\266\271?\021-\204\315\272"
  98      F3733A15 
  98      3E30B6B9 
  98      3F112D84 
ARM GAS  C:\Users\JEFFSN~1\AppData\Local\Temp\cccvU2TL.s 			page 7


  98      CDBA
  99 0090 9B2D5F07 		.ascii	"\233-_\007AU\373\365\320;[DC\021\315\232/f\303\352\003"
  99      4155FBF5 
  99      D03B5B44 
  99      4311CD9A 
  99      2F66C3EA 
 100 00a5 55BF316D 		.ascii	"U\2771m\334&\307\363>_\"\316X\037j\035w\025\002\226"
 100      DC26C7F3 
 100      3E5F22CE 
 100      581F6A1D 
 100      77150296 
 101 00b9 085CC021 		.ascii	"\010\\\300!W1\365Q\031\335\266W\214W\254gn\367)2bW)"
 101      5731F551 
 101      19DDB657 
 101      8C57AC67 
 101      6EF72932 
 102 00d0 FC7FA98E 		.ascii	"\374\177\251\216\244\244\031\017z\317\017\261\006\352"
 102      A4A4190F 
 102      7ACF0FB1 
 102      06EA
 103 00de 653D995B 		.ascii	"e=\231[\270\222\237]bVb\333h@\034\367\265^'fr,\000\327"
 103      B8929F5D 
 103      625662DB 
 103      68401CF7 
 103      B55E2766 
 104 00f6 A20C50F1 		.ascii	"\242\014P\361\357B\223F\006C\351 E\245\366\374\232\235"
 104      EF429346 
 104      0643E920 
 104      45A5F6FC 
 104      9A9D
 105 0108 B78BD93D 		.ascii	"\267\213\331={;\223*\224\2129;\275\231*$\227\323\311"
 105      7B3B932A 
 105      948A393B 
 105      BD992A24 
 105      97D3C9
 106 011b EC4ECACE 		.ascii	"\354N\312\316\357\332\231\325\215\322~r}i1G\277%4o\352"
 106      EFDA99D5 
 106      8DD27E72 
 106      7D693147 
 106      BF25346F 
 107              		.text
 108              		.section	.gnu.lto_CapSense_AMuxCH1_Init.ed0dd1c7,"",%progbits
 109 0000 789C6361 		.ascii	"x\234ca`d\000\201\225@\254\003\304\322@\314\310\314"
 109      60640081 
 109      9540AC03 
 109      C4D240CC 
 109      C8CC
 110 0012 C0C834E1 		.ascii	"\300\3104\341\034\003C#\007\023##\210\321\300\301\310"
 110      1C034323 
 110      07132323 
 110      88D1C0C1 
 110      C8
 111 0023 50CFC458 		.ascii	"P\317\304X\317\370\225\351/\023\343\241\366g;\2314\227"
 111      CFF895E9 
 111      2F13E3A1 
 111      F6673B99 
 111      3497
ARM GAS  C:\Users\JEFFSN~1\AppData\Local\Temp\cccvU2TL.s 			page 8


 112 0035 3700C183 		.ascii	"7\000\301\203\245\363\230\033V\034`lef`\370\317\004"
 112      A5F3981B 
 112      561C606C 
 112      656660F8 
 112      CF04
 113 0047 36898171 		.ascii	"6\211\201q9\243&\003P\331\243\215\377\246\362\262\265"
 113      39A32603 
 113      50D9A38D 
 113      FFA6F2B2 
 113      B5
 114 0058 80942940 		.ascii	"\200\224)@$\031W0\262\201\254[\037t\240\341\377\377"
 114      24195730 
 114      B281AC5B 
 114      1F74A0E1 
 114      FFFF
 115 006a E686035F 		.ascii	"\346\206\003_Y?2\003u~\000J\202\254\371\310\304\004"
 115      593F3203 
 115      757E004A 
 115      82ACF9C8 
 115      C404
 116 007c A2995F30 		.ascii	"\242\231_06\037\370.\012R\0152g\347\3167\267\331\353"
 116      361FF82E 
 116      0A520D32 
 116      67E7CE37 
 116      B7D9EB
 117 008f FF367434 		.ascii	"\3776t44\010\26423\376g\002\032\301\270\222\261\236"
 117      3408B432 
 117      33FE6702 
 117      1AC1B892 
 117      B19E
 118 00a1 A1959989 		.ascii	"\241\225\231\211\341\025c\323\201\237\254`\245 \360"
 118      E11563D3 
 118      819FAC60 
 118      A520F0
 119 00b0 01280934 		.ascii	"\001(\0114\001h\236\226{j^jQbIjJ|p~iQrjL@p\276\263i"
 119      01689E96 
 119      7B6A5E6A 
 119      5162496A 
 119      4A7C707E 
 120 00ce 8C736241 		.ascii	"\214sbApj^qj\274\243oi\205\263\207\241^2\003\000]zM"
 120      706A5E71 
 120      6ABCA36F 
 120      6985B387 
 120      A15E3203 
 121 00e6 41       		.ascii	"A"
 122              		.text
 123              		.section	.gnu.lto_CapSense_AMuxCH1_Stop.ed0dd1c7,"",%progbits
 124 0000 789C6361 		.ascii	"x\234ca`d\000\201\325@\254\003\304\322@\314\310\314"
 124      60640081 
 124      D540AC03 
 124      C4D240CC 
 124      C8CC
 125 0012 C0C834E1 		.ascii	"\300\3104\341\034\003C#\007\023##\210\321\300\301\310"
 125      1C034323 
 125      07132323 
 125      88D1C0C1 
 125      C8
ARM GAS  C:\Users\JEFFSN~1\AppData\Local\Temp\cccvU2TL.s 			page 9


 126 0023 50CFC458 		.ascii	"P\317\304X\317\370\225\351/\023\343\241\366g;\2314\227"
 126      CFF895E9 
 126      2F13E3A1 
 126      F6673B99 
 126      3497
 127 0035 3700C183 		.ascii	"7\000\301\203\326\347\006\015+\0160\266230\374g\002"
 127      D6E7060D 
 127      2B0E30B6 
 127      323330FC 
 127      6702
 128 0047 9BC4C0B8 		.ascii	"\233\304\300\270\234Q\223\001\250\354\321\306\177Sy"
 128      9C519301 
 128      A8ECD1C6 
 128      7F5379
 129 0056 D95A40CA 		.ascii	"\331Z@\312\024 \222\214+\030\331@\326\255\017:\320\360"
 129      1420928C 
 129      2B18D940 
 129      D6AD0F3A 
 129      D0F0
 130 0068 FF7F73C3 		.ascii	"\377\177s\303\201\335l\007\367\261\001\265~\000\312"
 130      81DD6C07 
 130      F7B101B5 
 130      7E00CA
 131 0077 82ECF9C8 		.ascii	"\202\354\371\310\304\004\242\231_06\037\330{\214\011"
 131      C404A299 
 131      5F30361F 
 131      D87B8C09 
 132 0087 A41E64D2 		.ascii	"\244\036d\322\316\235on\263\327\377m\350hh\020hef\374"
 132      CE9D6F6E 
 132      B3D7FF6D 
 132      E8686810 
 132      686566FC 
 133 009b CF043484 		.ascii	"\317\0044\204q%c=C+3\023\303+\306\246\003\373\335\300"
 133      7125633D 
 133      432B3313 
 133      C32BC6A6 
 133      03FBDDC0 
 134 00af 4A41E003 		.ascii	"JA\340\003P\022h\004\320@-\367\324\274\324\242\304\222"
 134      50126804 
 134      D0402DF7 
 134      D4BCD4A2 
 134      C492
 135 00c1 D494F8E0 		.ascii	"\324\224\370\340\374\322\242\344\324\230\200\340|g\323"
 135      FCD2A2E4 
 135      D49880E0 
 135      7C67D3
 136 00d0 18E7C482 		.ascii	"\030\347\304\202\340\324\274\342\324xG\337\322\012g"
 136      E0D4BCE2 
 136      D47847DF 
 136      D20A67
 137 00df 0F43BD64 		.ascii	"\017C\275d\006\000R\311Nq"
 137      060052C9 
 137      4E71
 138              		.text
 139              		.section	.gnu.lto_CapSense_AMuxCH1_Select.ed0dd1c7,"",%progbits
 140 0000 789C6D90 		.ascii	"x\234m\220\277KBQ\024\307\317\367^{\257\202\240=\207"
 140      BF4B4251 
ARM GAS  C:\Users\JEFFSN~1\AppData\Local\Temp\cccvU2TL.s 			page 10


 140      14C7CFF7 
 140      5E7BAF82 
 140      A03D87
 141 0013 3631288A 		.ascii	"61(\212\352\017\010\207Z\202\310\325\020\261\007\015"
 141      EA0F0887 
 141      5A82C8D5 
 141      10B1070D 
 142 0023 A161096D 		.ascii	"\241a\011m^\265G\265\005\241\220\021\342\020\332o\032"
 142      5EB547B5 
 142      05A19011 
 142      E210DA6F 
 142      1A
 143 0034 1ADC5E3F 		.ascii	"\032\334^?\240%jj\251\210h\020\211\206\212\032\355u"
 143      A0256A6A 
 143      A9886810 
 143      89868A1A 
 143      ED75
 144 0046 AE8D75E0 		.ascii	"\256\215u\340r\016\207\357\371\234\357=\036\002\351"
 144      720E87EF 
 144      F99CEF3D 
 144      1E02E9
 145 0055 88731AE2 		.ascii	"\210s\032\342\334\305\017\222 \326\256\211\322\255\002"
 145      DCC50F92 
 145      20D6AE89 
 145      D2AD02
 146 0064 D0856A05 		.ascii	"\320\205j\005\245\004R\370\022\015\201\263\345ZU\370"
 146      A50452F8 
 146      120D81B3 
 146      E55A55F8 
 147 0074 CB8AE3C9 		.ascii	"\313\212\343\311\376\350W\025\007\266$rE\223D(\303\317"
 147      FEE85715 
 147      07B62472 
 147      45934428 
 147      C3CF
 148 0086 AAFD87F3 		.ascii	"\252\375\207\363GC\366\202\270\276;)\235\266\371\266"
 148      4743F682 
 148      B8BE3B29 
 148      9DB6F9B6 
 149 0096 95CA28B5 		.ascii	"\225\312(\2651\245\244-\201\012$O`\320\213~/q\203\260"
 149      31A5A42D 
 149      810A244F 
 149      60D08B7E 
 149      2F7183B0 
 150 00aa 039F163F 		.ascii	"\003\237\026?\037\177\347:\214%\215\357\376\205b\027"
 150      1F7FE73A 
 150      8C258DEF 
 150      FE856217 
 151 00ba 86B67934 		.ascii	"\206\266y4\351(\327\315*g\335<-\230\006C\364\010\275"
 151      E928D7CD 
 151      2A67DD3C 
 151      2D980643 
 151      F408BD
 152 00cd B146BB7C 		.ascii	"\261F\273|\027BgYG\326\311]\012=\245y\325\352\353\275"
 152      17426759 
 152      47D6C95D 
 152      0A3DA579 
 152      D5EAEBBD 
ARM GAS  C:\Users\JEFFSN~1\AppData\Local\Temp\cccvU2TL.s 			page 11


 153 00e1 996AA815 		.ascii	"\231j\250\025\245:m)\\\301(\354!\305K%\325\261\344\344"
 153      A53A6D29 
 153      5CC128EC 
 153      21C54B25 
 153      D5B1E4E4 
 154 00f5 CDFFA51E 		.ascii	"\315\377\245\036\227\201\204}\226f%{n\241\0322\205\343"
 154      9781847D 
 154      9666257B 
 154      6EA11A32 
 154      85E3
 155 0107 5AA94DEB 		.ascii	"Z\251M\353Y\236\267\317n\314OaK\003\177\247\215U\276"
 155      599EB7CF 
 155      6ECC4F61 
 155      4B037FA7 
 155      8D55BE
 156 011a 896EBF5C 		.ascii	"\211n\277\\\335^\264\027\261\225V\315>p\310\207<\200"
 156      DD5EB417 
 156      B19556CD 
 156      3E70C887 
 156      3C80
 157 012c 97D14728 		.ascii	"\227\321G(\202\321\364\202\214\2639\332t\241\343\215"
 157      82D1F482 
 157      8CB339DA 
 157      74A1E38D 
 158 013c 2DF24778 		.ascii	"-\362Gxy\317\250\025\263\022\221\005k:\034\214'\023"
 158      79CFA815 
 158      B3129105 
 158      6B3A1C8C 
 158      2713
 159 014e 512B3411 		.ascii	"Q+4\021\214\007\206C\201\310\\\320\212\315[\341\221"
 159      8C078643 
 159      81C85CD0 
 159      8ACD5BE1 
 159      91
 160 015f F1E46260 		.ascii	"\361\344b`l\240/Jft&\022\213Y\263?\017^\221\012"
 160      6CA02F4A 
 160      66742612 
 160      8B59B33F 
 160      0F5E910A 
 161              		.text
 162              		.section	.gnu.lto_.symbol_nodes.ed0dd1c7,"",%progbits
 163 0000 789C558A 		.ascii	"x\234U\2121\016\3020\020\004\347\356l\307n\351\221\340"
 163      310EC230 
 163      1004E7EE 
 163      6CC76EE9 
 163      91E0
 164 0012 A567241E 		.ascii	"\245g$\036\300\033(y\007uj\312 \321\322QG8\020$\274"
 164      C01B2879 
 164      07756ACA 
 164      20D1D251 
 164      47381024 
 165 0027 CD687727 		.ascii	"\315hw' \334h\321\344p\032\241\341R\367\020\205\303"
 165      20DC68D1 
 165      E4701AA1 
 165      E152F710 
 165      85C3
 166 0039 66390697 		.ascii	"f9\006\227\356Pu\355M\344k\232[o\006\017\375\020=v\203"
ARM GAS  C:\Users\JEFFSN~1\AppData\Local\Temp\cccvU2TL.s 			page 12


 166      EE5075ED 
 166      4DE46B9A 
 166      5B6F060F 
 166      FD103D76 
 167 004e 644F9F01 		.ascii	"dO\237\001j\335\265^|\370\357F\341\361\032\305\310\034"
 167      6ADDB55E 
 167      7CF8EF46 
 167      E1F11AC5 
 167      C81C
 168 0060 EFB39816 		.ascii	"\357\263\230\026\256\323sk\246\234\247\326\343\312\264"
 168      AED3736B 
 168      A69CA7D6 
 168      E3CAB4
 169 006f 72F83137 		.ascii	"r\37017o\026\336d\3743\012"
 169      6F16DE64 
 169      FC330A
 170              		.text
 171              		.section	.gnu.lto_.refs.ed0dd1c7,"",%progbits
 172 0000 789C0DC1 		.ascii	"x\234\015\301\007\015\000\000\010\300\260\215\023\004"
 172      070D0000 
 172      08C0B08D 
 172      1304
 173 000e E0DF2BB4 		.ascii	"\340\337+\264\205,\020\340k\323\012G\223\003\003\207"
 173      852C10E0 
 173      6BD30A47 
 173      93030387 
 174 001e 003C     		.ascii	"\000<"
 175              		.text
 176              		.section	.gnu.lto_.decls.ed0dd1c7,"",%progbits
 177 0000 789C7D93 		.ascii	"x\234}\223\177hSW\024\307\357y/\2111\246\353\020\327"
 177      7F685357 
 177      14C7EF79 
 177      2F8931A6 
 177      EB10D7
 178 0013 05164627 		.ascii	"\005\026F'\270\311\376(\226m\260\375#\223\014u\177l"
 178      B8C9FE28 
 178      966DB0FD 
 178      23930C75 
 178      7F6C
 179 0025 0C82FDAB 		.ascii	"\014\202\375\253\020b\366\234\201\220\226\364\025\346"
 179      1062F69C 
 179      819096F4 
 179      15E6
 180 0033 F08FABAB 		.ascii	"\360\217\253\253\303\272\301Zq\025k\247\235\003\177"
 180      C3BAC15A 
 180      71156BA7 
 180      9D037F
 181 0042 C618FB43 		.ascii	"\306\030\373C\333\264\266i\242i\232\250l+\203H;\323"
 181      DBB4B669 
 181      A2699AA8 
 181      6C2B8348 
 181      3BD3
 182 0054 5A858DC9 		.ascii	"Z\205\215\311\250[A\012\323\356\334\373\356\353{m\332"
 182      A85B410A 
 182      D3EEDCFB 
 182      EEEB7B6D 
 182      DA
ARM GAS  C:\Users\JEFFSN~1\AppData\Local\Temp\cccvU2TL.s 			page 13


 183 0065 9DF624F7 		.ascii	"\235\366$\367\334\367=\237s\356\311}\026\002\204\231"
 183      DCF73D9F 
 183      73EEC97D 
 183      16028499 
 184 0075 CF4AC87E 		.ascii	"\317J\310~\\&\321\027\320\326\340^\0151\314\216\336"
 184      5C26D117 
 184      D0D6E05E 
 184      0D31CC8E 
 184      DE
 185 0086 8D7E0DBD 		.ascii	"\215~\015\275\017=\201>\210>\204\236DO\241K\350\267"
 185      0F3D813E 
 185      883E849E 
 185      444FA14B 
 185      E8B7
 186 0098 D0B364A9 		.ascii	"\320\263d\251\261<\233\340\305\320\335\350c\3509\364"
 186      B13C9BE0 
 186      C5D0DDE8 
 186      63E839F4 
 187 00a8 2EA19185 		.ascii	".\241\221\205.%x Xfc\265-&\2169_\022\317S\244\324X\277"
 187      2E257820 
 187      586663B5 
 187      2D268E39 
 187      5F12CF53 
 188 00c0 56919747 		.ascii	"V\221\227G\357\025\365c\246\334>\221\017+\364\237\020"
 188      EF15F563 
 188      A6DC3E91 
 188      0F2BF49F 
 188      10
 189 00d1 FD99F3F5 		.ascii	"\375\231\363\365\274\204\310[n\203\377\2233\270J\016"
 189      BC84C85B 
 189      6E83FF93 
 189      33B84A0E 
 190 00e1 9BA53EF7 		.ascii	"\233\245>\367\230)O?\347\230\320\311B\313\030I\262\362"
 190      98294F3F 
 190      E798D0C9 
 190      42CB1849 
 190      B2F2
 191 00f3 AC9E49D0 		.ascii	"\254\236I\3201r*m\235\200{\000\004\270\021\361[\023"
 191      31722A6D 
 191      9D807B00 
 191      04B811F1 
 191      5B13
 192 0105 B623BED9 		.ascii	"\266#\276\331\002\264@\"\202\005\272H\250\371\037\376"
 192      02B44022 
 192      8205BA48 
 192      A8F91FFE 
 193 0115 4B5CBFB8 		.ascii	"K\\\277\270\257\353\026k.\350fl\301\242\351JX\012eT"
 193      AFEB166B 
 193      2EE8666C 
 193      C1A2E94A 
 193      580A6554 
 194 0129 23C45832 		.ascii	"#\304X2\022L<\321\275\250\017\346\262\034-\353\207."
 194      124C3CD1 
 194      BDA80FE6 
 194      B21C2DEB 
 194      872E
 195 013b 8C2F14D6 		.ascii	"\214/\024\326\312\310\304uq\376\374\366\252(Ek\241T"
ARM GAS  C:\Users\JEFFSN~1\AppData\Local\Temp\cccvU2TL.s 			page 14


 195      CAC8C475 
 195      71FEFCF6 
 195      AA28456B 
 195      A154
 196 014d DA6A4CE6 		.ascii	"\332jL\346\312\241\207\027\354s\022\270\035\260\000"
 196      CAA18717 
 196      EC7312B8 
 196      1DB000
 197 015c 2C7EDC3F 		.ascii	",~\334?_\246\305\354\361\211\326\231\347\353\3447\330"
 197      5FA6C5EC 
 197      F189D699 
 197      E7EBE437 
 197      D8
 198 016d 5A1A9FB9 		.ascii	"Z\032\237\271\364\207\0056;\3162\314\324\300\243\255"
 198      F4870536 
 198      3BCE32CC 
 198      D4C0A3AD 
 199 017d FD94BE08 		.ascii	"\375\224\276\0101p@\024d\270\000U\254\003\267\003?\017"
 199      31704014 
 199      64B80055 
 199      AC03B703 
 199      3F0F
 200 018f 537A90CE 		.ascii	"Sz\220\316\236\2416\027\201\267\334\260\305M\3402lf"
 200      9EA13617 
 200      81B7DCB0 
 200      C54DE032 
 200      6C66
 201 01a1 4CA6824B 		.ascii	"L\246\202K\340\206\213\340f\374G\307O\377i\263\340\270"
 201      E0868BE0 
 201      66FC47C7 
 201      4FFF69B3 
 201      E0B8
 202 01b3 3967B785 		.ascii	"9g\267\205\355\375\334\024\357\220\261\205\365\016\260"
 202      EDFDDC14 
 202      EF90B185 
 202      F50EB0
 203 01c2 60F8E44E 		.ascii	"`\370\344N\373\314\013\030np@%\206\321\304\344c\233"
 203      FBCC0B18 
 203      6E704025 
 203      86D1C4E4 
 203      639B
 204 01d4 AB8D1FE5 		.ascii	"\253\215\037\345KZi\201\232\012\270\212\3008\002\011"
 204      4B5A6981 
 204      9A0AB88A 
 204      C0380209 
 205 01e4 74810B3F 		.ascii	"t\201\013?\257\200E\214\340\337\346V\353\306N\332\031"
 205      AF80458C 
 205      E0DFE656 
 205      EBC64EDA 
 205      19
 206 01f5 A753C35F 		.ascii	"\247S\303_\355\237\356\242\264\031\023-L\007\347\215"
 206      ED9FEEA2 
 206      B419132D 
 206      4C07E78D 
 207 0205 AE71C9BE 		.ascii	"\256q\311\276\316\301\004N\264\0336b\352\221\261\373"
 207      CEC1044E 
 207      B41B3662 
ARM GAS  C:\Users\JEFFSN~1\AppData\Local\Temp\cccvU2TL.s 			page 15


 207      EA91B1FB 
 208 0215 D932F90B 		.ascii	"\3312\371\013>\205gc'\333\245Uk\366\362\232\273E\311"
 208      3E856763 
 208      27DBA555 
 208      6BF6F29A 
 208      BB45C9
 209 0228 E2A96FD3 		.ascii	"\342\251o\323\345Xr*N\223\317\363N\332r\200\322\367"
 209      E558722A 
 209      4E93CFF3 
 209      4EDA7280 
 209      D2F7
 210 023a 99067A8C 		.ascii	"\231\006z\214z=\346z\327x\275c\271on:\345\023\300\013"
 210      7A3DE67A 
 210      D778BD63 
 210      B96F6E3A 
 210      E513C00B 
 211 024e FED35CC8 		.ascii	"\376\323\\\3108\265\276\223\355\212\350\2311\256\033"
 211      38B5BE93 
 211      ED8AE899 
 211      31AE1B
 212 025d 8CEB6646 		.ascii	"\214\353fF\037g\\\036\375\251\315.\3075\306\361\231"
 212      1F675C1E 
 212      FDA9CD2E 
 212      C735C6F1 
 212      99
 213 026e DEDBE2EC 		.ascii	"\336\333\342\354\311\277\315\214~\203\321of$8\343\367"
 213      C9BFCD8C 
 213      7E83D16F 
 213      662438E3 
 213      F7
 214 027f E8AF436B 		.ascii	"\350\257Ck\344\214\30686p\350\216\336G_\306|\230\001"
 214      E48CC638 
 214      3670E88E 
 214      DE475FC6 
 214      7C9801
 215 0292 03326086 		.ascii	"\0032`\206\014rHO\317\335Y\220'5H\353\351\357\356;\004"
 215      0C72484F 
 215      CFDD5990 
 215      273548EB 
 215      E9EFEE3B 
 216 02a7 A4655487 		.ascii	"\244eT\207\260_\340\206\001\271a\206\014q\310\374\323"
 216      B05FE086 
 216      01B96186 
 216      0C71C8FC 
 216      D3
 217 02b8 58DA21CF 		.ascii	"X\332!\317i\220\246\324\341\324:6V\274z\335G\337\376"
 217      6990A6D4 
 217      E1D43A36 
 217      56BC7ADD 
 217      47DFFE
 218 02cb BE8B36AD 		.ascii	"\276\2136\255\345\214a\2031\014\332\335\207$\317\237"
 218      E58C6183 
 218      310CDADD 
 218      8724CF9F 
 219 02db 8E4E5E74 		.ascii	"\216N^t\310q\355\005H<I\324h\351\311_\024\221:b\244"
 219      C871ED05 
 219      483C49D4 
ARM GAS  C:\Users\JEFFSN~1\AppData\Local\Temp\cccvU2TL.s 			page 16


 219      68E9C95F 
 219      14913A62 
 220 02f0 8EE8A929 		.ascii	"\216\350\251)\236Z\374\372\301Y\033\3369v)\371k\361"
 220      9E5AFCFA 
 220      C1591BDE 
 220      397629F9 
 220      6BF1
 221 0302 5BEE415B 		.ascii	"[\356A[\271<\252\261\346\306\323\323\326M?\322\3163"
 221      B93CAAB1 
 221      E6C6D3D3 
 221      D64D3FD2 
 221      CE33
 222 0314 78AB3215 		.ascii	"x\2532\025O\017R\027W\336\324x\342\312\023\036\247\361"
 222      4F0F5217 
 222      57DED478 
 222      E2CA131E 
 222      A7F1
 223 0326 8AC02DD8 		.ascii	"\212\300-\330\204iw'\262\357\011&\243\374U,\026\312"
 223      84697727 
 223      B2EF0926 
 223      A3FC552C 
 223      16CA
 224 0338 E4871AF2 		.ascii	"\344\207\032\362\\\376j\233\244!\223\205Z*s\325\350"
 224      5CFE6A9B 
 224      A4219385 
 224      5A2A73D5 
 224      E8
 225 0349 321E8B33 		.ascii	"2\036\2133\214\227\345\274\003'\1778Z\356<\302\3365"
 225      8C97E5BC 
 225      03277F38 
 225      5AEE3CC2 
 225      DE35
 226 035b BC95EB77 		.ascii	"\274\225\353w\362\034\343Z\216\201\223\237\010\277Q"
 226      F21CE35A 
 226      8E81939F 
 226      08BF51
 227 036a 3C3B924D 		.ascii	"<;\222M/\021\263\001\030\342\234\020\347\270\270\375"
 227      2F11B301 
 227      18E29C10 
 227      E7B8B8FD 
 228 037a 5E47DE6E 		.ascii	"^G\336n\026\367.\021\347\301\251\317\015\227\344\025"
 228      16F72E11 
 228      E7C1A9CF 
 228      0D97E415 
 229 038a 8FBFDEAB 		.ascii	"\217\277\336\253\204\033\024\337\266\217\032?\367\354"
 229      841B14DF 
 229      B68F1A3F 
 229      F7EC
 230 0398 ACF66DF7 		.ascii	"\254\366m\3677\250^%\244\004T\373\216\217wUz\252\253"
 230      37A85E25 
 230      A40454FB 
 230      8E8F7755 
 230      7AAAAB
 231 03ab 89B53118 		.ascii	"\211\2651\030V\337}m\207\022V\"~U\371\324\347\255k\214"
 231      56DF7D6D 
 231      87125622 
 231      7E55F9D4 
ARM GAS  C:\Users\JEFFSN~1\AppData\Local\Temp\cccvU2TL.s 			page 17


 231      E7AD6B8C 
 232 03bf 0494DA4F 		.ascii	"\004\224\332O\274u\236wj\003\373\324}\365JC\325^\362"
 232      BC759E77 
 232      6A03FBD4 
 232      7DF54A43 
 232      D55EF2
 233 03d2 E62A8AE5 		.ascii	"\346*\212\3455\252\002\344\325\222\272\037\004\033\002"
 233      35AA02E4 
 233      D592BA1F 
 233      041B02
 234 03e1 75E130D6 		.ascii	"u\3410\326\335\026\012U\224<\366\252\376\210\372R\311"
 234      DD160A55 
 234      943CF6AA 
 234      FE88FA52 
 234      C9
 235 03f2 F687E1E0 		.ascii	"\366\207\341\340\012\273^\265\256\376\345\322]~\252"
 235      0ABB5EB5 
 235      AEFEE5D2 
 235      5D7EAA
 236 0401 0D2BECAB 		.ascii	"\015+\354\253\257\257z\266=AUU\"\276\300\236\317\360"
 236      AFAF7AB6 
 236      3D415555 
 236      22BEC09E 
 236      CFF0
 237 0413 80A56DED 		.ascii	"\200\245m\355\302@u\227l\207p\210\236\275~<N\310U\362"
 237      C2407597 
 237      6C877088 
 237      9EBD7E3C 
 237      4EC855F2 
 238 0427 30883DD7 		.ascii	"0\210=\327\370#\377\001\006m.\346"
 238      F823FF01 
 238      066D2EE6 
 239              		.text
 240              		.section	.gnu.lto_.symtab.ed0dd1c7,"",%progbits
 241 0000 43617053 		.ascii	"CapSense_AMuxCH1_FastSelect\000"
 241      656E7365 
 241      5F414D75 
 241      78434831 
 241      5F466173 
 242 001c 00       		.ascii	"\000"
 243 001d 00       		.ascii	"\000"
 244 001e 00       		.ascii	"\000"
 245 001f 00000000 		.ascii	"\000\000\000\000\000\000\000\000"
 245      00000000 
 246 0027 B3000000 		.ascii	"\263\000\000\000"
 247 002b 43617053 		.ascii	"CapSense_AMuxCH1_lastChannel\000"
 247      656E7365 
 247      5F414D75 
 247      78434831 
 247      5F6C6173 
 248 0048 00       		.ascii	"\000"
 249 0049 00       		.ascii	"\000"
 250 004a 00       		.ascii	"\000"
 251 004b 00000000 		.ascii	"\000\000\000\000\000\000\000\000"
 251      00000000 
 252 0053 C5000000 		.ascii	"\305\000\000\000"
 253 0057 43617053 		.ascii	"CapSense_AMuxCH1_DisconnectAll\000"
ARM GAS  C:\Users\JEFFSN~1\AppData\Local\Temp\cccvU2TL.s 			page 18


 253      656E7365 
 253      5F414D75 
 253      78434831 
 253      5F446973 
 254 0076 00       		.ascii	"\000"
 255 0077 00       		.ascii	"\000"
 256 0078 00       		.ascii	"\000"
 257 0079 00000000 		.ascii	"\000\000\000\000\000\000\000\000"
 257      00000000 
 258 0081 B6000000 		.ascii	"\266\000\000\000"
 259 0085 43617053 		.ascii	"CapSense_AMuxCH1_Start\000"
 259      656E7365 
 259      5F414D75 
 259      78434831 
 259      5F537461 
 260 009c 00       		.ascii	"\000"
 261 009d 00       		.ascii	"\000"
 262 009e 00       		.ascii	"\000"
 263 009f 00000000 		.ascii	"\000\000\000\000\000\000\000\000"
 263      00000000 
 264 00a7 B8000000 		.ascii	"\270\000\000\000"
 265 00ab 43617053 		.ascii	"CapSense_AMuxCH1_initVar\000"
 265      656E7365 
 265      5F414D75 
 265      78434831 
 265      5F696E69 
 266 00c4 00       		.ascii	"\000"
 267 00c5 00       		.ascii	"\000"
 268 00c6 00       		.ascii	"\000"
 269 00c7 00000000 		.ascii	"\000\000\000\000\000\000\000\000"
 269      00000000 
 270 00cf C8000000 		.ascii	"\310\000\000\000"
 271 00d3 43617053 		.ascii	"CapSense_AMuxCH1_Init\000"
 271      656E7365 
 271      5F414D75 
 271      78434831 
 271      5F496E69 
 272 00e9 00       		.ascii	"\000"
 273 00ea 00       		.ascii	"\000"
 274 00eb 00       		.ascii	"\000"
 275 00ec 00000000 		.ascii	"\000\000\000\000\000\000\000\000"
 275      00000000 
 276 00f4 BA000000 		.ascii	"\272\000\000\000"
 277 00f8 43617053 		.ascii	"CapSense_AMuxCH1_Stop\000"
 277      656E7365 
 277      5F414D75 
 277      78434831 
 277      5F53746F 
 278 010e 00       		.ascii	"\000"
 279 010f 00       		.ascii	"\000"
 280 0110 00       		.ascii	"\000"
 281 0111 00000000 		.ascii	"\000\000\000\000\000\000\000\000"
 281      00000000 
 282 0119 BC000000 		.ascii	"\274\000\000\000"
 283 011d 43617053 		.ascii	"CapSense_AMuxCH1_Select\000"
 283      656E7365 
 283      5F414D75 
ARM GAS  C:\Users\JEFFSN~1\AppData\Local\Temp\cccvU2TL.s 			page 19


 283      78434831 
 283      5F53656C 
 284 0135 00       		.ascii	"\000"
 285 0136 00       		.ascii	"\000"
 286 0137 00       		.ascii	"\000"
 287 0138 00000000 		.ascii	"\000\000\000\000\000\000\000\000"
 287      00000000 
 288 0140 BE000000 		.ascii	"\276\000\000\000"
 289 0144 43617053 		.ascii	"CapSense_AMuxCH1_Set\000"
 289      656E7365 
 289      5F414D75 
 289      78434831 
 289      5F536574 
 290 0159 00       		.ascii	"\000"
 291 015a 02       		.ascii	"\002"
 292 015b 00       		.ascii	"\000"
 293 015c 00000000 		.ascii	"\000\000\000\000\000\000\000\000"
 293      00000000 
 294 0164 C0000000 		.ascii	"\300\000\000\000"
 295 0168 43617053 		.ascii	"CapSense_AMuxCH1_Unset\000"
 295      656E7365 
 295      5F414D75 
 295      78434831 
 295      5F556E73 
 296 017f 00       		.ascii	"\000"
 297 0180 02       		.ascii	"\002"
 298 0181 00       		.ascii	"\000"
 299 0182 00000000 		.ascii	"\000\000\000\000\000\000\000\000"
 299      00000000 
 300 018a C2000000 		.ascii	"\302\000\000\000"
 301              		.text
 302              		.section	.gnu.lto_.opts,"",%progbits
 303 0000 272D666D 		.ascii	"'-fmath-errno' '-fsigned-zeros' '-ftrapping-math' '"
 303      6174682D 
 303      6572726E 
 303      6F272027 
 303      2D667369 
 304 0033 2D666E6F 		.ascii	"-fno-trapv' '-fno-strict-overflow' '-fno-openmp' '-"
 304      2D747261 
 304      70762720 
 304      272D666E 
 304      6F2D7374 
 305 0066 666E6F2D 		.ascii	"fno-openacc' '-mcpu=cortex-m3' '-mthumb' '-g' '-Og'"
 305      6F70656E 
 305      61636327 
 305      20272D6D 
 305      6370753D 
 306 0099 20272D66 		.ascii	" '-ffunction-sections' '-ffat-lto-objects' '-finlin"
 306      66756E63 
 306      74696F6E 
 306      2D736563 
 306      74696F6E 
 307 00cc 652D6675 		.ascii	"e-functions' '-flto'\000"
 307      6E637469 
 307      6F6E7327 
 307      20272D66 
 307      6C746F27 
ARM GAS  C:\Users\JEFFSN~1\AppData\Local\Temp\cccvU2TL.s 			page 20


 308              		.text
 309              		.cfi_sections	.debug_frame
 310              		.section	.text.CapSense_AMuxCH1_FastSelect,"ax",%progbits
 311              		.align	2
 312              		.global	CapSense_AMuxCH1_FastSelect
 313              		.thumb
 314              		.thumb_func
 315              		.type	CapSense_AMuxCH1_FastSelect, %function
 316              	CapSense_AMuxCH1_FastSelect:
 317              	.LFB4:
 318              		.file 1 "Generated_Source\\PSoC5\\CapSense_AMuxCH1.c"
   1:Generated_Source\PSoC5/CapSense_AMuxCH1.c **** /*******************************************************************************
   2:Generated_Source\PSoC5/CapSense_AMuxCH1.c **** * File Name: CapSense_AMuxCH1.c
   3:Generated_Source\PSoC5/CapSense_AMuxCH1.c **** * Version 3.50
   4:Generated_Source\PSoC5/CapSense_AMuxCH1.c **** *
   5:Generated_Source\PSoC5/CapSense_AMuxCH1.c **** *  Description:
   6:Generated_Source\PSoC5/CapSense_AMuxCH1.c **** *    This file contains all functions required for the analog multiplexer
   7:Generated_Source\PSoC5/CapSense_AMuxCH1.c **** *    CapSense_CSD_AMux User Module.
   8:Generated_Source\PSoC5/CapSense_AMuxCH1.c **** *
   9:Generated_Source\PSoC5/CapSense_AMuxCH1.c **** *   Note:
  10:Generated_Source\PSoC5/CapSense_AMuxCH1.c **** *
  11:Generated_Source\PSoC5/CapSense_AMuxCH1.c **** *******************************************************************************
  12:Generated_Source\PSoC5/CapSense_AMuxCH1.c **** * Copyright 2008-2012, Cypress Semiconductor Corporation.  All rights reserved.
  13:Generated_Source\PSoC5/CapSense_AMuxCH1.c **** * You may use this file only in accordance with the license, terms, conditions, 
  14:Generated_Source\PSoC5/CapSense_AMuxCH1.c **** * disclaimers, and limitations in the end user license agreement accompanying 
  15:Generated_Source\PSoC5/CapSense_AMuxCH1.c **** * the software package with which this file was provided.
  16:Generated_Source\PSoC5/CapSense_AMuxCH1.c **** ********************************************************************************/
  17:Generated_Source\PSoC5/CapSense_AMuxCH1.c **** 
  18:Generated_Source\PSoC5/CapSense_AMuxCH1.c **** #include "CapSense_AMuxCH1.h"
  19:Generated_Source\PSoC5/CapSense_AMuxCH1.c **** 
  20:Generated_Source\PSoC5/CapSense_AMuxCH1.c **** uint8 CapSense_AMuxCH1_initVar = 0u;
  21:Generated_Source\PSoC5/CapSense_AMuxCH1.c **** uint8 CapSense_AMuxCH1_lastChannel = CapSense_AMuxCH1_NULL_CHANNEL;
  22:Generated_Source\PSoC5/CapSense_AMuxCH1.c **** 
  23:Generated_Source\PSoC5/CapSense_AMuxCH1.c **** 
  24:Generated_Source\PSoC5/CapSense_AMuxCH1.c **** /*******************************************************************************
  25:Generated_Source\PSoC5/CapSense_AMuxCH1.c **** * Function Name: CapSense_AMuxCH1_Start
  26:Generated_Source\PSoC5/CapSense_AMuxCH1.c **** ********************************************************************************
  27:Generated_Source\PSoC5/CapSense_AMuxCH1.c **** * Summary:
  28:Generated_Source\PSoC5/CapSense_AMuxCH1.c **** *  Disconnect all channels.
  29:Generated_Source\PSoC5/CapSense_AMuxCH1.c **** *
  30:Generated_Source\PSoC5/CapSense_AMuxCH1.c **** * Parameters:
  31:Generated_Source\PSoC5/CapSense_AMuxCH1.c **** *  void
  32:Generated_Source\PSoC5/CapSense_AMuxCH1.c **** *
  33:Generated_Source\PSoC5/CapSense_AMuxCH1.c **** * Return:
  34:Generated_Source\PSoC5/CapSense_AMuxCH1.c **** *  void
  35:Generated_Source\PSoC5/CapSense_AMuxCH1.c **** *
  36:Generated_Source\PSoC5/CapSense_AMuxCH1.c **** *******************************************************************************/
  37:Generated_Source\PSoC5/CapSense_AMuxCH1.c **** void CapSense_AMuxCH1_Start(void)
  38:Generated_Source\PSoC5/CapSense_AMuxCH1.c **** {
  39:Generated_Source\PSoC5/CapSense_AMuxCH1.c ****     CapSense_AMuxCH1_DisconnectAll();
  40:Generated_Source\PSoC5/CapSense_AMuxCH1.c ****     CapSense_AMuxCH1_initVar = 1u;
  41:Generated_Source\PSoC5/CapSense_AMuxCH1.c **** }
  42:Generated_Source\PSoC5/CapSense_AMuxCH1.c **** 
  43:Generated_Source\PSoC5/CapSense_AMuxCH1.c **** 
  44:Generated_Source\PSoC5/CapSense_AMuxCH1.c **** /*******************************************************************************
  45:Generated_Source\PSoC5/CapSense_AMuxCH1.c **** * Function Name: CapSense_AMuxCH1_Init
  46:Generated_Source\PSoC5/CapSense_AMuxCH1.c **** ********************************************************************************
ARM GAS  C:\Users\JEFFSN~1\AppData\Local\Temp\cccvU2TL.s 			page 21


  47:Generated_Source\PSoC5/CapSense_AMuxCH1.c **** * Summary:
  48:Generated_Source\PSoC5/CapSense_AMuxCH1.c **** *  Disconnect all channels.
  49:Generated_Source\PSoC5/CapSense_AMuxCH1.c **** *
  50:Generated_Source\PSoC5/CapSense_AMuxCH1.c **** * Parameters:
  51:Generated_Source\PSoC5/CapSense_AMuxCH1.c **** *  void
  52:Generated_Source\PSoC5/CapSense_AMuxCH1.c **** *
  53:Generated_Source\PSoC5/CapSense_AMuxCH1.c **** * Return:
  54:Generated_Source\PSoC5/CapSense_AMuxCH1.c **** *  void
  55:Generated_Source\PSoC5/CapSense_AMuxCH1.c **** *
  56:Generated_Source\PSoC5/CapSense_AMuxCH1.c **** *******************************************************************************/
  57:Generated_Source\PSoC5/CapSense_AMuxCH1.c **** void CapSense_AMuxCH1_Init(void)
  58:Generated_Source\PSoC5/CapSense_AMuxCH1.c **** {
  59:Generated_Source\PSoC5/CapSense_AMuxCH1.c ****     CapSense_AMuxCH1_DisconnectAll();
  60:Generated_Source\PSoC5/CapSense_AMuxCH1.c **** }
  61:Generated_Source\PSoC5/CapSense_AMuxCH1.c **** 
  62:Generated_Source\PSoC5/CapSense_AMuxCH1.c **** 
  63:Generated_Source\PSoC5/CapSense_AMuxCH1.c **** /*******************************************************************************
  64:Generated_Source\PSoC5/CapSense_AMuxCH1.c **** * Function Name: CapSense_AMuxCH1_Stop
  65:Generated_Source\PSoC5/CapSense_AMuxCH1.c **** ********************************************************************************
  66:Generated_Source\PSoC5/CapSense_AMuxCH1.c **** * Summary:
  67:Generated_Source\PSoC5/CapSense_AMuxCH1.c **** *  Disconnect all channels.
  68:Generated_Source\PSoC5/CapSense_AMuxCH1.c **** *
  69:Generated_Source\PSoC5/CapSense_AMuxCH1.c **** * Parameters:
  70:Generated_Source\PSoC5/CapSense_AMuxCH1.c **** *  void
  71:Generated_Source\PSoC5/CapSense_AMuxCH1.c **** *
  72:Generated_Source\PSoC5/CapSense_AMuxCH1.c **** * Return:
  73:Generated_Source\PSoC5/CapSense_AMuxCH1.c **** *  void
  74:Generated_Source\PSoC5/CapSense_AMuxCH1.c **** *
  75:Generated_Source\PSoC5/CapSense_AMuxCH1.c **** *******************************************************************************/
  76:Generated_Source\PSoC5/CapSense_AMuxCH1.c **** void CapSense_AMuxCH1_Stop(void)
  77:Generated_Source\PSoC5/CapSense_AMuxCH1.c **** {
  78:Generated_Source\PSoC5/CapSense_AMuxCH1.c ****     CapSense_AMuxCH1_DisconnectAll();
  79:Generated_Source\PSoC5/CapSense_AMuxCH1.c **** }
  80:Generated_Source\PSoC5/CapSense_AMuxCH1.c **** 
  81:Generated_Source\PSoC5/CapSense_AMuxCH1.c **** 
  82:Generated_Source\PSoC5/CapSense_AMuxCH1.c **** /*******************************************************************************
  83:Generated_Source\PSoC5/CapSense_AMuxCH1.c **** * Function Name: CapSense_AMuxCH1_Select
  84:Generated_Source\PSoC5/CapSense_AMuxCH1.c **** ********************************************************************************
  85:Generated_Source\PSoC5/CapSense_AMuxCH1.c **** * Summary:
  86:Generated_Source\PSoC5/CapSense_AMuxCH1.c **** *  This functions first disconnects all channels then connects the given
  87:Generated_Source\PSoC5/CapSense_AMuxCH1.c **** *  channel.
  88:Generated_Source\PSoC5/CapSense_AMuxCH1.c **** *
  89:Generated_Source\PSoC5/CapSense_AMuxCH1.c **** * Parameters:
  90:Generated_Source\PSoC5/CapSense_AMuxCH1.c **** *  channel:  The channel to connect to the common terminal.
  91:Generated_Source\PSoC5/CapSense_AMuxCH1.c **** *
  92:Generated_Source\PSoC5/CapSense_AMuxCH1.c **** * Return:
  93:Generated_Source\PSoC5/CapSense_AMuxCH1.c **** *  void
  94:Generated_Source\PSoC5/CapSense_AMuxCH1.c **** *
  95:Generated_Source\PSoC5/CapSense_AMuxCH1.c **** *******************************************************************************/
  96:Generated_Source\PSoC5/CapSense_AMuxCH1.c **** void CapSense_AMuxCH1_Select(uint8 channel) CYREENTRANT
  97:Generated_Source\PSoC5/CapSense_AMuxCH1.c **** {
  98:Generated_Source\PSoC5/CapSense_AMuxCH1.c ****     CapSense_AMuxCH1_DisconnectAll();        /* Disconnect all previous connections */
  99:Generated_Source\PSoC5/CapSense_AMuxCH1.c ****     CapSense_AMuxCH1_Connect(channel);       /* Make the given selection */
 100:Generated_Source\PSoC5/CapSense_AMuxCH1.c ****     CapSense_AMuxCH1_lastChannel = channel;  /* Update last channel */
 101:Generated_Source\PSoC5/CapSense_AMuxCH1.c **** }
 102:Generated_Source\PSoC5/CapSense_AMuxCH1.c **** 
 103:Generated_Source\PSoC5/CapSense_AMuxCH1.c **** 
ARM GAS  C:\Users\JEFFSN~1\AppData\Local\Temp\cccvU2TL.s 			page 22


 104:Generated_Source\PSoC5/CapSense_AMuxCH1.c **** /*******************************************************************************
 105:Generated_Source\PSoC5/CapSense_AMuxCH1.c **** * Function Name: CapSense_AMuxCH1_FastSelect
 106:Generated_Source\PSoC5/CapSense_AMuxCH1.c **** ********************************************************************************
 107:Generated_Source\PSoC5/CapSense_AMuxCH1.c **** * Summary:
 108:Generated_Source\PSoC5/CapSense_AMuxCH1.c **** *  This function first disconnects the last connection made with FastSelect or
 109:Generated_Source\PSoC5/CapSense_AMuxCH1.c **** *  Select, then connects the given channel. The FastSelect function is similar
 110:Generated_Source\PSoC5/CapSense_AMuxCH1.c **** *  to the Select function, except it is faster since it only disconnects the
 111:Generated_Source\PSoC5/CapSense_AMuxCH1.c **** *  last channel selected rather than all channels.
 112:Generated_Source\PSoC5/CapSense_AMuxCH1.c **** *
 113:Generated_Source\PSoC5/CapSense_AMuxCH1.c **** * Parameters:
 114:Generated_Source\PSoC5/CapSense_AMuxCH1.c **** *  channel:  The channel to connect to the common terminal.
 115:Generated_Source\PSoC5/CapSense_AMuxCH1.c **** *
 116:Generated_Source\PSoC5/CapSense_AMuxCH1.c **** * Return:
 117:Generated_Source\PSoC5/CapSense_AMuxCH1.c **** *  void
 118:Generated_Source\PSoC5/CapSense_AMuxCH1.c **** *
 119:Generated_Source\PSoC5/CapSense_AMuxCH1.c **** *******************************************************************************/
 120:Generated_Source\PSoC5/CapSense_AMuxCH1.c **** void CapSense_AMuxCH1_FastSelect(uint8 channel) CYREENTRANT
 121:Generated_Source\PSoC5/CapSense_AMuxCH1.c **** {
 319              		.loc 1 121 0
 320              		.cfi_startproc
 321              		@ args = 0, pretend = 0, frame = 0
 322              		@ frame_needed = 0, uses_anonymous_args = 0
 323              	.LVL0:
 324 0000 10B5     		push	{r4, lr}
 325              		.cfi_def_cfa_offset 8
 326              		.cfi_offset 4, -8
 327              		.cfi_offset 14, -4
 328 0002 0446     		mov	r4, r0
 122:Generated_Source\PSoC5/CapSense_AMuxCH1.c ****     /* Disconnect the last valid channel */
 123:Generated_Source\PSoC5/CapSense_AMuxCH1.c ****     if( CapSense_AMuxCH1_lastChannel != CapSense_AMuxCH1_NULL_CHANNEL)   /* Update last channel */
 329              		.loc 1 123 0
 330 0004 054B     		ldr	r3, .L4
 331 0006 1878     		ldrb	r0, [r3]	@ zero_extendqisi2
 332              	.LVL1:
 333 0008 FF28     		cmp	r0, #255
 334 000a 01D0     		beq	.L2
 124:Generated_Source\PSoC5/CapSense_AMuxCH1.c ****     {
 125:Generated_Source\PSoC5/CapSense_AMuxCH1.c ****         CapSense_AMuxCH1_Disconnect(CapSense_AMuxCH1_lastChannel);
 335              		.loc 1 125 0
 336 000c FFF7FEFF 		bl	CapSense_AMuxCH1_Unset
 337              	.LVL2:
 338              	.L2:
 126:Generated_Source\PSoC5/CapSense_AMuxCH1.c ****     }
 127:Generated_Source\PSoC5/CapSense_AMuxCH1.c **** 
 128:Generated_Source\PSoC5/CapSense_AMuxCH1.c ****     /* Make the new channel connection */
 129:Generated_Source\PSoC5/CapSense_AMuxCH1.c ****     CapSense_AMuxCH1_Connect(channel);
 339              		.loc 1 129 0
 340 0010 2046     		mov	r0, r4
 341 0012 FFF7FEFF 		bl	CapSense_AMuxCH1_Set
 342              	.LVL3:
 130:Generated_Source\PSoC5/CapSense_AMuxCH1.c ****     CapSense_AMuxCH1_lastChannel = channel;   /* Update last channel */
 343              		.loc 1 130 0
 344 0016 014B     		ldr	r3, .L4
 345 0018 1C70     		strb	r4, [r3]
 346 001a 10BD     		pop	{r4, pc}
 347              	.L5:
 348              		.align	2
ARM GAS  C:\Users\JEFFSN~1\AppData\Local\Temp\cccvU2TL.s 			page 23


 349              	.L4:
 350 001c 00000000 		.word	.LANCHOR0
 351              		.cfi_endproc
 352              	.LFE4:
 353              		.size	CapSense_AMuxCH1_FastSelect, .-CapSense_AMuxCH1_FastSelect
 354              		.section	.text.CapSense_AMuxCH1_DisconnectAll,"ax",%progbits
 355              		.align	2
 356              		.global	CapSense_AMuxCH1_DisconnectAll
 357              		.thumb
 358              		.thumb_func
 359              		.type	CapSense_AMuxCH1_DisconnectAll, %function
 360              	CapSense_AMuxCH1_DisconnectAll:
 361              	.LFB5:
 131:Generated_Source\PSoC5/CapSense_AMuxCH1.c **** }
 132:Generated_Source\PSoC5/CapSense_AMuxCH1.c **** 
 133:Generated_Source\PSoC5/CapSense_AMuxCH1.c **** 
 134:Generated_Source\PSoC5/CapSense_AMuxCH1.c **** #if(CapSense_AMuxCH1_MUXTYPE == CapSense_AMuxCH1_MUX_DIFF)
 135:Generated_Source\PSoC5/CapSense_AMuxCH1.c ****     /*******************************************************************************
 136:Generated_Source\PSoC5/CapSense_AMuxCH1.c ****     * Function Name: CapSense_AMuxCH1_Connect
 137:Generated_Source\PSoC5/CapSense_AMuxCH1.c ****     ********************************************************************************
 138:Generated_Source\PSoC5/CapSense_AMuxCH1.c ****     * Summary:
 139:Generated_Source\PSoC5/CapSense_AMuxCH1.c ****     *  This function connects the given channel without affecting other connections.
 140:Generated_Source\PSoC5/CapSense_AMuxCH1.c ****     *
 141:Generated_Source\PSoC5/CapSense_AMuxCH1.c ****     * Parameters:
 142:Generated_Source\PSoC5/CapSense_AMuxCH1.c ****     *  channel:  The channel to connect to the common terminal.
 143:Generated_Source\PSoC5/CapSense_AMuxCH1.c ****     *
 144:Generated_Source\PSoC5/CapSense_AMuxCH1.c ****     * Return:
 145:Generated_Source\PSoC5/CapSense_AMuxCH1.c ****     *  void
 146:Generated_Source\PSoC5/CapSense_AMuxCH1.c ****     *
 147:Generated_Source\PSoC5/CapSense_AMuxCH1.c ****     *******************************************************************************/
 148:Generated_Source\PSoC5/CapSense_AMuxCH1.c ****     void CapSense_AMuxCH1_Connect(uint8 channel) CYREENTRANT
 149:Generated_Source\PSoC5/CapSense_AMuxCH1.c ****     {
 150:Generated_Source\PSoC5/CapSense_AMuxCH1.c ****         CapSense_AMuxCH1_CYAMUXSIDE_A_Set(channel);
 151:Generated_Source\PSoC5/CapSense_AMuxCH1.c ****         CapSense_AMuxCH1_CYAMUXSIDE_B_Set(channel);
 152:Generated_Source\PSoC5/CapSense_AMuxCH1.c ****     }
 153:Generated_Source\PSoC5/CapSense_AMuxCH1.c ****     
 154:Generated_Source\PSoC5/CapSense_AMuxCH1.c ****     
 155:Generated_Source\PSoC5/CapSense_AMuxCH1.c ****     /*******************************************************************************
 156:Generated_Source\PSoC5/CapSense_AMuxCH1.c ****     * Function Name: CapSense_AMuxCH1_Disconnect
 157:Generated_Source\PSoC5/CapSense_AMuxCH1.c ****     ********************************************************************************
 158:Generated_Source\PSoC5/CapSense_AMuxCH1.c ****     * Summary:
 159:Generated_Source\PSoC5/CapSense_AMuxCH1.c ****     *  This function disconnects the given channel from the common or output
 160:Generated_Source\PSoC5/CapSense_AMuxCH1.c ****     *  terminal without affecting other connections.
 161:Generated_Source\PSoC5/CapSense_AMuxCH1.c ****     *
 162:Generated_Source\PSoC5/CapSense_AMuxCH1.c ****     * Parameters:
 163:Generated_Source\PSoC5/CapSense_AMuxCH1.c ****     *  channel:  The channel to disconnect from the common terminal.
 164:Generated_Source\PSoC5/CapSense_AMuxCH1.c ****     *
 165:Generated_Source\PSoC5/CapSense_AMuxCH1.c ****     * Return:
 166:Generated_Source\PSoC5/CapSense_AMuxCH1.c ****     *  void
 167:Generated_Source\PSoC5/CapSense_AMuxCH1.c ****     *
 168:Generated_Source\PSoC5/CapSense_AMuxCH1.c ****     *******************************************************************************/
 169:Generated_Source\PSoC5/CapSense_AMuxCH1.c ****     void CapSense_AMuxCH1_Disconnect(uint8 channel) CYREENTRANT
 170:Generated_Source\PSoC5/CapSense_AMuxCH1.c ****     {
 171:Generated_Source\PSoC5/CapSense_AMuxCH1.c ****         CapSense_AMuxCH1_CYAMUXSIDE_A_Unset(channel);
 172:Generated_Source\PSoC5/CapSense_AMuxCH1.c ****         CapSense_AMuxCH1_CYAMUXSIDE_B_Unset(channel);
 173:Generated_Source\PSoC5/CapSense_AMuxCH1.c ****     }
 174:Generated_Source\PSoC5/CapSense_AMuxCH1.c ****     
ARM GAS  C:\Users\JEFFSN~1\AppData\Local\Temp\cccvU2TL.s 			page 24


 175:Generated_Source\PSoC5/CapSense_AMuxCH1.c **** #endif  /* End (CapSense_AMuxCH1_MUXTYPE == CapSense_AMuxCH1_MUX_DIFF) */
 176:Generated_Source\PSoC5/CapSense_AMuxCH1.c **** 
 177:Generated_Source\PSoC5/CapSense_AMuxCH1.c **** 
 178:Generated_Source\PSoC5/CapSense_AMuxCH1.c **** /*******************************************************************************
 179:Generated_Source\PSoC5/CapSense_AMuxCH1.c **** * Function Name: CapSense_AMuxCH1_DisconnectAll
 180:Generated_Source\PSoC5/CapSense_AMuxCH1.c **** ********************************************************************************
 181:Generated_Source\PSoC5/CapSense_AMuxCH1.c **** * Summary:
 182:Generated_Source\PSoC5/CapSense_AMuxCH1.c **** *  This function disconnects all channels.
 183:Generated_Source\PSoC5/CapSense_AMuxCH1.c **** *
 184:Generated_Source\PSoC5/CapSense_AMuxCH1.c **** * Parameters:
 185:Generated_Source\PSoC5/CapSense_AMuxCH1.c **** *  void
 186:Generated_Source\PSoC5/CapSense_AMuxCH1.c **** *
 187:Generated_Source\PSoC5/CapSense_AMuxCH1.c **** * Return:
 188:Generated_Source\PSoC5/CapSense_AMuxCH1.c **** *  void
 189:Generated_Source\PSoC5/CapSense_AMuxCH1.c **** *
 190:Generated_Source\PSoC5/CapSense_AMuxCH1.c **** *******************************************************************************/
 191:Generated_Source\PSoC5/CapSense_AMuxCH1.c **** void CapSense_AMuxCH1_DisconnectAll(void) CYREENTRANT
 192:Generated_Source\PSoC5/CapSense_AMuxCH1.c **** {
 362              		.loc 1 192 0
 363              		.cfi_startproc
 364              		@ args = 0, pretend = 0, frame = 0
 365              		@ frame_needed = 0, uses_anonymous_args = 0
 366 0000 10B5     		push	{r4, lr}
 367              		.cfi_def_cfa_offset 8
 368              		.cfi_offset 4, -8
 369              		.cfi_offset 14, -4
 370              	.LVL4:
 193:Generated_Source\PSoC5/CapSense_AMuxCH1.c ****     uint8 chan;
 194:Generated_Source\PSoC5/CapSense_AMuxCH1.c **** 
 195:Generated_Source\PSoC5/CapSense_AMuxCH1.c ****     #if(CapSense_AMuxCH1_MUXTYPE == CapSense_AMuxCH1_MUX_SINGLE)
 196:Generated_Source\PSoC5/CapSense_AMuxCH1.c ****         for(chan = 0; chan < CapSense_AMuxCH1_CHANNELS ; chan++)
 371              		.loc 1 196 0
 372 0002 0024     		movs	r4, #0
 373 0004 04E0     		b	.L7
 374              	.LVL5:
 375              	.L8:
 197:Generated_Source\PSoC5/CapSense_AMuxCH1.c ****         {
 198:Generated_Source\PSoC5/CapSense_AMuxCH1.c ****             CapSense_AMuxCH1_Unset(chan);
 376              		.loc 1 198 0 discriminator 3
 377 0006 2046     		mov	r0, r4
 378 0008 FFF7FEFF 		bl	CapSense_AMuxCH1_Unset
 379              	.LVL6:
 196:Generated_Source\PSoC5/CapSense_AMuxCH1.c ****         {
 380              		.loc 1 196 0 discriminator 3
 381 000c 0134     		adds	r4, r4, #1
 382              	.LVL7:
 383 000e E4B2     		uxtb	r4, r4
 384              	.LVL8:
 385              	.L7:
 196:Generated_Source\PSoC5/CapSense_AMuxCH1.c ****         {
 386              		.loc 1 196 0 is_stmt 0 discriminator 1
 387 0010 062C     		cmp	r4, #6
 388 0012 F8D9     		bls	.L8
 199:Generated_Source\PSoC5/CapSense_AMuxCH1.c ****         }
 200:Generated_Source\PSoC5/CapSense_AMuxCH1.c ****     #else
 201:Generated_Source\PSoC5/CapSense_AMuxCH1.c ****         for(chan = 0; chan < CapSense_AMuxCH1_CHANNELS ; chan++)
 202:Generated_Source\PSoC5/CapSense_AMuxCH1.c ****         {
ARM GAS  C:\Users\JEFFSN~1\AppData\Local\Temp\cccvU2TL.s 			page 25


 203:Generated_Source\PSoC5/CapSense_AMuxCH1.c ****             CapSense_AMuxCH1_CYAMUXSIDE_A_Unset(chan);
 204:Generated_Source\PSoC5/CapSense_AMuxCH1.c ****             CapSense_AMuxCH1_CYAMUXSIDE_B_Unset(chan);
 205:Generated_Source\PSoC5/CapSense_AMuxCH1.c ****         }
 206:Generated_Source\PSoC5/CapSense_AMuxCH1.c ****     #endif  /* End (CapSense_AMuxCH1_MUXTYPE == CapSense_AMuxCH1_MUX_SINGLE) */
 207:Generated_Source\PSoC5/CapSense_AMuxCH1.c **** }
 389              		.loc 1 207 0 is_stmt 1
 390 0014 10BD     		pop	{r4, pc}
 391              		.cfi_endproc
 392              	.LFE5:
 393              		.size	CapSense_AMuxCH1_DisconnectAll, .-CapSense_AMuxCH1_DisconnectAll
 394 0016 00BF     		.section	.text.CapSense_AMuxCH1_Start,"ax",%progbits
 395              		.align	2
 396              		.global	CapSense_AMuxCH1_Start
 397              		.thumb
 398              		.thumb_func
 399              		.type	CapSense_AMuxCH1_Start, %function
 400              	CapSense_AMuxCH1_Start:
 401              	.LFB0:
  38:Generated_Source\PSoC5/CapSense_AMuxCH1.c ****     CapSense_AMuxCH1_DisconnectAll();
 402              		.loc 1 38 0
 403              		.cfi_startproc
 404              		@ args = 0, pretend = 0, frame = 0
 405              		@ frame_needed = 0, uses_anonymous_args = 0
 406 0000 08B5     		push	{r3, lr}
 407              		.cfi_def_cfa_offset 8
 408              		.cfi_offset 3, -8
 409              		.cfi_offset 14, -4
  39:Generated_Source\PSoC5/CapSense_AMuxCH1.c ****     CapSense_AMuxCH1_initVar = 1u;
 410              		.loc 1 39 0
 411 0002 FFF7FEFF 		bl	CapSense_AMuxCH1_DisconnectAll
 412              	.LVL9:
  40:Generated_Source\PSoC5/CapSense_AMuxCH1.c **** }
 413              		.loc 1 40 0
 414 0006 0122     		movs	r2, #1
 415 0008 014B     		ldr	r3, .L12
 416 000a 1A70     		strb	r2, [r3]
 417 000c 08BD     		pop	{r3, pc}
 418              	.L13:
 419 000e 00BF     		.align	2
 420              	.L12:
 421 0010 00000000 		.word	.LANCHOR1
 422              		.cfi_endproc
 423              	.LFE0:
 424              		.size	CapSense_AMuxCH1_Start, .-CapSense_AMuxCH1_Start
 425              		.section	.text.CapSense_AMuxCH1_Init,"ax",%progbits
 426              		.align	2
 427              		.global	CapSense_AMuxCH1_Init
 428              		.thumb
 429              		.thumb_func
 430              		.type	CapSense_AMuxCH1_Init, %function
 431              	CapSense_AMuxCH1_Init:
 432              	.LFB1:
  58:Generated_Source\PSoC5/CapSense_AMuxCH1.c ****     CapSense_AMuxCH1_DisconnectAll();
 433              		.loc 1 58 0
 434              		.cfi_startproc
 435              		@ args = 0, pretend = 0, frame = 0
 436              		@ frame_needed = 0, uses_anonymous_args = 0
ARM GAS  C:\Users\JEFFSN~1\AppData\Local\Temp\cccvU2TL.s 			page 26


 437 0000 08B5     		push	{r3, lr}
 438              		.cfi_def_cfa_offset 8
 439              		.cfi_offset 3, -8
 440              		.cfi_offset 14, -4
  59:Generated_Source\PSoC5/CapSense_AMuxCH1.c **** }
 441              		.loc 1 59 0
 442 0002 FFF7FEFF 		bl	CapSense_AMuxCH1_DisconnectAll
 443              	.LVL10:
 444 0006 08BD     		pop	{r3, pc}
 445              		.cfi_endproc
 446              	.LFE1:
 447              		.size	CapSense_AMuxCH1_Init, .-CapSense_AMuxCH1_Init
 448              		.section	.text.CapSense_AMuxCH1_Stop,"ax",%progbits
 449              		.align	2
 450              		.global	CapSense_AMuxCH1_Stop
 451              		.thumb
 452              		.thumb_func
 453              		.type	CapSense_AMuxCH1_Stop, %function
 454              	CapSense_AMuxCH1_Stop:
 455              	.LFB2:
  77:Generated_Source\PSoC5/CapSense_AMuxCH1.c ****     CapSense_AMuxCH1_DisconnectAll();
 456              		.loc 1 77 0
 457              		.cfi_startproc
 458              		@ args = 0, pretend = 0, frame = 0
 459              		@ frame_needed = 0, uses_anonymous_args = 0
 460 0000 08B5     		push	{r3, lr}
 461              		.cfi_def_cfa_offset 8
 462              		.cfi_offset 3, -8
 463              		.cfi_offset 14, -4
  78:Generated_Source\PSoC5/CapSense_AMuxCH1.c **** }
 464              		.loc 1 78 0
 465 0002 FFF7FEFF 		bl	CapSense_AMuxCH1_DisconnectAll
 466              	.LVL11:
 467 0006 08BD     		pop	{r3, pc}
 468              		.cfi_endproc
 469              	.LFE2:
 470              		.size	CapSense_AMuxCH1_Stop, .-CapSense_AMuxCH1_Stop
 471              		.section	.text.CapSense_AMuxCH1_Select,"ax",%progbits
 472              		.align	2
 473              		.global	CapSense_AMuxCH1_Select
 474              		.thumb
 475              		.thumb_func
 476              		.type	CapSense_AMuxCH1_Select, %function
 477              	CapSense_AMuxCH1_Select:
 478              	.LFB3:
  97:Generated_Source\PSoC5/CapSense_AMuxCH1.c ****     CapSense_AMuxCH1_DisconnectAll();        /* Disconnect all previous connections */
 479              		.loc 1 97 0
 480              		.cfi_startproc
 481              		@ args = 0, pretend = 0, frame = 0
 482              		@ frame_needed = 0, uses_anonymous_args = 0
 483              	.LVL12:
 484 0000 10B5     		push	{r4, lr}
 485              		.cfi_def_cfa_offset 8
 486              		.cfi_offset 4, -8
 487              		.cfi_offset 14, -4
 488 0002 0446     		mov	r4, r0
  98:Generated_Source\PSoC5/CapSense_AMuxCH1.c ****     CapSense_AMuxCH1_Connect(channel);       /* Make the given selection */
ARM GAS  C:\Users\JEFFSN~1\AppData\Local\Temp\cccvU2TL.s 			page 27


 489              		.loc 1 98 0
 490 0004 FFF7FEFF 		bl	CapSense_AMuxCH1_DisconnectAll
 491              	.LVL13:
  99:Generated_Source\PSoC5/CapSense_AMuxCH1.c ****     CapSense_AMuxCH1_lastChannel = channel;  /* Update last channel */
 492              		.loc 1 99 0
 493 0008 2046     		mov	r0, r4
 494 000a FFF7FEFF 		bl	CapSense_AMuxCH1_Set
 495              	.LVL14:
 100:Generated_Source\PSoC5/CapSense_AMuxCH1.c **** }
 496              		.loc 1 100 0
 497 000e 014B     		ldr	r3, .L20
 498 0010 1C70     		strb	r4, [r3]
 499 0012 10BD     		pop	{r4, pc}
 500              	.L21:
 501              		.align	2
 502              	.L20:
 503 0014 00000000 		.word	.LANCHOR0
 504              		.cfi_endproc
 505              	.LFE3:
 506              		.size	CapSense_AMuxCH1_Select, .-CapSense_AMuxCH1_Select
 507              		.global	CapSense_AMuxCH1_lastChannel
 508              		.global	CapSense_AMuxCH1_initVar
 509              		.data
 510              		.set	.LANCHOR0,. + 0
 511              		.type	CapSense_AMuxCH1_lastChannel, %object
 512              		.size	CapSense_AMuxCH1_lastChannel, 1
 513              	CapSense_AMuxCH1_lastChannel:
 514 0000 FF       		.byte	-1
 515              		.bss
 516              		.set	.LANCHOR1,. + 0
 517              		.type	CapSense_AMuxCH1_initVar, %object
 518              		.size	CapSense_AMuxCH1_initVar, 1
 519              	CapSense_AMuxCH1_initVar:
 520 0000 00       		.space	1
 521              		.text
 522              	.Letext0:
 523              		.file 2 "Generated_Source\\PSoC5\\cyfitter_cfg.h"
 524              		.file 3 "Generated_Source\\PSoC5\\cytypes.h"