ARM GAS  C:\Users\JEFFSN~1\AppData\Local\Temp\ccFrr1yu.s 			page 1


   1              		.syntax unified
   2              		.cpu cortex-m3
   3              		.fpu softvfp
   4              		.eabi_attribute 20, 1
   5              		.eabi_attribute 21, 1
   6              		.eabi_attribute 23, 3
   7              		.eabi_attribute 24, 1
   8              		.eabi_attribute 25, 1
   9              		.eabi_attribute 26, 1
  10              		.eabi_attribute 30, 2
  11              		.eabi_attribute 34, 1
  12              		.eabi_attribute 18, 4
  13              		.thumb
  14              		.syntax unified
  15              		.file	"CapSense_AMuxCH0.c"
  16              		.text
  17              	.Ltext0:
  18              		.section	.gnu.lto_.profile.807c86e8,"",%progbits
  19 0000 789C6361 		.ascii	"x\234ca`d`a`\000\222\225\332\000\001\207\000\257"
  19      60646061 
  19      60009295 
  19      DA000187 
  19      00AF
  20              		.text
  21              		.section	.gnu.lto_.icf.807c86e8,"",%progbits
  22 0000 789C6361 		.ascii	"x\234ca`d\000\001#\006\004\340`X\370\361\312n\016\306"
  22      60640001 
  22      230604E0 
  22      6058F8F1 
  22      CA6E0EC6 
  23 0014 357F6F5C 		.ascii	"5\177o\\gcZ\377\241k\003\0233\230d\231\376v\311U6\326"
  23      67635AFF 
  23      A16B0313 
  23      33986499 
  23      FE76C955 
  24 002a EE396D37 		.ascii	"\3569m7X\331Z\2175/\342g\007\2133\000\000t\236\027\200"
  24      58D95A8F 
  24      352FE267 
  24      078B3300 
  24      00749E17 
  25              		.text
  26              		.section	.gnu.lto_.jmpfuncs.807c86e8,"",%progbits
  27 0000 789C6361 		.ascii	"x\234ca`d\000\001;\006\004`\003b&\010\006Q\314\020\212"
  27      60640001 
  27      3B060460 
  27      03622608 
  27      0651CC10 
  28 0015 859191B1 		.ascii	"\205\221\221\261\236\211\251\222\001*\313\206\306g\207"
  28      9E89A992 
  28      012ACB86 
  28      C66787
  29 0024 500C004E 		.ascii	"P\014\000N)\002j"
  29      29026A
  30              		.text
  31              		.section	.gnu.lto_.inline.807c86e8,"",%progbits
  32 0000 789C6361 		.ascii	"x\234ca`d\000\201m\014\010\300\306\300\300\371\034("
  32      60640081 
ARM GAS  C:\Users\JEFFSN~1\AppData\Local\Temp\ccFrr1yu.s 			page 2


  32      6D0C08C0 
  32      C6C0C0F9 
  32      1C28
  33 0012 CEC4D1F0 		.ascii	"\316\304\321\360\235\211\201m\201<\023H\224\211\233"
  33      9D89816D 
  33      813C1348 
  33      94899B
  34 0021 91817182 		.ascii	"\221\201q\202\037\023\003\3073\220\034\333\206\347\030"
  34      1F1303C7 
  34      33901CDB 
  34      86E718
  35 0030 72CC78E4 		.ascii	"r\314x\344X\030\270?a1\223\001l&D\011\033\003\267\004"
  35      5818B83F 
  35      61319301 
  35      6C264409 
  35      1B03B704 
  36 0044 48C5013B 		.ascii	"H\305\001;L\005`\212\035\217\371\014\000\027=\032\270"
  36      4C05608A 
  36      1D8FF90C 
  36      00173D1A 
  36      B8
  37              		.text
  38              		.section	.gnu.lto_.pureconst.807c86e8,"",%progbits
  39 0000 789C6361 		.ascii	"x\234ca`d\340e```c\220`\222`\226`\221`\223`\227\000"
  39      6064E065 
  39      60606063 
  39      90609260 
  39      96609160 
  40 0018 00057100 		.ascii	"\000\005q\000\277"
  40      BF
  41              		.text
  42              		.section	.gnu.lto_CapSense_AMuxCH0_Start.807c86e8,"",%progbits
  43 0000 789C6551 		.ascii	"x\234eQ=hSQ\024>\337\271\367%ih\265K\267\016]:\264\240"
  43      3D685351 
  43      143EDFB9 
  43      F7256968 
  43      B54BB70E 
  44 0018 54C45590 		.ascii	"T\304U\220\014u\021\305\254\205\022\342\023\247T\252"
  44      0C7511C5 
  44      AC8512E2 
  44      13A754AA 
  45 0028 05B7DCFC 		.ascii	"\005\267\334\374Y]D(V\034b\006\221F\255Mc\021\314\344"
  45      595D4428 
  45      561C6206 
  45      9146AD4D 
  45      6311CCE4 
  46 003c B3762CE9 		.ascii	"\263v,\351 N\"\350\223\206R\024Zi7k<\367>\013\376\\"
  46      204E22E8 
  46      93865214 
  46      5A69376B 
  46      3CF73E0B 
  47 0052 78F7DEF7 		.ascii	"x\367\336\367\335s\276\357;\347h\002\3315\316D'\344"
  47      DD73BEEF 
  47      3BE76802 
  47      D935CE44 
  47      27E4
  48 0064 3C2F1F62 		.ascii	"</\037b\004\276\333&*$\030:\272\250\350\362&\241Y-\255"
ARM GAS  C:\Users\JEFFSN~1\AppData\Local\Temp\ccFrr1yu.s 			page 3


  48      04BEDB26 
  48      2A24183A 
  48      BAA8E8F2 
  48      26A1592D 
  49 0079 1199A417 		.ascii	"\021\231\244\027\366\220\351\365\000\213\233\004(\317"
  49      F690E9F5 
  49      008B9B04 
  49      28CF
  50 0087 4A7BC8B3 		.ascii	"J{\310\263&\004\032q\267Y\352}>`\254\316vZ<\262`d}z"
  50      26041A71 
  50      B759EA7D 
  50      3E60ACCE 
  50      765A3CB2 
  51 009f 3CA74C3D 		.ascii	"<\247L=@E\021u\331\251\023\0260B\022\0266\177\336\353"
  51      40451175 
  51      D9A91316 
  51      30421216 
  51      367FDEEB 
  52 00b3 8B956DD8 		.ascii	"\213\225m\330P\364\210:bb\021\362\370\260\021~\354U"
  52      50F4883A 
  52      626211F2 
  52      F8B0117E 
  52      EC55
  53 00c5 C76003DF 		.ascii	"\307`\003\3375\367\277\305\206\037\031S4\301\\\273\357"
  53      35F7BFC5 
  53      861F1953 
  53      34C15CBB 
  53      EF
  54 00d6 BE090A43 		.ascii	"\276\011\012C\025\005<\201\2224\234\034\304\330`\304"
  54      15053C81 
  54      92349C1C 
  54      C4D860C4 
  55 00e6 FC14C38D 		.ascii	"\374\024\303\215\213\201\351vK&\250z\233\034\327\016"
  55      8B81E976 
  55      4B26A87A 
  55      9B1CD70E 
  56 00f6 F3DC4EB4 		.ascii	"\363\334N\264#\"R\311.\263\034*D1xpg\340o'\346\365\250"
  56      232252C9 
  56      2EB31C2A 
  56      44317870 
  56      67E06F27 
  57 010d B3D165FC 		.ascii	"\263\321e\374\353\321q\340\231t\214\260(F\345W\"\346"
  57      EBD171E0 
  57      99748CB0 
  57      2846E557 
  57      22E6
  58 011f 2BAB1BF1 		.ascii	"+\253\033\361=\266~\010\317a\215\354\262\"\351\233\332"
  58      3DB67E08 
  58      CF618DEC 
  58      B222E99B 
  58      DA
  59 0130 4239A8B6 		.ascii	"B9\250\266\217\330`\313\325j}\375\020\317\037\230[\306"
  59      8FD860CB 
  59      D56A7DFD 
  59      10CF1F98 
  59      5BC6
  60 0142 F4571477 		.ascii	"\364W\024w\231\035\031\226\220\247\222\322\025\245\250"
ARM GAS  C:\Users\JEFFSN~1\AppData\Local\Temp\ccFrr1yu.s 			page 4


  60      991D1996 
  60      90A792D2 
  60      15A5A8
  61 0151 83D2FCCD 		.ascii	"\203\322\374\315\316\253\037\2609%\345\011,\211/g\327"
  61      CEAB1FB0 
  61      3925E509 
  61      2C892F67 
  61      D7
  62 0162 9BC94802 		.ascii	"\233\311H\002h\210D\010>t ANQ\223\214\306\226\324O\021"
  62      68884408 
  62      3E742041 
  62      4E51938C 
  62      C696D44F 
  63 0177 ACE933CA 		.ascii	"\254\3513\312\033\245\313\021\223\245\331\254\277\375"
  63      1BA5CB11 
  63      93A5D9AC 
  63      BFFD
  64 0185 F29B2686 		.ascii	"\362\233&\206e\347\224\276C[\323\\\027)Om\035\025&\357"
  64      65E794BE 
  64      435BD35C 
  64      17294F6D 
  64      1D1526EF 
  65 0199 B037B501 		.ascii	"\2607\265\0017\017\327\271\016\212{\313\213\247-\360"
  65      370FD7B9 
  65      0E8A7BCB 
  65      8BA72DF0 
  66 01a9 67CD1AFF 		.ascii	"g\315\032\377\027\246o\313\254-\274\275\376~-YC\265"
  66      17A66FCB 
  66      AC2DBCBD 
  66      FE7E2D59 
  66      43B5
  67 01bb 601C0EBC 		.ascii	"`\034\016\274@\036M\253\213\025\324\242J\266Eg\305\263"
  67      401E4DAB 
  67      8B15D4A2 
  67      4AB64567 
  67      C5B3
  68 01cd B46E803B 		.ascii	"\264n\200;\322\365\260G\2464:\356\347\374\351\314u\377"
  68      D2F5B047 
  68      A6343AEE 
  68      E7FCE9CC 
  68      75FF
  69 01df D2647A6A 		.ascii	"\322dzjf:\353O\\HO\245NM\2442W\323~\356\232?y\346\334"
  69      663AEB4F 
  69      5C484FA5 
  69      4E4DA432 
  69      57D37EEE 
  70 01f8 CC8DD4D9 		.ascii	"\314\215\324\331\261\343Y\322\331+\231\334/l\005\326"
  70      B1E359D2 
  70      D92B99DC 
  70      2F6C05D6 
  71 0208 09       		.ascii	"\011"
  72              		.text
  73              		.section	.gnu.lto_CapSense_AMuxCH0_Init.807c86e8,"",%progbits
  74 0000 789C5D51 		.ascii	"x\234]Q\277k\024A\024~\337\274\331\275KH4M\272\024i"
  74      BF6B1441 
  74      147EDFBC 
  74      D9BD4B48 
ARM GAS  C:\Users\JEFFSN~1\AppData\Local\Temp\ccFrr1yu.s 			page 5


  74      344DBA14 
  75 0015 52445112 		.ascii	"RDQ\022\304?@\256\320&D\2746\020\216s\305\352\"\321"
  75      C43F40AE 
  75      D02644BC 
  75      36108E73 
  75      C5EA22D1 
  76 0029 80DD4DB2 		.ascii	"\200\335M\262\267\306J\004I\304\"iDr\376\312y\205\340"
  76      B7C64A04 
  76      49C42269 
  76      4472FECA 
  76      7985E0
  77 003c 756BB494 		.ascii	"uk\264\224Ka)\202\256x\0041$'\036\"\030\3277\263\246"
  77      4B612982 
  77      AE780431 
  77      24271E22 
  77      18D737B3 
  78 0051 D081F9F1 		.ascii	"\320\201\371\361\336|\357{\337|\243\011d\307\236l\223"
  78      DE7CEF7B 
  78      DF7CA309 
  78      64C79E6C 
  78      93
  79 0062 B24FCB84 		.ascii	"\262O\313\204OP\267\333D\213y\005\235\0358;\274\314"
  79      4F50B7DB 
  79      448B7905 
  79      9D1D383B 
  79      BCCC
  80 0074 6BC59BAF 		.ascii	"k\305\233\257\211L\277\227\364\221\031\360\000\2337"
  80      894CBF97 
  80      F49119F0 
  80      009B37
  81 0083 795055B1 		.ascii	"yPU\261\366PU\232\020k\344\334b\251{\352@ak\271\323"
  81      F650559A 
  81      106BE4DC 
  81      62A97BEA 
  81      40616BB9 
  82 0098 52E31B46 		.ascii	"R\343\033F\306\207\007\353l\3521\"&J\225\353N\330\300"
  82      C68707EB 
  82      6CEA3122 
  82      264A95EB 
  82      4ED8C0
  83 00ab 38092C69 		.ascii	"8\011,i\376^\031\364k\0266\232]\242\016_\264A.\327\033"
  83      FE5E19F4 
  83      6B16369A 
  83      5DA20E5F 
  83      B4412ED7 
  84 00c0 C9FB013E 		.ascii	"\311\373\001>\001\013|\333\354\355\372c\367\215Y2\361"
  84      010B7CDB 
  84      ECEDFA63 
  84      F78D5932 
  84      F1
  85 00d1 9DF6E05D 		.ascii	"\235\366\340]\023/\216F\014<\004K\031N\215`b$c~\204"
  85      132F8E46 
  85      0C3C044B 
  85      194E8D60 
  85      6224637E 
  86 00e6 B1C685D8 		.ascii	"\261\306\205\330\244ih\342\236\327e\237]N\273\225h_"
  86      A46968E2 
ARM GAS  C:\Users\JEFFSN~1\AppData\Local\Temp\ccFrr1yu.s 			page 6


  86      9ED7659F 
  86      5D4EBB95 
  86      685F
  87 00f8 9AC84BBA 		.ascii	"\232\310K\272J\311\306\011\226\342{\267\206\377Ub\366"
  87      4AC9C609 
  87      96E27BB7 
  87      86FF5562 
  87      F6
  88 0109 8E3B19A9 		.ascii	"\216;\031\251\302\377\032\035\007\036\213c\204'\"TB"
  88      C2FF1A1D 
  88      071E8B63 
  88      84272254 
  88      42
  89 011a 41AC465B 		.ascii	"A\254F[\333\271\357\312\352!<\205\025\322UL\342\033"
  89      DBB9EFCA 
  89      EA213C85 
  89      15D2554C 
  89      E21B
  90 012c EFA016AF 		.ascii	"\357\240\026\257\265\217X\260\345j\265\276\276\313U"
  90      B58F58B0 
  90      E56AB5BE 
  90      BECB55
  91 013b 0FCC4D63 		.ascii	"\017\314Mc\206\"V\251R\216\014\233\250R\310\0341S\007"
  91      862256A9 
  91      528E0C9B 
  91      A852C81C 
  91      315307
  92 014e E1EA8DCE 		.ascii	"\341\352\215\316\213_\2605!kIK\341\363\3457\315\376"
  92      8B5FB035 
  92      216B494B 
  92      E1F3E537 
  92      CDFE
  93 0160 AC05D090 		.ascii	"\254\005\320\220\026\011\324\241\002\001\271\216\232"
  93      1609D4A1 
  93      0201B98E 
  93      9A
  94 016d E46BEC93 		.ascii	"\344k\354\223\206(K3}Dm;\274\2241Y\232\317\365W\237"
  94      86284B33 
  94      7D446D3B 
  94      BC943159 
  94      9ACFF557 
  95 0182 FED2F878 		.ascii	"\376\322\370x\346\224\3227\260\025\255\352\236\020\361"
  95      E694D237 
  95      B015ADEA 
  95      9E10F1
  96 0191 CE5161F2 		.ascii	"\316Qa\362\016\275\3711\354\376\3039\367E\342\237\236"
  96      0EBDF931 
  96      ECFEC339 
  96      F745E29F 
  96      9E
  97 01a2 8D9DD1FB 		.ascii	"\215\235\321\373\342N\322'n\036;\033T\202\371\322\265"
  97      E24ED227 
  97      6E1E3B1B 
  97      5482F9D2 
  97      B5
  98 01b3 E0E26C71 		.ascii	"\340\342lqna\276\034\314\234/\316\025N\317\024JW\212"
  98      6E61BE1C 
ARM GAS  C:\Users\JEFFSN~1\AppData\Local\Temp\ccFrr1yu.s 			page 7


  98      CC9C2FCE 
  98      154ECF14 
  98      4A578A
  99 01c6 41E56A30 		.ascii	"A\345j0{fj\341z\341\334\304\3112\351\362\345R\345\017"
  99      7B666AE1 
  99      7AE1DCC4 
  99      C932E9F2 
  99      E552E50F 
 100 01da 06CDB8C7 		.ascii	"\006\315\270\307"
 101              		.text
 102              		.section	.gnu.lto_CapSense_AMuxCH0_Stop.807c86e8,"",%progbits
 103 0000 789C5D52 		.ascii	"x\234]R\277k\024A\024~\337{\273{\227\220h\032\273\024"
 103      BF6B1441 
 103      147EDF7B 
 103      BB7B9790 
 103      681ABB14 
 104 0014 69524450 		.ascii	"iRDPN\304?@\0164\215(^\033\010\307\271bu\221h\300\356"
 104      4EC43F40 
 104      0E348D28 
 104      5E1B08C7 
 104      B9627591 
 105 002b 26B95B63 		.ascii	"&\271[c!\"\004#\026\332X\344\374\225\363\012\301C\324"
 105      21220423 
 105      16DA58E4 
 105      FC95F30A 
 105      C143D4
 106 003e 4D142BB9 		.ascii	"M\024+\271\024\226\"\350\212g\020\205DL\245q}3k\012"
 106      149622E8 
 106      8A671085 
 106      444CA571 
 106      7D336B0A 
 107 0052 1DD87933 		.ascii	"\035\330y3o\276\367\275o\276Y\217@v|\327p@\343q\375"
 107      6FBEF7BD 
 107      6FBE598F 
 107      40767CD7 
 107      7040E371 
 108 0067 1010F86A 		.ascii	"\020\020\370j\227h6\317\360\262\205d\213\225\274\307"
 108      976836CF 
 108      F0B28564 
 108      8B95BCC7 
 109 0077 B2FC92C8 		.ascii	"\262\374\222\310\364\373I\037\231\001\037\260y\223\007"
 109      F4FB491F 
 109      99011FB0 
 109      799307
 110 0086 D5583C1F 		.ascii	"\325X<\0375\366\010\261\207\234\233,\365\026o3V\347"
 110      35F608B1 
 110      879C9B2C 
 110      F5166F33 
 110      56E7
 111 0098 7B1D1E5B 		.ascii	"{\035\036[2:\336G\237\013\246\031#\022\242\224]w\302"
 111      323ADE47 
 111      9F0BA619 
 111      2312A294 
 111      5D77C2
 112 00ab 12C64861 		.ascii	"\022\306HaI\373\367\265\301\240aa#\331!\232\010T\033"
 112      49FBF7B5 
 112      C1A06161 
ARM GAS  C:\Users\JEFFSN~1\AppData\Local\Temp\ccFrr1yu.s 			page 8


 112      23D9219A 
 112      08541B
 113 00be F4F0562B 		.ascii	"\364\360V+y7 \373`\201o\332[\337\202\321\333\306\314"
 113      793720FB 
 113      60816FDA 
 113      5BDF82D1 
 113      DBC6CC
 114 00d1 9978A13B 		.ascii	"\231x\241;x\335\304\263#\221\000w Z\206\203\303(\014"
 114      78DDC4B3 
 114      23910077 
 114      205A8683 
 114      C3280C
 115 00e4 67CC7731 		.ascii	"g\314w1\332:\031\2334\255\233\370I\260\362,\010\304"
 115      DA3A199B 
 115      34AD9BF8 
 115      49B0F22C 
 115      08C4
 116 00f6 253D3713 		.ascii	"%=7\023mh\027\275\312&\263\006I0\027\337\270\262\347"
 116      6D6817BD 
 116      CA26B306 
 116      493017DF 
 116      B8B2E7
 117 0109 5F29E6E7 		.ascii	"_)\346\347e\337\011I\031\377\253t$\270\247\236\021\356"
 117      65DF0949 
 117      19FFAB74 
 117      24B8A79E 
 117      11EE
 118 011b AB54DD2A 		.ascii	"\253T\335*b1Z]\313\375`\253\210\360\000V\312&\013\251"
 118      62315A5D 
 118      CBFD60AB 
 118      88F00056 
 118      CA260BA9 
 119 012f 73B28E46 		.ascii	"s\262\216F|\263\273\313\202-W\247\363\365m\256\266m"
 119      7CB3BBCB 
 119      822D57A7 
 119      F3F56DAE 
 119      B66D
 120 0141 2E193314 		.ascii	".\0313\024\011\247\314\216\014\313\250Q]$\022\241\036"
 120      09A7CC8E 
 120      0CCBA851 
 120      5D2412A1 
 120      1E
 121 0152 EA8B177B 		.ascii	"\352\213\027{\217\177\301\326\324\305\323\264\026>\232"
 121      8F7FC1D6 
 121      D4C5D3B4 
 121      163E9A
 122 0161 7FDDEECF 		.ascii	"\177\335\356\317Z\000-m\221\200w\024(\310u\364H\037"
 122      5A002D6D 
 122      91807714 
 122      28C875F4 
 122      481F
 123 0173 C7DE6988 		.ascii	"\307\336i\210\262\264\320\0074\326\352\2473&K\363\251"
 123      B2B4D007 
 123      34D6EAA7 
 123      33264BF3 
 123      A9
 124 0184 F9E2E35F 		.ascii	"\371\342\343_\232\000\017\235R\375\031\304\212\346\246"
ARM GAS  C:\Users\JEFFSN~1\AppData\Local\Temp\ccFrr1yu.s 			page 9


 124      9A000F9D 
 124      52FD19C4 
 124      8AE6A6
 125 0193 AF44B2BE 		.ascii	"\257D\262\276[\231\374\035s\236\276b\367$\316\273/\232"
 125      5B99FC1D 
 125      739EBE62 
 125      F724CEBB 
 125      2F9A
 126 01a5 787EC4EE 		.ascii	"x~\304\356\235\327\033jO\322\247~\356=\032V\303\351"
 126      9DD71B6A 
 126      4FD2A77E 
 126      EE3D1A56 
 126      C3E9
 127 01b7 F2F9F0D4 		.ascii	"\362\371\360\324dijf\272\022N\234(M\025\017M\024\313"
 127      64696A66 
 127      BA124E9C 
 127      284D150F 
 127      4D14CB
 128 01ca 674B61F5 		.ascii	"gKa\365\\8y\370\330\314\205\342xa\177\205\274\312\231"
 128      5C3879F8 
 128      D8CC85E2 
 128      78617F85 
 128      BCCA99
 129 01dd 72F50F45 		.ascii	"r\365\017E\270\272j"
 129      B8BA6A
 130              		.text
 131              		.section	.gnu.lto_CapSense_AMuxCH0_Select.807c86e8,"",%progbits
 132 0000 789C6D52 		.ascii	"x\234mRMhSA\020\236o\367\345\275$\264\332\213\267\036"
 132      4D685341 
 132      109E6FF7 
 132      E5BD24B4 
 132      DA8BB71E 
 133 0014 7A29A582 		.ascii	"z)\245\202\022\220\036<J\016\365\"\212\271VJ\210O<H"
 133      12901E3C 
 133      4A0EF522 
 133      8AB9564A 
 133      884F3C48 
 134 0028 2AD582B7 		.ascii	"*\325\202\267l\376\254^\212 \215\264RK\021i\264\265"
 134      6CFEAC5E 
 134      8A208DB4 
 134      524B1169 
 134      B4B5
 135 003a 316A8AB9 		.ascii	"1j\212\271\275\264\005/%=\210\027\377\320\210\241\024"
 135      BDB4052F 
 135      253D8817 
 135      FFD088A1 
 135      14
 136 004b 85B6D89B 		.ascii	"\205\266\330\2335\316\356\263P\177\026\336\356\354\354"
 136      35CEEEB3 
 136      507F16DE 
 136      EEECEC
 137 005a 37DF7C33 		.ascii	"7\337|3\363,\002\351\265(\210\216\363y\232?\330\004"
 137      F32C02E9 
 137      B528888E 
 137      F3799A3F 
 137      D804
 138 006c 71AB4E94 		.ascii	"q\253N\224\016\012X\276!}\243\026\264\204\\X!R\341@"
ARM GAS  C:\Users\JEFFSN~1\AppData\Local\Temp\ccFrr1yu.s 			page 10


 138      0E0A58BE 
 138      217DA316 
 138      B4845C58 
 138      2152E140 
 139 0080 2344AA2D 		.ascii	"#D\252-\000h\277\012\202RBZ\001\244\204E\360,8f\323"
 139      0068BF0A 
 139      8252425A 
 139      01A48445 
 139      F02C3866 
 140 0095 D43B6257 		.ascii	"\324;bW`i\264Y\025\275\263\212\327\307\374vD\025=\344"
 140      6069B459 
 140      15BDB38A 
 140      D7C7FC76 
 140      44153DE4 
 141 00a9 25514B98 		.ascii	"%QK\230\354\204Y\3642j\376\335\362\007[\036\001\261"
 141      EC8459F4 
 141      326AFEDD 
 141      F2075B1E 
 141      01B1
 142 00bb FDA63253 		.ascii	"\375\2462S\013\365<P*\243\324\3049%\363\022(Br\004\216"
 142      0BF53C50 
 142      2AA3D4C4 
 142      3925F312 
 142      28427204 
 143 00d0 7522D249 		.ascii	"u\"\322I\354 <D\217\0067\312?\307\333\355\234\246\357"
 143      EC203C44 
 143      8F0637CA 
 143      3FC7DBED 
 143      9CA6EF
 144 00e3 F249F108 		.ascii	"\362I\361\0106\227\006~\274Wj\274o\223}\206\365Uy\347"
 144      3697067E 
 144      BC576ABC 
 144      6F937D86 
 144      F55579E7 
 145 00f7 9BDD7D5F 		.ascii	"\233\335}_\263z\267\353\355w\224\227\356\322\314s\373"
 145      B37AB7EB 
 145      ED779497 
 145      EED2CC73 
 145      FB
 146 0108 998DA279 		.ascii	"\231\215\242yt\227\316z\252\325\3122\322\251M:!\206"
 146      7497CE7A 
 146      AAD5CA32 
 146      D2A94D3A 
 146      2186
 147 011a 713ADB3C 		.ascii	"q:\333<9f'\332\344\\\334\210-!\370\220\015d\274\211"
 147      396627DA 
 147      E45CDC88 
 147      2D21F890 
 147      0D64BC89 
 148 012e B1437F0A 		.ascii	"\261C\177\012Rsc\001#\247%\360\267VC\202\307\334q\302"
 148      52736301 
 148      23A725F0 
 148      B7564382 
 148      C7DC71C2 
 149 0142 020BE62B 		.ascii	"\002\013\346+#\012\371\2455\347\273\320\272\010%hA["
 149      230AF9A5 
 149      35E7BBD0 
ARM GAS  C:\Users\JEFFSN~1\AppData\Local\Temp\ccFrr1yu.s 			page 11


 149      BA082568 
 149      415B
 150 0154 4212F75D 		.ascii	"B\022\367]\256#\347M\325\017h\260\346\252V\277\276u"
 150      AE23E74D 
 150      D50F68B0 
 150      E6AA56BF 
 150      BE75
 151 0166 52BBEA86 		.ascii	"R\273\352\206R\035y)ZB\0302<A\212\262\322\316KIMd\013"
 151      521D7929 
 151      5A421832 
 151      3C418AB2 
 151      D2CE4B49 
 152 017d D79B2F7E 		.ascii	"\327\233/~@\307d\245\303n\016\254\214\256\226\303~\012"
 152      40C764A5 
 152      C36E0EAC 
 152      8CAE96C3 
 152      7E0A
 153 018f A0CC291A 		.ascii	"\240\314)\032\020{\012\030d2Z\304\243\3255u\220\357"
 153      107B0A18 
 153      64325AC4 
 153      A3D53575 
 153      90EF
 154 01a1 B6E91372 		.ascii	"\266\351\023rk\331\013>\223\246\371R\\\376\374\233\306"
 154      6BD90B3E 
 154      93A6F952 
 154      5CFEFC9B 
 154      C6
 155 01b2 C653A394 		.ascii	"\306S\243\224\266\331d\321\242\030`\"\271~\220\231\002"
 155      B6D964D1 
 155      A2186022 
 155      B97E9099 
 155      02
 156 01c3 7BCD197F 		.ascii	"{\315\031\177)\314`L\357t-\005G\337\377[\012\377\036"
 156      29CC604C 
 156      EF742D05 
 156      47DFFF5B 
 156      0AFF1E
 157 01d6 7866EA90 		.ascii	"xf\352\220~\035\231\311rs&\244\361\373{d\341\337h\353"
 157      7E1D99C9 
 157      727326A4 
 157      F1FB7B64 
 157      E1DF68EB 
 158 01ea 26076BF7 		.ascii	"&\007k\367\306\352\353\225\3604\246\322\312\370\201"
 158      C6EAEB95 
 158      F034A6D2 
 158      CAF881
 159 01f9 0A5278AE 		.ascii	"\012Rx\256ub\021\323`j\332`Yw\373\215\012\2756yH\215"
 159      756211D3 
 159      606ADA60 
 159      5977FB8D 
 159      0ABD3679 
 160 020f 104FF570 		.ascii	"\020O\365p\277\233t\207\343W\335\363\203\261\241\221"
 160      BF9B7487 
 160      E357DDF3 
 160      83B1A191 
 161 021f E1843B70 		.ascii	"\341\204;p&6\024\355\033\210\306/\307\334\344\025w\360"
 161      263614ED 
ARM GAS  C:\Users\JEFFSN~1\AppData\Local\Temp\ccFrr1yu.s 			page 12


 161      1B88C62F 
 161      C7DCE415 
 161      77F0
 162 0231 C4A9916B 		.ascii	"\304\251\221k\321\223\221\243\011r\022\027\343\311\244"
 162      D19391A3 
 162      09721217 
 162      E3C9A4
 163 0240 7BC9D2E7 		.ascii	"{\311\322\347/\243\376\375\030"
 163      2FA3FEFD 
 163      18
 164              		.text
 165              		.section	.gnu.lto_CapSense_AMuxCH0_FastSelect.807c86e8,"",%progbits
 166 0000 789C954F 		.ascii	"x\234\225O\317KTQ\030\375\316\375\336\374p0\350\017"
 166      CF4B5451 
 166      18FDCEFD 
 166      DEFC7030 
 166      E80F
 167 0012 18A59D28 		.ascii	"\030\245\235((\017\252? fQ\010\2028[C\206\351\201\013"
 167      280FAA3F 
 167      20665108 
 167      82385B43 
 167      86E9810B 
 168 0026 194513DA 		.ascii	"\031E\023\332\315uf\036\325N\020G\020D\024D-k\032\301"
 168      CD75661E 
 168      D54E1047 
 168      10441444 
 168      2D6B1AC1 
 169 003a C5EC9E3F 		.ascii	"\305\354\236?\242A\244Vn2D#$\244\205RA\020\343\353\273"
 169      A241A456 
 169      6E324423 
 169      24A48552 
 169      4110E3EB 
 170 004f 77A016D1 		.ascii	"w\240\026\321\242\017.\367\343p\316\371\316q\010d\346"
 170      A20F2EF7 
 170      E370CEF9 
 170      CE710864 
 170      E6
 171 0060 877CB7A8 		.ascii	"\207|\267\250\371\020!\250\351\267DSq\245\270\356\222"
 171      F91021A8 
 171      E9B74453 
 171      71A5B8EE 
 171      92
 172 0071 4E38F536 		.ascii	"N8\3656\322\255\014\247\011;\200Yt\034\224W\354 \217"
 172      D2AD0CA7 
 172      093B8059 
 172      741C9457 
 172      EC208F
 173 0084 EFAAA1B0 		.ascii	"\357\252\241\260\363\370\254\246:W\265\314\211\177\345"
 173      F3F8ACA6 
 173      3A57B5CC 
 173      897FE5
 174 0093 EAB5003E 		.ascii	"\352\265\000>\023\205\312\236 \254\242SX\033\037v\217"
 174      1385CA9E 
 174      20ACA253 
 174      581B1F76 
 174      8F
 175 00a4 A3DC0D92 		.ascii	"\243\334\015\222\375\375\326\322vK\307\212\326\005\255"
ARM GAS  C:\Users\JEFFSN~1\AppData\Local\Temp\ccFrr1yu.s 			page 13


 175      FDFDD6D2 
 175      764BC78A 
 175      D605AD
 176 00b3 ABF735FB 		.ascii	"\253\3675\373\014\254\201E\201\233I\270I\022\200\260"
 176      0CAC8145 
 176      819B49B8 
 176      491280B0 
 177 00c3 8E0E43FE 		.ascii	"\216\016C\376X\275\232\275\026-\031\373\033MS<C\324"
 177      58BD9ABD 
 177      162D19FB 
 177      1B4D533C 
 177      43D4
 178 00d5 E4AF0C04 		.ascii	"\344\257\014\004:\014\213:\370\032\333.'\342,2\025\201"
 178      3A0C8B3A 
 178      F81ADB2E 
 178      27E22C32 
 178      1581
 179 00e7 D5D18510 		.ascii	"\325\321\205\020M\330K\245\314\317g(\224/\033\247-F"
 179      4DD84BA5 
 179      CCCF6728 
 179      942F1BA7 
 179      2D46
 180 00f9 5B6416DF 		.ascii	"[d\026\337\262\277\363.\366M\371\3146S\255\366\345("
 180      B2BFF32E 
 180      F64DF9CC 
 180      3653ADF6 
 180      E528
 181 010b 966FE827 		.ascii	"\226o\350'Z_\027\354\25140\360\371\301\341^b\021\013"
 181      5A5F17EC 
 181      A93430F0 
 181      F9C1E15E 
 181      62110B
 182 011e 53DAE2C0 		.ascii	"S\332\342\300\206\324~\216\244\244x\201E\320)JG\305"
 182      86D47E8E 
 182      A4A47881 
 182      45D0294A 
 182      47C5
 183 0130 F63FAE15 		.ascii	"\366?\256\025\377\323z\334\270*\204\300KC$\223\202\251"
 183      FFD37ADC 
 183      B82A84C0 
 183      4B432493 
 183      82A9
 184 0142 EEF26794 		.ascii	"\356\362g\224\202\237oZ\015\373\357\223N\250\244\024"
 184      829F6F5A 
 184      0DFBEF93 
 184      4EA8A414 
 185 0152 2AC89358 		.ascii	"*\310\223X\371\034\261:\307\2467\302\231}\365O\241\224"
 185      F91CB13A 
 185      C7A637C2 
 185      997DF54F 
 185      A194
 186 0164 C52B2B8C 		.ascii	"\305++\214\030\241\224\235\257\276^\266e\377\243Z\365"
 186      18A1949D 
 186      AFBE5EB6 
 186      65FFA35A 
 186      F5
 187 0175 77B54DA9 		.ascii	"w\265M\251&^t\216B0\327k\317\232\271\220\204\022G\256"
ARM GAS  C:\Users\JEFFSN~1\AppData\Local\Temp\ccFrr1yu.s 			page 14


 187      265E748E 
 187      4230D76B 
 187      CF9AB990 
 187      841247AE 
 188 0189 75DDF572 		.ascii	"u\335\365r\336x\346\241\367`(=:9\236\365\006\373\323"
 188      DE78E6A1 
 188      F760283D 
 188      3A399EF5 
 188      06FBD3
 189 019c A3A9DB83 		.ascii	"\243\251\333\203\251\314X\332\313MxCw\372&\037\245\356"
 189      A9CC58DA 
 189      CB4D7843 
 189      77FA261F 
 189      A5EE
 190 01ae B93D598A 		.ascii	"\271=Y\212e\2073\271\2347\362\013\035O\303N"
 190      658733B9 
 190      9C37F20B 
 190      1D4FC34E 
 191              		.text
 192              		.section	.gnu.lto_CapSense_AMuxCH0_DisconnectAll.807c86e8,"",%progbits
 193 0000 789C3550 		.ascii	"x\2345P\277K\034a\020\2357\337\356\336)z\261\261\263"
 193      BF4B1C61 
 193      109D37DF 
 193      EEDE297A 
 193      B1B1B3
 194 0013 B0B13010 		.ascii	"\260\2610\020QB\376\000\271\"i\022C\256\025\344\270"
 194      5142FE00 
 194      B9226912 
 194      43AE15E4 
 194      B8
 195 0024 6CB03AC5 		.ascii	"l\260:\305(\244\273O\367N\255$A4\244H\232\024^~\250"
 195      28A4BB4F 
 195      F74EAD24 
 195      4134A448 
 195      9A145E7E 
 196 0039 5C11C835 		.ascii	"\\\021\3105q\325\224\341,R\212\220l\360\020I@C\354\242"
 196      71D594E1 
 196      2C528A90 
 196      6CF01049 
 196      4043ECA2 
 197 004d E7CCAE0E 		.ascii	"\347\314\256\016\3547\303\333\231\367\336\214C \215"
 197      EC37C3DB 
 197      99F7DE8C 
 197      43208D
 198 005c 75494392 		.ascii	"uIC\222G\344\203G\340\347\015\242\3314\303I\012\223"
 198      47E48347 
 198      E0E70DA2 
 198      D934C349 
 198      0A93
 199 006e 14DB6987 		.ascii	"\024\333i\207\315\306W\"\333\356Fmd;\\@q\233\006\225"
 199      CDC65722 
 199      DBEE466D 
 199      643B5C40 
 199      719B0695 
 200 0082 D8382E4A 		.ascii	"\3308.J\354\020B\007\251\370Q\3523>g\354,4\353\334\277"
 200      EC104207 
 200      A9F851EA 
ARM GAS  C:\Users\JEFFSN~1\AppData\Local\Temp\ccFrr1yu.s 			page 15


 200      333E67EC 
 200      2C34EBDC 
 201 0097 66257E1C 		.ascii	"f%~\034n\015\331j\210\212!jq\254NXC?I\333\233\315\350"
 201      6E0DD96A 
 201      888A216A 
 201      71AC4E58 
 201      433F49DB 
 202 00ae A0C3DC82 		.ascii	"\240\303\334\202\326\337kg\177\274\276\267\326\316\331"
 202      D6DF6B67 
 202      7FBCBEB7 
 202      D6CED9
 203 00bd 70B9D1F9 		.ascii	"p\271\321\371\322\206\263\275\025\003Tad\014\267{0\330"
 203      D286B3BD 
 203      15035461 
 203      640CB77B 
 203      30D8
 204 00cf 130F4B6F 		.ascii	"\023\017KoT\273X\351\364\312J\337\213w\350K\210\361"
 204      54BB58E9 
 204      F4CA4ADF 
 204      8B77E84B 
 204      88F1
 205 00e1 1E9EEC05 		.ascii	"\036\236\354\005E6\037\205\266\325\012l\370\"\263\375"
 205      45361F85 
 205      B6D50A6C 
 205      F822B3FD 
 206 00f1 2523B082 		.ascii	"%#\260\202n\374\022\235H\267\254s\312,\311D\230\013"
 206      6EFC129D 
 206      48B7AC73 
 206      CA2CC944 
 206      980B
 207 0103 5F2D75C7 		.ascii	"_-u\307\323\362[\350W+;{\251\177\254\352\204\017P\331"
 207      D3F25BE8 
 207      572B3B7B 
 207      A97FACEA 
 207      840F50D9 
 208 0117 53362487 		.ascii	"S6$\2070G(\207\257\033\031mV#\365\372\357\375T\351\334"
 208      30472887 
 208      AF1B196D 
 208      5623F5FA 
 208      EFFD54E9 
 209 012c 2E5ADB55 		.ascii	".Z\333U1\334b\325\377\210\022\005F\0266\324D\260:\337"
 209      31DC62D5 
 209      FF881205 
 209      461636D4 
 209      44B03ADF 
 210 0140 FCFC1F3A 		.ascii	"\374\374\037:\020\030W`\231\372\264\360\255\326\236"
 210      10185760 
 210      99FAB4F0 
 210      ADD69E
 211 014f F003EBC2 		.ascii	"\360\003\353\302\037\201\257\345\245)\226sH\016\255"
 211      1F81AFE5 
 211      A5299673 
 211      480EAD
 212 015e DEBA2881 		.ascii	"\336\272(\201A?Q\336\013\236$LJsX\335\375uE\343a#\266"
 212      413F51DE 
 212      0B9E244C 
 212      4A7358DD 
ARM GAS  C:\Users\JEFFSN~1\AppData\Local\Temp\ccFrr1yu.s 			page 16


 212      FD7545E3 
 213 0175 497F8551 		.ascii	"I\177\205Q\034sU\244\\stC\230\\]\362X\226\334z\020\333"
 213      1C7355A4 
 213      5C737443 
 213      985C5DF2 
 213      5896DC7A 
 214 018b D63811A3 		.ascii	"\3268\021\243Q\233\234\341\346]\277\350O\345\247\375"
 214      519B9CE1 
 214      E65DBFE8 
 214      4FE5A7FD 
 215 019b C763B989 		.ascii	"\307c\271\211\231\251\202?\37207\221\2753\232\315O\346"
 215      99A9823F 
 215      FA303791 
 215      BD339ACD 
 215      4FE6
 216 01ad FCE2537F 		.ascii	"\374\342S\177l\370\376\314\263\354\275\301\201\0029"
 216      6CF8FECC 
 216      B3ECBDC1 
 216      810239
 217 01bc 85F17CF1 		.ascii	"\205\361|\361\022K\317\242B"
 217      124BCFA2 
 217      42
 218              		.text
 219              		.section	.gnu.lto_.symbol_nodes.807c86e8,"",%progbits
 220 0000 789C558B 		.ascii	"x\234U\213+\016\002A\020\005\253\247\347k\361\0048i"
 220      2B0E0241 
 220      1005ABA7 
 220      E76BF104 
 220      3869
 221 0012 0F094173 		.ascii	"\017\011As\010N\201F\257FB\202\004\267\2320\260K\302"
 221      084E8146 
 221      AF464282 
 221      04B79A30 
 221      B04BC2
 222 0025 B4A9BC7A 		.ascii	"\264\251\274z\375<\302\205v\316\031\034\006h8\325\015"
 222      FD3CC285 
 222      76CE191C 
 222      066838D5 
 222      0D
 223 0036 04D82E3E 		.ascii	"\004\330.>\205\232t\205\363\346z\021L\373\251\3104\215"
 223      859A7485 
 223      F3E67A11 
 223      4CFBA9C8 
 223      348D
 224 0048 E6FBCF64 		.ascii	"\346\373\317d\241\023R,~\005\324\272n9[\372\317J\346"
 224      A113522C 
 224      7E05D4BA 
 224      6E395BFA 
 224      CF4AE6
 225 005b 7C7D2ED5 		.ascii	"|}.\325\315\324\231\376\307\302q\377Xi\314\334\307A"
 225      CDD499FE 
 225      C7C271FF 
 225      5869CCDC 
 225      C741
 226 006d 341676B7 		.ascii	"4\026v\267\227h\232z\336\301\3623\312"
 226      97689A7A 
 226      DEC1F233 
ARM GAS  C:\Users\JEFFSN~1\AppData\Local\Temp\ccFrr1yu.s 			page 17


 226      CA
 227              		.text
 228              		.section	.gnu.lto_.refs.807c86e8,"",%progbits
 229 0000 789C6361 		.ascii	"x\234ca`d\020f`\000\222\214\214\234\214,\214\254\\L"
 229      60641066 
 229      6000928C 
 229      8C9C8C2C 
 229      8CAC5C4C 
 230 0014 6C0CAC8C 		.ascii	"l\014\254\214\214\254\254\014\000\004{\000S"
 230      8CACAC0C 
 230      00047B00 
 230      53
 231              		.text
 232              		.section	.gnu.lto_.decls.807c86e8,"",%progbits
 233 0000 789C8593 		.ascii	"x\234\205\223\177lSU\024\307\337y\357\265\224\256\314"
 233      7F6C5355 
 233      14C7DF79 
 233      EFB594AE 
 233      CC
 234 0011 84202EB1 		.ascii	"\204 .\2611\223\004%\376\261\200\204\304\375\347R\003"
 234      31930425 
 234      FEB18084 
 234      C4FDE752 
 234      03
 235 0022 FA07C6A4 		.ascii	"\372\007\306\244a\177-Yj}\203&M\267to\211K\370\343\342"
 235      617F2D59 
 235      6A7D8326 
 235      4DB7746F 
 235      894BF8E3 
 236 0037 AAB861B2 		.ascii	"\252\270a\262\315\0374 d\025\2231\266\301\326\302\334"
 236      CD1F3420 
 236      64159331 
 236      B6C1D6C2 
 236      DC
 237 0048 0F46E9D0 		.ascii	"\017F\351\320\261\216\201N\301\030\034\313\252\003\343"
 237      B18E814E 
 237      C1181CCB 
 237      AA03E3
 238 0057 749953C7 		.ascii	"t\231S\307\037D\267y\356\217\347{\264\373q\323\363z"
 238      1F44B779 
 238      EE8FE77B 
 238      B4FB71D3 
 238      F37A
 239 0069 CFBDE7FB 		.ascii	"\317\275\347\373\271\347\236\363\236*\201D\307n\233"
 239      B9E79EF3 
 239      9E2A8144 
 239      C76E9B
 240 0078 241DC6E9 		.ascii	"$\035\306\3518\3322\216\015\270V*\231\303\201v\036\255"
 240      38DA328E 
 240      0DB8562A 
 240      99C38176 
 240      1EAD
 241 008a 0B2D8E36 		.ascii	"\013-\2166\2006\210\226DK\241]C\223\321\206\321\322"
 241      80368896 
 241      444BA15D 
 241      4393D186 
 241      D1D2
ARM GAS  C:\Users\JEFFSN~1\AppData\Local\Temp\ccFrr1yu.s 			page 18


 242 009c D2E383EA 		.ascii	"\322\343\203\352l\202\327\2136\212\326\217vC\354+\""
 242      6C82D78B 
 242      368AD68F 
 242      7643EC2B 
 242      22
 243 00ad C66081E0 		.ascii	"\306`\201\340X\007=W]\201a\350\273,\372\354\021_G\033"
 243      58073D57 
 243      5D8161E8 
 243      BB2CFAEC 
 243      115F471B 
 244 00c1 5F433BB0 		.ascii	"_C;\260N\356\252\210\261\326\001V\250\001\255\225\335"
 244      4EEEAA88 
 244      B1D60156 
 244      A801AD95 
 244      DD
 245 00d2 C2710B46 		.ascii	"\302q\013Fv.\203\353p\222k\334E^\343\036\2132,\267\\"
 245      762E83EB 
 245      70926BDC 
 245      455EE31E 
 245      8B322CB7 
 246 00e7 6A744CC0 		.ascii	"jtL\300]P$\321t\011\200?\201\231\304\215\2718\221%>"
 246      5D5024D1 
 246      7409803F 
 246      8199C48D 
 246      B9389125 
 247 00fc 3196FE1F 		.ascii	"1\226\376\037\222\010\221\215\251\011c?\241\207ec0\210"
 247      9208918D 
 247      A909633F 
 247      A1876563 
 247      3088
 248 010e 490721E2 		.ascii	"I\007!\342\276\020KB\004\262y\000p\327PXxY\031\0319"
 248      BE104B42 
 248      04B27900 
 248      70D75058 
 248      78591919 
 249 0123 1BC7B052 		.ascii	"\033\307\260R\260K\377\226\210\234\316Sd\240\363\251"
 249      B04BFF96 
 249      889CCE53 
 249      64A0F3A9 
 250 0133 476D7B8B 		.ascii	"Gm{\213:\011\216&B\344b\2632\337F\272O)\0132lv\202\212"
 250      3A098E26 
 250      42E462B3 
 250      32DF46BA 
 250      4F290B32 
 251 014b EE9FB74E 		.ascii	"\356\237\267NN\347\243\273\305\011\205\350.\216~zR."
 251      4EE7A3BB 
 251      C50985E8 
 251      2E8E7E7A 
 251      522E
 252 015d 38CE7475 		.ascii	"8\316tu\244P\205\322\255\320\001nh\007l\"tB\001>\337"
 252      A45085D2 
 252      ADD0016E 
 252      68076C22 
 252      7442013E 
 253 0172 54C5718B 		.ascii	"T\305q\213\343\343\352\266\030\211u\223\314'=/\236 "
 253      E3E3EAB6 
 253      18897593 
ARM GAS  C:\Users\JEFFSN~1\AppData\Local\Temp\ccFrr1yu.s 			page 19


 253      CC273D2F 
 253      9E20
 254 0184 A908CA64 		.ascii	"\251\010\312d\032\005m\240\3009(\242I\266\321\036Hp"
 254      1A056DA0 
 254      C03928A2 
 254      49B6D11E 
 254      4870
 255 0196 162630DF 		.ascii	"\026&0\337\363\260\015\225\361\216\370\0076e?K4\265"
 255      F3B00D95 
 255      F18EF807 
 255      36653F4B 
 255      34B5
 256 01a8 74F4BE8D 		.ascii	"t\364\276\215SR\177i\244\036\021*C\\0\021\027\254\210"
 256      53527F69 
 256      A41E112A 
 256      435C3011 
 256      17AC88
 257 01bb 2E86E868 		.ascii	".\206\350h\250\177\317\251\370\031b>\371\341\257O\010"
 257      A87FCFA9 
 257      F819623E 
 257      F9E1AF4F 
 257      08
 258 01cc 44DF7517 		.ascii	"D\337u\027i:B\310\313\214\321m2\272\255\2148c4\217\376"
 258      693A42C8 
 258      CB8CD16D 
 258      32BAAD8C 
 258      3863348F 
 259 01e1 9D54945A 		.ascii	"\235T\224Z\306\350z\367\3769\007\326\301\355\204e\240"
 259      C6E87AF7 
 259      FE3907D6 
 259      C1ED8465 
 259      A0
 260 01f2 FE6CFFA3 		.ascii	"\376l\377\243M\334\247\333'\232\247\227\362\224f\240"
 260      4DDCA7DB 
 260      279AA797 
 260      F29466A0 
 261 0202 8E7C7BBA 		.ascii	"\216|{\272cF\205\035\316VZ\246\314TCE\364(\275w/8\241"
 261      6346851D 
 261      CE565AA6 
 261      CC544345 
 261      F428BD77 
 262 0219 C73CD0ED 		.ascii	"\307<\320\355\304\347\373\204\274C\346\317\020{\201"
 262      C4E7FB84 
 262      BC43E6CF 
 262      107B81
 263 0228 04BBDDB0 		.ascii	"\004\273\335\260\323-\301\027\260\203Ri\024\\\302\322"
 263      D32DC117 
 263      B0835269 
 263      145CC2D2 
 264 0238 5EC4D2E2 		.ascii	"^\304\322\342\011\017\242-\277\333U\354%\343`\215q\255"
 264      090FA22D 
 264      BFDB55EC 
 264      25E3608D 
 264      71AD
 265 024a 73E0DEAC 		.ascii	"s\340\336\254}\325n\364\263n\364\201h\307\303\231\271"
 265      7DD56EF4 
 265      B36EF481 
ARM GAS  C:\Users\JEFFSN~1\AppData\Local\Temp\ccFrr1yu.s 			page 20


 265      68C7C399 
 265      B9
 266 025b 219BD18E 		.ascii	"!\233\321\216\317\362\217\327\2214\352\012i\030$\314"
 266      CFF28FD7 
 266      9134EA0A 
 266      691824CC 
 267 026b B412D63A 		.ascii	"\264\022\326:\014\260:D\311X\247\254\364\263\313A\343"
 267      0CB03A44 
 267      C958A7AC 
 267      F4B3CB41 
 267      E3
 268 027c 1F1FF5B9 		.ascii	"\037\037\365\271D1\347G\214bR\310e\023r\331\012\031"
 268      4431E747 
 268      8C6252C8 
 268      651372D9 
 268      0A19
 269 028e 64909B89 		.ascii	"d\220\233\211\263=6\345{\016\231k\314\264\330\021\222"
 269      B33D36E5 
 269      7B0E996B 
 269      CCB4D811 
 269      92
 270 029f 41C8D218 		.ascii	"A\310\322\030\203\304xG\256\230\220+VH\222A\216<lo\335"
 270      83C47847 
 270      AE98902B 
 270      56489241 
 270      8E3C6C6F 
 271 02b4 A82C70C8 		.ascii	"\250,p\310\307\377L\266\347S\010\026\271\367\273\347"
 271      C7FF4CB6 
 271      E7530816 
 271      B9F7BBE7 
 272 02c4 4F274864 		.ascii	"O'Hd#K\344\252\311\270\312\0308I1\375/\267.\336t)\011"
 272      234BE4AA 
 272      C9B8CA18 
 272      384931FD 
 272      2FB72EDE 
 273 02db FE0934C5 		.ascii	"\376\0114\305\352~\220\271>uJ\023\332!S;dh\2571\355"
 273      EA7E90B9 
 273      3E754A13 
 273      DA21533B 
 273      6468AF31 
 274 02f0 D713E9E2 		.ascii	"\327\023\351\342\005\336E\252\376&\032\235\334\244\214"
 274      05DE45AA 
 274      FE261A9D 
 274      DCA48C
 275 02ff 70D483C8 		.ascii	"p\324\203\310\330\214c\373\347$v\006k\033/\216\222\024"
 275      D88C63FB 
 275      E7247606 
 275      6B1B2F8E 
 275      9214
 276 0311 B0C0AF38 		.ascii	"\260\300\2578M\264Vb\376\227\330\034\030\206\355\364"
 276      4DB45662 
 276      FE97D81C 
 276      1886EDF4 
 277 0321 233CF673 		.ascii	"#<\366s\253]0\331[59<\373\223]\311ph\353\324\355\271"
 277      AB5D30D9 
 277      5B35393C 
 277      FB935DC9 
ARM GAS  C:\Users\JEFFSN~1\AppData\Local\Temp\ccFrr1yu.s 			page 21


 277      7068EBD4 
 278 0337 0D1C9AFA 		.ascii	"\015\034\232\372\261\214(,l$\213H\375\353\224\230\346"
 278      B18C282C 
 278      6C248B48 
 278      FDEB9498 
 278      E6
 279 0348 C47BF5D3 		.ascii	"\304{\365\323y\256\006\372V\341\033\2619\235\317.e\276"
 279      79AE06FA 
 279      56E11BB1 
 279      399DCF2E 
 279      65BE
 280 035a 13A3E062 		.ascii	"\023\243\340bW\302\177\214>v\347\337\222\307\202\351"
 280      57C27F8C 
 280      3E76E7DF 
 280      92C782E9 
 281 036a 0966F00D 		.ascii	"\011f\360\015\021L\377\267z|U^-T\255\225\227\354\257"
 281      114CFFB7 
 281      7A7C555E 
 281      2D54AD95 
 281      97ECAF
 282 037d 79DBF3EA 		.ascii	"y\333\363\352\316r\257\356\013\353\216}\257\037(\364"
 282      CE72AFEE 
 282      0BEB8E7D 
 282      AF1F28F4 
 283 038d ECDA25BD 		.ascii	"\354\332%\275\260O\013ia\237\256\275U\356\255\254\011"
 283      B04F0B69 
 283      619FAEBD 
 283      55EEADAC 
 283      09
 284 039e FBB5B237 		.ascii	"\373\265\2627\274\225\236=e\331\262\"\277\364d\016\352"
 284      BC959E3D 
 284      65D9B222 
 284      BFF4640E 
 284      EA
 285 03af B55040CF 		.ascii	"\265P@\317]\365\352\225UO\345\256jA\315\257\333j\002"
 285      5DF5EA95 
 285      554FE5AE 
 285      6A41CDAF 
 285      DB6A02
 286 03c2 21FDA567 		.ascii	"!\375\245gW9\324_\253\327Vi\325E\207\244\247s\364{}"
 286      5739D45F 
 286      ABD75669 
 286      D54587A4 
 286      A773F47B 
 287 03d7 D53A673C 		.ascii	"\325:g<\223\263\367J\240\332_\031\012\341^I0\230{\343"
 287      93B3F74A 
 287      A0DA5F19 
 287      0AE15E49 
 287      30987BE3 
 288 03eb 03E8E8CF 		.ascii	"\003\350\350\317\255zfE@\327\265p\271\277\342 \036\274"
 288      AD7A6645 
 288      40D7B570 
 288      B9BFE220 
 288      1EBC
 289 03fd 6585C4F5 		.ascii	"e\205\304\365\202\234\305\000\336\274\324\027v\347l"
 289      829CC500 
 289      DEBCD417 
ARM GAS  C:\Users\JEFFSN~1\AppData\Local\Temp\ccFrr1yu.s 			page 22


 289      76E76C
 290 040c 04314DCF 		.ascii	"\0041M\317!\037&\023\374\017\360\217&\204"
 290      211F2613 
 290      FC0FF08F 
 290      2684
 291              		.text
 292              		.section	.gnu.lto_.symtab.807c86e8,"",%progbits
 293 0000 43617053 		.ascii	"CapSense_AMuxCH0_Start\000"
 293      656E7365 
 293      5F414D75 
 293      78434830 
 293      5F537461 
 294 0017 00       		.ascii	"\000"
 295 0018 00       		.ascii	"\000"
 296 0019 00       		.ascii	"\000"
 297 001a 00000000 		.ascii	"\000\000\000\000\000\000\000\000"
 297      00000000 
 298 0022 AD000000 		.ascii	"\255\000\000\000"
 299 0026 43617053 		.ascii	"CapSense_AMuxCH0_initVar\000"
 299      656E7365 
 299      5F414D75 
 299      78434830 
 299      5F696E69 
 300 003f 00       		.ascii	"\000"
 301 0040 00       		.ascii	"\000"
 302 0041 00       		.ascii	"\000"
 303 0042 00000000 		.ascii	"\000\000\000\000\000\000\000\000"
 303      00000000 
 304 004a C5000000 		.ascii	"\305\000\000\000"
 305 004e 43617053 		.ascii	"CapSense_AMuxCH0_Init\000"
 305      656E7365 
 305      5F414D75 
 305      78434830 
 305      5F496E69 
 306 0064 00       		.ascii	"\000"
 307 0065 00       		.ascii	"\000"
 308 0066 00       		.ascii	"\000"
 309 0067 00000000 		.ascii	"\000\000\000\000\000\000\000\000"
 309      00000000 
 310 006f AF000000 		.ascii	"\257\000\000\000"
 311 0073 43617053 		.ascii	"CapSense_AMuxCH0_Stop\000"
 311      656E7365 
 311      5F414D75 
 311      78434830 
 311      5F53746F 
 312 0089 00       		.ascii	"\000"
 313 008a 00       		.ascii	"\000"
 314 008b 00       		.ascii	"\000"
 315 008c 00000000 		.ascii	"\000\000\000\000\000\000\000\000"
 315      00000000 
 316 0094 B1000000 		.ascii	"\261\000\000\000"
 317 0098 43617053 		.ascii	"CapSense_AMuxCH0_Select\000"
 317      656E7365 
 317      5F414D75 
 317      78434830 
 317      5F53656C 
 318 00b0 00       		.ascii	"\000"
ARM GAS  C:\Users\JEFFSN~1\AppData\Local\Temp\ccFrr1yu.s 			page 23


 319 00b1 00       		.ascii	"\000"
 320 00b2 00       		.ascii	"\000"
 321 00b3 00000000 		.ascii	"\000\000\000\000\000\000\000\000"
 321      00000000 
 322 00bb BA000000 		.ascii	"\272\000\000\000"
 323 00bf 43617053 		.ascii	"CapSense_AMuxCH0_lastChannel\000"
 323      656E7365 
 323      5F414D75 
 323      78434830 
 323      5F6C6173 
 324 00dc 00       		.ascii	"\000"
 325 00dd 00       		.ascii	"\000"
 326 00de 00       		.ascii	"\000"
 327 00df 00000000 		.ascii	"\000\000\000\000\000\000\000\000"
 327      00000000 
 328 00e7 C8000000 		.ascii	"\310\000\000\000"
 329 00eb 43617053 		.ascii	"CapSense_AMuxCH0_FastSelect\000"
 329      656E7365 
 329      5F414D75 
 329      78434830 
 329      5F466173 
 330 0107 00       		.ascii	"\000"
 331 0108 00       		.ascii	"\000"
 332 0109 00       		.ascii	"\000"
 333 010a 00000000 		.ascii	"\000\000\000\000\000\000\000\000"
 333      00000000 
 334 0112 BC000000 		.ascii	"\274\000\000\000"
 335 0116 43617053 		.ascii	"CapSense_AMuxCH0_DisconnectAll\000"
 335      656E7365 
 335      5F414D75 
 335      78434830 
 335      5F446973 
 336 0135 00       		.ascii	"\000"
 337 0136 00       		.ascii	"\000"
 338 0137 00       		.ascii	"\000"
 339 0138 00000000 		.ascii	"\000\000\000\000\000\000\000\000"
 339      00000000 
 340 0140 BE000000 		.ascii	"\276\000\000\000"
 341 0144 43617053 		.ascii	"CapSense_AMuxCH0_Unset\000"
 341      656E7365 
 341      5F414D75 
 341      78434830 
 341      5F556E73 
 342 015b 00       		.ascii	"\000"
 343 015c 02       		.ascii	"\002"
 344 015d 00       		.ascii	"\000"
 345 015e 00000000 		.ascii	"\000\000\000\000\000\000\000\000"
 345      00000000 
 346 0166 C0000000 		.ascii	"\300\000\000\000"
 347 016a 43617053 		.ascii	"CapSense_AMuxCH0_Set\000"
 347      656E7365 
 347      5F414D75 
 347      78434830 
 347      5F536574 
 348 017f 00       		.ascii	"\000"
 349 0180 02       		.ascii	"\002"
 350 0181 00       		.ascii	"\000"
ARM GAS  C:\Users\JEFFSN~1\AppData\Local\Temp\ccFrr1yu.s 			page 24


 351 0182 00000000 		.ascii	"\000\000\000\000\000\000\000\000"
 351      00000000 
 352 018a C2000000 		.ascii	"\302\000\000\000"
 353              		.text
 354              		.section	.gnu.lto_.opts,"",%progbits
 355 0000 272D666D 		.ascii	"'-fmath-errno' '-fsigned-zeros' '-ftrapping-math' '"
 355      6174682D 
 355      6572726E 
 355      6F272027 
 355      2D667369 
 356 0033 2D666E6F 		.ascii	"-fno-trapv' '-fno-openmp' '-fno-openacc' '-mcpu=cor"
 356      2D747261 
 356      70762720 
 356      272D666E 
 356      6F2D6F70 
 357 0066 7465782D 		.ascii	"tex-m3' '-mthumb' '-g' '-O3' '-ffunction-sections' "
 357      6D332720 
 357      272D6D74 
 357      68756D62 
 357      2720272D 
 358 0099 272D6666 		.ascii	"'-ffat-lto-objects' '-finline-functions' '-flto'\000"
 358      61742D6C 
 358      746F2D6F 
 358      626A6563 
 358      74732720 
 359              		.text
 360              		.cfi_sections	.debug_frame
 361              		.section	.text.CapSense_AMuxCH0_Start,"ax",%progbits
 362              		.align	2
 363              		.global	CapSense_AMuxCH0_Start
 364              		.thumb
 365              		.thumb_func
 366              		.type	CapSense_AMuxCH0_Start, %function
 367              	CapSense_AMuxCH0_Start:
 368              	.LFB0:
 369              		.file 1 "Generated_Source\\PSoC5\\CapSense_AMuxCH0.c"
   1:Generated_Source\PSoC5/CapSense_AMuxCH0.c **** /*******************************************************************************
   2:Generated_Source\PSoC5/CapSense_AMuxCH0.c **** * File Name: CapSense_AMuxCH0.c
   3:Generated_Source\PSoC5/CapSense_AMuxCH0.c **** * Version 3.50
   4:Generated_Source\PSoC5/CapSense_AMuxCH0.c **** *
   5:Generated_Source\PSoC5/CapSense_AMuxCH0.c **** *  Description:
   6:Generated_Source\PSoC5/CapSense_AMuxCH0.c **** *    This file contains all functions required for the analog multiplexer
   7:Generated_Source\PSoC5/CapSense_AMuxCH0.c **** *    CapSense_CSD_AMux User Module.
   8:Generated_Source\PSoC5/CapSense_AMuxCH0.c **** *
   9:Generated_Source\PSoC5/CapSense_AMuxCH0.c **** *   Note:
  10:Generated_Source\PSoC5/CapSense_AMuxCH0.c **** *
  11:Generated_Source\PSoC5/CapSense_AMuxCH0.c **** *******************************************************************************
  12:Generated_Source\PSoC5/CapSense_AMuxCH0.c **** * Copyright 2008-2012, Cypress Semiconductor Corporation.  All rights reserved.
  13:Generated_Source\PSoC5/CapSense_AMuxCH0.c **** * You may use this file only in accordance with the license, terms, conditions, 
  14:Generated_Source\PSoC5/CapSense_AMuxCH0.c **** * disclaimers, and limitations in the end user license agreement accompanying 
  15:Generated_Source\PSoC5/CapSense_AMuxCH0.c **** * the software package with which this file was provided.
  16:Generated_Source\PSoC5/CapSense_AMuxCH0.c **** ********************************************************************************/
  17:Generated_Source\PSoC5/CapSense_AMuxCH0.c **** 
  18:Generated_Source\PSoC5/CapSense_AMuxCH0.c **** #include "CapSense_AMuxCH0.h"
  19:Generated_Source\PSoC5/CapSense_AMuxCH0.c **** 
  20:Generated_Source\PSoC5/CapSense_AMuxCH0.c **** uint8 CapSense_AMuxCH0_initVar = 0u;
  21:Generated_Source\PSoC5/CapSense_AMuxCH0.c **** uint8 CapSense_AMuxCH0_lastChannel = CapSense_AMuxCH0_NULL_CHANNEL;
ARM GAS  C:\Users\JEFFSN~1\AppData\Local\Temp\ccFrr1yu.s 			page 25


  22:Generated_Source\PSoC5/CapSense_AMuxCH0.c **** 
  23:Generated_Source\PSoC5/CapSense_AMuxCH0.c **** 
  24:Generated_Source\PSoC5/CapSense_AMuxCH0.c **** /*******************************************************************************
  25:Generated_Source\PSoC5/CapSense_AMuxCH0.c **** * Function Name: CapSense_AMuxCH0_Start
  26:Generated_Source\PSoC5/CapSense_AMuxCH0.c **** ********************************************************************************
  27:Generated_Source\PSoC5/CapSense_AMuxCH0.c **** * Summary:
  28:Generated_Source\PSoC5/CapSense_AMuxCH0.c **** *  Disconnect all channels.
  29:Generated_Source\PSoC5/CapSense_AMuxCH0.c **** *
  30:Generated_Source\PSoC5/CapSense_AMuxCH0.c **** * Parameters:
  31:Generated_Source\PSoC5/CapSense_AMuxCH0.c **** *  void
  32:Generated_Source\PSoC5/CapSense_AMuxCH0.c **** *
  33:Generated_Source\PSoC5/CapSense_AMuxCH0.c **** * Return:
  34:Generated_Source\PSoC5/CapSense_AMuxCH0.c **** *  void
  35:Generated_Source\PSoC5/CapSense_AMuxCH0.c **** *
  36:Generated_Source\PSoC5/CapSense_AMuxCH0.c **** *******************************************************************************/
  37:Generated_Source\PSoC5/CapSense_AMuxCH0.c **** void CapSense_AMuxCH0_Start(void)
  38:Generated_Source\PSoC5/CapSense_AMuxCH0.c **** {
 370              		.loc 1 38 0
 371              		.cfi_startproc
 372              		@ args = 0, pretend = 0, frame = 0
 373              		@ frame_needed = 0, uses_anonymous_args = 0
 374              	.LVL0:
 375 0000 10B5     		push	{r4, lr}
 376              		.cfi_def_cfa_offset 8
 377              		.cfi_offset 4, -8
 378              		.cfi_offset 14, -4
 379              		.loc 1 38 0
 380 0002 0024     		movs	r4, #0
 381              	.LVL1:
 382              	.L2:
 383              	.LBB10:
 384              	.LBB11:
  39:Generated_Source\PSoC5/CapSense_AMuxCH0.c ****     CapSense_AMuxCH0_DisconnectAll();
  40:Generated_Source\PSoC5/CapSense_AMuxCH0.c ****     CapSense_AMuxCH0_initVar = 1u;
  41:Generated_Source\PSoC5/CapSense_AMuxCH0.c **** }
  42:Generated_Source\PSoC5/CapSense_AMuxCH0.c **** 
  43:Generated_Source\PSoC5/CapSense_AMuxCH0.c **** 
  44:Generated_Source\PSoC5/CapSense_AMuxCH0.c **** /*******************************************************************************
  45:Generated_Source\PSoC5/CapSense_AMuxCH0.c **** * Function Name: CapSense_AMuxCH0_Init
  46:Generated_Source\PSoC5/CapSense_AMuxCH0.c **** ********************************************************************************
  47:Generated_Source\PSoC5/CapSense_AMuxCH0.c **** * Summary:
  48:Generated_Source\PSoC5/CapSense_AMuxCH0.c **** *  Disconnect all channels.
  49:Generated_Source\PSoC5/CapSense_AMuxCH0.c **** *
  50:Generated_Source\PSoC5/CapSense_AMuxCH0.c **** * Parameters:
  51:Generated_Source\PSoC5/CapSense_AMuxCH0.c **** *  void
  52:Generated_Source\PSoC5/CapSense_AMuxCH0.c **** *
  53:Generated_Source\PSoC5/CapSense_AMuxCH0.c **** * Return:
  54:Generated_Source\PSoC5/CapSense_AMuxCH0.c **** *  void
  55:Generated_Source\PSoC5/CapSense_AMuxCH0.c **** *
  56:Generated_Source\PSoC5/CapSense_AMuxCH0.c **** *******************************************************************************/
  57:Generated_Source\PSoC5/CapSense_AMuxCH0.c **** void CapSense_AMuxCH0_Init(void)
  58:Generated_Source\PSoC5/CapSense_AMuxCH0.c **** {
  59:Generated_Source\PSoC5/CapSense_AMuxCH0.c ****     CapSense_AMuxCH0_DisconnectAll();
  60:Generated_Source\PSoC5/CapSense_AMuxCH0.c **** }
  61:Generated_Source\PSoC5/CapSense_AMuxCH0.c **** 
  62:Generated_Source\PSoC5/CapSense_AMuxCH0.c **** 
  63:Generated_Source\PSoC5/CapSense_AMuxCH0.c **** /*******************************************************************************
ARM GAS  C:\Users\JEFFSN~1\AppData\Local\Temp\ccFrr1yu.s 			page 26


  64:Generated_Source\PSoC5/CapSense_AMuxCH0.c **** * Function Name: CapSense_AMuxCH0_Stop
  65:Generated_Source\PSoC5/CapSense_AMuxCH0.c **** ********************************************************************************
  66:Generated_Source\PSoC5/CapSense_AMuxCH0.c **** * Summary:
  67:Generated_Source\PSoC5/CapSense_AMuxCH0.c **** *  Disconnect all channels.
  68:Generated_Source\PSoC5/CapSense_AMuxCH0.c **** *
  69:Generated_Source\PSoC5/CapSense_AMuxCH0.c **** * Parameters:
  70:Generated_Source\PSoC5/CapSense_AMuxCH0.c **** *  void
  71:Generated_Source\PSoC5/CapSense_AMuxCH0.c **** *
  72:Generated_Source\PSoC5/CapSense_AMuxCH0.c **** * Return:
  73:Generated_Source\PSoC5/CapSense_AMuxCH0.c **** *  void
  74:Generated_Source\PSoC5/CapSense_AMuxCH0.c **** *
  75:Generated_Source\PSoC5/CapSense_AMuxCH0.c **** *******************************************************************************/
  76:Generated_Source\PSoC5/CapSense_AMuxCH0.c **** void CapSense_AMuxCH0_Stop(void)
  77:Generated_Source\PSoC5/CapSense_AMuxCH0.c **** {
  78:Generated_Source\PSoC5/CapSense_AMuxCH0.c ****     CapSense_AMuxCH0_DisconnectAll();
  79:Generated_Source\PSoC5/CapSense_AMuxCH0.c **** }
  80:Generated_Source\PSoC5/CapSense_AMuxCH0.c **** 
  81:Generated_Source\PSoC5/CapSense_AMuxCH0.c **** 
  82:Generated_Source\PSoC5/CapSense_AMuxCH0.c **** /*******************************************************************************
  83:Generated_Source\PSoC5/CapSense_AMuxCH0.c **** * Function Name: CapSense_AMuxCH0_Select
  84:Generated_Source\PSoC5/CapSense_AMuxCH0.c **** ********************************************************************************
  85:Generated_Source\PSoC5/CapSense_AMuxCH0.c **** * Summary:
  86:Generated_Source\PSoC5/CapSense_AMuxCH0.c **** *  This functions first disconnects all channels then connects the given
  87:Generated_Source\PSoC5/CapSense_AMuxCH0.c **** *  channel.
  88:Generated_Source\PSoC5/CapSense_AMuxCH0.c **** *
  89:Generated_Source\PSoC5/CapSense_AMuxCH0.c **** * Parameters:
  90:Generated_Source\PSoC5/CapSense_AMuxCH0.c **** *  channel:  The channel to connect to the common terminal.
  91:Generated_Source\PSoC5/CapSense_AMuxCH0.c **** *
  92:Generated_Source\PSoC5/CapSense_AMuxCH0.c **** * Return:
  93:Generated_Source\PSoC5/CapSense_AMuxCH0.c **** *  void
  94:Generated_Source\PSoC5/CapSense_AMuxCH0.c **** *
  95:Generated_Source\PSoC5/CapSense_AMuxCH0.c **** *******************************************************************************/
  96:Generated_Source\PSoC5/CapSense_AMuxCH0.c **** void CapSense_AMuxCH0_Select(uint8 channel) CYREENTRANT
  97:Generated_Source\PSoC5/CapSense_AMuxCH0.c **** {
  98:Generated_Source\PSoC5/CapSense_AMuxCH0.c ****     CapSense_AMuxCH0_DisconnectAll();        /* Disconnect all previous connections */
  99:Generated_Source\PSoC5/CapSense_AMuxCH0.c ****     CapSense_AMuxCH0_Connect(channel);       /* Make the given selection */
 100:Generated_Source\PSoC5/CapSense_AMuxCH0.c ****     CapSense_AMuxCH0_lastChannel = channel;  /* Update last channel */
 101:Generated_Source\PSoC5/CapSense_AMuxCH0.c **** }
 102:Generated_Source\PSoC5/CapSense_AMuxCH0.c **** 
 103:Generated_Source\PSoC5/CapSense_AMuxCH0.c **** 
 104:Generated_Source\PSoC5/CapSense_AMuxCH0.c **** /*******************************************************************************
 105:Generated_Source\PSoC5/CapSense_AMuxCH0.c **** * Function Name: CapSense_AMuxCH0_FastSelect
 106:Generated_Source\PSoC5/CapSense_AMuxCH0.c **** ********************************************************************************
 107:Generated_Source\PSoC5/CapSense_AMuxCH0.c **** * Summary:
 108:Generated_Source\PSoC5/CapSense_AMuxCH0.c **** *  This function first disconnects the last connection made with FastSelect or
 109:Generated_Source\PSoC5/CapSense_AMuxCH0.c **** *  Select, then connects the given channel. The FastSelect function is similar
 110:Generated_Source\PSoC5/CapSense_AMuxCH0.c **** *  to the Select function, except it is faster since it only disconnects the
 111:Generated_Source\PSoC5/CapSense_AMuxCH0.c **** *  last channel selected rather than all channels.
 112:Generated_Source\PSoC5/CapSense_AMuxCH0.c **** *
 113:Generated_Source\PSoC5/CapSense_AMuxCH0.c **** * Parameters:
 114:Generated_Source\PSoC5/CapSense_AMuxCH0.c **** *  channel:  The channel to connect to the common terminal.
 115:Generated_Source\PSoC5/CapSense_AMuxCH0.c **** *
 116:Generated_Source\PSoC5/CapSense_AMuxCH0.c **** * Return:
 117:Generated_Source\PSoC5/CapSense_AMuxCH0.c **** *  void
 118:Generated_Source\PSoC5/CapSense_AMuxCH0.c **** *
 119:Generated_Source\PSoC5/CapSense_AMuxCH0.c **** *******************************************************************************/
 120:Generated_Source\PSoC5/CapSense_AMuxCH0.c **** void CapSense_AMuxCH0_FastSelect(uint8 channel) CYREENTRANT
ARM GAS  C:\Users\JEFFSN~1\AppData\Local\Temp\ccFrr1yu.s 			page 27


 121:Generated_Source\PSoC5/CapSense_AMuxCH0.c **** {
 122:Generated_Source\PSoC5/CapSense_AMuxCH0.c ****     /* Disconnect the last valid channel */
 123:Generated_Source\PSoC5/CapSense_AMuxCH0.c ****     if( CapSense_AMuxCH0_lastChannel != CapSense_AMuxCH0_NULL_CHANNEL)   /* Update last channel */
 124:Generated_Source\PSoC5/CapSense_AMuxCH0.c ****     {
 125:Generated_Source\PSoC5/CapSense_AMuxCH0.c ****         CapSense_AMuxCH0_Disconnect(CapSense_AMuxCH0_lastChannel);
 126:Generated_Source\PSoC5/CapSense_AMuxCH0.c ****     }
 127:Generated_Source\PSoC5/CapSense_AMuxCH0.c **** 
 128:Generated_Source\PSoC5/CapSense_AMuxCH0.c ****     /* Make the new channel connection */
 129:Generated_Source\PSoC5/CapSense_AMuxCH0.c ****     CapSense_AMuxCH0_Connect(channel);
 130:Generated_Source\PSoC5/CapSense_AMuxCH0.c ****     CapSense_AMuxCH0_lastChannel = channel;   /* Update last channel */
 131:Generated_Source\PSoC5/CapSense_AMuxCH0.c **** }
 132:Generated_Source\PSoC5/CapSense_AMuxCH0.c **** 
 133:Generated_Source\PSoC5/CapSense_AMuxCH0.c **** 
 134:Generated_Source\PSoC5/CapSense_AMuxCH0.c **** #if(CapSense_AMuxCH0_MUXTYPE == CapSense_AMuxCH0_MUX_DIFF)
 135:Generated_Source\PSoC5/CapSense_AMuxCH0.c ****     /*******************************************************************************
 136:Generated_Source\PSoC5/CapSense_AMuxCH0.c ****     * Function Name: CapSense_AMuxCH0_Connect
 137:Generated_Source\PSoC5/CapSense_AMuxCH0.c ****     ********************************************************************************
 138:Generated_Source\PSoC5/CapSense_AMuxCH0.c ****     * Summary:
 139:Generated_Source\PSoC5/CapSense_AMuxCH0.c ****     *  This function connects the given channel without affecting other connections.
 140:Generated_Source\PSoC5/CapSense_AMuxCH0.c ****     *
 141:Generated_Source\PSoC5/CapSense_AMuxCH0.c ****     * Parameters:
 142:Generated_Source\PSoC5/CapSense_AMuxCH0.c ****     *  channel:  The channel to connect to the common terminal.
 143:Generated_Source\PSoC5/CapSense_AMuxCH0.c ****     *
 144:Generated_Source\PSoC5/CapSense_AMuxCH0.c ****     * Return:
 145:Generated_Source\PSoC5/CapSense_AMuxCH0.c ****     *  void
 146:Generated_Source\PSoC5/CapSense_AMuxCH0.c ****     *
 147:Generated_Source\PSoC5/CapSense_AMuxCH0.c ****     *******************************************************************************/
 148:Generated_Source\PSoC5/CapSense_AMuxCH0.c ****     void CapSense_AMuxCH0_Connect(uint8 channel) CYREENTRANT
 149:Generated_Source\PSoC5/CapSense_AMuxCH0.c ****     {
 150:Generated_Source\PSoC5/CapSense_AMuxCH0.c ****         CapSense_AMuxCH0_CYAMUXSIDE_A_Set(channel);
 151:Generated_Source\PSoC5/CapSense_AMuxCH0.c ****         CapSense_AMuxCH0_CYAMUXSIDE_B_Set(channel);
 152:Generated_Source\PSoC5/CapSense_AMuxCH0.c ****     }
 153:Generated_Source\PSoC5/CapSense_AMuxCH0.c ****     
 154:Generated_Source\PSoC5/CapSense_AMuxCH0.c ****     
 155:Generated_Source\PSoC5/CapSense_AMuxCH0.c ****     /*******************************************************************************
 156:Generated_Source\PSoC5/CapSense_AMuxCH0.c ****     * Function Name: CapSense_AMuxCH0_Disconnect
 157:Generated_Source\PSoC5/CapSense_AMuxCH0.c ****     ********************************************************************************
 158:Generated_Source\PSoC5/CapSense_AMuxCH0.c ****     * Summary:
 159:Generated_Source\PSoC5/CapSense_AMuxCH0.c ****     *  This function disconnects the given channel from the common or output
 160:Generated_Source\PSoC5/CapSense_AMuxCH0.c ****     *  terminal without affecting other connections.
 161:Generated_Source\PSoC5/CapSense_AMuxCH0.c ****     *
 162:Generated_Source\PSoC5/CapSense_AMuxCH0.c ****     * Parameters:
 163:Generated_Source\PSoC5/CapSense_AMuxCH0.c ****     *  channel:  The channel to disconnect from the common terminal.
 164:Generated_Source\PSoC5/CapSense_AMuxCH0.c ****     *
 165:Generated_Source\PSoC5/CapSense_AMuxCH0.c ****     * Return:
 166:Generated_Source\PSoC5/CapSense_AMuxCH0.c ****     *  void
 167:Generated_Source\PSoC5/CapSense_AMuxCH0.c ****     *
 168:Generated_Source\PSoC5/CapSense_AMuxCH0.c ****     *******************************************************************************/
 169:Generated_Source\PSoC5/CapSense_AMuxCH0.c ****     void CapSense_AMuxCH0_Disconnect(uint8 channel) CYREENTRANT
 170:Generated_Source\PSoC5/CapSense_AMuxCH0.c ****     {
 171:Generated_Source\PSoC5/CapSense_AMuxCH0.c ****         CapSense_AMuxCH0_CYAMUXSIDE_A_Unset(channel);
 172:Generated_Source\PSoC5/CapSense_AMuxCH0.c ****         CapSense_AMuxCH0_CYAMUXSIDE_B_Unset(channel);
 173:Generated_Source\PSoC5/CapSense_AMuxCH0.c ****     }
 174:Generated_Source\PSoC5/CapSense_AMuxCH0.c ****     
 175:Generated_Source\PSoC5/CapSense_AMuxCH0.c **** #endif  /* End (CapSense_AMuxCH0_MUXTYPE == CapSense_AMuxCH0_MUX_DIFF) */
 176:Generated_Source\PSoC5/CapSense_AMuxCH0.c **** 
 177:Generated_Source\PSoC5/CapSense_AMuxCH0.c **** 
ARM GAS  C:\Users\JEFFSN~1\AppData\Local\Temp\ccFrr1yu.s 			page 28


 178:Generated_Source\PSoC5/CapSense_AMuxCH0.c **** /*******************************************************************************
 179:Generated_Source\PSoC5/CapSense_AMuxCH0.c **** * Function Name: CapSense_AMuxCH0_DisconnectAll
 180:Generated_Source\PSoC5/CapSense_AMuxCH0.c **** ********************************************************************************
 181:Generated_Source\PSoC5/CapSense_AMuxCH0.c **** * Summary:
 182:Generated_Source\PSoC5/CapSense_AMuxCH0.c **** *  This function disconnects all channels.
 183:Generated_Source\PSoC5/CapSense_AMuxCH0.c **** *
 184:Generated_Source\PSoC5/CapSense_AMuxCH0.c **** * Parameters:
 185:Generated_Source\PSoC5/CapSense_AMuxCH0.c **** *  void
 186:Generated_Source\PSoC5/CapSense_AMuxCH0.c **** *
 187:Generated_Source\PSoC5/CapSense_AMuxCH0.c **** * Return:
 188:Generated_Source\PSoC5/CapSense_AMuxCH0.c **** *  void
 189:Generated_Source\PSoC5/CapSense_AMuxCH0.c **** *
 190:Generated_Source\PSoC5/CapSense_AMuxCH0.c **** *******************************************************************************/
 191:Generated_Source\PSoC5/CapSense_AMuxCH0.c **** void CapSense_AMuxCH0_DisconnectAll(void) CYREENTRANT
 192:Generated_Source\PSoC5/CapSense_AMuxCH0.c **** {
 193:Generated_Source\PSoC5/CapSense_AMuxCH0.c ****     uint8 chan;
 194:Generated_Source\PSoC5/CapSense_AMuxCH0.c **** 
 195:Generated_Source\PSoC5/CapSense_AMuxCH0.c ****     #if(CapSense_AMuxCH0_MUXTYPE == CapSense_AMuxCH0_MUX_SINGLE)
 196:Generated_Source\PSoC5/CapSense_AMuxCH0.c ****         for(chan = 0; chan < CapSense_AMuxCH0_CHANNELS ; chan++)
 197:Generated_Source\PSoC5/CapSense_AMuxCH0.c ****         {
 198:Generated_Source\PSoC5/CapSense_AMuxCH0.c ****             CapSense_AMuxCH0_Unset(chan);
 385              		.loc 1 198 0
 386 0004 E0B2     		uxtb	r0, r4
 387 0006 0134     		adds	r4, r4, #1
 388              	.LVL2:
 389 0008 FFF7FEFF 		bl	CapSense_AMuxCH0_Unset
 390              	.LVL3:
 196:Generated_Source\PSoC5/CapSense_AMuxCH0.c ****         {
 391              		.loc 1 196 0
 392 000c 072C     		cmp	r4, #7
 393 000e F9D1     		bne	.L2
 394              	.LBE11:
 395              	.LBE10:
  40:Generated_Source\PSoC5/CapSense_AMuxCH0.c **** }
 396              		.loc 1 40 0
 397 0010 014B     		ldr	r3, .L6
 398 0012 0122     		movs	r2, #1
 399 0014 1A70     		strb	r2, [r3]
 400 0016 10BD     		pop	{r4, pc}
 401              	.L7:
 402              		.align	2
 403              	.L6:
 404 0018 00000000 		.word	.LANCHOR0
 405              		.cfi_endproc
 406              	.LFE0:
 407              		.size	CapSense_AMuxCH0_Start, .-CapSense_AMuxCH0_Start
 408              		.section	.text.CapSense_AMuxCH0_Init,"ax",%progbits
 409              		.align	2
 410              		.global	CapSense_AMuxCH0_Init
 411              		.thumb
 412              		.thumb_func
 413              		.type	CapSense_AMuxCH0_Init, %function
 414              	CapSense_AMuxCH0_Init:
 415              	.LFB9:
 416              		.cfi_startproc
 417              		@ args = 0, pretend = 0, frame = 0
 418              		@ frame_needed = 0, uses_anonymous_args = 0
ARM GAS  C:\Users\JEFFSN~1\AppData\Local\Temp\ccFrr1yu.s 			page 29


 419 0000 10B5     		push	{r4, lr}
 420              		.cfi_def_cfa_offset 8
 421              		.cfi_offset 4, -8
 422              		.cfi_offset 14, -4
 423 0002 0024     		movs	r4, #0
 424              	.L9:
 425 0004 E0B2     		uxtb	r0, r4
 426 0006 0134     		adds	r4, r4, #1
 427 0008 FFF7FEFF 		bl	CapSense_AMuxCH0_Unset
 428 000c 072C     		cmp	r4, #7
 429 000e F9D1     		bne	.L9
 430 0010 10BD     		pop	{r4, pc}
 431              		.cfi_endproc
 432              	.LFE9:
 433              		.size	CapSense_AMuxCH0_Init, .-CapSense_AMuxCH0_Init
 434              		.section	.text.CapSense_AMuxCH0_Stop,"ax",%progbits
 435              		.align	2
 436              		.global	CapSense_AMuxCH0_Stop
 437              		.thumb
 438              		.thumb_func
 439              		.type	CapSense_AMuxCH0_Stop, %function
 440              	CapSense_AMuxCH0_Stop:
 441              	.LFB7:
 442              		.cfi_startproc
 443              		@ args = 0, pretend = 0, frame = 0
 444              		@ frame_needed = 0, uses_anonymous_args = 0
 445 0000 10B5     		push	{r4, lr}
 446              		.cfi_def_cfa_offset 8
 447              		.cfi_offset 4, -8
 448              		.cfi_offset 14, -4
 449 0002 0024     		movs	r4, #0
 450              	.L13:
 451 0004 E0B2     		uxtb	r0, r4
 452 0006 0134     		adds	r4, r4, #1
 453 0008 FFF7FEFF 		bl	CapSense_AMuxCH0_Unset
 454 000c 072C     		cmp	r4, #7
 455 000e F9D1     		bne	.L13
 456 0010 10BD     		pop	{r4, pc}
 457              		.cfi_endproc
 458              	.LFE7:
 459              		.size	CapSense_AMuxCH0_Stop, .-CapSense_AMuxCH0_Stop
 460              		.section	.text.CapSense_AMuxCH0_Select,"ax",%progbits
 461              		.align	2
 462              		.global	CapSense_AMuxCH0_Select
 463              		.thumb
 464              		.thumb_func
 465              		.type	CapSense_AMuxCH0_Select, %function
 466              	CapSense_AMuxCH0_Select:
 467              	.LFB3:
  97:Generated_Source\PSoC5/CapSense_AMuxCH0.c ****     CapSense_AMuxCH0_DisconnectAll();        /* Disconnect all previous connections */
 468              		.loc 1 97 0
 469              		.cfi_startproc
 470              		@ args = 0, pretend = 0, frame = 0
 471              		@ frame_needed = 0, uses_anonymous_args = 0
 472              	.LVL4:
  97:Generated_Source\PSoC5/CapSense_AMuxCH0.c ****     CapSense_AMuxCH0_DisconnectAll();        /* Disconnect all previous connections */
 473              		.loc 1 97 0
ARM GAS  C:\Users\JEFFSN~1\AppData\Local\Temp\ccFrr1yu.s 			page 30


 474 0000 38B5     		push	{r3, r4, r5, lr}
 475              		.cfi_def_cfa_offset 16
 476              		.cfi_offset 3, -16
 477              		.cfi_offset 4, -12
 478              		.cfi_offset 5, -8
 479              		.cfi_offset 14, -4
  97:Generated_Source\PSoC5/CapSense_AMuxCH0.c ****     CapSense_AMuxCH0_DisconnectAll();        /* Disconnect all previous connections */
 480              		.loc 1 97 0
 481 0002 0546     		mov	r5, r0
 482 0004 0024     		movs	r4, #0
 483              	.LVL5:
 484              	.L17:
 485              	.LBB12:
 486              	.LBB13:
 487              		.loc 1 198 0
 488 0006 E0B2     		uxtb	r0, r4
 489 0008 0134     		adds	r4, r4, #1
 490              	.LVL6:
 491 000a FFF7FEFF 		bl	CapSense_AMuxCH0_Unset
 492              	.LVL7:
 196:Generated_Source\PSoC5/CapSense_AMuxCH0.c ****         {
 493              		.loc 1 196 0
 494 000e 072C     		cmp	r4, #7
 495 0010 F9D1     		bne	.L17
 496              	.LBE13:
 497              	.LBE12:
  99:Generated_Source\PSoC5/CapSense_AMuxCH0.c ****     CapSense_AMuxCH0_lastChannel = channel;  /* Update last channel */
 498              		.loc 1 99 0
 499 0012 2846     		mov	r0, r5
 500 0014 FFF7FEFF 		bl	CapSense_AMuxCH0_Set
 501              	.LVL8:
 100:Generated_Source\PSoC5/CapSense_AMuxCH0.c **** }
 502              		.loc 1 100 0
 503 0018 014B     		ldr	r3, .L20
 504 001a 1D70     		strb	r5, [r3]
 505 001c 38BD     		pop	{r3, r4, r5, pc}
 506              	.L21:
 507 001e 00BF     		.align	2
 508              	.L20:
 509 0020 00000000 		.word	.LANCHOR1
 510              		.cfi_endproc
 511              	.LFE3:
 512              		.size	CapSense_AMuxCH0_Select, .-CapSense_AMuxCH0_Select
 513              		.section	.text.CapSense_AMuxCH0_FastSelect,"ax",%progbits
 514              		.align	2
 515              		.global	CapSense_AMuxCH0_FastSelect
 516              		.thumb
 517              		.thumb_func
 518              		.type	CapSense_AMuxCH0_FastSelect, %function
 519              	CapSense_AMuxCH0_FastSelect:
 520              	.LFB4:
 121:Generated_Source\PSoC5/CapSense_AMuxCH0.c ****     /* Disconnect the last valid channel */
 521              		.loc 1 121 0
 522              		.cfi_startproc
 523              		@ args = 0, pretend = 0, frame = 0
 524              		@ frame_needed = 0, uses_anonymous_args = 0
 525              	.LVL9:
ARM GAS  C:\Users\JEFFSN~1\AppData\Local\Temp\ccFrr1yu.s 			page 31


 526 0000 38B5     		push	{r3, r4, r5, lr}
 527              		.cfi_def_cfa_offset 16
 528              		.cfi_offset 3, -16
 529              		.cfi_offset 4, -12
 530              		.cfi_offset 5, -8
 531              		.cfi_offset 14, -4
 123:Generated_Source\PSoC5/CapSense_AMuxCH0.c ****     {
 532              		.loc 1 123 0
 533 0002 064C     		ldr	r4, .L28
 121:Generated_Source\PSoC5/CapSense_AMuxCH0.c ****     /* Disconnect the last valid channel */
 534              		.loc 1 121 0
 535 0004 0546     		mov	r5, r0
 123:Generated_Source\PSoC5/CapSense_AMuxCH0.c ****     {
 536              		.loc 1 123 0
 537 0006 2078     		ldrb	r0, [r4]	@ zero_extendqisi2
 538              	.LVL10:
 539 0008 FF28     		cmp	r0, #255
 540 000a 01D0     		beq	.L23
 125:Generated_Source\PSoC5/CapSense_AMuxCH0.c ****     }
 541              		.loc 1 125 0
 542 000c FFF7FEFF 		bl	CapSense_AMuxCH0_Unset
 543              	.LVL11:
 544              	.L23:
 129:Generated_Source\PSoC5/CapSense_AMuxCH0.c ****     CapSense_AMuxCH0_lastChannel = channel;   /* Update last channel */
 545              		.loc 1 129 0
 546 0010 2846     		mov	r0, r5
 547 0012 FFF7FEFF 		bl	CapSense_AMuxCH0_Set
 548              	.LVL12:
 130:Generated_Source\PSoC5/CapSense_AMuxCH0.c **** }
 549              		.loc 1 130 0
 550 0016 2570     		strb	r5, [r4]
 551 0018 38BD     		pop	{r3, r4, r5, pc}
 552              	.L29:
 553 001a 00BF     		.align	2
 554              	.L28:
 555 001c 00000000 		.word	.LANCHOR1
 556              		.cfi_endproc
 557              	.LFE4:
 558              		.size	CapSense_AMuxCH0_FastSelect, .-CapSense_AMuxCH0_FastSelect
 559              		.section	.text.CapSense_AMuxCH0_DisconnectAll,"ax",%progbits
 560              		.align	2
 561              		.global	CapSense_AMuxCH0_DisconnectAll
 562              		.thumb
 563              		.thumb_func
 564              		.type	CapSense_AMuxCH0_DisconnectAll, %function
 565              	CapSense_AMuxCH0_DisconnectAll:
 566              	.LFB5:
 192:Generated_Source\PSoC5/CapSense_AMuxCH0.c ****     uint8 chan;
 567              		.loc 1 192 0
 568              		.cfi_startproc
 569              		@ args = 0, pretend = 0, frame = 0
 570              		@ frame_needed = 0, uses_anonymous_args = 0
 571              	.LVL13:
 572 0000 10B5     		push	{r4, lr}
 573              		.cfi_def_cfa_offset 8
 574              		.cfi_offset 4, -8
 575              		.cfi_offset 14, -4
ARM GAS  C:\Users\JEFFSN~1\AppData\Local\Temp\ccFrr1yu.s 			page 32


 192:Generated_Source\PSoC5/CapSense_AMuxCH0.c ****     uint8 chan;
 576              		.loc 1 192 0
 577 0002 0024     		movs	r4, #0
 578              	.LVL14:
 579              	.L31:
 580              		.loc 1 198 0 discriminator 3
 581 0004 E0B2     		uxtb	r0, r4
 582 0006 0134     		adds	r4, r4, #1
 583              	.LVL15:
 584 0008 FFF7FEFF 		bl	CapSense_AMuxCH0_Unset
 585              	.LVL16:
 196:Generated_Source\PSoC5/CapSense_AMuxCH0.c ****         {
 586              		.loc 1 196 0 discriminator 3
 587 000c 072C     		cmp	r4, #7
 588 000e F9D1     		bne	.L31
 199:Generated_Source\PSoC5/CapSense_AMuxCH0.c ****         }
 200:Generated_Source\PSoC5/CapSense_AMuxCH0.c ****     #else
 201:Generated_Source\PSoC5/CapSense_AMuxCH0.c ****         for(chan = 0; chan < CapSense_AMuxCH0_CHANNELS ; chan++)
 202:Generated_Source\PSoC5/CapSense_AMuxCH0.c ****         {
 203:Generated_Source\PSoC5/CapSense_AMuxCH0.c ****             CapSense_AMuxCH0_CYAMUXSIDE_A_Unset(chan);
 204:Generated_Source\PSoC5/CapSense_AMuxCH0.c ****             CapSense_AMuxCH0_CYAMUXSIDE_B_Unset(chan);
 205:Generated_Source\PSoC5/CapSense_AMuxCH0.c ****         }
 206:Generated_Source\PSoC5/CapSense_AMuxCH0.c ****     #endif  /* End (CapSense_AMuxCH0_MUXTYPE == CapSense_AMuxCH0_MUX_SINGLE) */
 207:Generated_Source\PSoC5/CapSense_AMuxCH0.c **** }
 589              		.loc 1 207 0
 590 0010 10BD     		pop	{r4, pc}
 591              		.cfi_endproc
 592              	.LFE5:
 593              		.size	CapSense_AMuxCH0_DisconnectAll, .-CapSense_AMuxCH0_DisconnectAll
 594              		.global	CapSense_AMuxCH0_lastChannel
 595              		.global	CapSense_AMuxCH0_initVar
 596 0012 00BF     		.data
 597              		.set	.LANCHOR1,. + 0
 598              		.type	CapSense_AMuxCH0_lastChannel, %object
 599              		.size	CapSense_AMuxCH0_lastChannel, 1
 600              	CapSense_AMuxCH0_lastChannel:
 601 0000 FF       		.byte	-1
 602              		.bss
 603              		.set	.LANCHOR0,. + 0
 604              		.type	CapSense_AMuxCH0_initVar, %object
 605              		.size	CapSense_AMuxCH0_initVar, 1
 606              	CapSense_AMuxCH0_initVar:
 607 0000 00       		.space	1
 608              		.text
 609              	.Letext0:
 610              		.file 2 "Generated_Source\\PSoC5\\cyfitter_cfg.h"
 611              		.file 3 "Generated_Source\\PSoC5\\cytypes.h"