ARM GAS  C:\Users\JEFFSN~1\AppData\Local\Temp\cc8Xq6Yn.s 			page 1


   1              		.syntax unified
   2              		.cpu cortex-m3
   3              		.fpu softvfp
   4              		.eabi_attribute 20, 1
   5              		.eabi_attribute 21, 1
   6              		.eabi_attribute 23, 3
   7              		.eabi_attribute 24, 1
   8              		.eabi_attribute 25, 1
   9              		.eabi_attribute 26, 1
  10              		.eabi_attribute 30, 6
  11              		.eabi_attribute 34, 1
  12              		.eabi_attribute 18, 4
  13              		.thumb
  14              		.syntax unified
  15              		.file	"cyfitter_cfg.c"
  16              		.text
  17              	.Ltext0:
  18              		.cfi_sections	.debug_frame
  19              		.section	.text.CYMEMZERO,"ax",%progbits
  20              		.align	2
  21              		.thumb
  22              		.thumb_func
  23              		.type	CYMEMZERO, %function
  24              	CYMEMZERO:
  25              	.LFB0:
  26              		.file 1 "Generated_Source\\PSoC5\\cyfitter_cfg.c"
   1:Generated_Source\PSoC5/cyfitter_cfg.c **** 
   2:Generated_Source\PSoC5/cyfitter_cfg.c **** /*******************************************************************************
   3:Generated_Source\PSoC5/cyfitter_cfg.c **** * File Name: cyfitter_cfg.c
   4:Generated_Source\PSoC5/cyfitter_cfg.c **** * 
   5:Generated_Source\PSoC5/cyfitter_cfg.c **** * PSoC Creator  4.4
   6:Generated_Source\PSoC5/cyfitter_cfg.c **** *
   7:Generated_Source\PSoC5/cyfitter_cfg.c **** * Description:
   8:Generated_Source\PSoC5/cyfitter_cfg.c **** * This file contains device initialization code.
   9:Generated_Source\PSoC5/cyfitter_cfg.c **** * Except for the user defined sections in CyClockStartupError(), this file should not be modified.
  10:Generated_Source\PSoC5/cyfitter_cfg.c **** * This file is automatically generated by PSoC Creator.
  11:Generated_Source\PSoC5/cyfitter_cfg.c **** *
  12:Generated_Source\PSoC5/cyfitter_cfg.c **** ********************************************************************************
  13:Generated_Source\PSoC5/cyfitter_cfg.c **** * Copyright (c) 2007-2020 Cypress Semiconductor.  All rights reserved.
  14:Generated_Source\PSoC5/cyfitter_cfg.c **** * You may use this file only in accordance with the license, terms, conditions, 
  15:Generated_Source\PSoC5/cyfitter_cfg.c **** * disclaimers, and limitations in the end user license agreement accompanying 
  16:Generated_Source\PSoC5/cyfitter_cfg.c **** * the software package with which this file was provided.
  17:Generated_Source\PSoC5/cyfitter_cfg.c **** ********************************************************************************/
  18:Generated_Source\PSoC5/cyfitter_cfg.c **** 
  19:Generated_Source\PSoC5/cyfitter_cfg.c **** #include <string.h>
  20:Generated_Source\PSoC5/cyfitter_cfg.c **** #include "cytypes.h"
  21:Generated_Source\PSoC5/cyfitter_cfg.c **** #include "cydevice_trm.h"
  22:Generated_Source\PSoC5/cyfitter_cfg.c **** #include "cyfitter.h"
  23:Generated_Source\PSoC5/cyfitter_cfg.c **** #include "CyLib.h"
  24:Generated_Source\PSoC5/cyfitter_cfg.c **** #include "cyfitter_cfg.h"
  25:Generated_Source\PSoC5/cyfitter_cfg.c **** 
  26:Generated_Source\PSoC5/cyfitter_cfg.c **** #define CY_NEED_CYCLOCKSTARTUPERROR 1
  27:Generated_Source\PSoC5/cyfitter_cfg.c **** 
  28:Generated_Source\PSoC5/cyfitter_cfg.c **** 
  29:Generated_Source\PSoC5/cyfitter_cfg.c **** #if defined(__GNUC__) || defined(__ARMCC_VERSION)
  30:Generated_Source\PSoC5/cyfitter_cfg.c ****     #define CYPACKED 
  31:Generated_Source\PSoC5/cyfitter_cfg.c ****     #define CYPACKED_ATTR __attribute__ ((packed))
ARM GAS  C:\Users\JEFFSN~1\AppData\Local\Temp\cc8Xq6Yn.s 			page 2


  32:Generated_Source\PSoC5/cyfitter_cfg.c ****     #define CYALIGNED __attribute__ ((aligned))
  33:Generated_Source\PSoC5/cyfitter_cfg.c ****     #define CY_CFG_UNUSED __attribute__ ((unused))
  34:Generated_Source\PSoC5/cyfitter_cfg.c ****     #ifndef CY_CFG_SECTION
  35:Generated_Source\PSoC5/cyfitter_cfg.c ****         #define CY_CFG_SECTION __attribute__ ((section(".psocinit")))
  36:Generated_Source\PSoC5/cyfitter_cfg.c ****     #endif
  37:Generated_Source\PSoC5/cyfitter_cfg.c ****     
  38:Generated_Source\PSoC5/cyfitter_cfg.c ****     #if CYDEV_CONFIGURATION_DMA
  39:Generated_Source\PSoC5/cyfitter_cfg.c ****         #if (defined(__ARMCC_VERSION) || defined(__GNUC__))
  40:Generated_Source\PSoC5/cyfitter_cfg.c ****             #ifndef DMAINITSEC
  41:Generated_Source\PSoC5/cyfitter_cfg.c ****                 #define DMAINITSEC __attribute__ ((section(".dma_init")))
  42:Generated_Source\PSoC5/cyfitter_cfg.c ****             #endif
  43:Generated_Source\PSoC5/cyfitter_cfg.c ****         #elif defined(__ICCARM__)
  44:Generated_Source\PSoC5/cyfitter_cfg.c ****             #define DMAINITSEC _Pragma("location=\".dma_init\"")
  45:Generated_Source\PSoC5/cyfitter_cfg.c ****         #endif
  46:Generated_Source\PSoC5/cyfitter_cfg.c ****     #else
  47:Generated_Source\PSoC5/cyfitter_cfg.c ****         #define DMAINITSEC
  48:Generated_Source\PSoC5/cyfitter_cfg.c ****     #endif
  49:Generated_Source\PSoC5/cyfitter_cfg.c **** 
  50:Generated_Source\PSoC5/cyfitter_cfg.c ****     #if defined(__ARMCC_VERSION)
  51:Generated_Source\PSoC5/cyfitter_cfg.c ****         #define CY_CFG_MEMORY_BARRIER() __memory_changed()
  52:Generated_Source\PSoC5/cyfitter_cfg.c ****     #else
  53:Generated_Source\PSoC5/cyfitter_cfg.c ****         #define CY_CFG_MEMORY_BARRIER() __sync_synchronize()
  54:Generated_Source\PSoC5/cyfitter_cfg.c ****     #endif
  55:Generated_Source\PSoC5/cyfitter_cfg.c ****     
  56:Generated_Source\PSoC5/cyfitter_cfg.c **** #elif defined(__ICCARM__)
  57:Generated_Source\PSoC5/cyfitter_cfg.c ****     #include <intrinsics.h>
  58:Generated_Source\PSoC5/cyfitter_cfg.c **** 
  59:Generated_Source\PSoC5/cyfitter_cfg.c ****     #define CYPACKED __packed
  60:Generated_Source\PSoC5/cyfitter_cfg.c ****     #define CYPACKED_ATTR 
  61:Generated_Source\PSoC5/cyfitter_cfg.c ****     #define CYALIGNED _Pragma("data_alignment=4")
  62:Generated_Source\PSoC5/cyfitter_cfg.c ****     #define CY_CFG_UNUSED _Pragma("diag_suppress=Pe177")
  63:Generated_Source\PSoC5/cyfitter_cfg.c ****     #define CY_CFG_SECTION _Pragma("location=\".psocinit\"")
  64:Generated_Source\PSoC5/cyfitter_cfg.c ****     
  65:Generated_Source\PSoC5/cyfitter_cfg.c ****     #if CYDEV_CONFIGURATION_DMA
  66:Generated_Source\PSoC5/cyfitter_cfg.c ****         #if (defined(__ARMCC_VERSION) || defined(__GNUC__))
  67:Generated_Source\PSoC5/cyfitter_cfg.c ****             #ifndef DMAINITSEC
  68:Generated_Source\PSoC5/cyfitter_cfg.c ****                 #define DMAINITSEC __attribute__ ((section(".dma_init")))
  69:Generated_Source\PSoC5/cyfitter_cfg.c ****             #endif
  70:Generated_Source\PSoC5/cyfitter_cfg.c ****         #elif defined(__ICCARM__)
  71:Generated_Source\PSoC5/cyfitter_cfg.c ****             #define DMAINITSEC _Pragma("location=\".dma_init\"")
  72:Generated_Source\PSoC5/cyfitter_cfg.c ****         #endif
  73:Generated_Source\PSoC5/cyfitter_cfg.c ****     #else
  74:Generated_Source\PSoC5/cyfitter_cfg.c ****         #define DMAINITSEC
  75:Generated_Source\PSoC5/cyfitter_cfg.c ****     #endif
  76:Generated_Source\PSoC5/cyfitter_cfg.c **** 
  77:Generated_Source\PSoC5/cyfitter_cfg.c ****     #define CY_CFG_MEMORY_BARRIER() __DMB()
  78:Generated_Source\PSoC5/cyfitter_cfg.c ****     
  79:Generated_Source\PSoC5/cyfitter_cfg.c **** #else
  80:Generated_Source\PSoC5/cyfitter_cfg.c ****     #error Unsupported toolchain
  81:Generated_Source\PSoC5/cyfitter_cfg.c **** #endif
  82:Generated_Source\PSoC5/cyfitter_cfg.c **** 
  83:Generated_Source\PSoC5/cyfitter_cfg.c **** #ifndef CYCODE
  84:Generated_Source\PSoC5/cyfitter_cfg.c ****     #define CYCODE
  85:Generated_Source\PSoC5/cyfitter_cfg.c **** #endif
  86:Generated_Source\PSoC5/cyfitter_cfg.c **** #ifndef CYDATA
  87:Generated_Source\PSoC5/cyfitter_cfg.c ****     #define CYDATA
  88:Generated_Source\PSoC5/cyfitter_cfg.c **** #endif
ARM GAS  C:\Users\JEFFSN~1\AppData\Local\Temp\cc8Xq6Yn.s 			page 3


  89:Generated_Source\PSoC5/cyfitter_cfg.c **** #ifndef CYFAR
  90:Generated_Source\PSoC5/cyfitter_cfg.c ****     #define CYFAR
  91:Generated_Source\PSoC5/cyfitter_cfg.c **** #endif
  92:Generated_Source\PSoC5/cyfitter_cfg.c **** #ifndef CYXDATA
  93:Generated_Source\PSoC5/cyfitter_cfg.c ****     #define CYXDATA
  94:Generated_Source\PSoC5/cyfitter_cfg.c **** #endif
  95:Generated_Source\PSoC5/cyfitter_cfg.c **** 
  96:Generated_Source\PSoC5/cyfitter_cfg.c **** 
  97:Generated_Source\PSoC5/cyfitter_cfg.c **** CY_CFG_UNUSED
  98:Generated_Source\PSoC5/cyfitter_cfg.c **** static void CYMEMZERO(void *s, size_t n);
  99:Generated_Source\PSoC5/cyfitter_cfg.c **** CY_CFG_UNUSED
 100:Generated_Source\PSoC5/cyfitter_cfg.c **** static void CYMEMZERO(void *s, size_t n)
 101:Generated_Source\PSoC5/cyfitter_cfg.c **** {
  27              		.loc 1 101 0
  28              		.cfi_startproc
  29              		@ args = 0, pretend = 0, frame = 8
  30              		@ frame_needed = 1, uses_anonymous_args = 0
  31 0000 80B5     		push	{r7, lr}
  32              		.cfi_def_cfa_offset 8
  33              		.cfi_offset 7, -8
  34              		.cfi_offset 14, -4
  35 0002 82B0     		sub	sp, sp, #8
  36              		.cfi_def_cfa_offset 16
  37 0004 00AF     		add	r7, sp, #0
  38              		.cfi_def_cfa_register 7
  39 0006 7860     		str	r0, [r7, #4]
  40 0008 3960     		str	r1, [r7]
 102:Generated_Source\PSoC5/cyfitter_cfg.c **** 	(void)memset(s, 0, n);
  41              		.loc 1 102 0
  42 000a 3A68     		ldr	r2, [r7]
  43 000c 0021     		movs	r1, #0
  44 000e 7868     		ldr	r0, [r7, #4]
  45 0010 FFF7FEFF 		bl	memset
 103:Generated_Source\PSoC5/cyfitter_cfg.c **** }
  46              		.loc 1 103 0
  47 0014 00BF     		nop
  48 0016 0837     		adds	r7, r7, #8
  49              		.cfi_def_cfa_offset 8
  50 0018 BD46     		mov	sp, r7
  51              		.cfi_def_cfa_register 13
  52              		@ sp needed
  53 001a 80BD     		pop	{r7, pc}
  54              		.cfi_endproc
  55              	.LFE0:
  56              		.size	CYMEMZERO, .-CYMEMZERO
  57              		.section	.text.CYCONFIGCPY,"ax",%progbits
  58              		.align	2
  59              		.thumb
  60              		.thumb_func
  61              		.type	CYCONFIGCPY, %function
  62              	CYCONFIGCPY:
  63              	.LFB1:
 104:Generated_Source\PSoC5/cyfitter_cfg.c **** CY_CFG_UNUSED
 105:Generated_Source\PSoC5/cyfitter_cfg.c **** static void CYCONFIGCPY(void *dest, const void *src, size_t n);
 106:Generated_Source\PSoC5/cyfitter_cfg.c **** CY_CFG_UNUSED
 107:Generated_Source\PSoC5/cyfitter_cfg.c **** static void CYCONFIGCPY(void *dest, const void *src, size_t n)
 108:Generated_Source\PSoC5/cyfitter_cfg.c **** {
ARM GAS  C:\Users\JEFFSN~1\AppData\Local\Temp\cc8Xq6Yn.s 			page 4


  64              		.loc 1 108 0
  65              		.cfi_startproc
  66              		@ args = 0, pretend = 0, frame = 16
  67              		@ frame_needed = 1, uses_anonymous_args = 0
  68 0000 80B5     		push	{r7, lr}
  69              		.cfi_def_cfa_offset 8
  70              		.cfi_offset 7, -8
  71              		.cfi_offset 14, -4
  72 0002 84B0     		sub	sp, sp, #16
  73              		.cfi_def_cfa_offset 24
  74 0004 00AF     		add	r7, sp, #0
  75              		.cfi_def_cfa_register 7
  76 0006 F860     		str	r0, [r7, #12]
  77 0008 B960     		str	r1, [r7, #8]
  78 000a 7A60     		str	r2, [r7, #4]
 109:Generated_Source\PSoC5/cyfitter_cfg.c **** 	(void)memcpy(dest, src, n);
  79              		.loc 1 109 0
  80 000c 7A68     		ldr	r2, [r7, #4]
  81 000e B968     		ldr	r1, [r7, #8]
  82 0010 F868     		ldr	r0, [r7, #12]
  83 0012 FFF7FEFF 		bl	memcpy
 110:Generated_Source\PSoC5/cyfitter_cfg.c **** }
  84              		.loc 1 110 0
  85 0016 00BF     		nop
  86 0018 1037     		adds	r7, r7, #16
  87              		.cfi_def_cfa_offset 8
  88 001a BD46     		mov	sp, r7
  89              		.cfi_def_cfa_register 13
  90              		@ sp needed
  91 001c 80BD     		pop	{r7, pc}
  92              		.cfi_endproc
  93              	.LFE1:
  94              		.size	CYCONFIGCPY, .-CYCONFIGCPY
  95 001e 00BF     		.section	.text.CYCONFIGCPYCODE,"ax",%progbits
  96              		.align	2
  97              		.thumb
  98              		.thumb_func
  99              		.type	CYCONFIGCPYCODE, %function
 100              	CYCONFIGCPYCODE:
 101              	.LFB2:
 111:Generated_Source\PSoC5/cyfitter_cfg.c **** CY_CFG_UNUSED
 112:Generated_Source\PSoC5/cyfitter_cfg.c **** static void CYCONFIGCPYCODE(void *dest, const void *src, size_t n);
 113:Generated_Source\PSoC5/cyfitter_cfg.c **** CY_CFG_UNUSED
 114:Generated_Source\PSoC5/cyfitter_cfg.c **** static void CYCONFIGCPYCODE(void *dest, const void *src, size_t n)
 115:Generated_Source\PSoC5/cyfitter_cfg.c **** {
 102              		.loc 1 115 0
 103              		.cfi_startproc
 104              		@ args = 0, pretend = 0, frame = 16
 105              		@ frame_needed = 1, uses_anonymous_args = 0
 106 0000 80B5     		push	{r7, lr}
 107              		.cfi_def_cfa_offset 8
 108              		.cfi_offset 7, -8
 109              		.cfi_offset 14, -4
 110 0002 84B0     		sub	sp, sp, #16
 111              		.cfi_def_cfa_offset 24
 112 0004 00AF     		add	r7, sp, #0
 113              		.cfi_def_cfa_register 7
ARM GAS  C:\Users\JEFFSN~1\AppData\Local\Temp\cc8Xq6Yn.s 			page 5


 114 0006 F860     		str	r0, [r7, #12]
 115 0008 B960     		str	r1, [r7, #8]
 116 000a 7A60     		str	r2, [r7, #4]
 116:Generated_Source\PSoC5/cyfitter_cfg.c **** 	(void)memcpy(dest, src, n);
 117              		.loc 1 116 0
 118 000c 7A68     		ldr	r2, [r7, #4]
 119 000e B968     		ldr	r1, [r7, #8]
 120 0010 F868     		ldr	r0, [r7, #12]
 121 0012 FFF7FEFF 		bl	memcpy
 117:Generated_Source\PSoC5/cyfitter_cfg.c **** }
 122              		.loc 1 117 0
 123 0016 00BF     		nop
 124 0018 1037     		adds	r7, r7, #16
 125              		.cfi_def_cfa_offset 8
 126 001a BD46     		mov	sp, r7
 127              		.cfi_def_cfa_register 13
 128              		@ sp needed
 129 001c 80BD     		pop	{r7, pc}
 130              		.cfi_endproc
 131              	.LFE2:
 132              		.size	CYCONFIGCPYCODE, .-CYCONFIGCPYCODE
 133 001e 00BF     		.section	.text.CyClockStartupError,"ax",%progbits
 134              		.align	2
 135              		.thumb
 136              		.thumb_func
 137              		.type	CyClockStartupError, %function
 138              	CyClockStartupError:
 139              	.LFB3:
 118:Generated_Source\PSoC5/cyfitter_cfg.c **** 
 119:Generated_Source\PSoC5/cyfitter_cfg.c **** 
 120:Generated_Source\PSoC5/cyfitter_cfg.c **** 
 121:Generated_Source\PSoC5/cyfitter_cfg.c **** 
 122:Generated_Source\PSoC5/cyfitter_cfg.c **** /* Clock startup error codes                                                   */
 123:Generated_Source\PSoC5/cyfitter_cfg.c **** #define CYCLOCKSTART_NO_ERROR    0u
 124:Generated_Source\PSoC5/cyfitter_cfg.c **** #define CYCLOCKSTART_XTAL_ERROR  1u
 125:Generated_Source\PSoC5/cyfitter_cfg.c **** #define CYCLOCKSTART_32KHZ_ERROR 2u
 126:Generated_Source\PSoC5/cyfitter_cfg.c **** #define CYCLOCKSTART_PLL_ERROR   3u
 127:Generated_Source\PSoC5/cyfitter_cfg.c **** #define CYCLOCKSTART_FLL_ERROR   4u
 128:Generated_Source\PSoC5/cyfitter_cfg.c **** #define CYCLOCKSTART_WCO_ERROR   5u
 129:Generated_Source\PSoC5/cyfitter_cfg.c **** 
 130:Generated_Source\PSoC5/cyfitter_cfg.c **** 
 131:Generated_Source\PSoC5/cyfitter_cfg.c **** #ifdef CY_NEED_CYCLOCKSTARTUPERROR
 132:Generated_Source\PSoC5/cyfitter_cfg.c **** /*******************************************************************************
 133:Generated_Source\PSoC5/cyfitter_cfg.c **** * Function Name: CyClockStartupError
 134:Generated_Source\PSoC5/cyfitter_cfg.c **** ********************************************************************************
 135:Generated_Source\PSoC5/cyfitter_cfg.c **** * Summary:
 136:Generated_Source\PSoC5/cyfitter_cfg.c **** *  If an error is encountered during clock configuration (crystal startup error,
 137:Generated_Source\PSoC5/cyfitter_cfg.c **** *  PLL lock error, etc.), the system will end up here.  Unless reimplemented by
 138:Generated_Source\PSoC5/cyfitter_cfg.c **** *  the customer, this function will stop in an infinite loop.
 139:Generated_Source\PSoC5/cyfitter_cfg.c **** *
 140:Generated_Source\PSoC5/cyfitter_cfg.c **** * Parameters:
 141:Generated_Source\PSoC5/cyfitter_cfg.c **** *   void
 142:Generated_Source\PSoC5/cyfitter_cfg.c **** *
 143:Generated_Source\PSoC5/cyfitter_cfg.c **** * Return:
 144:Generated_Source\PSoC5/cyfitter_cfg.c **** *   void
 145:Generated_Source\PSoC5/cyfitter_cfg.c **** *
 146:Generated_Source\PSoC5/cyfitter_cfg.c **** *******************************************************************************/
ARM GAS  C:\Users\JEFFSN~1\AppData\Local\Temp\cc8Xq6Yn.s 			page 6


 147:Generated_Source\PSoC5/cyfitter_cfg.c **** CY_CFG_UNUSED
 148:Generated_Source\PSoC5/cyfitter_cfg.c **** static void CyClockStartupError(uint8 errorCode);
 149:Generated_Source\PSoC5/cyfitter_cfg.c **** CY_CFG_UNUSED
 150:Generated_Source\PSoC5/cyfitter_cfg.c **** static void CyClockStartupError(uint8 errorCode)
 151:Generated_Source\PSoC5/cyfitter_cfg.c **** {
 140              		.loc 1 151 0
 141              		.cfi_startproc
 142              		@ args = 0, pretend = 0, frame = 8
 143              		@ frame_needed = 1, uses_anonymous_args = 0
 144              		@ link register save eliminated.
 145 0000 80B4     		push	{r7}
 146              		.cfi_def_cfa_offset 4
 147              		.cfi_offset 7, -4
 148 0002 83B0     		sub	sp, sp, #12
 149              		.cfi_def_cfa_offset 16
 150 0004 00AF     		add	r7, sp, #0
 151              		.cfi_def_cfa_register 7
 152 0006 0346     		mov	r3, r0
 153 0008 FB71     		strb	r3, [r7, #7]
 154              	.L5:
 152:Generated_Source\PSoC5/cyfitter_cfg.c ****     /* To remove the compiler warning if errorCode not used.                */
 153:Generated_Source\PSoC5/cyfitter_cfg.c ****     errorCode = errorCode;
 154:Generated_Source\PSoC5/cyfitter_cfg.c **** 
 155:Generated_Source\PSoC5/cyfitter_cfg.c ****     /* If we have a clock startup error (bad MHz crystal, PLL lock, etc.),  */
 156:Generated_Source\PSoC5/cyfitter_cfg.c ****     /* we will end up here to allow the customer to implement something to  */
 157:Generated_Source\PSoC5/cyfitter_cfg.c ****     /* deal with the clock condition.                                       */
 158:Generated_Source\PSoC5/cyfitter_cfg.c **** 
 159:Generated_Source\PSoC5/cyfitter_cfg.c **** #ifdef CY_CFG_CLOCK_STARTUP_ERROR_CALLBACK
 160:Generated_Source\PSoC5/cyfitter_cfg.c ****     CY_CFG_Clock_Startup_ErrorCallback();
 161:Generated_Source\PSoC5/cyfitter_cfg.c **** #else
 162:Generated_Source\PSoC5/cyfitter_cfg.c ****     /*  If not using CY_CFG_CLOCK_STARTUP_ERROR_CALLBACK, place your clock startup code here. */
 163:Generated_Source\PSoC5/cyfitter_cfg.c ****     /* `#START CyClockStartupError` */
 164:Generated_Source\PSoC5/cyfitter_cfg.c **** 
 165:Generated_Source\PSoC5/cyfitter_cfg.c **** 
 166:Generated_Source\PSoC5/cyfitter_cfg.c **** 
 167:Generated_Source\PSoC5/cyfitter_cfg.c ****     /* `#END` */
 168:Generated_Source\PSoC5/cyfitter_cfg.c **** 
 169:Generated_Source\PSoC5/cyfitter_cfg.c ****     while(1) {}
 155              		.loc 1 169 0 discriminator 1
 156 000a FEE7     		b	.L5
 157              		.cfi_endproc
 158              	.LFE3:
 159              		.size	CyClockStartupError, .-CyClockStartupError
 160              		.section	.dma_init,"a",%progbits
 161              		.align	2
 162              		.type	CH1_ADDR_DATA0.4998, %object
 163              		.size	CH1_ADDR_DATA0.4998, 8
 164              	CH1_ADDR_DATA0.4998:
 165 0000 01       		.byte	1
 166 0001 00       		.byte	0
 167 0002 00       		.byte	0
 168 0003 00       		.byte	0
 169 0004 00       		.byte	0
 170 0005 20       		.byte	32
 171 0006 00       		.byte	0
 172 0007 40       		.byte	64
 173              		.align	2
ARM GAS  C:\Users\JEFFSN~1\AppData\Local\Temp\cc8Xq6Yn.s 			page 7


 174              		.type	CH2_ADDR_DATA0.4999, %object
 175              		.size	CH2_ADDR_DATA0.4999, 8
 176              	CH2_ADDR_DATA0.4999:
 177 0008 01       		.byte	1
 178 0009 00       		.byte	0
 179 000a 00       		.byte	0
 180 000b 00       		.byte	0
 181 000c 00       		.byte	0
 182 000d 20       		.byte	32
 183 000e 01       		.byte	1
 184 000f 40       		.byte	64
 185              		.align	2
 186              		.type	CH5_ADDR_DATA0.5000, %object
 187              		.size	CH5_ADDR_DATA0.5000, 8
 188              	CH5_ADDR_DATA0.5000:
 189 0010 01       		.byte	1
 190 0011 00       		.byte	0
 191 0012 00       		.byte	0
 192 0013 00       		.byte	0
 193 0014 00       		.byte	0
 194 0015 48       		.byte	72
 195 0016 00       		.byte	0
 196 0017 40       		.byte	64
 197              		.align	2
 198              		.type	CH6_ADDR_DATA0.5001, %object
 199              		.size	CH6_ADDR_DATA0.5001, 8
 200              	CH6_ADDR_DATA0.5001:
 201 0018 01       		.byte	1
 202 0019 00       		.byte	0
 203 001a 00       		.byte	0
 204 001b 00       		.byte	0
 205 001c 00       		.byte	0
 206 001d 48       		.byte	72
 207 001e 01       		.byte	1
 208 001f 40       		.byte	64
 209              		.align	2
 210              		.type	DMA_TD_START_CMD.5002, %object
 211              		.size	DMA_TD_START_CMD.5002, 5
 212              	DMA_TD_START_CMD.5002:
 213 0020 01       		.byte	1
 214 0021 00       		.byte	0
 215 0022 00       		.byte	0
 216 0023 00       		.byte	0
 217 0024 01       		.byte	1
 218 0025 000000   		.align	2
 219              		.type	CFG_TD_LIST0.5004, %object
 220              		.size	CFG_TD_LIST0.5004, 768
 221              	CFG_TD_LIST0.5004:
 222 0028 0800     		.short	8
 223 002a 02       		.byte	2
 224 002b 23       		.byte	35
 225 002c 0000     		.short	0
 226 002e 0876     		.short	30216
 227 0030 0800     		.short	8
 228 0032 03       		.byte	3
 229 0033 23       		.byte	35
 230 0034 0000     		.short	0
ARM GAS  C:\Users\JEFFSN~1\AppData\Local\Temp\cc8Xq6Yn.s 			page 8


 231 0036 1076     		.short	30224
 232 0038 0800     		.short	8
 233 003a 04       		.byte	4
 234 003b 23       		.byte	35
 235 003c 0000     		.short	0
 236 003e 2876     		.short	30248
 237 0040 0800     		.short	8
 238 0042 05       		.byte	5
 239 0043 23       		.byte	35
 240 0044 0000     		.short	0
 241 0046 3076     		.short	30256
 242 0048 0500     		.short	5
 243 004a 06       		.byte	6
 244 004b 23       		.byte	35
 245 004c 0000     		.short	0
 246 004e 2070     		.short	28704
 247 0050 0500     		.short	5
 248 0052 07       		.byte	7
 249 0053 23       		.byte	35
 250 0054 0000     		.short	0
 251 0056 3070     		.short	28720
 252 0058 0500     		.short	5
 253 005a 08       		.byte	8
 254 005b 23       		.byte	35
 255 005c 0000     		.short	0
 256 005e 6070     		.short	28768
 257 0060 0500     		.short	5
 258 0062 FE       		.byte	-2
 259 0063 23       		.byte	35
 260 0064 0000     		.short	0
 261 0066 7070     		.short	28784
 262 0068 1900     		.short	25
 263 006a 0A       		.byte	10
 264 006b 22       		.byte	34
 265 006c 0000     		.short	0
 266 006e C849     		.short	18888
 267 0070 3000     		.short	48
 268 0072 FE       		.byte	-2
 269 0073 22       		.byte	34
 270 0074 0000     		.short	0
 271 0076 4051     		.short	20800
 272 0078 8001     		.short	384
 273 007a FE       		.byte	-2
 274 007b 22       		.byte	34
 275 007c 0000     		.short	0
 276 007e 0000     		.short	0
 277 0080 0700     		.short	7
 278 0082 0D       		.byte	13
 279 0083 23       		.byte	35
 280 0084 0000     		.short	0
 281 0086 0052     		.short	20992
 282 0088 0700     		.short	7
 283 008a 0E       		.byte	14
 284 008b 23       		.byte	35
 285 008c 0000     		.short	0
 286 008e 0852     		.short	21000
 287 0090 0700     		.short	7
ARM GAS  C:\Users\JEFFSN~1\AppData\Local\Temp\cc8Xq6Yn.s 			page 9


 288 0092 0F       		.byte	15
 289 0093 23       		.byte	35
 290 0094 0000     		.short	0
 291 0096 1052     		.short	21008
 292 0098 0700     		.short	7
 293 009a 10       		.byte	16
 294 009b 23       		.byte	35
 295 009c 0000     		.short	0
 296 009e 1852     		.short	21016
 297 00a0 0600     		.short	6
 298 00a2 11       		.byte	17
 299 00a3 23       		.byte	35
 300 00a4 0000     		.short	0
 301 00a6 6052     		.short	21088
 302 00a8 0800     		.short	8
 303 00aa 12       		.byte	18
 304 00ab 23       		.byte	35
 305 00ac 0000     		.short	0
 306 00ae 6045     		.short	17760
 307 00b0 0700     		.short	7
 308 00b2 13       		.byte	19
 309 00b3 23       		.byte	35
 310 00b4 0000     		.short	0
 311 00b6 7852     		.short	21112
 312 00b8 0800     		.short	8
 313 00ba 14       		.byte	20
 314 00bb 23       		.byte	35
 315 00bc 0000     		.short	0
 316 00be 7845     		.short	17784
 317 00c0 0800     		.short	8
 318 00c2 15       		.byte	21
 319 00c3 23       		.byte	35
 320 00c4 0000     		.short	0
 321 00c6 285B     		.short	23336
 322 00c8 4000     		.short	64
 323 00ca 16       		.byte	22
 324 00cb 23       		.byte	35
 325 00cc 0000     		.short	0
 326 00ce 0064     		.short	25600
 327 00d0 2000     		.short	32
 328 00d2 17       		.byte	23
 329 00d3 23       		.byte	35
 330 00d4 0000     		.short	0
 331 00d6 7064     		.short	25712
 332 00d8 4000     		.short	64
 333 00da 18       		.byte	24
 334 00db 23       		.byte	35
 335 00dc 0000     		.short	0
 336 00de 0065     		.short	25856
 337 00e0 2000     		.short	32
 338 00e2 FE       		.byte	-2
 339 00e3 23       		.byte	35
 340 00e4 0000     		.short	0
 341 00e6 7065     		.short	25968
 342 00e8 0800     		.short	8
 343 00ea 1A       		.byte	26
 344 00eb 23       		.byte	35
ARM GAS  C:\Users\JEFFSN~1\AppData\Local\Temp\cc8Xq6Yn.s 			page 10


 345 00ec 0000     		.short	0
 346 00ee 0051     		.short	20736
 347 00f0 8000     		.short	128
 348 00f2 1B       		.byte	27
 349 00f3 23       		.byte	35
 350 00f4 0000     		.short	0
 351 00f6 0002     		.short	512
 352 00f8 8000     		.short	128
 353 00fa 1C       		.byte	28
 354 00fb 23       		.byte	35
 355 00fc 0000     		.short	0
 356 00fe 8002     		.short	640
 357 0100 8000     		.short	128
 358 0102 1D       		.byte	29
 359 0103 23       		.byte	35
 360 0104 0000     		.short	0
 361 0106 0004     		.short	1024
 362 0108 8000     		.short	128
 363 010a 1E       		.byte	30
 364 010b 23       		.byte	35
 365 010c 0000     		.short	0
 366 010e 8004     		.short	1152
 367 0110 8000     		.short	128
 368 0112 1F       		.byte	31
 369 0113 23       		.byte	35
 370 0114 0000     		.short	0
 371 0116 0006     		.short	1536
 372 0118 8000     		.short	128
 373 011a 20       		.byte	32
 374 011b 23       		.byte	35
 375 011c 0000     		.short	0
 376 011e 8006     		.short	1664
 377 0120 8000     		.short	128
 378 0122 21       		.byte	33
 379 0123 23       		.byte	35
 380 0124 0000     		.short	0
 381 0126 0008     		.short	2048
 382 0128 8000     		.short	128
 383 012a 22       		.byte	34
 384 012b 23       		.byte	35
 385 012c 0000     		.short	0
 386 012e 8008     		.short	2176
 387 0130 8000     		.short	128
 388 0132 23       		.byte	35
 389 0133 23       		.byte	35
 390 0134 0000     		.short	0
 391 0136 000A     		.short	2560
 392 0138 8000     		.short	128
 393 013a 24       		.byte	36
 394 013b 23       		.byte	35
 395 013c 0000     		.short	0
 396 013e 800A     		.short	2688
 397 0140 8000     		.short	128
 398 0142 25       		.byte	37
 399 0143 23       		.byte	35
 400 0144 0000     		.short	0
 401 0146 000C     		.short	3072
ARM GAS  C:\Users\JEFFSN~1\AppData\Local\Temp\cc8Xq6Yn.s 			page 11


 402 0148 8000     		.short	128
 403 014a 26       		.byte	38
 404 014b 23       		.byte	35
 405 014c 0000     		.short	0
 406 014e 800C     		.short	3200
 407 0150 8000     		.short	128
 408 0152 27       		.byte	39
 409 0153 23       		.byte	35
 410 0154 0000     		.short	0
 411 0156 000E     		.short	3584
 412 0158 8000     		.short	128
 413 015a 28       		.byte	40
 414 015b 23       		.byte	35
 415 015c 0000     		.short	0
 416 015e 800E     		.short	3712
 417 0160 8000     		.short	128
 418 0162 29       		.byte	41
 419 0163 23       		.byte	35
 420 0164 0000     		.short	0
 421 0166 0014     		.short	5120
 422 0168 8000     		.short	128
 423 016a 2A       		.byte	42
 424 016b 23       		.byte	35
 425 016c 0000     		.short	0
 426 016e 8014     		.short	5248
 427 0170 8000     		.short	128
 428 0172 2B       		.byte	43
 429 0173 23       		.byte	35
 430 0174 0000     		.short	0
 431 0176 0016     		.short	5632
 432 0178 8000     		.short	128
 433 017a 2C       		.byte	44
 434 017b 23       		.byte	35
 435 017c 0000     		.short	0
 436 017e 8016     		.short	5760
 437 0180 8000     		.short	128
 438 0182 2D       		.byte	45
 439 0183 23       		.byte	35
 440 0184 0000     		.short	0
 441 0186 0018     		.short	6144
 442 0188 8000     		.short	128
 443 018a 2E       		.byte	46
 444 018b 23       		.byte	35
 445 018c 0000     		.short	0
 446 018e 8018     		.short	6272
 447 0190 8000     		.short	128
 448 0192 2F       		.byte	47
 449 0193 23       		.byte	35
 450 0194 0000     		.short	0
 451 0196 001A     		.short	6656
 452 0198 8000     		.short	128
 453 019a 30       		.byte	48
 454 019b 23       		.byte	35
 455 019c 0000     		.short	0
 456 019e 801A     		.short	6784
 457 01a0 1000     		.short	16
 458 01a2 31       		.byte	49
ARM GAS  C:\Users\JEFFSN~1\AppData\Local\Temp\cc8Xq6Yn.s 			page 12


 459 01a3 23       		.byte	35
 460 01a4 0000     		.short	0
 461 01a6 1050     		.short	20496
 462 01a8 1000     		.short	16
 463 01aa 32       		.byte	50
 464 01ab 23       		.byte	35
 465 01ac 0000     		.short	0
 466 01ae 0050     		.short	20480
 467 01b0 8000     		.short	128
 468 01b2 33       		.byte	51
 469 01b3 23       		.byte	35
 470 01b4 0000     		.short	0
 471 01b6 004D     		.short	19712
 472 01b8 8000     		.short	128
 473 01ba 34       		.byte	52
 474 01bb 23       		.byte	35
 475 01bc 0000     		.short	0
 476 01be 804D     		.short	19840
 477 01c0 8000     		.short	128
 478 01c2 35       		.byte	53
 479 01c3 23       		.byte	35
 480 01c4 0000     		.short	0
 481 01c6 004C     		.short	19456
 482 01c8 8000     		.short	128
 483 01ca 36       		.byte	54
 484 01cb 23       		.byte	35
 485 01cc 0000     		.short	0
 486 01ce 804C     		.short	19584
 487 01d0 8000     		.short	128
 488 01d2 37       		.byte	55
 489 01d3 23       		.byte	35
 490 01d4 0000     		.short	0
 491 01d6 0047     		.short	18176
 492 01d8 8000     		.short	128
 493 01da 38       		.byte	56
 494 01db 23       		.byte	35
 495 01dc 0000     		.short	0
 496 01de 8047     		.short	18304
 497 01e0 8000     		.short	128
 498 01e2 39       		.byte	57
 499 01e3 23       		.byte	35
 500 01e4 0000     		.short	0
 501 01e6 0046     		.short	17920
 502 01e8 8000     		.short	128
 503 01ea 3A       		.byte	58
 504 01eb 23       		.byte	35
 505 01ec 0000     		.short	0
 506 01ee 8046     		.short	18048
 507 01f0 8000     		.short	128
 508 01f2 3B       		.byte	59
 509 01f3 23       		.byte	35
 510 01f4 0000     		.short	0
 511 01f6 0045     		.short	17664
 512 01f8 8000     		.short	128
 513 01fa 3C       		.byte	60
 514 01fb 23       		.byte	35
 515 01fc 0000     		.short	0
ARM GAS  C:\Users\JEFFSN~1\AppData\Local\Temp\cc8Xq6Yn.s 			page 13


 516 01fe 8045     		.short	17792
 517 0200 8000     		.short	128
 518 0202 3D       		.byte	61
 519 0203 23       		.byte	35
 520 0204 0000     		.short	0
 521 0206 0044     		.short	17408
 522 0208 8000     		.short	128
 523 020a 3E       		.byte	62
 524 020b 23       		.byte	35
 525 020c 0000     		.short	0
 526 020e 8044     		.short	17536
 527 0210 8000     		.short	128
 528 0212 3F       		.byte	63
 529 0213 23       		.byte	35
 530 0214 0000     		.short	0
 531 0216 001B     		.short	6912
 532 0218 8000     		.short	128
 533 021a 40       		.byte	64
 534 021b 23       		.byte	35
 535 021c 0000     		.short	0
 536 021e 801B     		.short	7040
 537 0220 8000     		.short	128
 538 0222 41       		.byte	65
 539 0223 23       		.byte	35
 540 0224 0000     		.short	0
 541 0226 0015     		.short	5376
 542 0228 8000     		.short	128
 543 022a 42       		.byte	66
 544 022b 23       		.byte	35
 545 022c 0000     		.short	0
 546 022e 8015     		.short	5504
 547 0230 8000     		.short	128
 548 0232 43       		.byte	67
 549 0233 23       		.byte	35
 550 0234 0000     		.short	0
 551 0236 0019     		.short	6400
 552 0238 8000     		.short	128
 553 023a 44       		.byte	68
 554 023b 23       		.byte	35
 555 023c 0000     		.short	0
 556 023e 8019     		.short	6528
 557 0240 8000     		.short	128
 558 0242 45       		.byte	69
 559 0243 23       		.byte	35
 560 0244 0000     		.short	0
 561 0246 0017     		.short	5888
 562 0248 8000     		.short	128
 563 024a 46       		.byte	70
 564 024b 23       		.byte	35
 565 024c 0000     		.short	0
 566 024e 8017     		.short	6016
 567 0250 8000     		.short	128
 568 0252 47       		.byte	71
 569 0253 23       		.byte	35
 570 0254 0000     		.short	0
 571 0256 0009     		.short	2304
 572 0258 8000     		.short	128
ARM GAS  C:\Users\JEFFSN~1\AppData\Local\Temp\cc8Xq6Yn.s 			page 14


 573 025a 48       		.byte	72
 574 025b 23       		.byte	35
 575 025c 0000     		.short	0
 576 025e 8009     		.short	2432
 577 0260 8000     		.short	128
 578 0262 49       		.byte	73
 579 0263 23       		.byte	35
 580 0264 0000     		.short	0
 581 0266 0007     		.short	1792
 582 0268 8000     		.short	128
 583 026a 4A       		.byte	74
 584 026b 23       		.byte	35
 585 026c 0000     		.short	0
 586 026e 8007     		.short	1920
 587 0270 8000     		.short	128
 588 0272 4B       		.byte	75
 589 0273 23       		.byte	35
 590 0274 0000     		.short	0
 591 0276 000B     		.short	2816
 592 0278 8000     		.short	128
 593 027a 4C       		.byte	76
 594 027b 23       		.byte	35
 595 027c 0000     		.short	0
 596 027e 800B     		.short	2944
 597 0280 8000     		.short	128
 598 0282 4D       		.byte	77
 599 0283 23       		.byte	35
 600 0284 0000     		.short	0
 601 0286 0005     		.short	1280
 602 0288 8000     		.short	128
 603 028a 4E       		.byte	78
 604 028b 23       		.byte	35
 605 028c 0000     		.short	0
 606 028e 8005     		.short	1408
 607 0290 8000     		.short	128
 608 0292 4F       		.byte	79
 609 0293 23       		.byte	35
 610 0294 0000     		.short	0
 611 0296 000D     		.short	3328
 612 0298 8000     		.short	128
 613 029a 50       		.byte	80
 614 029b 23       		.byte	35
 615 029c 0000     		.short	0
 616 029e 800D     		.short	3456
 617 02a0 8000     		.short	128
 618 02a2 51       		.byte	81
 619 02a3 23       		.byte	35
 620 02a4 0000     		.short	0
 621 02a6 0003     		.short	768
 622 02a8 8000     		.short	128
 623 02aa 52       		.byte	82
 624 02ab 23       		.byte	35
 625 02ac 0000     		.short	0
 626 02ae 8003     		.short	896
 627 02b0 8000     		.short	128
 628 02b2 53       		.byte	83
 629 02b3 23       		.byte	35
ARM GAS  C:\Users\JEFFSN~1\AppData\Local\Temp\cc8Xq6Yn.s 			page 15


 630 02b4 0000     		.short	0
 631 02b6 000F     		.short	3840
 632 02b8 8000     		.short	128
 633 02ba 54       		.byte	84
 634 02bb 23       		.byte	35
 635 02bc 0000     		.short	0
 636 02be 800F     		.short	3968
 637 02c0 8000     		.short	128
 638 02c2 55       		.byte	85
 639 02c3 23       		.byte	35
 640 02c4 0000     		.short	0
 641 02c6 8001     		.short	384
 642 02c8 8000     		.short	128
 643 02ca 56       		.byte	86
 644 02cb 23       		.byte	35
 645 02cc 0000     		.short	0
 646 02ce 0049     		.short	18688
 647 02d0 8000     		.short	128
 648 02d2 57       		.byte	87
 649 02d3 23       		.byte	35
 650 02d4 0000     		.short	0
 651 02d6 8049     		.short	18816
 652 02d8 8000     		.short	128
 653 02da 58       		.byte	88
 654 02db 23       		.byte	35
 655 02dc 0000     		.short	0
 656 02de 0048     		.short	18432
 657 02e0 8000     		.short	128
 658 02e2 59       		.byte	89
 659 02e3 23       		.byte	35
 660 02e4 0000     		.short	0
 661 02e6 8048     		.short	18560
 662 02e8 8000     		.short	128
 663 02ea 5A       		.byte	90
 664 02eb 23       		.byte	35
 665 02ec 0000     		.short	0
 666 02ee 0043     		.short	17152
 667 02f0 8000     		.short	128
 668 02f2 5B       		.byte	91
 669 02f3 23       		.byte	35
 670 02f4 0000     		.short	0
 671 02f6 8043     		.short	17280
 672 02f8 8000     		.short	128
 673 02fa 5C       		.byte	92
 674 02fb 23       		.byte	35
 675 02fc 0000     		.short	0
 676 02fe 0042     		.short	16896
 677 0300 8000     		.short	128
 678 0302 5D       		.byte	93
 679 0303 23       		.byte	35
 680 0304 0000     		.short	0
 681 0306 8042     		.short	17024
 682 0308 8000     		.short	128
 683 030a 5E       		.byte	94
 684 030b 23       		.byte	35
 685 030c 0000     		.short	0
 686 030e 0041     		.short	16640
ARM GAS  C:\Users\JEFFSN~1\AppData\Local\Temp\cc8Xq6Yn.s 			page 16


 687 0310 8000     		.short	128
 688 0312 5F       		.byte	95
 689 0313 23       		.byte	35
 690 0314 0000     		.short	0
 691 0316 8041     		.short	16768
 692 0318 8000     		.short	128
 693 031a 60       		.byte	96
 694 031b 23       		.byte	35
 695 031c 0000     		.short	0
 696 031e 0040     		.short	16384
 697 0320 8000     		.short	128
 698 0322 FE       		.byte	-2
 699 0323 23       		.byte	35
 700 0324 0000     		.short	0
 701 0326 8040     		.short	16512
 702              		.section	.text.cfg_dma_init,"ax",%progbits
 703              		.align	2
 704              		.thumb
 705              		.thumb_func
 706              		.type	cfg_dma_init, %function
 707              	cfg_dma_init:
 708              	.LFB4:
 170:Generated_Source\PSoC5/cyfitter_cfg.c **** #endif /* CY_CFG_CLOCK_STARTUP_ERROR_CALLBACK */
 171:Generated_Source\PSoC5/cyfitter_cfg.c **** }
 172:Generated_Source\PSoC5/cyfitter_cfg.c **** #endif
 173:Generated_Source\PSoC5/cyfitter_cfg.c **** 
 174:Generated_Source\PSoC5/cyfitter_cfg.c **** /* IDMUX Address: CYREG_IDMUX_DRQ_CTL0 Size (bytes): 6 */
 175:Generated_Source\PSoC5/cyfitter_cfg.c **** #define BS_IDMUX_VAL ((const uint8 CYFAR *)0x48000000u)
 176:Generated_Source\PSoC5/cyfitter_cfg.c **** 
 177:Generated_Source\PSoC5/cyfitter_cfg.c **** /* IOPORT_0 Address: CYDEV_PRTDSI_PRT0_BASE Size (bytes): 7 */
 178:Generated_Source\PSoC5/cyfitter_cfg.c **** #define BS_IOPORT_0_VAL ((const uint8 CYFAR *)0x48000008u)
 179:Generated_Source\PSoC5/cyfitter_cfg.c **** 
 180:Generated_Source\PSoC5/cyfitter_cfg.c **** /* IOPORT_1 Address: CYDEV_PRTDSI_PRT1_BASE Size (bytes): 7 */
 181:Generated_Source\PSoC5/cyfitter_cfg.c **** #define BS_IOPORT_1_VAL ((const uint8 CYFAR *)0x48000010u)
 182:Generated_Source\PSoC5/cyfitter_cfg.c **** 
 183:Generated_Source\PSoC5/cyfitter_cfg.c **** /* IOPORT_2 Address: CYDEV_PRTDSI_PRT2_BASE Size (bytes): 7 */
 184:Generated_Source\PSoC5/cyfitter_cfg.c **** #define BS_IOPORT_2_VAL ((const uint8 CYFAR *)0x48000018u)
 185:Generated_Source\PSoC5/cyfitter_cfg.c **** 
 186:Generated_Source\PSoC5/cyfitter_cfg.c **** /* IOPORT_3 Address: CYDEV_PRTDSI_PRT3_BASE Size (bytes): 7 */
 187:Generated_Source\PSoC5/cyfitter_cfg.c **** #define BS_IOPORT_3_VAL ((const uint8 CYFAR *)0x48000020u)
 188:Generated_Source\PSoC5/cyfitter_cfg.c **** 
 189:Generated_Source\PSoC5/cyfitter_cfg.c **** /* IOPORT_7 Address: CYDEV_PRTDSI_PRT12_BASE Size (bytes): 6 */
 190:Generated_Source\PSoC5/cyfitter_cfg.c **** #define BS_IOPORT_7_VAL ((const uint8 CYFAR *)0x48000028u)
 191:Generated_Source\PSoC5/cyfitter_cfg.c **** 
 192:Generated_Source\PSoC5/cyfitter_cfg.c **** /* PICU_7 Address: CYDEV_PICU_INTTYPE_PICU12_BASE Size (bytes): 8 */
 193:Generated_Source\PSoC5/cyfitter_cfg.c **** #define BS_PICU_7_VAL ((const uint8 CYFAR *)0x48000030u)
 194:Generated_Source\PSoC5/cyfitter_cfg.c **** 
 195:Generated_Source\PSoC5/cyfitter_cfg.c **** /* IOPORT_8 Address: CYDEV_PRTDSI_PRT15_BASE Size (bytes): 7 */
 196:Generated_Source\PSoC5/cyfitter_cfg.c **** #define BS_IOPORT_8_VAL ((const uint8 CYFAR *)0x48000038u)
 197:Generated_Source\PSoC5/cyfitter_cfg.c **** 
 198:Generated_Source\PSoC5/cyfitter_cfg.c **** /* PICU_8 Address: CYDEV_PICU_INTTYPE_PICU15_BASE Size (bytes): 8 */
 199:Generated_Source\PSoC5/cyfitter_cfg.c **** #define BS_PICU_8_VAL ((const uint8 CYFAR *)0x48000040u)
 200:Generated_Source\PSoC5/cyfitter_cfg.c **** 
 201:Generated_Source\PSoC5/cyfitter_cfg.c **** /* IDMUX_IRQ Address: CYREG_IDMUX_IRQ_CTL0 Size (bytes): 8 */
 202:Generated_Source\PSoC5/cyfitter_cfg.c **** #define BS_IDMUX_IRQ_VAL ((const uint8 CYFAR *)0x48000048u)
 203:Generated_Source\PSoC5/cyfitter_cfg.c **** 
 204:Generated_Source\PSoC5/cyfitter_cfg.c **** /* SAR1 Address: CYREG_SAR1_SW0 Size (bytes): 8 */
ARM GAS  C:\Users\JEFFSN~1\AppData\Local\Temp\cc8Xq6Yn.s 			page 17


 205:Generated_Source\PSoC5/cyfitter_cfg.c **** #define BS_SAR1_VAL ((const uint8 CYFAR *)0x48000050u)
 206:Generated_Source\PSoC5/cyfitter_cfg.c **** 
 207:Generated_Source\PSoC5/cyfitter_cfg.c **** /* UDB_1_4_1_CONFIG Address: CYDEV_UCFG_B0_P1_U0_BASE Size (bytes): 128 */
 208:Generated_Source\PSoC5/cyfitter_cfg.c **** #define BS_UDB_1_4_1_CONFIG_VAL ((const uint8 CYFAR *)0x48000058u)
 209:Generated_Source\PSoC5/cyfitter_cfg.c **** 
 210:Generated_Source\PSoC5/cyfitter_cfg.c **** /* UDB_1_4_0_CONFIG Address: CYDEV_UCFG_B0_P1_U1_BASE Size (bytes): 128 */
 211:Generated_Source\PSoC5/cyfitter_cfg.c **** #define BS_UDB_1_4_0_CONFIG_VAL ((const uint8 CYFAR *)0x480000D8u)
 212:Generated_Source\PSoC5/cyfitter_cfg.c **** 
 213:Generated_Source\PSoC5/cyfitter_cfg.c **** /* UDB_1_3_0_CONFIG Address: CYDEV_UCFG_B0_P2_U0_BASE Size (bytes): 128 */
 214:Generated_Source\PSoC5/cyfitter_cfg.c **** #define BS_UDB_1_3_0_CONFIG_VAL ((const uint8 CYFAR *)0x48000158u)
 215:Generated_Source\PSoC5/cyfitter_cfg.c **** 
 216:Generated_Source\PSoC5/cyfitter_cfg.c **** /* UDB_1_3_1_CONFIG Address: CYDEV_UCFG_B0_P2_U1_BASE Size (bytes): 128 */
 217:Generated_Source\PSoC5/cyfitter_cfg.c **** #define BS_UDB_1_3_1_CONFIG_VAL ((const uint8 CYFAR *)0x480001D8u)
 218:Generated_Source\PSoC5/cyfitter_cfg.c **** 
 219:Generated_Source\PSoC5/cyfitter_cfg.c **** /* UDB_1_2_1_CONFIG Address: CYDEV_UCFG_B0_P3_U0_BASE Size (bytes): 128 */
 220:Generated_Source\PSoC5/cyfitter_cfg.c **** #define BS_UDB_1_2_1_CONFIG_VAL ((const uint8 CYFAR *)0x48000258u)
 221:Generated_Source\PSoC5/cyfitter_cfg.c **** 
 222:Generated_Source\PSoC5/cyfitter_cfg.c **** /* UDB_1_2_0_CONFIG Address: CYDEV_UCFG_B0_P3_U1_BASE Size (bytes): 128 */
 223:Generated_Source\PSoC5/cyfitter_cfg.c **** #define BS_UDB_1_2_0_CONFIG_VAL ((const uint8 CYFAR *)0x480002D8u)
 224:Generated_Source\PSoC5/cyfitter_cfg.c **** 
 225:Generated_Source\PSoC5/cyfitter_cfg.c **** /* UDB_0_2_1_CONFIG Address: CYDEV_UCFG_B0_P4_U0_BASE Size (bytes): 128 */
 226:Generated_Source\PSoC5/cyfitter_cfg.c **** #define BS_UDB_0_2_1_CONFIG_VAL ((const uint8 CYFAR *)0x48000358u)
 227:Generated_Source\PSoC5/cyfitter_cfg.c **** 
 228:Generated_Source\PSoC5/cyfitter_cfg.c **** /* UDB_0_2_0_CONFIG Address: CYDEV_UCFG_B0_P4_U1_BASE Size (bytes): 128 */
 229:Generated_Source\PSoC5/cyfitter_cfg.c **** #define BS_UDB_0_2_0_CONFIG_VAL ((const uint8 CYFAR *)0x480003D8u)
 230:Generated_Source\PSoC5/cyfitter_cfg.c **** 
 231:Generated_Source\PSoC5/cyfitter_cfg.c **** /* UDB_0_3_0_CONFIG Address: CYDEV_UCFG_B0_P5_U0_BASE Size (bytes): 128 */
 232:Generated_Source\PSoC5/cyfitter_cfg.c **** #define BS_UDB_0_3_0_CONFIG_VAL ((const uint8 CYFAR *)0x48000458u)
 233:Generated_Source\PSoC5/cyfitter_cfg.c **** 
 234:Generated_Source\PSoC5/cyfitter_cfg.c **** /* UDB_0_3_1_CONFIG Address: CYDEV_UCFG_B0_P5_U1_BASE Size (bytes): 128 */
 235:Generated_Source\PSoC5/cyfitter_cfg.c **** #define BS_UDB_0_3_1_CONFIG_VAL ((const uint8 CYFAR *)0x480004D8u)
 236:Generated_Source\PSoC5/cyfitter_cfg.c **** 
 237:Generated_Source\PSoC5/cyfitter_cfg.c **** /* UDB_0_4_1_CONFIG Address: CYDEV_UCFG_B0_P6_U0_BASE Size (bytes): 128 */
 238:Generated_Source\PSoC5/cyfitter_cfg.c **** #define BS_UDB_0_4_1_CONFIG_VAL ((const uint8 CYFAR *)0x48000558u)
 239:Generated_Source\PSoC5/cyfitter_cfg.c **** 
 240:Generated_Source\PSoC5/cyfitter_cfg.c **** /* UDB_0_4_0_CONFIG Address: CYDEV_UCFG_B0_P6_U1_BASE Size (bytes): 128 */
 241:Generated_Source\PSoC5/cyfitter_cfg.c **** #define BS_UDB_0_4_0_CONFIG_VAL ((const uint8 CYFAR *)0x480005D8u)
 242:Generated_Source\PSoC5/cyfitter_cfg.c **** 
 243:Generated_Source\PSoC5/cyfitter_cfg.c **** /* UDB_0_5_0_CONFIG Address: CYDEV_UCFG_B0_P7_U0_BASE Size (bytes): 128 */
 244:Generated_Source\PSoC5/cyfitter_cfg.c **** #define BS_UDB_0_5_0_CONFIG_VAL ((const uint8 CYFAR *)0x48000658u)
 245:Generated_Source\PSoC5/cyfitter_cfg.c **** 
 246:Generated_Source\PSoC5/cyfitter_cfg.c **** /* UDB_0_5_1_CONFIG Address: CYDEV_UCFG_B0_P7_U1_BASE Size (bytes): 128 */
 247:Generated_Source\PSoC5/cyfitter_cfg.c **** #define BS_UDB_0_5_1_CONFIG_VAL ((const uint8 CYFAR *)0x480006D8u)
 248:Generated_Source\PSoC5/cyfitter_cfg.c **** 
 249:Generated_Source\PSoC5/cyfitter_cfg.c **** /* UDB_1_0_0_CONFIG Address: CYDEV_UCFG_B1_P2_U0_BASE Size (bytes): 128 */
 250:Generated_Source\PSoC5/cyfitter_cfg.c **** #define BS_UDB_1_0_0_CONFIG_VAL ((const uint8 CYFAR *)0x48000758u)
 251:Generated_Source\PSoC5/cyfitter_cfg.c **** 
 252:Generated_Source\PSoC5/cyfitter_cfg.c **** /* UDB_1_0_1_CONFIG Address: CYDEV_UCFG_B1_P2_U1_BASE Size (bytes): 128 */
 253:Generated_Source\PSoC5/cyfitter_cfg.c **** #define BS_UDB_1_0_1_CONFIG_VAL ((const uint8 CYFAR *)0x480007D8u)
 254:Generated_Source\PSoC5/cyfitter_cfg.c **** 
 255:Generated_Source\PSoC5/cyfitter_cfg.c **** /* UDB_1_1_1_CONFIG Address: CYDEV_UCFG_B1_P3_U0_BASE Size (bytes): 128 */
 256:Generated_Source\PSoC5/cyfitter_cfg.c **** #define BS_UDB_1_1_1_CONFIG_VAL ((const uint8 CYFAR *)0x48000858u)
 257:Generated_Source\PSoC5/cyfitter_cfg.c **** 
 258:Generated_Source\PSoC5/cyfitter_cfg.c **** /* UDB_1_1_0_CONFIG Address: CYDEV_UCFG_B1_P3_U1_BASE Size (bytes): 128 */
 259:Generated_Source\PSoC5/cyfitter_cfg.c **** #define BS_UDB_1_1_0_CONFIG_VAL ((const uint8 CYFAR *)0x480008D8u)
 260:Generated_Source\PSoC5/cyfitter_cfg.c **** 
 261:Generated_Source\PSoC5/cyfitter_cfg.c **** /* UDB_0_1_1_CONFIG Address: CYDEV_UCFG_B1_P4_U0_BASE Size (bytes): 128 */
ARM GAS  C:\Users\JEFFSN~1\AppData\Local\Temp\cc8Xq6Yn.s 			page 18


 262:Generated_Source\PSoC5/cyfitter_cfg.c **** #define BS_UDB_0_1_1_CONFIG_VAL ((const uint8 CYFAR *)0x48000958u)
 263:Generated_Source\PSoC5/cyfitter_cfg.c **** 
 264:Generated_Source\PSoC5/cyfitter_cfg.c **** /* UDB_0_1_0_CONFIG Address: CYDEV_UCFG_B1_P4_U1_BASE Size (bytes): 128 */
 265:Generated_Source\PSoC5/cyfitter_cfg.c **** #define BS_UDB_0_1_0_CONFIG_VAL ((const uint8 CYFAR *)0x480009D8u)
 266:Generated_Source\PSoC5/cyfitter_cfg.c **** 
 267:Generated_Source\PSoC5/cyfitter_cfg.c **** /* UDB_0_0_0_CONFIG Address: CYDEV_UCFG_B1_P5_U0_BASE Size (bytes): 128 */
 268:Generated_Source\PSoC5/cyfitter_cfg.c **** #define BS_UDB_0_0_0_CONFIG_VAL ((const uint8 CYFAR *)0x48000A58u)
 269:Generated_Source\PSoC5/cyfitter_cfg.c **** 
 270:Generated_Source\PSoC5/cyfitter_cfg.c **** /* UDB_0_0_1_CONFIG Address: CYDEV_UCFG_B1_P5_U1_BASE Size (bytes): 128 */
 271:Generated_Source\PSoC5/cyfitter_cfg.c **** #define BS_UDB_0_0_1_CONFIG_VAL ((const uint8 CYFAR *)0x48000AD8u)
 272:Generated_Source\PSoC5/cyfitter_cfg.c **** 
 273:Generated_Source\PSoC5/cyfitter_cfg.c **** /* UWRK_B0_WRK_DP_BITS Address: CYDEV_UWRK_UWRK8_B0_BASE Size (bytes): 64 */
 274:Generated_Source\PSoC5/cyfitter_cfg.c **** #define BS_UWRK_B0_WRK_DP_BITS_VAL ((const uint8 CYFAR *)0x48000B58u)
 275:Generated_Source\PSoC5/cyfitter_cfg.c **** 
 276:Generated_Source\PSoC5/cyfitter_cfg.c **** /* UWRK_B0_WRK_STATCTL_BITS Address: CYDEV_UWRK_UWRK8_B0_BASE + 0x00000070u Size (bytes): 32 */
 277:Generated_Source\PSoC5/cyfitter_cfg.c **** #define BS_UWRK_B0_WRK_STATCTL_BITS_VAL ((const uint8 CYFAR *)0x48000B98u)
 278:Generated_Source\PSoC5/cyfitter_cfg.c **** 
 279:Generated_Source\PSoC5/cyfitter_cfg.c **** /* UWRK_B1_WRK_DP_BITS Address: CYDEV_UWRK_UWRK8_B1_BASE Size (bytes): 64 */
 280:Generated_Source\PSoC5/cyfitter_cfg.c **** #define BS_UWRK_B1_WRK_DP_BITS_VAL ((const uint8 CYFAR *)0x48000BB8u)
 281:Generated_Source\PSoC5/cyfitter_cfg.c **** 
 282:Generated_Source\PSoC5/cyfitter_cfg.c **** /* UWRK_B1_WRK_STATCTL_BITS Address: CYDEV_UWRK_UWRK8_B1_BASE + 0x00000070u Size (bytes): 32 */
 283:Generated_Source\PSoC5/cyfitter_cfg.c **** #define BS_UWRK_B1_WRK_STATCTL_BITS_VAL ((const uint8 CYFAR *)0x48000BF8u)
 284:Generated_Source\PSoC5/cyfitter_cfg.c **** 
 285:Generated_Source\PSoC5/cyfitter_cfg.c **** /* UCFG_BCTL1 Address: CYREG_BCTL1_MDCLK_EN Size (bytes): 16 */
 286:Generated_Source\PSoC5/cyfitter_cfg.c **** #define BS_UCFG_BCTL1_VAL ((const uint8 CYFAR *)0x48000C18u)
 287:Generated_Source\PSoC5/cyfitter_cfg.c **** 
 288:Generated_Source\PSoC5/cyfitter_cfg.c **** /* UCFG_BCTL0 Address: CYREG_BCTL0_MDCLK_EN Size (bytes): 16 */
 289:Generated_Source\PSoC5/cyfitter_cfg.c **** #define BS_UCFG_BCTL0_VAL ((const uint8 CYFAR *)0x48000C28u)
 290:Generated_Source\PSoC5/cyfitter_cfg.c **** 
 291:Generated_Source\PSoC5/cyfitter_cfg.c **** /* DSISWITCH_0_0 Address: CYDEV_UCFG_DSI13_BASE Size (bytes): 128 */
 292:Generated_Source\PSoC5/cyfitter_cfg.c **** #define BS_DSISWITCH_0_0_VAL ((const uint8 CYFAR *)0x48000C38u)
 293:Generated_Source\PSoC5/cyfitter_cfg.c **** 
 294:Generated_Source\PSoC5/cyfitter_cfg.c **** /* DSI0_0_HV_ROUTING Address: CYDEV_UCFG_DSI13_BASE + 0x00000080u Size (bytes): 128 */
 295:Generated_Source\PSoC5/cyfitter_cfg.c **** #define BS_DSI0_0_HV_ROUTING_VAL ((const uint8 CYFAR *)0x48000CB8u)
 296:Generated_Source\PSoC5/cyfitter_cfg.c **** 
 297:Generated_Source\PSoC5/cyfitter_cfg.c **** /* DSISWITCH_0_1 Address: CYDEV_UCFG_DSI12_BASE Size (bytes): 128 */
 298:Generated_Source\PSoC5/cyfitter_cfg.c **** #define BS_DSISWITCH_0_1_VAL ((const uint8 CYFAR *)0x48000D38u)
 299:Generated_Source\PSoC5/cyfitter_cfg.c **** 
 300:Generated_Source\PSoC5/cyfitter_cfg.c **** /* DSI0_1_HV_ROUTING Address: CYDEV_UCFG_DSI12_BASE + 0x00000080u Size (bytes): 128 */
 301:Generated_Source\PSoC5/cyfitter_cfg.c **** #define BS_DSI0_1_HV_ROUTING_VAL ((const uint8 CYFAR *)0x48000DB8u)
 302:Generated_Source\PSoC5/cyfitter_cfg.c **** 
 303:Generated_Source\PSoC5/cyfitter_cfg.c **** /* DSISWITCH_0_2 Address: CYDEV_UCFG_DSI7_BASE Size (bytes): 128 */
 304:Generated_Source\PSoC5/cyfitter_cfg.c **** #define BS_DSISWITCH_0_2_VAL ((const uint8 CYFAR *)0x48000E38u)
 305:Generated_Source\PSoC5/cyfitter_cfg.c **** 
 306:Generated_Source\PSoC5/cyfitter_cfg.c **** /* DSI0_2_HV_ROUTING Address: CYDEV_UCFG_DSI7_BASE + 0x00000080u Size (bytes): 128 */
 307:Generated_Source\PSoC5/cyfitter_cfg.c **** #define BS_DSI0_2_HV_ROUTING_VAL ((const uint8 CYFAR *)0x48000EB8u)
 308:Generated_Source\PSoC5/cyfitter_cfg.c **** 
 309:Generated_Source\PSoC5/cyfitter_cfg.c **** /* DSISWITCH_0_3 Address: CYDEV_UCFG_DSI6_BASE Size (bytes): 128 */
 310:Generated_Source\PSoC5/cyfitter_cfg.c **** #define BS_DSISWITCH_0_3_VAL ((const uint8 CYFAR *)0x48000F38u)
 311:Generated_Source\PSoC5/cyfitter_cfg.c **** 
 312:Generated_Source\PSoC5/cyfitter_cfg.c **** /* DSI0_3_HV_ROUTING Address: CYDEV_UCFG_DSI6_BASE + 0x00000080u Size (bytes): 128 */
 313:Generated_Source\PSoC5/cyfitter_cfg.c **** #define BS_DSI0_3_HV_ROUTING_VAL ((const uint8 CYFAR *)0x48000FB8u)
 314:Generated_Source\PSoC5/cyfitter_cfg.c **** 
 315:Generated_Source\PSoC5/cyfitter_cfg.c **** /* DSISWITCH_0_4 Address: CYDEV_UCFG_DSI5_BASE Size (bytes): 128 */
 316:Generated_Source\PSoC5/cyfitter_cfg.c **** #define BS_DSISWITCH_0_4_VAL ((const uint8 CYFAR *)0x48001038u)
 317:Generated_Source\PSoC5/cyfitter_cfg.c **** 
 318:Generated_Source\PSoC5/cyfitter_cfg.c **** /* DSI0_4_HV_ROUTING Address: CYDEV_UCFG_DSI5_BASE + 0x00000080u Size (bytes): 128 */
ARM GAS  C:\Users\JEFFSN~1\AppData\Local\Temp\cc8Xq6Yn.s 			page 19


 319:Generated_Source\PSoC5/cyfitter_cfg.c **** #define BS_DSI0_4_HV_ROUTING_VAL ((const uint8 CYFAR *)0x480010B8u)
 320:Generated_Source\PSoC5/cyfitter_cfg.c **** 
 321:Generated_Source\PSoC5/cyfitter_cfg.c **** /* DSISWITCH_0_5 Address: CYDEV_UCFG_DSI4_BASE Size (bytes): 128 */
 322:Generated_Source\PSoC5/cyfitter_cfg.c **** #define BS_DSISWITCH_0_5_VAL ((const uint8 CYFAR *)0x48001138u)
 323:Generated_Source\PSoC5/cyfitter_cfg.c **** 
 324:Generated_Source\PSoC5/cyfitter_cfg.c **** /* DSI0_5_HV_ROUTING Address: CYDEV_UCFG_DSI4_BASE + 0x00000080u Size (bytes): 128 */
 325:Generated_Source\PSoC5/cyfitter_cfg.c **** #define BS_DSI0_5_HV_ROUTING_VAL ((const uint8 CYFAR *)0x480011B8u)
 326:Generated_Source\PSoC5/cyfitter_cfg.c **** 
 327:Generated_Source\PSoC5/cyfitter_cfg.c **** /* UDBSWITCH_0_0 Address: CYDEV_UCFG_B1_P5_ROUTE_BASE Size (bytes): 128 */
 328:Generated_Source\PSoC5/cyfitter_cfg.c **** #define BS_UDBSWITCH_0_0_VAL ((const uint8 CYFAR *)0x48001238u)
 329:Generated_Source\PSoC5/cyfitter_cfg.c **** 
 330:Generated_Source\PSoC5/cyfitter_cfg.c **** /* UDB_1_0_HV_ROUTING Address: CYDEV_UCFG_B1_P5_ROUTE_BASE + 0x00000080u Size (bytes): 128 */
 331:Generated_Source\PSoC5/cyfitter_cfg.c **** #define BS_UDB_1_0_HV_ROUTING_VAL ((const uint8 CYFAR *)0x480012B8u)
 332:Generated_Source\PSoC5/cyfitter_cfg.c **** 
 333:Generated_Source\PSoC5/cyfitter_cfg.c **** /* UDBSWITCH_1_0 Address: CYDEV_UCFG_B1_P2_ROUTE_BASE Size (bytes): 128 */
 334:Generated_Source\PSoC5/cyfitter_cfg.c **** #define BS_UDBSWITCH_1_0_VAL ((const uint8 CYFAR *)0x48001338u)
 335:Generated_Source\PSoC5/cyfitter_cfg.c **** 
 336:Generated_Source\PSoC5/cyfitter_cfg.c **** /* UDB_2_0_HV_ROUTING Address: CYDEV_UCFG_B1_P2_ROUTE_BASE + 0x00000080u Size (bytes): 128 */
 337:Generated_Source\PSoC5/cyfitter_cfg.c **** #define BS_UDB_2_0_HV_ROUTING_VAL ((const uint8 CYFAR *)0x480013B8u)
 338:Generated_Source\PSoC5/cyfitter_cfg.c **** 
 339:Generated_Source\PSoC5/cyfitter_cfg.c **** /* UDBSWITCH_0_1 Address: CYDEV_UCFG_B1_P4_ROUTE_BASE Size (bytes): 128 */
 340:Generated_Source\PSoC5/cyfitter_cfg.c **** #define BS_UDBSWITCH_0_1_VAL ((const uint8 CYFAR *)0x48001438u)
 341:Generated_Source\PSoC5/cyfitter_cfg.c **** 
 342:Generated_Source\PSoC5/cyfitter_cfg.c **** /* UDB_1_1_HV_ROUTING Address: CYDEV_UCFG_B1_P4_ROUTE_BASE + 0x00000080u Size (bytes): 128 */
 343:Generated_Source\PSoC5/cyfitter_cfg.c **** #define BS_UDB_1_1_HV_ROUTING_VAL ((const uint8 CYFAR *)0x480014B8u)
 344:Generated_Source\PSoC5/cyfitter_cfg.c **** 
 345:Generated_Source\PSoC5/cyfitter_cfg.c **** /* UDBSWITCH_1_1 Address: CYDEV_UCFG_B1_P3_ROUTE_BASE Size (bytes): 128 */
 346:Generated_Source\PSoC5/cyfitter_cfg.c **** #define BS_UDBSWITCH_1_1_VAL ((const uint8 CYFAR *)0x48001538u)
 347:Generated_Source\PSoC5/cyfitter_cfg.c **** 
 348:Generated_Source\PSoC5/cyfitter_cfg.c **** /* UDB_2_1_HV_ROUTING Address: CYDEV_UCFG_B1_P3_ROUTE_BASE + 0x00000080u Size (bytes): 128 */
 349:Generated_Source\PSoC5/cyfitter_cfg.c **** #define BS_UDB_2_1_HV_ROUTING_VAL ((const uint8 CYFAR *)0x480015B8u)
 350:Generated_Source\PSoC5/cyfitter_cfg.c **** 
 351:Generated_Source\PSoC5/cyfitter_cfg.c **** /* UDBSWITCH_0_2 Address: CYDEV_UCFG_B0_P4_ROUTE_BASE Size (bytes): 128 */
 352:Generated_Source\PSoC5/cyfitter_cfg.c **** #define BS_UDBSWITCH_0_2_VAL ((const uint8 CYFAR *)0x48001638u)
 353:Generated_Source\PSoC5/cyfitter_cfg.c **** 
 354:Generated_Source\PSoC5/cyfitter_cfg.c **** /* UDB_1_2_HV_ROUTING Address: CYDEV_UCFG_B0_P4_ROUTE_BASE + 0x00000080u Size (bytes): 128 */
 355:Generated_Source\PSoC5/cyfitter_cfg.c **** #define BS_UDB_1_2_HV_ROUTING_VAL ((const uint8 CYFAR *)0x480016B8u)
 356:Generated_Source\PSoC5/cyfitter_cfg.c **** 
 357:Generated_Source\PSoC5/cyfitter_cfg.c **** /* UDBSWITCH_1_2 Address: CYDEV_UCFG_B0_P3_ROUTE_BASE Size (bytes): 128 */
 358:Generated_Source\PSoC5/cyfitter_cfg.c **** #define BS_UDBSWITCH_1_2_VAL ((const uint8 CYFAR *)0x48001738u)
 359:Generated_Source\PSoC5/cyfitter_cfg.c **** 
 360:Generated_Source\PSoC5/cyfitter_cfg.c **** /* UDB_2_2_HV_ROUTING Address: CYDEV_UCFG_B0_P3_ROUTE_BASE + 0x00000080u Size (bytes): 128 */
 361:Generated_Source\PSoC5/cyfitter_cfg.c **** #define BS_UDB_2_2_HV_ROUTING_VAL ((const uint8 CYFAR *)0x480017B8u)
 362:Generated_Source\PSoC5/cyfitter_cfg.c **** 
 363:Generated_Source\PSoC5/cyfitter_cfg.c **** /* UDBSWITCH_0_3 Address: CYDEV_UCFG_B0_P5_ROUTE_BASE Size (bytes): 128 */
 364:Generated_Source\PSoC5/cyfitter_cfg.c **** #define BS_UDBSWITCH_0_3_VAL ((const uint8 CYFAR *)0x48001838u)
 365:Generated_Source\PSoC5/cyfitter_cfg.c **** 
 366:Generated_Source\PSoC5/cyfitter_cfg.c **** /* UDB_1_3_HV_ROUTING Address: CYDEV_UCFG_B0_P5_ROUTE_BASE + 0x00000080u Size (bytes): 128 */
 367:Generated_Source\PSoC5/cyfitter_cfg.c **** #define BS_UDB_1_3_HV_ROUTING_VAL ((const uint8 CYFAR *)0x480018B8u)
 368:Generated_Source\PSoC5/cyfitter_cfg.c **** 
 369:Generated_Source\PSoC5/cyfitter_cfg.c **** /* UDBSWITCH_1_3 Address: CYDEV_UCFG_B0_P2_ROUTE_BASE Size (bytes): 128 */
 370:Generated_Source\PSoC5/cyfitter_cfg.c **** #define BS_UDBSWITCH_1_3_VAL ((const uint8 CYFAR *)0x48001938u)
 371:Generated_Source\PSoC5/cyfitter_cfg.c **** 
 372:Generated_Source\PSoC5/cyfitter_cfg.c **** /* UDB_2_3_HV_ROUTING Address: CYDEV_UCFG_B0_P2_ROUTE_BASE + 0x00000080u Size (bytes): 128 */
 373:Generated_Source\PSoC5/cyfitter_cfg.c **** #define BS_UDB_2_3_HV_ROUTING_VAL ((const uint8 CYFAR *)0x480019B8u)
 374:Generated_Source\PSoC5/cyfitter_cfg.c **** 
 375:Generated_Source\PSoC5/cyfitter_cfg.c **** /* UDBSWITCH_0_4 Address: CYDEV_UCFG_B0_P6_ROUTE_BASE Size (bytes): 128 */
ARM GAS  C:\Users\JEFFSN~1\AppData\Local\Temp\cc8Xq6Yn.s 			page 20


 376:Generated_Source\PSoC5/cyfitter_cfg.c **** #define BS_UDBSWITCH_0_4_VAL ((const uint8 CYFAR *)0x48001A38u)
 377:Generated_Source\PSoC5/cyfitter_cfg.c **** 
 378:Generated_Source\PSoC5/cyfitter_cfg.c **** /* UDB_1_4_HV_ROUTING Address: CYDEV_UCFG_B0_P6_ROUTE_BASE + 0x00000080u Size (bytes): 128 */
 379:Generated_Source\PSoC5/cyfitter_cfg.c **** #define BS_UDB_1_4_HV_ROUTING_VAL ((const uint8 CYFAR *)0x48001AB8u)
 380:Generated_Source\PSoC5/cyfitter_cfg.c **** 
 381:Generated_Source\PSoC5/cyfitter_cfg.c **** /* UDBSWITCH_1_4 Address: CYDEV_UCFG_B0_P1_ROUTE_BASE Size (bytes): 128 */
 382:Generated_Source\PSoC5/cyfitter_cfg.c **** #define BS_UDBSWITCH_1_4_VAL ((const uint8 CYFAR *)0x48001B38u)
 383:Generated_Source\PSoC5/cyfitter_cfg.c **** 
 384:Generated_Source\PSoC5/cyfitter_cfg.c **** /* UDB_2_4_HV_ROUTING Address: CYDEV_UCFG_B0_P1_ROUTE_BASE + 0x00000080u Size (bytes): 128 */
 385:Generated_Source\PSoC5/cyfitter_cfg.c **** #define BS_UDB_2_4_HV_ROUTING_VAL ((const uint8 CYFAR *)0x48001BB8u)
 386:Generated_Source\PSoC5/cyfitter_cfg.c **** 
 387:Generated_Source\PSoC5/cyfitter_cfg.c **** /* UDBSWITCH_0_5 Address: CYDEV_UCFG_B0_P7_ROUTE_BASE Size (bytes): 128 */
 388:Generated_Source\PSoC5/cyfitter_cfg.c **** #define BS_UDBSWITCH_0_5_VAL ((const uint8 CYFAR *)0x48001C38u)
 389:Generated_Source\PSoC5/cyfitter_cfg.c **** 
 390:Generated_Source\PSoC5/cyfitter_cfg.c **** /* UDB_1_5_HV_ROUTING Address: CYDEV_UCFG_B0_P7_ROUTE_BASE + 0x00000080u Size (bytes): 128 */
 391:Generated_Source\PSoC5/cyfitter_cfg.c **** #define BS_UDB_1_5_HV_ROUTING_VAL ((const uint8 CYFAR *)0x48001CB8u)
 392:Generated_Source\PSoC5/cyfitter_cfg.c **** 
 393:Generated_Source\PSoC5/cyfitter_cfg.c **** /* UDB_2_5_HV_ROUTING Address: CYDEV_UCFG_B0_P0_ROUTE_BASE + 0x00000080u Size (bytes): 128 */
 394:Generated_Source\PSoC5/cyfitter_cfg.c **** #define BS_UDB_2_5_HV_ROUTING_VAL ((const uint8 CYFAR *)0x48001D38u)
 395:Generated_Source\PSoC5/cyfitter_cfg.c **** 
 396:Generated_Source\PSoC5/cyfitter_cfg.c **** /* DSISWITCH_1_0 Address: CYDEV_UCFG_DSI9_BASE Size (bytes): 128 */
 397:Generated_Source\PSoC5/cyfitter_cfg.c **** #define BS_DSISWITCH_1_0_VAL ((const uint8 CYFAR *)0x48001DB8u)
 398:Generated_Source\PSoC5/cyfitter_cfg.c **** 
 399:Generated_Source\PSoC5/cyfitter_cfg.c **** /* DSI3_0_HV_ROUTING Address: CYDEV_UCFG_DSI9_BASE + 0x00000080u Size (bytes): 128 */
 400:Generated_Source\PSoC5/cyfitter_cfg.c **** #define BS_DSI3_0_HV_ROUTING_VAL ((const uint8 CYFAR *)0x48001E38u)
 401:Generated_Source\PSoC5/cyfitter_cfg.c **** 
 402:Generated_Source\PSoC5/cyfitter_cfg.c **** /* DSISWITCH_1_1 Address: CYDEV_UCFG_DSI8_BASE Size (bytes): 128 */
 403:Generated_Source\PSoC5/cyfitter_cfg.c **** #define BS_DSISWITCH_1_1_VAL ((const uint8 CYFAR *)0x48001EB8u)
 404:Generated_Source\PSoC5/cyfitter_cfg.c **** 
 405:Generated_Source\PSoC5/cyfitter_cfg.c **** /* DSI3_1_HV_ROUTING Address: CYDEV_UCFG_DSI8_BASE + 0x00000080u Size (bytes): 128 */
 406:Generated_Source\PSoC5/cyfitter_cfg.c **** #define BS_DSI3_1_HV_ROUTING_VAL ((const uint8 CYFAR *)0x48001F38u)
 407:Generated_Source\PSoC5/cyfitter_cfg.c **** 
 408:Generated_Source\PSoC5/cyfitter_cfg.c **** /* DSISWITCH_1_2 Address: CYDEV_UCFG_DSI3_BASE Size (bytes): 128 */
 409:Generated_Source\PSoC5/cyfitter_cfg.c **** #define BS_DSISWITCH_1_2_VAL ((const uint8 CYFAR *)0x48001FB8u)
 410:Generated_Source\PSoC5/cyfitter_cfg.c **** 
 411:Generated_Source\PSoC5/cyfitter_cfg.c **** /* DSI3_2_HV_ROUTING Address: CYDEV_UCFG_DSI3_BASE + 0x00000080u Size (bytes): 128 */
 412:Generated_Source\PSoC5/cyfitter_cfg.c **** #define BS_DSI3_2_HV_ROUTING_VAL ((const uint8 CYFAR *)0x48002038u)
 413:Generated_Source\PSoC5/cyfitter_cfg.c **** 
 414:Generated_Source\PSoC5/cyfitter_cfg.c **** /* DSISWITCH_1_3 Address: CYDEV_UCFG_DSI2_BASE Size (bytes): 128 */
 415:Generated_Source\PSoC5/cyfitter_cfg.c **** #define BS_DSISWITCH_1_3_VAL ((const uint8 CYFAR *)0x480020B8u)
 416:Generated_Source\PSoC5/cyfitter_cfg.c **** 
 417:Generated_Source\PSoC5/cyfitter_cfg.c **** /* DSI3_3_HV_ROUTING Address: CYDEV_UCFG_DSI2_BASE + 0x00000080u Size (bytes): 128 */
 418:Generated_Source\PSoC5/cyfitter_cfg.c **** #define BS_DSI3_3_HV_ROUTING_VAL ((const uint8 CYFAR *)0x48002138u)
 419:Generated_Source\PSoC5/cyfitter_cfg.c **** 
 420:Generated_Source\PSoC5/cyfitter_cfg.c **** /* DSISWITCH_1_4 Address: CYDEV_UCFG_DSI1_BASE Size (bytes): 128 */
 421:Generated_Source\PSoC5/cyfitter_cfg.c **** #define BS_DSISWITCH_1_4_VAL ((const uint8 CYFAR *)0x480021B8u)
 422:Generated_Source\PSoC5/cyfitter_cfg.c **** 
 423:Generated_Source\PSoC5/cyfitter_cfg.c **** /* DSI3_4_HV_ROUTING Address: CYDEV_UCFG_DSI1_BASE + 0x00000080u Size (bytes): 128 */
 424:Generated_Source\PSoC5/cyfitter_cfg.c **** #define BS_DSI3_4_HV_ROUTING_VAL ((const uint8 CYFAR *)0x48002238u)
 425:Generated_Source\PSoC5/cyfitter_cfg.c **** 
 426:Generated_Source\PSoC5/cyfitter_cfg.c **** /* DSISWITCH_1_5 Address: CYDEV_UCFG_DSI0_BASE Size (bytes): 128 */
 427:Generated_Source\PSoC5/cyfitter_cfg.c **** #define BS_DSISWITCH_1_5_VAL ((const uint8 CYFAR *)0x480022B8u)
 428:Generated_Source\PSoC5/cyfitter_cfg.c **** 
 429:Generated_Source\PSoC5/cyfitter_cfg.c **** /* DSI3_5_HV_ROUTING Address: CYDEV_UCFG_DSI0_BASE + 0x00000080u Size (bytes): 128 */
 430:Generated_Source\PSoC5/cyfitter_cfg.c **** #define BS_DSI3_5_HV_ROUTING_VAL ((const uint8 CYFAR *)0x48002338u)
 431:Generated_Source\PSoC5/cyfitter_cfg.c **** 
 432:Generated_Source\PSoC5/cyfitter_cfg.c **** /* IOPINS0_0 Address: CYREG_PRT0_DM0 Size (bytes): 8 */
ARM GAS  C:\Users\JEFFSN~1\AppData\Local\Temp\cc8Xq6Yn.s 			page 21


 433:Generated_Source\PSoC5/cyfitter_cfg.c **** #define BS_IOPINS0_0_VAL ((const uint8 CYFAR *)0x480023B8u)
 434:Generated_Source\PSoC5/cyfitter_cfg.c **** 
 435:Generated_Source\PSoC5/cyfitter_cfg.c **** /* IOPINS0_7 Address: CYREG_PRT12_DR Size (bytes): 10 */
 436:Generated_Source\PSoC5/cyfitter_cfg.c **** #define BS_IOPINS0_7_VAL ((const uint8 CYFAR *)0x480023C0u)
 437:Generated_Source\PSoC5/cyfitter_cfg.c **** 
 438:Generated_Source\PSoC5/cyfitter_cfg.c **** /* IOPINS0_8 Address: CYREG_PRT15_DR Size (bytes): 10 */
 439:Generated_Source\PSoC5/cyfitter_cfg.c **** #define BS_IOPINS0_8_VAL ((const uint8 CYFAR *)0x480023CCu)
 440:Generated_Source\PSoC5/cyfitter_cfg.c **** 
 441:Generated_Source\PSoC5/cyfitter_cfg.c **** /* IOPINS0_1 Address: CYREG_PRT1_DM0 Size (bytes): 8 */
 442:Generated_Source\PSoC5/cyfitter_cfg.c **** #define BS_IOPINS0_1_VAL ((const uint8 CYFAR *)0x480023D8u)
 443:Generated_Source\PSoC5/cyfitter_cfg.c **** 
 444:Generated_Source\PSoC5/cyfitter_cfg.c **** /* IOPINS0_2 Address: CYREG_PRT2_DM0 Size (bytes): 8 */
 445:Generated_Source\PSoC5/cyfitter_cfg.c **** #define BS_IOPINS0_2_VAL ((const uint8 CYFAR *)0x480023E0u)
 446:Generated_Source\PSoC5/cyfitter_cfg.c **** 
 447:Generated_Source\PSoC5/cyfitter_cfg.c **** /* IOPINS0_3 Address: CYREG_PRT3_DR Size (bytes): 10 */
 448:Generated_Source\PSoC5/cyfitter_cfg.c **** #define BS_IOPINS0_3_VAL ((const uint8 CYFAR *)0x480023E8u)
 449:Generated_Source\PSoC5/cyfitter_cfg.c **** 
 450:Generated_Source\PSoC5/cyfitter_cfg.c **** /* CYDEV_CLKDIST_ACFG0_CFG0 Address: CYREG_CLKDIST_ACFG0_CFG0 Size (bytes): 4 */
 451:Generated_Source\PSoC5/cyfitter_cfg.c **** #define BS_CYDEV_CLKDIST_ACFG0_CFG0_VAL ((const uint8 CYFAR *)0x480023F4u)
 452:Generated_Source\PSoC5/cyfitter_cfg.c **** 
 453:Generated_Source\PSoC5/cyfitter_cfg.c **** /* PHUB_CFGMEM1 Address: CYREG_PHUB_CFGMEM1_CFG0 Size (bytes): 4 */
 454:Generated_Source\PSoC5/cyfitter_cfg.c **** #define BS_PHUB_CFGMEM1_VAL ((const uint8 CYFAR *)0x480023F8u)
 455:Generated_Source\PSoC5/cyfitter_cfg.c **** 
 456:Generated_Source\PSoC5/cyfitter_cfg.c **** /* PHUB_CFGMEM6 Address: CYREG_PHUB_CFGMEM6_CFG0 Size (bytes): 4 */
 457:Generated_Source\PSoC5/cyfitter_cfg.c **** #define BS_PHUB_CFGMEM6_VAL ((const uint8 CYFAR *)0x480023FCu)
 458:Generated_Source\PSoC5/cyfitter_cfg.c **** 
 459:Generated_Source\PSoC5/cyfitter_cfg.c **** /* PHUB_CFGMEM7 Address: CYREG_PHUB_CFGMEM7_CFG0 Size (bytes): 4 */
 460:Generated_Source\PSoC5/cyfitter_cfg.c **** #define BS_PHUB_CFGMEM7_VAL ((const uint8 CYFAR *)0x48002400u)
 461:Generated_Source\PSoC5/cyfitter_cfg.c **** 
 462:Generated_Source\PSoC5/cyfitter_cfg.c **** 
 463:Generated_Source\PSoC5/cyfitter_cfg.c **** /*******************************************************************************
 464:Generated_Source\PSoC5/cyfitter_cfg.c **** * Function Name: cfg_dma_init
 465:Generated_Source\PSoC5/cyfitter_cfg.c **** ********************************************************************************
 466:Generated_Source\PSoC5/cyfitter_cfg.c **** * Summary:
 467:Generated_Source\PSoC5/cyfitter_cfg.c **** *  This function is used to copy device configuration data from constant values
 468:Generated_Source\PSoC5/cyfitter_cfg.c **** *  stored in memory into the proper chip configuration registers using DMA.  It
 469:Generated_Source\PSoC5/cyfitter_cfg.c **** *  pulls data out of the CFG_TD_LISTs to know exactly how/what to configure.
 470:Generated_Source\PSoC5/cyfitter_cfg.c **** *
 471:Generated_Source\PSoC5/cyfitter_cfg.c **** * Parameters:  
 472:Generated_Source\PSoC5/cyfitter_cfg.c **** *   void
 473:Generated_Source\PSoC5/cyfitter_cfg.c **** *
 474:Generated_Source\PSoC5/cyfitter_cfg.c **** * Return:
 475:Generated_Source\PSoC5/cyfitter_cfg.c **** *   void
 476:Generated_Source\PSoC5/cyfitter_cfg.c **** *
 477:Generated_Source\PSoC5/cyfitter_cfg.c **** *******************************************************************************/
 478:Generated_Source\PSoC5/cyfitter_cfg.c **** static void cfg_dma_init(void);
 479:Generated_Source\PSoC5/cyfitter_cfg.c **** static void cfg_dma_init(void)
 480:Generated_Source\PSoC5/cyfitter_cfg.c **** {
 709              		.loc 1 480 0
 710              		.cfi_startproc
 711              		@ args = 0, pretend = 0, frame = 8
 712              		@ frame_needed = 1, uses_anonymous_args = 0
 713 0000 80B5     		push	{r7, lr}
 714              		.cfi_def_cfa_offset 8
 715              		.cfi_offset 7, -8
 716              		.cfi_offset 14, -4
 717 0002 82B0     		sub	sp, sp, #8
ARM GAS  C:\Users\JEFFSN~1\AppData\Local\Temp\cc8Xq6Yn.s 			page 22


 718              		.cfi_def_cfa_offset 16
 719 0004 00AF     		add	r7, sp, #0
 720              		.cfi_def_cfa_register 7
 481:Generated_Source\PSoC5/cyfitter_cfg.c **** 	/* TD structure for little-endian systems. Does not require endian swap */
 482:Generated_Source\PSoC5/cyfitter_cfg.c **** 	CYPACKED struct td_t {
 483:Generated_Source\PSoC5/cyfitter_cfg.c **** 		uint16 size;
 484:Generated_Source\PSoC5/cyfitter_cfg.c **** 		uint8 next_td_ptr;
 485:Generated_Source\PSoC5/cyfitter_cfg.c **** 		uint8 flags;
 486:Generated_Source\PSoC5/cyfitter_cfg.c **** 		uint16 src;
 487:Generated_Source\PSoC5/cyfitter_cfg.c **** 		uint16 dest;
 488:Generated_Source\PSoC5/cyfitter_cfg.c **** 	} CYPACKED_ATTR;
 489:Generated_Source\PSoC5/cyfitter_cfg.c **** 
 490:Generated_Source\PSoC5/cyfitter_cfg.c **** 	/* PHUB_CH1_CFGMEM_CFG0/1 initialization data */
 491:Generated_Source\PSoC5/cyfitter_cfg.c **** 	DMAINITSEC static const uint8 CYCODE CH1_ADDR_DATA0[] = { 0x01u, 0x00u, 0x00u, 0x00u, 0x00u, 0x20u
 492:Generated_Source\PSoC5/cyfitter_cfg.c **** 
 493:Generated_Source\PSoC5/cyfitter_cfg.c **** 	/* PHUB_CH2_CFGMEM_CFG0/1 initialization data */
 494:Generated_Source\PSoC5/cyfitter_cfg.c **** 	DMAINITSEC static const uint8 CYCODE CH2_ADDR_DATA0[] = { 0x01u, 0x00u, 0x00u, 0x00u, 0x00u, 0x20u
 495:Generated_Source\PSoC5/cyfitter_cfg.c **** 
 496:Generated_Source\PSoC5/cyfitter_cfg.c **** 	/* PHUB_CH5_CFGMEM_CFG0/1 initialization data */
 497:Generated_Source\PSoC5/cyfitter_cfg.c **** 	DMAINITSEC static const uint8 CYCODE CH5_ADDR_DATA0[] = { 0x01u, 0x00u, 0x00u, 0x00u, 0x00u, 0x48u
 498:Generated_Source\PSoC5/cyfitter_cfg.c **** 
 499:Generated_Source\PSoC5/cyfitter_cfg.c **** 	/* PHUB_CH6_CFGMEM_CFG0/1 initialization data */
 500:Generated_Source\PSoC5/cyfitter_cfg.c **** 	DMAINITSEC static const uint8 CYCODE CH6_ADDR_DATA0[] = { 0x01u, 0x00u, 0x00u, 0x00u, 0x00u, 0x48u
 501:Generated_Source\PSoC5/cyfitter_cfg.c **** 
 502:Generated_Source\PSoC5/cyfitter_cfg.c **** 	/* Initialization data for each DMA channel's TD registers */
 503:Generated_Source\PSoC5/cyfitter_cfg.c **** 	DMAINITSEC static const uint8 CYCODE DMA_TD_START_CMD[] = { 0x01u, 0x00u, 0x00u, 0x00u, 0x01u };
 504:Generated_Source\PSoC5/cyfitter_cfg.c **** 
 505:Generated_Source\PSoC5/cyfitter_cfg.c **** 	CYALIGNED static uint32 CYXDATA DMA_ZERO_VAL;
 506:Generated_Source\PSoC5/cyfitter_cfg.c **** 
 507:Generated_Source\PSoC5/cyfitter_cfg.c **** 	/* This table holds all of the initialization data necessary for the DMA
 508:Generated_Source\PSoC5/cyfitter_cfg.c **** 	   process to transfer data from the source location to the destination. */
 509:Generated_Source\PSoC5/cyfitter_cfg.c **** 	/* Source addresses can be relocated, but only when in 32bit addresses.
 510:Generated_Source\PSoC5/cyfitter_cfg.c **** 	   Because the standard TD table only has 16bit addresses, we generate a
 511:Generated_Source\PSoC5/cyfitter_cfg.c **** 	   separate CFG_TD_ADDR table for the source addresses that supports 32bit
 512:Generated_Source\PSoC5/cyfitter_cfg.c **** 	   addresses. */
 513:Generated_Source\PSoC5/cyfitter_cfg.c **** 	DMAINITSEC static const struct td_t CYCODE CFG_TD_LIST0[] = {
 514:Generated_Source\PSoC5/cyfitter_cfg.c **** 		/* Size, Next, Flags, Source, Destination */
 515:Generated_Source\PSoC5/cyfitter_cfg.c **** 		{ 8u, 0x02u, 0x23u, (uint16)(uint32)(0u), (uint16)(CYREG_PHUB_CFGMEM1_CFG0) },	/* TD 1 */
 516:Generated_Source\PSoC5/cyfitter_cfg.c **** 		{ 8u, 0x03u, 0x23u, (uint16)(uint32)(0u), (uint16)(CYREG_PHUB_CFGMEM2_CFG0) },	/* TD 2 */
 517:Generated_Source\PSoC5/cyfitter_cfg.c **** 		{ 8u, 0x04u, 0x23u, (uint16)(uint32)(0u), (uint16)(CYREG_PHUB_CFGMEM5_CFG0) },	/* TD 3 */
 518:Generated_Source\PSoC5/cyfitter_cfg.c **** 		{ 8u, 0x05u, 0x23u, (uint16)(uint32)(0u), (uint16)(CYREG_PHUB_CFGMEM6_CFG0) },	/* TD 4 */
 519:Generated_Source\PSoC5/cyfitter_cfg.c **** 		{ 5u, 0x06u, 0x23u, (uint16)(uint32)(0u), (uint16)(CYREG_PHUB_CH1_BASIC_CFG) },	/* TD 5 */
 520:Generated_Source\PSoC5/cyfitter_cfg.c **** 		{ 5u, 0x07u, 0x23u, (uint16)(uint32)(0u), (uint16)(CYREG_PHUB_CH2_BASIC_CFG) },	/* TD 6 */
 521:Generated_Source\PSoC5/cyfitter_cfg.c **** 		{ 5u, 0x08u, 0x23u, (uint16)(uint32)(0u), (uint16)(CYREG_PHUB_CH5_BASIC_CFG) },	/* TD 7 */
 522:Generated_Source\PSoC5/cyfitter_cfg.c **** 		{ 5u, 0xFEu, 0x23u, (uint16)(uint32)(0u), (uint16)(CYREG_PHUB_CH6_BASIC_CFG) },	/* TD 8 */
 523:Generated_Source\PSoC5/cyfitter_cfg.c **** 		{ 25u, 0x0Au, 0x22u, (uint16)(uint32)(0u), (uint16)(CYREG_I2C_XCFG) },	/* TD 9 */
 524:Generated_Source\PSoC5/cyfitter_cfg.c **** 		{ 48u, 0xFEu, 0x22u, (uint16)(uint32)(0u), (uint16)(CYREG_PRT4_DR) },	/* TD 10 */
 525:Generated_Source\PSoC5/cyfitter_cfg.c **** 		{ 384u, 0xFEu, 0x22u, (uint16)(uint32)(0u), (uint16)(CYDEV_UCFG_B0_P0_U0_BASE) },	/* TD 11 */
 526:Generated_Source\PSoC5/cyfitter_cfg.c **** 		{ 7u, 0x0Du, 0x23u, (uint16)(uint32)(0u), (uint16)(CYDEV_PRTDSI_PRT0_BASE) },	/* TD 12 */
 527:Generated_Source\PSoC5/cyfitter_cfg.c **** 		{ 7u, 0x0Eu, 0x23u, (uint16)(uint32)(0u), (uint16)(CYDEV_PRTDSI_PRT1_BASE) },	/* TD 13 */
 528:Generated_Source\PSoC5/cyfitter_cfg.c **** 		{ 7u, 0x0Fu, 0x23u, (uint16)(uint32)(0u), (uint16)(CYDEV_PRTDSI_PRT2_BASE) },	/* TD 14 */
 529:Generated_Source\PSoC5/cyfitter_cfg.c **** 		{ 7u, 0x10u, 0x23u, (uint16)(uint32)(0u), (uint16)(CYDEV_PRTDSI_PRT3_BASE) },	/* TD 15 */
 530:Generated_Source\PSoC5/cyfitter_cfg.c **** 		{ 6u, 0x11u, 0x23u, (uint16)(uint32)(0u), (uint16)(CYDEV_PRTDSI_PRT12_BASE) },	/* TD 16 */
 531:Generated_Source\PSoC5/cyfitter_cfg.c **** 		{ 8u, 0x12u, 0x23u, (uint16)(uint32)(0u), (uint16)(CYDEV_PICU_INTTYPE_PICU12_BASE) },	/* TD 17 */
 532:Generated_Source\PSoC5/cyfitter_cfg.c **** 		{ 7u, 0x13u, 0x23u, (uint16)(uint32)(0u), (uint16)(CYDEV_PRTDSI_PRT15_BASE) },	/* TD 18 */
 533:Generated_Source\PSoC5/cyfitter_cfg.c **** 		{ 8u, 0x14u, 0x23u, (uint16)(uint32)(0u), (uint16)(CYDEV_PICU_INTTYPE_PICU15_BASE) },	/* TD 19 */
 534:Generated_Source\PSoC5/cyfitter_cfg.c **** 		{ 8u, 0x15u, 0x23u, (uint16)(uint32)(0u), (uint16)(CYREG_SAR1_SW0) },	/* TD 20 */
ARM GAS  C:\Users\JEFFSN~1\AppData\Local\Temp\cc8Xq6Yn.s 			page 23


 535:Generated_Source\PSoC5/cyfitter_cfg.c **** 		{ 64u, 0x16u, 0x23u, (uint16)(uint32)(0u), (uint16)(CYDEV_UWRK_UWRK8_B0_BASE) },	/* TD 21 */
 536:Generated_Source\PSoC5/cyfitter_cfg.c **** 		{ 32u, 0x17u, 0x23u, (uint16)(uint32)(0u), (uint16)(CYDEV_UWRK_UWRK8_B0_BASE + 0x00000070u) },	/*
 537:Generated_Source\PSoC5/cyfitter_cfg.c **** 		{ 64u, 0x18u, 0x23u, (uint16)(uint32)(0u), (uint16)(CYDEV_UWRK_UWRK8_B1_BASE) },	/* TD 23 */
 538:Generated_Source\PSoC5/cyfitter_cfg.c **** 		{ 32u, 0xFEu, 0x23u, (uint16)(uint32)(0u), (uint16)(CYDEV_UWRK_UWRK8_B1_BASE + 0x00000070u) },	/*
 539:Generated_Source\PSoC5/cyfitter_cfg.c **** 		{ 8u, 0x1Au, 0x23u, (uint16)(uint32)(0u), (uint16)(CYREG_IDMUX_IRQ_CTL0) },	/* TD 25 */
 540:Generated_Source\PSoC5/cyfitter_cfg.c **** 		{ 128u, 0x1Bu, 0x23u, (uint16)(uint32)(0u), (uint16)(CYDEV_UCFG_B0_P1_U0_BASE) },	/* TD 26 */
 541:Generated_Source\PSoC5/cyfitter_cfg.c **** 		{ 128u, 0x1Cu, 0x23u, (uint16)(uint32)(0u), (uint16)(CYDEV_UCFG_B0_P1_U1_BASE) },	/* TD 27 */
 542:Generated_Source\PSoC5/cyfitter_cfg.c **** 		{ 128u, 0x1Du, 0x23u, (uint16)(uint32)(0u), (uint16)(CYDEV_UCFG_B0_P2_U0_BASE) },	/* TD 28 */
 543:Generated_Source\PSoC5/cyfitter_cfg.c **** 		{ 128u, 0x1Eu, 0x23u, (uint16)(uint32)(0u), (uint16)(CYDEV_UCFG_B0_P2_U1_BASE) },	/* TD 29 */
 544:Generated_Source\PSoC5/cyfitter_cfg.c **** 		{ 128u, 0x1Fu, 0x23u, (uint16)(uint32)(0u), (uint16)(CYDEV_UCFG_B0_P3_U0_BASE) },	/* TD 30 */
 545:Generated_Source\PSoC5/cyfitter_cfg.c **** 		{ 128u, 0x20u, 0x23u, (uint16)(uint32)(0u), (uint16)(CYDEV_UCFG_B0_P3_U1_BASE) },	/* TD 31 */
 546:Generated_Source\PSoC5/cyfitter_cfg.c **** 		{ 128u, 0x21u, 0x23u, (uint16)(uint32)(0u), (uint16)(CYDEV_UCFG_B0_P4_U0_BASE) },	/* TD 32 */
 547:Generated_Source\PSoC5/cyfitter_cfg.c **** 		{ 128u, 0x22u, 0x23u, (uint16)(uint32)(0u), (uint16)(CYDEV_UCFG_B0_P4_U1_BASE) },	/* TD 33 */
 548:Generated_Source\PSoC5/cyfitter_cfg.c **** 		{ 128u, 0x23u, 0x23u, (uint16)(uint32)(0u), (uint16)(CYDEV_UCFG_B0_P5_U0_BASE) },	/* TD 34 */
 549:Generated_Source\PSoC5/cyfitter_cfg.c **** 		{ 128u, 0x24u, 0x23u, (uint16)(uint32)(0u), (uint16)(CYDEV_UCFG_B0_P5_U1_BASE) },	/* TD 35 */
 550:Generated_Source\PSoC5/cyfitter_cfg.c **** 		{ 128u, 0x25u, 0x23u, (uint16)(uint32)(0u), (uint16)(CYDEV_UCFG_B0_P6_U0_BASE) },	/* TD 36 */
 551:Generated_Source\PSoC5/cyfitter_cfg.c **** 		{ 128u, 0x26u, 0x23u, (uint16)(uint32)(0u), (uint16)(CYDEV_UCFG_B0_P6_U1_BASE) },	/* TD 37 */
 552:Generated_Source\PSoC5/cyfitter_cfg.c **** 		{ 128u, 0x27u, 0x23u, (uint16)(uint32)(0u), (uint16)(CYDEV_UCFG_B0_P7_U0_BASE) },	/* TD 38 */
 553:Generated_Source\PSoC5/cyfitter_cfg.c **** 		{ 128u, 0x28u, 0x23u, (uint16)(uint32)(0u), (uint16)(CYDEV_UCFG_B0_P7_U1_BASE) },	/* TD 39 */
 554:Generated_Source\PSoC5/cyfitter_cfg.c **** 		{ 128u, 0x29u, 0x23u, (uint16)(uint32)(0u), (uint16)(CYDEV_UCFG_B1_P2_U0_BASE) },	/* TD 40 */
 555:Generated_Source\PSoC5/cyfitter_cfg.c **** 		{ 128u, 0x2Au, 0x23u, (uint16)(uint32)(0u), (uint16)(CYDEV_UCFG_B1_P2_U1_BASE) },	/* TD 41 */
 556:Generated_Source\PSoC5/cyfitter_cfg.c **** 		{ 128u, 0x2Bu, 0x23u, (uint16)(uint32)(0u), (uint16)(CYDEV_UCFG_B1_P3_U0_BASE) },	/* TD 42 */
 557:Generated_Source\PSoC5/cyfitter_cfg.c **** 		{ 128u, 0x2Cu, 0x23u, (uint16)(uint32)(0u), (uint16)(CYDEV_UCFG_B1_P3_U1_BASE) },	/* TD 43 */
 558:Generated_Source\PSoC5/cyfitter_cfg.c **** 		{ 128u, 0x2Du, 0x23u, (uint16)(uint32)(0u), (uint16)(CYDEV_UCFG_B1_P4_U0_BASE) },	/* TD 44 */
 559:Generated_Source\PSoC5/cyfitter_cfg.c **** 		{ 128u, 0x2Eu, 0x23u, (uint16)(uint32)(0u), (uint16)(CYDEV_UCFG_B1_P4_U1_BASE) },	/* TD 45 */
 560:Generated_Source\PSoC5/cyfitter_cfg.c **** 		{ 128u, 0x2Fu, 0x23u, (uint16)(uint32)(0u), (uint16)(CYDEV_UCFG_B1_P5_U0_BASE) },	/* TD 46 */
 561:Generated_Source\PSoC5/cyfitter_cfg.c **** 		{ 128u, 0x30u, 0x23u, (uint16)(uint32)(0u), (uint16)(CYDEV_UCFG_B1_P5_U1_BASE) },	/* TD 47 */
 562:Generated_Source\PSoC5/cyfitter_cfg.c **** 		{ 16u, 0x31u, 0x23u, (uint16)(uint32)(0u), (uint16)(CYREG_BCTL1_MDCLK_EN) },	/* TD 48 */
 563:Generated_Source\PSoC5/cyfitter_cfg.c **** 		{ 16u, 0x32u, 0x23u, (uint16)(uint32)(0u), (uint16)(CYREG_BCTL0_MDCLK_EN) },	/* TD 49 */
 564:Generated_Source\PSoC5/cyfitter_cfg.c **** 		{ 128u, 0x33u, 0x23u, (uint16)(uint32)(0u), (uint16)(CYDEV_UCFG_DSI13_BASE) },	/* TD 50 */
 565:Generated_Source\PSoC5/cyfitter_cfg.c **** 		{ 128u, 0x34u, 0x23u, (uint16)(uint32)(0u), (uint16)(CYDEV_UCFG_DSI13_BASE + 0x00000080u) },	/* T
 566:Generated_Source\PSoC5/cyfitter_cfg.c **** 		{ 128u, 0x35u, 0x23u, (uint16)(uint32)(0u), (uint16)(CYDEV_UCFG_DSI12_BASE) },	/* TD 52 */
 567:Generated_Source\PSoC5/cyfitter_cfg.c **** 		{ 128u, 0x36u, 0x23u, (uint16)(uint32)(0u), (uint16)(CYDEV_UCFG_DSI12_BASE + 0x00000080u) },	/* T
 568:Generated_Source\PSoC5/cyfitter_cfg.c **** 		{ 128u, 0x37u, 0x23u, (uint16)(uint32)(0u), (uint16)(CYDEV_UCFG_DSI7_BASE) },	/* TD 54 */
 569:Generated_Source\PSoC5/cyfitter_cfg.c **** 		{ 128u, 0x38u, 0x23u, (uint16)(uint32)(0u), (uint16)(CYDEV_UCFG_DSI7_BASE + 0x00000080u) },	/* TD
 570:Generated_Source\PSoC5/cyfitter_cfg.c **** 		{ 128u, 0x39u, 0x23u, (uint16)(uint32)(0u), (uint16)(CYDEV_UCFG_DSI6_BASE) },	/* TD 56 */
 571:Generated_Source\PSoC5/cyfitter_cfg.c **** 		{ 128u, 0x3Au, 0x23u, (uint16)(uint32)(0u), (uint16)(CYDEV_UCFG_DSI6_BASE + 0x00000080u) },	/* TD
 572:Generated_Source\PSoC5/cyfitter_cfg.c **** 		{ 128u, 0x3Bu, 0x23u, (uint16)(uint32)(0u), (uint16)(CYDEV_UCFG_DSI5_BASE) },	/* TD 58 */
 573:Generated_Source\PSoC5/cyfitter_cfg.c **** 		{ 128u, 0x3Cu, 0x23u, (uint16)(uint32)(0u), (uint16)(CYDEV_UCFG_DSI5_BASE + 0x00000080u) },	/* TD
 574:Generated_Source\PSoC5/cyfitter_cfg.c **** 		{ 128u, 0x3Du, 0x23u, (uint16)(uint32)(0u), (uint16)(CYDEV_UCFG_DSI4_BASE) },	/* TD 60 */
 575:Generated_Source\PSoC5/cyfitter_cfg.c **** 		{ 128u, 0x3Eu, 0x23u, (uint16)(uint32)(0u), (uint16)(CYDEV_UCFG_DSI4_BASE + 0x00000080u) },	/* TD
 576:Generated_Source\PSoC5/cyfitter_cfg.c **** 		{ 128u, 0x3Fu, 0x23u, (uint16)(uint32)(0u), (uint16)(CYDEV_UCFG_B1_P5_ROUTE_BASE) },	/* TD 62 */
 577:Generated_Source\PSoC5/cyfitter_cfg.c **** 		{ 128u, 0x40u, 0x23u, (uint16)(uint32)(0u), (uint16)(CYDEV_UCFG_B1_P5_ROUTE_BASE + 0x00000080u) }
 578:Generated_Source\PSoC5/cyfitter_cfg.c **** 		{ 128u, 0x41u, 0x23u, (uint16)(uint32)(0u), (uint16)(CYDEV_UCFG_B1_P2_ROUTE_BASE) },	/* TD 64 */
 579:Generated_Source\PSoC5/cyfitter_cfg.c **** 		{ 128u, 0x42u, 0x23u, (uint16)(uint32)(0u), (uint16)(CYDEV_UCFG_B1_P2_ROUTE_BASE + 0x00000080u) }
 580:Generated_Source\PSoC5/cyfitter_cfg.c **** 		{ 128u, 0x43u, 0x23u, (uint16)(uint32)(0u), (uint16)(CYDEV_UCFG_B1_P4_ROUTE_BASE) },	/* TD 66 */
 581:Generated_Source\PSoC5/cyfitter_cfg.c **** 		{ 128u, 0x44u, 0x23u, (uint16)(uint32)(0u), (uint16)(CYDEV_UCFG_B1_P4_ROUTE_BASE + 0x00000080u) }
 582:Generated_Source\PSoC5/cyfitter_cfg.c **** 		{ 128u, 0x45u, 0x23u, (uint16)(uint32)(0u), (uint16)(CYDEV_UCFG_B1_P3_ROUTE_BASE) },	/* TD 68 */
 583:Generated_Source\PSoC5/cyfitter_cfg.c **** 		{ 128u, 0x46u, 0x23u, (uint16)(uint32)(0u), (uint16)(CYDEV_UCFG_B1_P3_ROUTE_BASE + 0x00000080u) }
 584:Generated_Source\PSoC5/cyfitter_cfg.c **** 		{ 128u, 0x47u, 0x23u, (uint16)(uint32)(0u), (uint16)(CYDEV_UCFG_B0_P4_ROUTE_BASE) },	/* TD 70 */
 585:Generated_Source\PSoC5/cyfitter_cfg.c **** 		{ 128u, 0x48u, 0x23u, (uint16)(uint32)(0u), (uint16)(CYDEV_UCFG_B0_P4_ROUTE_BASE + 0x00000080u) }
 586:Generated_Source\PSoC5/cyfitter_cfg.c **** 		{ 128u, 0x49u, 0x23u, (uint16)(uint32)(0u), (uint16)(CYDEV_UCFG_B0_P3_ROUTE_BASE) },	/* TD 72 */
 587:Generated_Source\PSoC5/cyfitter_cfg.c **** 		{ 128u, 0x4Au, 0x23u, (uint16)(uint32)(0u), (uint16)(CYDEV_UCFG_B0_P3_ROUTE_BASE + 0x00000080u) }
 588:Generated_Source\PSoC5/cyfitter_cfg.c **** 		{ 128u, 0x4Bu, 0x23u, (uint16)(uint32)(0u), (uint16)(CYDEV_UCFG_B0_P5_ROUTE_BASE) },	/* TD 74 */
 589:Generated_Source\PSoC5/cyfitter_cfg.c **** 		{ 128u, 0x4Cu, 0x23u, (uint16)(uint32)(0u), (uint16)(CYDEV_UCFG_B0_P5_ROUTE_BASE + 0x00000080u) }
 590:Generated_Source\PSoC5/cyfitter_cfg.c **** 		{ 128u, 0x4Du, 0x23u, (uint16)(uint32)(0u), (uint16)(CYDEV_UCFG_B0_P2_ROUTE_BASE) },	/* TD 76 */
 591:Generated_Source\PSoC5/cyfitter_cfg.c **** 		{ 128u, 0x4Eu, 0x23u, (uint16)(uint32)(0u), (uint16)(CYDEV_UCFG_B0_P2_ROUTE_BASE + 0x00000080u) }
ARM GAS  C:\Users\JEFFSN~1\AppData\Local\Temp\cc8Xq6Yn.s 			page 24


 592:Generated_Source\PSoC5/cyfitter_cfg.c **** 		{ 128u, 0x4Fu, 0x23u, (uint16)(uint32)(0u), (uint16)(CYDEV_UCFG_B0_P6_ROUTE_BASE) },	/* TD 78 */
 593:Generated_Source\PSoC5/cyfitter_cfg.c **** 		{ 128u, 0x50u, 0x23u, (uint16)(uint32)(0u), (uint16)(CYDEV_UCFG_B0_P6_ROUTE_BASE + 0x00000080u) }
 594:Generated_Source\PSoC5/cyfitter_cfg.c **** 		{ 128u, 0x51u, 0x23u, (uint16)(uint32)(0u), (uint16)(CYDEV_UCFG_B0_P1_ROUTE_BASE) },	/* TD 80 */
 595:Generated_Source\PSoC5/cyfitter_cfg.c **** 		{ 128u, 0x52u, 0x23u, (uint16)(uint32)(0u), (uint16)(CYDEV_UCFG_B0_P1_ROUTE_BASE + 0x00000080u) }
 596:Generated_Source\PSoC5/cyfitter_cfg.c **** 		{ 128u, 0x53u, 0x23u, (uint16)(uint32)(0u), (uint16)(CYDEV_UCFG_B0_P7_ROUTE_BASE) },	/* TD 82 */
 597:Generated_Source\PSoC5/cyfitter_cfg.c **** 		{ 128u, 0x54u, 0x23u, (uint16)(uint32)(0u), (uint16)(CYDEV_UCFG_B0_P7_ROUTE_BASE + 0x00000080u) }
 598:Generated_Source\PSoC5/cyfitter_cfg.c **** 		{ 128u, 0x55u, 0x23u, (uint16)(uint32)(0u), (uint16)(CYDEV_UCFG_B0_P0_ROUTE_BASE + 0x00000080u) }
 599:Generated_Source\PSoC5/cyfitter_cfg.c **** 		{ 128u, 0x56u, 0x23u, (uint16)(uint32)(0u), (uint16)(CYDEV_UCFG_DSI9_BASE) },	/* TD 85 */
 600:Generated_Source\PSoC5/cyfitter_cfg.c **** 		{ 128u, 0x57u, 0x23u, (uint16)(uint32)(0u), (uint16)(CYDEV_UCFG_DSI9_BASE + 0x00000080u) },	/* TD
 601:Generated_Source\PSoC5/cyfitter_cfg.c **** 		{ 128u, 0x58u, 0x23u, (uint16)(uint32)(0u), (uint16)(CYDEV_UCFG_DSI8_BASE) },	/* TD 87 */
 602:Generated_Source\PSoC5/cyfitter_cfg.c **** 		{ 128u, 0x59u, 0x23u, (uint16)(uint32)(0u), (uint16)(CYDEV_UCFG_DSI8_BASE + 0x00000080u) },	/* TD
 603:Generated_Source\PSoC5/cyfitter_cfg.c **** 		{ 128u, 0x5Au, 0x23u, (uint16)(uint32)(0u), (uint16)(CYDEV_UCFG_DSI3_BASE) },	/* TD 89 */
 604:Generated_Source\PSoC5/cyfitter_cfg.c **** 		{ 128u, 0x5Bu, 0x23u, (uint16)(uint32)(0u), (uint16)(CYDEV_UCFG_DSI3_BASE + 0x00000080u) },	/* TD
 605:Generated_Source\PSoC5/cyfitter_cfg.c **** 		{ 128u, 0x5Cu, 0x23u, (uint16)(uint32)(0u), (uint16)(CYDEV_UCFG_DSI2_BASE) },	/* TD 91 */
 606:Generated_Source\PSoC5/cyfitter_cfg.c **** 		{ 128u, 0x5Du, 0x23u, (uint16)(uint32)(0u), (uint16)(CYDEV_UCFG_DSI2_BASE + 0x00000080u) },	/* TD
 607:Generated_Source\PSoC5/cyfitter_cfg.c **** 		{ 128u, 0x5Eu, 0x23u, (uint16)(uint32)(0u), (uint16)(CYDEV_UCFG_DSI1_BASE) },	/* TD 93 */
 608:Generated_Source\PSoC5/cyfitter_cfg.c **** 		{ 128u, 0x5Fu, 0x23u, (uint16)(uint32)(0u), (uint16)(CYDEV_UCFG_DSI1_BASE + 0x00000080u) },	/* TD
 609:Generated_Source\PSoC5/cyfitter_cfg.c **** 		{ 128u, 0x60u, 0x23u, (uint16)(uint32)(0u), (uint16)(CYDEV_UCFG_DSI0_BASE) },	/* TD 95 */
 610:Generated_Source\PSoC5/cyfitter_cfg.c **** 		{ 128u, 0xFEu, 0x23u, (uint16)(uint32)(0u), (uint16)(CYDEV_UCFG_DSI0_BASE + 0x00000080u) },	/* TD
 611:Generated_Source\PSoC5/cyfitter_cfg.c **** 	};
 612:Generated_Source\PSoC5/cyfitter_cfg.c **** 
 613:Generated_Source\PSoC5/cyfitter_cfg.c **** 	/* Source addresses can be relocated, but only when in 32bit addresses.
 614:Generated_Source\PSoC5/cyfitter_cfg.c **** 	   Because the standard TD table only has 16bit addresses, we generate a
 615:Generated_Source\PSoC5/cyfitter_cfg.c **** 	   separate table for the source addresses that does use 32bit addresses. This
 616:Generated_Source\PSoC5/cyfitter_cfg.c **** 	   table will be re-merged with the corresponding CFG_TD_LIST table during
 617:Generated_Source\PSoC5/cyfitter_cfg.c **** 	   initialization. */
 618:Generated_Source\PSoC5/cyfitter_cfg.c **** 	static const void * const CFG_TD_ADDR0[] = {
 619:Generated_Source\PSoC5/cyfitter_cfg.c **** 		(const void *)(CH1_ADDR_DATA0),	/* TD 1 */
 620:Generated_Source\PSoC5/cyfitter_cfg.c **** 		(const void *)(CH2_ADDR_DATA0),	/* TD 2 */
 621:Generated_Source\PSoC5/cyfitter_cfg.c **** 		(const void *)(CH5_ADDR_DATA0),	/* TD 3 */
 622:Generated_Source\PSoC5/cyfitter_cfg.c **** 		(const void *)(CH6_ADDR_DATA0),	/* TD 4 */
 623:Generated_Source\PSoC5/cyfitter_cfg.c **** 		(const void *)(DMA_TD_START_CMD),	/* TD 5 */
 624:Generated_Source\PSoC5/cyfitter_cfg.c **** 		(const void *)(DMA_TD_START_CMD),	/* TD 6 */
 625:Generated_Source\PSoC5/cyfitter_cfg.c **** 		(const void *)(DMA_TD_START_CMD),	/* TD 7 */
 626:Generated_Source\PSoC5/cyfitter_cfg.c **** 		(const void *)(DMA_TD_START_CMD),	/* TD 8 */
 627:Generated_Source\PSoC5/cyfitter_cfg.c **** 		(const void *)(&DMA_ZERO_VAL),	/* TD 9 */
 628:Generated_Source\PSoC5/cyfitter_cfg.c **** 		(const void *)(&DMA_ZERO_VAL),	/* TD 10 */
 629:Generated_Source\PSoC5/cyfitter_cfg.c **** 		(const void *)(&DMA_ZERO_VAL),	/* TD 11 */
 630:Generated_Source\PSoC5/cyfitter_cfg.c **** 		(const void *)(BS_IOPORT_0_VAL),	/* TD 12 */
 631:Generated_Source\PSoC5/cyfitter_cfg.c **** 		(const void *)(BS_IOPORT_1_VAL),	/* TD 13 */
 632:Generated_Source\PSoC5/cyfitter_cfg.c **** 		(const void *)(BS_IOPORT_2_VAL),	/* TD 14 */
 633:Generated_Source\PSoC5/cyfitter_cfg.c **** 		(const void *)(BS_IOPORT_3_VAL),	/* TD 15 */
 634:Generated_Source\PSoC5/cyfitter_cfg.c **** 		(const void *)(BS_IOPORT_7_VAL),	/* TD 16 */
 635:Generated_Source\PSoC5/cyfitter_cfg.c **** 		(const void *)(BS_PICU_7_VAL),	/* TD 17 */
 636:Generated_Source\PSoC5/cyfitter_cfg.c **** 		(const void *)(BS_IOPORT_8_VAL),	/* TD 18 */
 637:Generated_Source\PSoC5/cyfitter_cfg.c **** 		(const void *)(BS_PICU_8_VAL),	/* TD 19 */
 638:Generated_Source\PSoC5/cyfitter_cfg.c **** 		(const void *)(BS_SAR1_VAL),	/* TD 20 */
 639:Generated_Source\PSoC5/cyfitter_cfg.c **** 		(const void *)(BS_UWRK_B0_WRK_DP_BITS_VAL),	/* TD 21 */
 640:Generated_Source\PSoC5/cyfitter_cfg.c **** 		(const void *)(BS_UWRK_B0_WRK_STATCTL_BITS_VAL),	/* TD 22 */
 641:Generated_Source\PSoC5/cyfitter_cfg.c **** 		(const void *)(BS_UWRK_B1_WRK_DP_BITS_VAL),	/* TD 23 */
 642:Generated_Source\PSoC5/cyfitter_cfg.c **** 		(const void *)(BS_UWRK_B1_WRK_STATCTL_BITS_VAL),	/* TD 24 */
 643:Generated_Source\PSoC5/cyfitter_cfg.c **** 		(const void *)(BS_IDMUX_IRQ_VAL),	/* TD 25 */
 644:Generated_Source\PSoC5/cyfitter_cfg.c **** 		(const void *)(BS_UDB_1_4_1_CONFIG_VAL),	/* TD 26 */
 645:Generated_Source\PSoC5/cyfitter_cfg.c **** 		(const void *)(BS_UDB_1_4_0_CONFIG_VAL),	/* TD 27 */
 646:Generated_Source\PSoC5/cyfitter_cfg.c **** 		(const void *)(BS_UDB_1_3_0_CONFIG_VAL),	/* TD 28 */
 647:Generated_Source\PSoC5/cyfitter_cfg.c **** 		(const void *)(BS_UDB_1_3_1_CONFIG_VAL),	/* TD 29 */
 648:Generated_Source\PSoC5/cyfitter_cfg.c **** 		(const void *)(BS_UDB_1_2_1_CONFIG_VAL),	/* TD 30 */
ARM GAS  C:\Users\JEFFSN~1\AppData\Local\Temp\cc8Xq6Yn.s 			page 25


 649:Generated_Source\PSoC5/cyfitter_cfg.c **** 		(const void *)(BS_UDB_1_2_0_CONFIG_VAL),	/* TD 31 */
 650:Generated_Source\PSoC5/cyfitter_cfg.c **** 		(const void *)(BS_UDB_0_2_1_CONFIG_VAL),	/* TD 32 */
 651:Generated_Source\PSoC5/cyfitter_cfg.c **** 		(const void *)(BS_UDB_0_2_0_CONFIG_VAL),	/* TD 33 */
 652:Generated_Source\PSoC5/cyfitter_cfg.c **** 		(const void *)(BS_UDB_0_3_0_CONFIG_VAL),	/* TD 34 */
 653:Generated_Source\PSoC5/cyfitter_cfg.c **** 		(const void *)(BS_UDB_0_3_1_CONFIG_VAL),	/* TD 35 */
 654:Generated_Source\PSoC5/cyfitter_cfg.c **** 		(const void *)(BS_UDB_0_4_1_CONFIG_VAL),	/* TD 36 */
 655:Generated_Source\PSoC5/cyfitter_cfg.c **** 		(const void *)(BS_UDB_0_4_0_CONFIG_VAL),	/* TD 37 */
 656:Generated_Source\PSoC5/cyfitter_cfg.c **** 		(const void *)(BS_UDB_0_5_0_CONFIG_VAL),	/* TD 38 */
 657:Generated_Source\PSoC5/cyfitter_cfg.c **** 		(const void *)(BS_UDB_0_5_1_CONFIG_VAL),	/* TD 39 */
 658:Generated_Source\PSoC5/cyfitter_cfg.c **** 		(const void *)(BS_UDB_1_0_0_CONFIG_VAL),	/* TD 40 */
 659:Generated_Source\PSoC5/cyfitter_cfg.c **** 		(const void *)(BS_UDB_1_0_1_CONFIG_VAL),	/* TD 41 */
 660:Generated_Source\PSoC5/cyfitter_cfg.c **** 		(const void *)(BS_UDB_1_1_1_CONFIG_VAL),	/* TD 42 */
 661:Generated_Source\PSoC5/cyfitter_cfg.c **** 		(const void *)(BS_UDB_1_1_0_CONFIG_VAL),	/* TD 43 */
 662:Generated_Source\PSoC5/cyfitter_cfg.c **** 		(const void *)(BS_UDB_0_1_1_CONFIG_VAL),	/* TD 44 */
 663:Generated_Source\PSoC5/cyfitter_cfg.c **** 		(const void *)(BS_UDB_0_1_0_CONFIG_VAL),	/* TD 45 */
 664:Generated_Source\PSoC5/cyfitter_cfg.c **** 		(const void *)(BS_UDB_0_0_0_CONFIG_VAL),	/* TD 46 */
 665:Generated_Source\PSoC5/cyfitter_cfg.c **** 		(const void *)(BS_UDB_0_0_1_CONFIG_VAL),	/* TD 47 */
 666:Generated_Source\PSoC5/cyfitter_cfg.c **** 		(const void *)(BS_UCFG_BCTL1_VAL),	/* TD 48 */
 667:Generated_Source\PSoC5/cyfitter_cfg.c **** 		(const void *)(BS_UCFG_BCTL0_VAL),	/* TD 49 */
 668:Generated_Source\PSoC5/cyfitter_cfg.c **** 		(const void *)(BS_DSISWITCH_0_0_VAL),	/* TD 50 */
 669:Generated_Source\PSoC5/cyfitter_cfg.c **** 		(const void *)(BS_DSI0_0_HV_ROUTING_VAL),	/* TD 51 */
 670:Generated_Source\PSoC5/cyfitter_cfg.c **** 		(const void *)(BS_DSISWITCH_0_1_VAL),	/* TD 52 */
 671:Generated_Source\PSoC5/cyfitter_cfg.c **** 		(const void *)(BS_DSI0_1_HV_ROUTING_VAL),	/* TD 53 */
 672:Generated_Source\PSoC5/cyfitter_cfg.c **** 		(const void *)(BS_DSISWITCH_0_2_VAL),	/* TD 54 */
 673:Generated_Source\PSoC5/cyfitter_cfg.c **** 		(const void *)(BS_DSI0_2_HV_ROUTING_VAL),	/* TD 55 */
 674:Generated_Source\PSoC5/cyfitter_cfg.c **** 		(const void *)(BS_DSISWITCH_0_3_VAL),	/* TD 56 */
 675:Generated_Source\PSoC5/cyfitter_cfg.c **** 		(const void *)(BS_DSI0_3_HV_ROUTING_VAL),	/* TD 57 */
 676:Generated_Source\PSoC5/cyfitter_cfg.c **** 		(const void *)(BS_DSISWITCH_0_4_VAL),	/* TD 58 */
 677:Generated_Source\PSoC5/cyfitter_cfg.c **** 		(const void *)(BS_DSI0_4_HV_ROUTING_VAL),	/* TD 59 */
 678:Generated_Source\PSoC5/cyfitter_cfg.c **** 		(const void *)(BS_DSISWITCH_0_5_VAL),	/* TD 60 */
 679:Generated_Source\PSoC5/cyfitter_cfg.c **** 		(const void *)(BS_DSI0_5_HV_ROUTING_VAL),	/* TD 61 */
 680:Generated_Source\PSoC5/cyfitter_cfg.c **** 		(const void *)(BS_UDBSWITCH_0_0_VAL),	/* TD 62 */
 681:Generated_Source\PSoC5/cyfitter_cfg.c **** 		(const void *)(BS_UDB_1_0_HV_ROUTING_VAL),	/* TD 63 */
 682:Generated_Source\PSoC5/cyfitter_cfg.c **** 		(const void *)(BS_UDBSWITCH_1_0_VAL),	/* TD 64 */
 683:Generated_Source\PSoC5/cyfitter_cfg.c **** 		(const void *)(BS_UDB_2_0_HV_ROUTING_VAL),	/* TD 65 */
 684:Generated_Source\PSoC5/cyfitter_cfg.c **** 		(const void *)(BS_UDBSWITCH_0_1_VAL),	/* TD 66 */
 685:Generated_Source\PSoC5/cyfitter_cfg.c **** 		(const void *)(BS_UDB_1_1_HV_ROUTING_VAL),	/* TD 67 */
 686:Generated_Source\PSoC5/cyfitter_cfg.c **** 		(const void *)(BS_UDBSWITCH_1_1_VAL),	/* TD 68 */
 687:Generated_Source\PSoC5/cyfitter_cfg.c **** 		(const void *)(BS_UDB_2_1_HV_ROUTING_VAL),	/* TD 69 */
 688:Generated_Source\PSoC5/cyfitter_cfg.c **** 		(const void *)(BS_UDBSWITCH_0_2_VAL),	/* TD 70 */
 689:Generated_Source\PSoC5/cyfitter_cfg.c **** 		(const void *)(BS_UDB_1_2_HV_ROUTING_VAL),	/* TD 71 */
 690:Generated_Source\PSoC5/cyfitter_cfg.c **** 		(const void *)(BS_UDBSWITCH_1_2_VAL),	/* TD 72 */
 691:Generated_Source\PSoC5/cyfitter_cfg.c **** 		(const void *)(BS_UDB_2_2_HV_ROUTING_VAL),	/* TD 73 */
 692:Generated_Source\PSoC5/cyfitter_cfg.c **** 		(const void *)(BS_UDBSWITCH_0_3_VAL),	/* TD 74 */
 693:Generated_Source\PSoC5/cyfitter_cfg.c **** 		(const void *)(BS_UDB_1_3_HV_ROUTING_VAL),	/* TD 75 */
 694:Generated_Source\PSoC5/cyfitter_cfg.c **** 		(const void *)(BS_UDBSWITCH_1_3_VAL),	/* TD 76 */
 695:Generated_Source\PSoC5/cyfitter_cfg.c **** 		(const void *)(BS_UDB_2_3_HV_ROUTING_VAL),	/* TD 77 */
 696:Generated_Source\PSoC5/cyfitter_cfg.c **** 		(const void *)(BS_UDBSWITCH_0_4_VAL),	/* TD 78 */
 697:Generated_Source\PSoC5/cyfitter_cfg.c **** 		(const void *)(BS_UDB_1_4_HV_ROUTING_VAL),	/* TD 79 */
 698:Generated_Source\PSoC5/cyfitter_cfg.c **** 		(const void *)(BS_UDBSWITCH_1_4_VAL),	/* TD 80 */
 699:Generated_Source\PSoC5/cyfitter_cfg.c **** 		(const void *)(BS_UDB_2_4_HV_ROUTING_VAL),	/* TD 81 */
 700:Generated_Source\PSoC5/cyfitter_cfg.c **** 		(const void *)(BS_UDBSWITCH_0_5_VAL),	/* TD 82 */
 701:Generated_Source\PSoC5/cyfitter_cfg.c **** 		(const void *)(BS_UDB_1_5_HV_ROUTING_VAL),	/* TD 83 */
 702:Generated_Source\PSoC5/cyfitter_cfg.c **** 		(const void *)(BS_UDB_2_5_HV_ROUTING_VAL),	/* TD 84 */
 703:Generated_Source\PSoC5/cyfitter_cfg.c **** 		(const void *)(BS_DSISWITCH_1_0_VAL),	/* TD 85 */
 704:Generated_Source\PSoC5/cyfitter_cfg.c **** 		(const void *)(BS_DSI3_0_HV_ROUTING_VAL),	/* TD 86 */
 705:Generated_Source\PSoC5/cyfitter_cfg.c **** 		(const void *)(BS_DSISWITCH_1_1_VAL),	/* TD 87 */
ARM GAS  C:\Users\JEFFSN~1\AppData\Local\Temp\cc8Xq6Yn.s 			page 26


 706:Generated_Source\PSoC5/cyfitter_cfg.c **** 		(const void *)(BS_DSI3_1_HV_ROUTING_VAL),	/* TD 88 */
 707:Generated_Source\PSoC5/cyfitter_cfg.c **** 		(const void *)(BS_DSISWITCH_1_2_VAL),	/* TD 89 */
 708:Generated_Source\PSoC5/cyfitter_cfg.c **** 		(const void *)(BS_DSI3_2_HV_ROUTING_VAL),	/* TD 90 */
 709:Generated_Source\PSoC5/cyfitter_cfg.c **** 		(const void *)(BS_DSISWITCH_1_3_VAL),	/* TD 91 */
 710:Generated_Source\PSoC5/cyfitter_cfg.c **** 		(const void *)(BS_DSI3_3_HV_ROUTING_VAL),	/* TD 92 */
 711:Generated_Source\PSoC5/cyfitter_cfg.c **** 		(const void *)(BS_DSISWITCH_1_4_VAL),	/* TD 93 */
 712:Generated_Source\PSoC5/cyfitter_cfg.c **** 		(const void *)(BS_DSI3_4_HV_ROUTING_VAL),	/* TD 94 */
 713:Generated_Source\PSoC5/cyfitter_cfg.c **** 		(const void *)(BS_DSISWITCH_1_5_VAL),	/* TD 95 */
 714:Generated_Source\PSoC5/cyfitter_cfg.c **** 		(const void *)(BS_DSI3_5_HV_ROUTING_VAL),	/* TD 96 */
 715:Generated_Source\PSoC5/cyfitter_cfg.c **** 	};
 716:Generated_Source\PSoC5/cyfitter_cfg.c **** 
 717:Generated_Source\PSoC5/cyfitter_cfg.c **** 
 718:Generated_Source\PSoC5/cyfitter_cfg.c **** 	uint32 i;
 719:Generated_Source\PSoC5/cyfitter_cfg.c **** 
 720:Generated_Source\PSoC5/cyfitter_cfg.c **** 	DMA_ZERO_VAL = 0u;
 721              		.loc 1 720 0
 722 0006 454B     		ldr	r3, .L15
 723 0008 0022     		movs	r2, #0
 724 000a 1A60     		str	r2, [r3]
 721:Generated_Source\PSoC5/cyfitter_cfg.c **** 	CY_SET_REG8((void CYXDATA *)CYREG_PHUB_CFGMEM0_CFG0, 0x10u);	/* set burstcnt */
 725              		.loc 1 721 0
 726 000c 444B     		ldr	r3, .L15+4
 727 000e 1022     		movs	r2, #16
 728 0010 1A70     		strb	r2, [r3]
 722:Generated_Source\PSoC5/cyfitter_cfg.c **** 	CY_SET_REG8((void CYXDATA *)CYREG_PHUB_CH0_BASIC_CFG, 0x01u);	/* enable ch0 */
 729              		.loc 1 722 0
 730 0012 444B     		ldr	r3, .L15+8
 731 0014 0122     		movs	r2, #1
 732 0016 1A70     		strb	r2, [r3]
 723:Generated_Source\PSoC5/cyfitter_cfg.c **** 	CY_SET_REG8((void CYXDATA *)(CYREG_PHUB_CH0_BASIC_STATUS+1u), 0x00u);	/* set first TD to 0 */
 733              		.loc 1 723 0
 734 0018 434B     		ldr	r3, .L15+12
 735 001a 0022     		movs	r2, #0
 736 001c 1A70     		strb	r2, [r3]
 724:Generated_Source\PSoC5/cyfitter_cfg.c **** 	CY_SET_REG16((void CYXDATA *)CYREG_PHUB_TDMEM0_ORIG_TD0, 96u*8u);	/* transfer size */
 737              		.loc 1 724 0
 738 001e 434B     		ldr	r3, .L15+16
 739 0020 4FF44072 		mov	r2, #768
 740 0024 1A80     		strh	r2, [r3]	@ movhi
 725:Generated_Source\PSoC5/cyfitter_cfg.c **** 	CY_SET_REG8((void CYXDATA *)(CYREG_PHUB_TDMEM0_ORIG_TD0+2u), 0x01u);	/* set next TD to 1 */
 741              		.loc 1 725 0
 742 0026 424B     		ldr	r3, .L15+20
 743 0028 0122     		movs	r2, #1
 744 002a 1A70     		strb	r2, [r3]
 726:Generated_Source\PSoC5/cyfitter_cfg.c **** 	CY_SET_REG8((void CYXDATA *)(CYREG_PHUB_TDMEM0_ORIG_TD0+3u), 0x03u);	/* set TD flags */
 745              		.loc 1 726 0
 746 002c 414B     		ldr	r3, .L15+24
 747 002e 0322     		movs	r2, #3
 748 0030 1A70     		strb	r2, [r3]
 727:Generated_Source\PSoC5/cyfitter_cfg.c **** 	CY_SET_REG16((void CYXDATA *)CYREG_PHUB_TDMEM0_ORIG_TD1, (uint16)((uint32)CFG_TD_LIST0 & 0x0000FFF
 749              		.loc 1 727 0
 750 0032 414B     		ldr	r3, .L15+28
 751 0034 414A     		ldr	r2, .L15+32
 752 0036 92B2     		uxth	r2, r2
 753 0038 1A80     		strh	r2, [r3]	@ movhi
 728:Generated_Source\PSoC5/cyfitter_cfg.c **** 	CY_SET_REG16((void CYXDATA *)(CYREG_PHUB_TDMEM0_ORIG_TD1+2u), CYDEV_PHUB_TDMEM1_BASE);	/* set td0'
 754              		.loc 1 728 0
ARM GAS  C:\Users\JEFFSN~1\AppData\Local\Temp\cc8Xq6Yn.s 			page 27


 755 003a 414B     		ldr	r3, .L15+36
 756 003c 47F60802 		movw	r2, #30728
 757 0040 1A80     		strh	r2, [r3]	@ movhi
 729:Generated_Source\PSoC5/cyfitter_cfg.c **** 	CY_SET_REG16((void CYXDATA *)CYREG_PHUB_CFGMEM0_CFG1, (uint16)(CYDEV_FLASH_BASE >> 16));	/* set ch
 758              		.loc 1 729 0
 759 0042 404B     		ldr	r3, .L15+40
 760 0044 0022     		movs	r2, #0
 761 0046 1A80     		strh	r2, [r3]	@ movhi
 730:Generated_Source\PSoC5/cyfitter_cfg.c **** 	CY_SET_REG16((void CYXDATA *)(CYREG_PHUB_CFGMEM0_CFG1+2u), (uint16)(CYDEV_PHUB_TDMEM1_BASE >> 16))
 762              		.loc 1 730 0
 763 0048 3F4B     		ldr	r3, .L15+44
 764 004a 4FF48042 		mov	r2, #16384
 765 004e 1A80     		strh	r2, [r3]	@ movhi
 731:Generated_Source\PSoC5/cyfitter_cfg.c **** 	CY_SET_REG8((void CYXDATA *)(CYREG_PHUB_CH1_BASIC_STATUS+1u), 0x09u);	/* ch1 first TD: 9 */
 766              		.loc 1 731 0
 767 0050 3E4B     		ldr	r3, .L15+48
 768 0052 0922     		movs	r2, #9
 769 0054 1A70     		strb	r2, [r3]
 732:Generated_Source\PSoC5/cyfitter_cfg.c **** 	CY_SET_REG8((void CYXDATA *)(CYREG_PHUB_CH2_BASIC_STATUS+1u), 0x0Bu);	/* ch2 first TD: 11 */
 770              		.loc 1 732 0
 771 0056 3E4B     		ldr	r3, .L15+52
 772 0058 0B22     		movs	r2, #11
 773 005a 1A70     		strb	r2, [r3]
 733:Generated_Source\PSoC5/cyfitter_cfg.c **** 	CY_SET_REG8((void CYXDATA *)(CYREG_PHUB_CH5_BASIC_STATUS+1u), 0x0Cu);	/* ch5 first TD: 12 */
 774              		.loc 1 733 0
 775 005c 3D4B     		ldr	r3, .L15+56
 776 005e 0C22     		movs	r2, #12
 777 0060 1A70     		strb	r2, [r3]
 734:Generated_Source\PSoC5/cyfitter_cfg.c **** 	CY_SET_REG8((void CYXDATA *)(CYREG_PHUB_CH6_BASIC_STATUS+1u), 0x19u);	/* ch6 first TD: 25 */
 778              		.loc 1 734 0
 779 0062 3D4B     		ldr	r3, .L15+60
 780 0064 1922     		movs	r2, #25
 781 0066 1A70     		strb	r2, [r3]
 735:Generated_Source\PSoC5/cyfitter_cfg.c **** 
 736:Generated_Source\PSoC5/cyfitter_cfg.c **** 	CY_CFG_MEMORY_BARRIER();
 782              		.loc 1 736 0
 783 0068 BFF35F8F 		dmb	sy
 737:Generated_Source\PSoC5/cyfitter_cfg.c **** 	CY_SET_REG8((void CYXDATA *)CYREG_PHUB_CH0_ACTION, 0x01u); /* cpu_req */
 784              		.loc 1 737 0
 785 006c 3B4B     		ldr	r3, .L15+64
 786 006e 0122     		movs	r2, #1
 787 0070 1A70     		strb	r2, [r3]
 738:Generated_Source\PSoC5/cyfitter_cfg.c **** 	CY_CFG_MEMORY_BARRIER();
 788              		.loc 1 738 0
 789 0072 BFF35F8F 		dmb	sy
 739:Generated_Source\PSoC5/cyfitter_cfg.c **** 
 740:Generated_Source\PSoC5/cyfitter_cfg.c **** 	/* Wait for TDs to be copied into TDMEM */
 741:Generated_Source\PSoC5/cyfitter_cfg.c **** 	while (CY_GET_REG16((void CYXDATA *)CYREG_PHUB_TDMEM0_ORIG_TD0) != 0u) { }
 790              		.loc 1 741 0
 791 0076 00BF     		nop
 792              	.L7:
 793              		.loc 1 741 0 is_stmt 0 discriminator 1
 794 0078 2C4B     		ldr	r3, .L15+16
 795 007a 1B88     		ldrh	r3, [r3]	@ movhi
 796 007c 9BB2     		uxth	r3, r3
 797 007e 002B     		cmp	r3, #0
 798 0080 FAD1     		bne	.L7
ARM GAS  C:\Users\JEFFSN~1\AppData\Local\Temp\cc8Xq6Yn.s 			page 28


 742:Generated_Source\PSoC5/cyfitter_cfg.c **** 
 743:Generated_Source\PSoC5/cyfitter_cfg.c **** 	/* Recombine TD source table (CFG_TD_ADDR0) with full TD table (CFG_TD_LIST0) */
 744:Generated_Source\PSoC5/cyfitter_cfg.c **** 	for (i = 0u; i < 96u; i++)
 799              		.loc 1 744 0 is_stmt 1
 800 0082 0023     		movs	r3, #0
 801 0084 7B60     		str	r3, [r7, #4]
 802 0086 0DE0     		b	.L8
 803              	.L9:
 745:Generated_Source\PSoC5/cyfitter_cfg.c **** 	{
 746:Generated_Source\PSoC5/cyfitter_cfg.c **** 		CY_SET_REG16((void CYXDATA *)(CYREG_PHUB_TDMEM1_ORIG_TD1 + (sizeof(struct td_t)*i)), (uint16)(uin
 804              		.loc 1 746 0 discriminator 3
 805 0088 7B68     		ldr	r3, [r7, #4]
 806 008a DA00     		lsls	r2, r3, #3
 807 008c 344B     		ldr	r3, .L15+68
 808 008e 1344     		add	r3, r3, r2
 809 0090 1946     		mov	r1, r3
 810 0092 344A     		ldr	r2, .L15+72
 811 0094 7B68     		ldr	r3, [r7, #4]
 812 0096 52F82330 		ldr	r3, [r2, r3, lsl #2]
 813 009a 9BB2     		uxth	r3, r3
 814 009c 0B80     		strh	r3, [r1]	@ movhi
 744:Generated_Source\PSoC5/cyfitter_cfg.c **** 	{
 815              		.loc 1 744 0 discriminator 3
 816 009e 7B68     		ldr	r3, [r7, #4]
 817 00a0 0133     		adds	r3, r3, #1
 818 00a2 7B60     		str	r3, [r7, #4]
 819              	.L8:
 744:Generated_Source\PSoC5/cyfitter_cfg.c **** 	{
 820              		.loc 1 744 0 is_stmt 0 discriminator 1
 821 00a4 7B68     		ldr	r3, [r7, #4]
 822 00a6 5F2B     		cmp	r3, #95
 823 00a8 EED9     		bls	.L9
 747:Generated_Source\PSoC5/cyfitter_cfg.c **** 	}
 748:Generated_Source\PSoC5/cyfitter_cfg.c **** 
 749:Generated_Source\PSoC5/cyfitter_cfg.c **** 	CY_CFG_MEMORY_BARRIER();
 824              		.loc 1 749 0 is_stmt 1
 825 00aa BFF35F8F 		dmb	sy
 750:Generated_Source\PSoC5/cyfitter_cfg.c **** 	CY_SET_REG8((void CYXDATA *)CYREG_PHUB_CH0_ACTION, 0x01u); /* cpu_req */
 826              		.loc 1 750 0
 827 00ae 2B4B     		ldr	r3, .L15+64
 828 00b0 0122     		movs	r2, #1
 829 00b2 1A70     		strb	r2, [r3]
 751:Generated_Source\PSoC5/cyfitter_cfg.c **** 	CY_CFG_MEMORY_BARRIER();
 830              		.loc 1 751 0
 831 00b4 BFF35F8F 		dmb	sy
 752:Generated_Source\PSoC5/cyfitter_cfg.c **** 
 753:Generated_Source\PSoC5/cyfitter_cfg.c **** 	/* Wait for all DMA transfers to complete */
 754:Generated_Source\PSoC5/cyfitter_cfg.c **** 	while(0u != (CY_GET_REG8((void CYXDATA *)CYREG_PHUB_CH0_BASIC_STATUS) & 0x01u)){}
 832              		.loc 1 754 0
 833 00b8 00BF     		nop
 834              	.L10:
 835              		.loc 1 754 0 is_stmt 0 discriminator 1
 836 00ba 2B4B     		ldr	r3, .L15+76
 837 00bc 1B78     		ldrb	r3, [r3]
 838 00be DBB2     		uxtb	r3, r3
 839 00c0 03F00103 		and	r3, r3, #1
 840 00c4 002B     		cmp	r3, #0
ARM GAS  C:\Users\JEFFSN~1\AppData\Local\Temp\cc8Xq6Yn.s 			page 29


 841 00c6 F8D1     		bne	.L10
 755:Generated_Source\PSoC5/cyfitter_cfg.c **** 	while(0u != (CY_GET_REG8((void CYXDATA *)CYREG_PHUB_CH1_BASIC_STATUS) & 0x01u)){}
 842              		.loc 1 755 0 is_stmt 1
 843 00c8 00BF     		nop
 844              	.L11:
 845              		.loc 1 755 0 is_stmt 0 discriminator 1
 846 00ca 284B     		ldr	r3, .L15+80
 847 00cc 1B78     		ldrb	r3, [r3]
 848 00ce DBB2     		uxtb	r3, r3
 849 00d0 03F00103 		and	r3, r3, #1
 850 00d4 002B     		cmp	r3, #0
 851 00d6 F8D1     		bne	.L11
 756:Generated_Source\PSoC5/cyfitter_cfg.c **** 	while(0u != (CY_GET_REG8((void CYXDATA *)CYREG_PHUB_CH2_BASIC_STATUS) & 0x01u)){}
 852              		.loc 1 756 0 is_stmt 1
 853 00d8 00BF     		nop
 854              	.L12:
 855              		.loc 1 756 0 is_stmt 0 discriminator 1
 856 00da 254B     		ldr	r3, .L15+84
 857 00dc 1B78     		ldrb	r3, [r3]
 858 00de DBB2     		uxtb	r3, r3
 859 00e0 03F00103 		and	r3, r3, #1
 860 00e4 002B     		cmp	r3, #0
 861 00e6 F8D1     		bne	.L12
 757:Generated_Source\PSoC5/cyfitter_cfg.c **** 	while(0u != (CY_GET_REG8((void CYXDATA *)CYREG_PHUB_CH5_BASIC_STATUS) & 0x01u)){}
 862              		.loc 1 757 0 is_stmt 1
 863 00e8 00BF     		nop
 864              	.L13:
 865              		.loc 1 757 0 is_stmt 0 discriminator 1
 866 00ea 224B     		ldr	r3, .L15+88
 867 00ec 1B78     		ldrb	r3, [r3]
 868 00ee DBB2     		uxtb	r3, r3
 869 00f0 03F00103 		and	r3, r3, #1
 870 00f4 002B     		cmp	r3, #0
 871 00f6 F8D1     		bne	.L13
 758:Generated_Source\PSoC5/cyfitter_cfg.c **** 	while(0u != (CY_GET_REG8((void CYXDATA *)CYREG_PHUB_CH6_BASIC_STATUS) & 0x01u)){}
 872              		.loc 1 758 0 is_stmt 1
 873 00f8 00BF     		nop
 874              	.L14:
 875              		.loc 1 758 0 is_stmt 0 discriminator 1
 876 00fa 1F4B     		ldr	r3, .L15+92
 877 00fc 1B78     		ldrb	r3, [r3]
 878 00fe DBB2     		uxtb	r3, r3
 879 0100 03F00103 		and	r3, r3, #1
 880 0104 002B     		cmp	r3, #0
 881 0106 F8D1     		bne	.L14
 759:Generated_Source\PSoC5/cyfitter_cfg.c **** 
 760:Generated_Source\PSoC5/cyfitter_cfg.c **** 
 761:Generated_Source\PSoC5/cyfitter_cfg.c **** 	CYCONFIGCPY((void CYFAR *)(CYREG_IDMUX_DRQ_CTL0), (const void CYFAR *)(BS_IDMUX_VAL), 6u);
 882              		.loc 1 761 0 is_stmt 1
 883 0108 0622     		movs	r2, #6
 884 010a 4FF09041 		mov	r1, #1207959552
 885 010e 1B48     		ldr	r0, .L15+96
 886 0110 FFF7FEFF 		bl	CYCONFIGCPY
 762:Generated_Source\PSoC5/cyfitter_cfg.c **** 
 763:Generated_Source\PSoC5/cyfitter_cfg.c **** }
 887              		.loc 1 763 0
 888 0114 00BF     		nop
ARM GAS  C:\Users\JEFFSN~1\AppData\Local\Temp\cc8Xq6Yn.s 			page 30


 889 0116 0837     		adds	r7, r7, #8
 890              		.cfi_def_cfa_offset 8
 891 0118 BD46     		mov	sp, r7
 892              		.cfi_def_cfa_register 13
 893              		@ sp needed
 894 011a 80BD     		pop	{r7, pc}
 895              	.L16:
 896              		.align	2
 897              	.L15:
 898 011c 08000000 		.word	DMA_ZERO_VAL.5003
 899 0120 00760040 		.word	1073772032
 900 0124 10700040 		.word	1073770512
 901 0128 19700040 		.word	1073770521
 902 012c 00780040 		.word	1073772544
 903 0130 02780040 		.word	1073772546
 904 0134 03780040 		.word	1073772547
 905 0138 04780040 		.word	1073772548
 906 013c 28000000 		.word	CFG_TD_LIST0.5004
 907 0140 06780040 		.word	1073772550
 908 0144 04760040 		.word	1073772036
 909 0148 06760040 		.word	1073772038
 910 014c 29700040 		.word	1073770537
 911 0150 39700040 		.word	1073770553
 912 0154 69700040 		.word	1073770601
 913 0158 79700040 		.word	1073770617
 914 015c 14700040 		.word	1073770516
 915 0160 0C780040 		.word	1073772556
 916 0164 74000000 		.word	CFG_TD_ADDR0.5005
 917 0168 18700040 		.word	1073770520
 918 016c 28700040 		.word	1073770536
 919 0170 38700040 		.word	1073770552
 920 0174 68700040 		.word	1073770600
 921 0178 78700040 		.word	1073770616
 922 017c 10510140 		.word	1073828112
 923              		.cfi_endproc
 924              	.LFE4:
 925              		.size	cfg_dma_init, .-cfg_dma_init
 926              		.section	.text.ClockSetup,"ax",%progbits
 927              		.align	2
 928              		.thumb
 929              		.thumb_func
 930              		.type	ClockSetup, %function
 931              	ClockSetup:
 932              	.LFB5:
 764:Generated_Source\PSoC5/cyfitter_cfg.c **** /*******************************************************************************
 765:Generated_Source\PSoC5/cyfitter_cfg.c **** * Function Name: ClockSetup
 766:Generated_Source\PSoC5/cyfitter_cfg.c **** ********************************************************************************
 767:Generated_Source\PSoC5/cyfitter_cfg.c **** *
 768:Generated_Source\PSoC5/cyfitter_cfg.c **** * Summary:
 769:Generated_Source\PSoC5/cyfitter_cfg.c **** *  Performs the initialization of all of the clocks in the device based on the
 770:Generated_Source\PSoC5/cyfitter_cfg.c **** *  settings in the Clock tab of the DWR.  This includes enabling the requested
 771:Generated_Source\PSoC5/cyfitter_cfg.c **** *  clocks and setting the necessary dividers to produce the desired frequency. 
 772:Generated_Source\PSoC5/cyfitter_cfg.c **** *
 773:Generated_Source\PSoC5/cyfitter_cfg.c **** * Parameters:
 774:Generated_Source\PSoC5/cyfitter_cfg.c **** *  void
 775:Generated_Source\PSoC5/cyfitter_cfg.c **** *
 776:Generated_Source\PSoC5/cyfitter_cfg.c **** * Return:
ARM GAS  C:\Users\JEFFSN~1\AppData\Local\Temp\cc8Xq6Yn.s 			page 31


 777:Generated_Source\PSoC5/cyfitter_cfg.c **** *  void
 778:Generated_Source\PSoC5/cyfitter_cfg.c **** *
 779:Generated_Source\PSoC5/cyfitter_cfg.c **** *******************************************************************************/
 780:Generated_Source\PSoC5/cyfitter_cfg.c **** static void ClockSetup(void);
 781:Generated_Source\PSoC5/cyfitter_cfg.c **** static void ClockSetup(void)
 782:Generated_Source\PSoC5/cyfitter_cfg.c **** {
 933              		.loc 1 782 0
 934              		.cfi_startproc
 935              		@ args = 0, pretend = 0, frame = 8
 936              		@ frame_needed = 1, uses_anonymous_args = 0
 937 0000 80B5     		push	{r7, lr}
 938              		.cfi_def_cfa_offset 8
 939              		.cfi_offset 7, -8
 940              		.cfi_offset 14, -4
 941 0002 82B0     		sub	sp, sp, #8
 942              		.cfi_def_cfa_offset 16
 943 0004 00AF     		add	r7, sp, #0
 944              		.cfi_def_cfa_register 7
 783:Generated_Source\PSoC5/cyfitter_cfg.c **** 	uint32 timeout;
 784:Generated_Source\PSoC5/cyfitter_cfg.c **** 	uint8 pllLock;
 785:Generated_Source\PSoC5/cyfitter_cfg.c **** 
 786:Generated_Source\PSoC5/cyfitter_cfg.c **** 
 787:Generated_Source\PSoC5/cyfitter_cfg.c **** 	/* Configure Digital Clocks based on settings from Clock DWR */
 788:Generated_Source\PSoC5/cyfitter_cfg.c **** 	CY_SET_XTND_REG16((void CYFAR *)(CYREG_CLKDIST_DCFG0_CFG0), 0x0000u);
 945              		.loc 1 788 0
 946 0006 484B     		ldr	r3, .L22
 947 0008 0022     		movs	r2, #0
 948 000a 1A80     		strh	r2, [r3]	@ movhi
 789:Generated_Source\PSoC5/cyfitter_cfg.c **** 	CY_SET_XTND_REG8((void CYFAR *)(CYREG_CLKDIST_DCFG0_CFG0 + 0x2u), 0x50u);
 949              		.loc 1 789 0
 950 000c 474B     		ldr	r3, .L22+4
 951 000e 5022     		movs	r2, #80
 952 0010 1A70     		strb	r2, [r3]
 790:Generated_Source\PSoC5/cyfitter_cfg.c **** 	CY_SET_XTND_REG16((void CYFAR *)(CYREG_CLKDIST_DCFG1_CFG0), 0x0000u);
 953              		.loc 1 790 0
 954 0012 474B     		ldr	r3, .L22+8
 955 0014 0022     		movs	r2, #0
 956 0016 1A80     		strh	r2, [r3]	@ movhi
 791:Generated_Source\PSoC5/cyfitter_cfg.c **** 	CY_SET_XTND_REG8((void CYFAR *)(CYREG_CLKDIST_DCFG1_CFG0 + 0x2u), 0x19u);
 957              		.loc 1 791 0
 958 0018 464B     		ldr	r3, .L22+12
 959 001a 1922     		movs	r2, #25
 960 001c 1A70     		strb	r2, [r3]
 792:Generated_Source\PSoC5/cyfitter_cfg.c **** 	CY_SET_XTND_REG16((void CYFAR *)(CYREG_CLKDIST_DCFG2_CFG0), 0x0007u);
 961              		.loc 1 792 0
 962 001e 464B     		ldr	r3, .L22+16
 963 0020 0722     		movs	r2, #7
 964 0022 1A80     		strh	r2, [r3]	@ movhi
 793:Generated_Source\PSoC5/cyfitter_cfg.c **** 	CY_SET_XTND_REG8((void CYFAR *)(CYREG_CLKDIST_DCFG2_CFG0 + 0x2u), 0x18u);
 965              		.loc 1 793 0
 966 0024 454B     		ldr	r3, .L22+20
 967 0026 1822     		movs	r2, #24
 968 0028 1A70     		strb	r2, [r3]
 794:Generated_Source\PSoC5/cyfitter_cfg.c **** 	CY_SET_XTND_REG16((void CYFAR *)(CYREG_CLKDIST_DCFG3_CFG0), 0x0007u);
 969              		.loc 1 794 0
 970 002a 454B     		ldr	r3, .L22+24
 971 002c 0722     		movs	r2, #7
ARM GAS  C:\Users\JEFFSN~1\AppData\Local\Temp\cc8Xq6Yn.s 			page 32


 972 002e 1A80     		strh	r2, [r3]	@ movhi
 795:Generated_Source\PSoC5/cyfitter_cfg.c **** 	CY_SET_XTND_REG8((void CYFAR *)(CYREG_CLKDIST_DCFG3_CFG0 + 0x2u), 0x18u);
 973              		.loc 1 795 0
 974 0030 444B     		ldr	r3, .L22+28
 975 0032 1822     		movs	r2, #24
 976 0034 1A70     		strb	r2, [r3]
 796:Generated_Source\PSoC5/cyfitter_cfg.c **** 	CY_SET_XTND_REG16((void CYFAR *)(CYREG_CLKDIST_DCFG4_CFG0), 0x0030u);
 977              		.loc 1 796 0
 978 0036 444B     		ldr	r3, .L22+32
 979 0038 3022     		movs	r2, #48
 980 003a 1A80     		strh	r2, [r3]	@ movhi
 797:Generated_Source\PSoC5/cyfitter_cfg.c **** 	CY_SET_XTND_REG8((void CYFAR *)(CYREG_CLKDIST_DCFG4_CFG0 + 0x2u), 0x18u);
 981              		.loc 1 797 0
 982 003c 434B     		ldr	r3, .L22+36
 983 003e 1822     		movs	r2, #24
 984 0040 1A70     		strb	r2, [r3]
 798:Generated_Source\PSoC5/cyfitter_cfg.c **** 
 799:Generated_Source\PSoC5/cyfitter_cfg.c **** 	/* Configure Analog Clocks based on settings from Clock DWR */
 800:Generated_Source\PSoC5/cyfitter_cfg.c **** 	CYCONFIGCPY((void CYFAR *)(CYREG_CLKDIST_ACFG0_CFG0), (const void CYFAR *)(BS_CYDEV_CLKDIST_ACFG0_
 985              		.loc 1 800 0
 986 0042 0422     		movs	r2, #4
 987 0044 4249     		ldr	r1, .L22+40
 988 0046 4348     		ldr	r0, .L22+44
 989 0048 FFF7FEFF 		bl	CYCONFIGCPY
 801:Generated_Source\PSoC5/cyfitter_cfg.c **** 
 802:Generated_Source\PSoC5/cyfitter_cfg.c **** 	/* Configure ILO based on settings from Clock DWR */
 803:Generated_Source\PSoC5/cyfitter_cfg.c **** 	CY_SET_XTND_REG8((void CYFAR *)(CYREG_SLOWCLK_ILO_CR0), 0x06u);
 990              		.loc 1 803 0
 991 004c 424B     		ldr	r3, .L22+48
 992 004e 0622     		movs	r2, #6
 993 0050 1A70     		strb	r2, [r3]
 804:Generated_Source\PSoC5/cyfitter_cfg.c **** 
 805:Generated_Source\PSoC5/cyfitter_cfg.c **** 	/* Configure IMO based on settings from Clock DWR */
 806:Generated_Source\PSoC5/cyfitter_cfg.c **** 	CY_SET_XTND_REG8((void CYFAR *)(CYREG_IMO_TR1), (CY_GET_XTND_REG8((void CYFAR *)CYREG_FLSHID_CUST_
 994              		.loc 1 806 0
 995 0052 424B     		ldr	r3, .L22+52
 996 0054 424A     		ldr	r2, .L22+56
 997 0056 1278     		ldrb	r2, [r2]
 998 0058 D2B2     		uxtb	r2, r2
 999 005a 1A70     		strb	r2, [r3]
 807:Generated_Source\PSoC5/cyfitter_cfg.c **** 	CY_SET_XTND_REG8((void CYFAR *)(CYREG_FASTCLK_IMO_CR), 0x52u);
 1000              		.loc 1 807 0
 1001 005c 414B     		ldr	r3, .L22+60
 1002 005e 5222     		movs	r2, #82
 1003 0060 1A70     		strb	r2, [r3]
 808:Generated_Source\PSoC5/cyfitter_cfg.c **** 
 809:Generated_Source\PSoC5/cyfitter_cfg.c **** 	/* Configure PLL based on settings from Clock DWR */
 810:Generated_Source\PSoC5/cyfitter_cfg.c **** 	CY_SET_XTND_REG16((void CYFAR *)(CYREG_FASTCLK_PLL_P), 0x071Au);
 1004              		.loc 1 810 0
 1005 0062 414B     		ldr	r3, .L22+64
 1006 0064 40F21A72 		movw	r2, #1818
 1007 0068 1A80     		strh	r2, [r3]	@ movhi
 811:Generated_Source\PSoC5/cyfitter_cfg.c **** 	CY_SET_XTND_REG16((void CYFAR *)(CYREG_FASTCLK_PLL_CFG0), 0x2251u);
 1008              		.loc 1 811 0
 1009 006a 404B     		ldr	r3, .L22+68
 1010 006c 42F25122 		movw	r2, #8785
 1011 0070 1A80     		strh	r2, [r3]	@ movhi
ARM GAS  C:\Users\JEFFSN~1\AppData\Local\Temp\cc8Xq6Yn.s 			page 33


 812:Generated_Source\PSoC5/cyfitter_cfg.c **** 	/* Wait up to 250us for the PLL to lock */
 813:Generated_Source\PSoC5/cyfitter_cfg.c **** 	pllLock = 0u;
 1012              		.loc 1 813 0
 1013 0072 0023     		movs	r3, #0
 1014 0074 FB70     		strb	r3, [r7, #3]
 814:Generated_Source\PSoC5/cyfitter_cfg.c **** 	for (timeout = 250u / 10u; (timeout > 0u) && (pllLock != 0x03u); timeout--)
 1015              		.loc 1 814 0
 1016 0076 1923     		movs	r3, #25
 1017 0078 7B60     		str	r3, [r7, #4]
 1018 007a 13E0     		b	.L18
 1019              	.L20:
 815:Generated_Source\PSoC5/cyfitter_cfg.c **** 	{ 
 816:Generated_Source\PSoC5/cyfitter_cfg.c **** 		pllLock = 0x03u & ((uint8)((uint8)pllLock << 1) | ((CY_GET_XTND_REG8((void CYFAR *)CYREG_FASTCLK_
 1020              		.loc 1 816 0 discriminator 4
 1021 007c FB78     		ldrb	r3, [r7, #3]
 1022 007e 5B00     		lsls	r3, r3, #1
 1023 0080 DAB2     		uxtb	r2, r3
 1024 0082 3B4B     		ldr	r3, .L22+72
 1025 0084 1B78     		ldrb	r3, [r3]
 1026 0086 DBB2     		uxtb	r3, r3
 1027 0088 03F00103 		and	r3, r3, #1
 1028 008c DBB2     		uxtb	r3, r3
 1029 008e 1343     		orrs	r3, r3, r2
 1030 0090 DBB2     		uxtb	r3, r3
 1031 0092 03F00303 		and	r3, r3, #3
 1032 0096 FB70     		strb	r3, [r7, #3]
 817:Generated_Source\PSoC5/cyfitter_cfg.c **** 		CyDelayCycles(10u * 12u); /* Delay 10us based on 12MHz clock */
 1033              		.loc 1 817 0 discriminator 4
 1034 0098 7820     		movs	r0, #120
 1035 009a FFF7FEFF 		bl	CyDelayCycles
 814:Generated_Source\PSoC5/cyfitter_cfg.c **** 	for (timeout = 250u / 10u; (timeout > 0u) && (pllLock != 0x03u); timeout--)
 1036              		.loc 1 814 0 discriminator 4
 1037 009e 7B68     		ldr	r3, [r7, #4]
 1038 00a0 013B     		subs	r3, r3, #1
 1039 00a2 7B60     		str	r3, [r7, #4]
 1040              	.L18:
 814:Generated_Source\PSoC5/cyfitter_cfg.c **** 	for (timeout = 250u / 10u; (timeout > 0u) && (pllLock != 0x03u); timeout--)
 1041              		.loc 1 814 0 is_stmt 0 discriminator 1
 1042 00a4 7B68     		ldr	r3, [r7, #4]
 1043 00a6 002B     		cmp	r3, #0
 1044 00a8 02D0     		beq	.L19
 814:Generated_Source\PSoC5/cyfitter_cfg.c **** 	for (timeout = 250u / 10u; (timeout > 0u) && (pllLock != 0x03u); timeout--)
 1045              		.loc 1 814 0 discriminator 3
 1046 00aa FB78     		ldrb	r3, [r7, #3]	@ zero_extendqisi2
 1047 00ac 032B     		cmp	r3, #3
 1048 00ae E5D1     		bne	.L20
 1049              	.L19:
 818:Generated_Source\PSoC5/cyfitter_cfg.c **** 	}
 819:Generated_Source\PSoC5/cyfitter_cfg.c **** 	/* If we ran out of time the PLL didn't lock so go to the error function */
 820:Generated_Source\PSoC5/cyfitter_cfg.c **** 	if (timeout == 0u)
 1050              		.loc 1 820 0 is_stmt 1
 1051 00b0 7B68     		ldr	r3, [r7, #4]
 1052 00b2 002B     		cmp	r3, #0
 1053 00b4 02D1     		bne	.L21
 821:Generated_Source\PSoC5/cyfitter_cfg.c **** 	{
 822:Generated_Source\PSoC5/cyfitter_cfg.c **** 		CyClockStartupError(CYCLOCKSTART_PLL_ERROR);
 1054              		.loc 1 822 0
ARM GAS  C:\Users\JEFFSN~1\AppData\Local\Temp\cc8Xq6Yn.s 			page 34


 1055 00b6 0320     		movs	r0, #3
 1056 00b8 FFF7FEFF 		bl	CyClockStartupError
 1057              	.L21:
 823:Generated_Source\PSoC5/cyfitter_cfg.c **** 	}
 824:Generated_Source\PSoC5/cyfitter_cfg.c **** 
 825:Generated_Source\PSoC5/cyfitter_cfg.c **** 	/* Configure Bus/Master Clock based on settings from Clock DWR */
 826:Generated_Source\PSoC5/cyfitter_cfg.c **** 	CY_SET_XTND_REG16((void CYFAR *)(CYREG_CLKDIST_MSTR0), 0x0100u);
 1058              		.loc 1 826 0
 1059 00bc 2D4B     		ldr	r3, .L22+76
 1060 00be 4FF48072 		mov	r2, #256
 1061 00c2 1A80     		strh	r2, [r3]	@ movhi
 827:Generated_Source\PSoC5/cyfitter_cfg.c **** 	CY_SET_XTND_REG8((void CYFAR *)(CYREG_CLKDIST_MSTR0), 0x07u);
 1062              		.loc 1 827 0
 1063 00c4 2B4B     		ldr	r3, .L22+76
 1064 00c6 0722     		movs	r2, #7
 1065 00c8 1A70     		strb	r2, [r3]
 828:Generated_Source\PSoC5/cyfitter_cfg.c **** 	CY_SET_XTND_REG8((void CYFAR *)(CYREG_CLKDIST_BCFG0), 0x00u);
 1066              		.loc 1 828 0
 1067 00ca 2B4B     		ldr	r3, .L22+80
 1068 00cc 0022     		movs	r2, #0
 1069 00ce 1A70     		strb	r2, [r3]
 829:Generated_Source\PSoC5/cyfitter_cfg.c **** 	CY_SET_XTND_REG8((void CYFAR *)(CYREG_CLKDIST_BCFG2), 0x48u);
 1070              		.loc 1 829 0
 1071 00d0 2A4B     		ldr	r3, .L22+84
 1072 00d2 4822     		movs	r2, #72
 1073 00d4 1A70     		strb	r2, [r3]
 830:Generated_Source\PSoC5/cyfitter_cfg.c **** 	CY_SET_XTND_REG8((void CYFAR *)(CYREG_CLKDIST_MSTR0), 0x00u);
 1074              		.loc 1 830 0
 1075 00d6 274B     		ldr	r3, .L22+76
 1076 00d8 0022     		movs	r2, #0
 1077 00da 1A70     		strb	r2, [r3]
 831:Generated_Source\PSoC5/cyfitter_cfg.c **** 
 832:Generated_Source\PSoC5/cyfitter_cfg.c **** 	/* Configure USB Clock based on settings from Clock DWR */
 833:Generated_Source\PSoC5/cyfitter_cfg.c **** 	CY_SET_XTND_REG8((void CYFAR *)(CYREG_CLKDIST_UCFG), 0x00u);
 1078              		.loc 1 833 0
 1079 00dc 284B     		ldr	r3, .L22+88
 1080 00de 0022     		movs	r2, #0
 1081 00e0 1A70     		strb	r2, [r3]
 834:Generated_Source\PSoC5/cyfitter_cfg.c **** 	CY_SET_XTND_REG8((void CYFAR *)(CYREG_CLKDIST_LD), 0x02u);
 1082              		.loc 1 834 0
 1083 00e2 284B     		ldr	r3, .L22+92
 1084 00e4 0222     		movs	r2, #2
 1085 00e6 1A70     		strb	r2, [r3]
 835:Generated_Source\PSoC5/cyfitter_cfg.c **** 	CY_SET_XTND_REG8((void CYFAR *)(CYREG_CLKDIST_DLY1), 0x04u);
 1086              		.loc 1 835 0
 1087 00e8 274B     		ldr	r3, .L22+96
 1088 00ea 0422     		movs	r2, #4
 1089 00ec 1A70     		strb	r2, [r3]
 836:Generated_Source\PSoC5/cyfitter_cfg.c **** 
 837:Generated_Source\PSoC5/cyfitter_cfg.c **** 	CY_SET_XTND_REG8((void CYFAR *)(CYREG_PM_ACT_CFG2), ((CY_GET_XTND_REG8((void CYFAR *)CYREG_PM_ACT_
 1090              		.loc 1 837 0
 1091 00ee 274A     		ldr	r2, .L22+100
 1092 00f0 264B     		ldr	r3, .L22+100
 1093 00f2 1B78     		ldrb	r3, [r3]
 1094 00f4 DBB2     		uxtb	r3, r3
 1095 00f6 43F01F03 		orr	r3, r3, #31
 1096 00fa DBB2     		uxtb	r3, r3
ARM GAS  C:\Users\JEFFSN~1\AppData\Local\Temp\cc8Xq6Yn.s 			page 35


 1097 00fc 1370     		strb	r3, [r2]
 838:Generated_Source\PSoC5/cyfitter_cfg.c **** 	CY_SET_XTND_REG8((void CYFAR *)(CYREG_PM_ACT_CFG1), ((CY_GET_XTND_REG8((void CYFAR *)CYREG_PM_ACT_
 1098              		.loc 1 838 0
 1099 00fe 244A     		ldr	r2, .L22+104
 1100 0100 234B     		ldr	r3, .L22+104
 1101 0102 1B78     		ldrb	r3, [r3]
 1102 0104 DBB2     		uxtb	r3, r3
 1103 0106 43F00103 		orr	r3, r3, #1
 1104 010a DBB2     		uxtb	r3, r3
 1105 010c 1370     		strb	r3, [r2]
 839:Generated_Source\PSoC5/cyfitter_cfg.c **** 	CY_SET_XTND_REG8((void CYFAR *)(CYREG_PM_ACT_CFG0), ((CY_GET_XTND_REG8((void CYFAR *)CYREG_PM_ACT_
 1106              		.loc 1 839 0
 1107 010e 214A     		ldr	r2, .L22+108
 1108 0110 204B     		ldr	r3, .L22+108
 1109 0112 1B78     		ldrb	r3, [r3]
 1110 0114 DBB2     		uxtb	r3, r3
 1111 0116 63F07F03 		orn	r3, r3, #127
 1112 011a DBB2     		uxtb	r3, r3
 1113 011c 1370     		strb	r3, [r2]
 840:Generated_Source\PSoC5/cyfitter_cfg.c **** }
 1114              		.loc 1 840 0
 1115 011e 00BF     		nop
 1116 0120 0837     		adds	r7, r7, #8
 1117              		.cfi_def_cfa_offset 8
 1118 0122 BD46     		mov	sp, r7
 1119              		.cfi_def_cfa_register 13
 1120              		@ sp needed
 1121 0124 80BD     		pop	{r7, pc}
 1122              	.L23:
 1123 0126 00BF     		.align	2
 1124              	.L22:
 1125 0128 80400040 		.word	1073758336
 1126 012c 82400040 		.word	1073758338
 1127 0130 84400040 		.word	1073758340
 1128 0134 86400040 		.word	1073758342
 1129 0138 88400040 		.word	1073758344
 1130 013c 8A400040 		.word	1073758346
 1131 0140 8C400040 		.word	1073758348
 1132 0144 8E400040 		.word	1073758350
 1133 0148 90400040 		.word	1073758352
 1134 014c 92400040 		.word	1073758354
 1135 0150 F4230048 		.word	1207968756
 1136 0154 00410040 		.word	1073758464
 1137 0158 00430040 		.word	1073758976
 1138 015c A1460040 		.word	1073759905
 1139 0160 0F010049 		.word	1224737039
 1140 0164 00420040 		.word	1073758720
 1141 0168 22420040 		.word	1073758754
 1142 016c 20420040 		.word	1073758752
 1143 0170 25420040 		.word	1073758757
 1144 0174 04400040 		.word	1073758212
 1145 0178 06400040 		.word	1073758214
 1146 017c 08400040 		.word	1073758216
 1147 0180 09400040 		.word	1073758217
 1148 0184 01400040 		.word	1073758209
 1149 0188 0B400040 		.word	1073758219
 1150 018c A2430040 		.word	1073759138
ARM GAS  C:\Users\JEFFSN~1\AppData\Local\Temp\cc8Xq6Yn.s 			page 36


 1151 0190 A1430040 		.word	1073759137
 1152 0194 A0430040 		.word	1073759136
 1153              		.cfi_endproc
 1154              	.LFE5:
 1155              		.size	ClockSetup, .-ClockSetup
 1156              		.section	.text.AnalogSetDefault,"ax",%progbits
 1157              		.align	2
 1158              		.thumb
 1159              		.thumb_func
 1160              		.type	AnalogSetDefault, %function
 1161              	AnalogSetDefault:
 1162              	.LFB6:
 841:Generated_Source\PSoC5/cyfitter_cfg.c **** 
 842:Generated_Source\PSoC5/cyfitter_cfg.c **** 
 843:Generated_Source\PSoC5/cyfitter_cfg.c **** /* Analog API Functions */
 844:Generated_Source\PSoC5/cyfitter_cfg.c **** 
 845:Generated_Source\PSoC5/cyfitter_cfg.c **** 
 846:Generated_Source\PSoC5/cyfitter_cfg.c **** /*******************************************************************************
 847:Generated_Source\PSoC5/cyfitter_cfg.c **** * Function Name: AnalogSetDefault
 848:Generated_Source\PSoC5/cyfitter_cfg.c **** ********************************************************************************
 849:Generated_Source\PSoC5/cyfitter_cfg.c **** *
 850:Generated_Source\PSoC5/cyfitter_cfg.c **** * Summary:
 851:Generated_Source\PSoC5/cyfitter_cfg.c **** *  Sets up the analog portions of the chip to default values based on chip
 852:Generated_Source\PSoC5/cyfitter_cfg.c **** *  configuration options from the project.
 853:Generated_Source\PSoC5/cyfitter_cfg.c **** *
 854:Generated_Source\PSoC5/cyfitter_cfg.c **** * Parameters:
 855:Generated_Source\PSoC5/cyfitter_cfg.c **** *  void
 856:Generated_Source\PSoC5/cyfitter_cfg.c **** *
 857:Generated_Source\PSoC5/cyfitter_cfg.c **** * Return:
 858:Generated_Source\PSoC5/cyfitter_cfg.c **** *  void
 859:Generated_Source\PSoC5/cyfitter_cfg.c **** *
 860:Generated_Source\PSoC5/cyfitter_cfg.c **** *******************************************************************************/
 861:Generated_Source\PSoC5/cyfitter_cfg.c **** static void AnalogSetDefault(void);
 862:Generated_Source\PSoC5/cyfitter_cfg.c **** static void AnalogSetDefault(void)
 863:Generated_Source\PSoC5/cyfitter_cfg.c **** {
 1163              		.loc 1 863 0
 1164              		.cfi_startproc
 1165              		@ args = 0, pretend = 0, frame = 8
 1166              		@ frame_needed = 1, uses_anonymous_args = 0
 1167 0000 80B5     		push	{r7, lr}
 1168              		.cfi_def_cfa_offset 8
 1169              		.cfi_offset 7, -8
 1170              		.cfi_offset 14, -4
 1171 0002 82B0     		sub	sp, sp, #8
 1172              		.cfi_def_cfa_offset 16
 1173 0004 00AF     		add	r7, sp, #0
 1174              		.cfi_def_cfa_register 7
 864:Generated_Source\PSoC5/cyfitter_cfg.c **** 	uint8 bg_xover_inl_trim = CY_GET_XTND_REG8((void CYFAR *)(CYREG_FLSHID_MFG_CFG_BG_XOVER_INL_TRIM +
 1175              		.loc 1 864 0
 1176 0006 304B     		ldr	r3, .L25
 1177 0008 1B78     		ldrb	r3, [r3]
 1178 000a FB71     		strb	r3, [r7, #7]
 865:Generated_Source\PSoC5/cyfitter_cfg.c **** 	uint8 cr4 = CY_GET_XTND_REG8((void CYFAR *)(CYREG_RESET_CR4));
 1179              		.loc 1 865 0
 1180 000c 2F4B     		ldr	r3, .L25+4
 1181 000e 1B78     		ldrb	r3, [r3]
 1182 0010 BB71     		strb	r3, [r7, #6]
ARM GAS  C:\Users\JEFFSN~1\AppData\Local\Temp\cc8Xq6Yn.s 			page 37


 866:Generated_Source\PSoC5/cyfitter_cfg.c **** 	uint8 cr5 = CY_GET_XTND_REG8((void CYFAR *)(CYREG_RESET_CR5));
 1183              		.loc 1 866 0
 1184 0012 2F4B     		ldr	r3, .L25+8
 1185 0014 1B78     		ldrb	r3, [r3]
 1186 0016 7B71     		strb	r3, [r7, #5]
 867:Generated_Source\PSoC5/cyfitter_cfg.c **** 	CY_SET_XTND_REG8((void CYFAR *)(CYREG_BG_DFT0), (bg_xover_inl_trim & 0x07u));
 1187              		.loc 1 867 0
 1188 0018 2E4A     		ldr	r2, .L25+12
 1189 001a FB79     		ldrb	r3, [r7, #7]
 1190 001c 03F00703 		and	r3, r3, #7
 1191 0020 DBB2     		uxtb	r3, r3
 1192 0022 1370     		strb	r3, [r2]
 868:Generated_Source\PSoC5/cyfitter_cfg.c **** 	CY_SET_XTND_REG8((void CYFAR *)(CYREG_BG_DFT1), ((bg_xover_inl_trim >> 4) & 0x0Fu));
 1193              		.loc 1 868 0
 1194 0024 2C4A     		ldr	r2, .L25+16
 1195 0026 FB79     		ldrb	r3, [r7, #7]	@ zero_extendqisi2
 1196 0028 1B09     		lsrs	r3, r3, #4
 1197 002a DBB2     		uxtb	r3, r3
 1198 002c 1370     		strb	r3, [r2]
 869:Generated_Source\PSoC5/cyfitter_cfg.c **** 	/* Disable PRES while setting up SAR voltage reference */
 870:Generated_Source\PSoC5/cyfitter_cfg.c **** 	CY_SET_XTND_REG8((void CYFAR *)(CYREG_RESET_CR4), (cr4 | 0x03u));
 1199              		.loc 1 870 0
 1200 002e 274A     		ldr	r2, .L25+4
 1201 0030 BB79     		ldrb	r3, [r7, #6]
 1202 0032 43F00303 		orr	r3, r3, #3
 1203 0036 DBB2     		uxtb	r3, r3
 1204 0038 1370     		strb	r3, [r2]
 871:Generated_Source\PSoC5/cyfitter_cfg.c **** 	CY_SET_XTND_REG8((void CYFAR *)(CYREG_RESET_CR5), (cr5 | 0x03u));
 1205              		.loc 1 871 0
 1206 003a 254A     		ldr	r2, .L25+8
 1207 003c 7B79     		ldrb	r3, [r7, #5]
 1208 003e 43F00303 		orr	r3, r3, #3
 1209 0042 DBB2     		uxtb	r3, r3
 1210 0044 1370     		strb	r3, [r2]
 872:Generated_Source\PSoC5/cyfitter_cfg.c **** 	CY_SET_XTND_REG8((void CYFAR *)CYREG_PRT0_AG, 0x02u);
 1211              		.loc 1 872 0
 1212 0046 254B     		ldr	r3, .L25+20
 1213 0048 0222     		movs	r2, #2
 1214 004a 1A70     		strb	r2, [r3]
 873:Generated_Source\PSoC5/cyfitter_cfg.c **** 	CY_SET_XTND_REG8((void CYFAR *)CYREG_PRT1_AG, 0x10u);
 1215              		.loc 1 873 0
 1216 004c 244B     		ldr	r3, .L25+24
 1217 004e 1022     		movs	r2, #16
 1218 0050 1A70     		strb	r2, [r3]
 874:Generated_Source\PSoC5/cyfitter_cfg.c **** 	CY_SET_XTND_REG8((void CYFAR *)CYREG_PRT2_AG, 0x28u);
 1219              		.loc 1 874 0
 1220 0052 244B     		ldr	r3, .L25+28
 1221 0054 2822     		movs	r2, #40
 1222 0056 1A70     		strb	r2, [r3]
 875:Generated_Source\PSoC5/cyfitter_cfg.c **** 	CY_SET_XTND_REG8((void CYFAR *)CYREG_PRT3_AG, 0x50u);
 1223              		.loc 1 875 0
 1224 0058 234B     		ldr	r3, .L25+32
 1225 005a 5022     		movs	r2, #80
 1226 005c 1A70     		strb	r2, [r3]
 876:Generated_Source\PSoC5/cyfitter_cfg.c **** 	CY_SET_XTND_REG8((void CYFAR *)CYREG_PRT15_AG, 0x10u);
 1227              		.loc 1 876 0
 1228 005e 234B     		ldr	r3, .L25+36
ARM GAS  C:\Users\JEFFSN~1\AppData\Local\Temp\cc8Xq6Yn.s 			page 38


 1229 0060 1022     		movs	r2, #16
 1230 0062 1A70     		strb	r2, [r3]
 877:Generated_Source\PSoC5/cyfitter_cfg.c **** 	CY_SET_XTND_REG8((void CYFAR *)CYREG_CAPSL_CFG0, 0x00u);
 1231              		.loc 1 877 0
 1232 0064 224B     		ldr	r3, .L25+40
 1233 0066 0022     		movs	r2, #0
 1234 0068 1A70     		strb	r2, [r3]
 878:Generated_Source\PSoC5/cyfitter_cfg.c **** 	CY_SET_XTND_REG8((void CYFAR *)CYREG_CAPSR_CFG0, 0x00u);
 1235              		.loc 1 878 0
 1236 006a 224B     		ldr	r3, .L25+44
 1237 006c 0022     		movs	r2, #0
 1238 006e 1A70     		strb	r2, [r3]
 879:Generated_Source\PSoC5/cyfitter_cfg.c **** 	CY_SET_XTND_REG8((void CYFAR *)CYREG_SAR1_CSR1, 0x40u);
 1239              		.loc 1 879 0
 1240 0070 214B     		ldr	r3, .L25+48
 1241 0072 4022     		movs	r2, #64
 1242 0074 1A70     		strb	r2, [r3]
 880:Generated_Source\PSoC5/cyfitter_cfg.c **** 	CY_SET_XTND_REG8((void CYFAR *)CYREG_SAR1_CSR3, 0x40u);
 1243              		.loc 1 880 0
 1244 0076 214B     		ldr	r3, .L25+52
 1245 0078 4022     		movs	r2, #64
 1246 007a 1A70     		strb	r2, [r3]
 881:Generated_Source\PSoC5/cyfitter_cfg.c **** 	CY_SET_XTND_REG8((void CYFAR *)CYREG_DAC2_SW3, 0x80u);
 1247              		.loc 1 881 0
 1248 007c 204B     		ldr	r3, .L25+56
 1249 007e 8022     		movs	r2, #128
 1250 0080 1A70     		strb	r2, [r3]
 882:Generated_Source\PSoC5/cyfitter_cfg.c **** 	CY_SET_XTND_REG8((void CYFAR *)CYREG_CMP0_SW3, 0x20u);
 1251              		.loc 1 882 0
 1252 0082 204B     		ldr	r3, .L25+60
 1253 0084 2022     		movs	r2, #32
 1254 0086 1A70     		strb	r2, [r3]
 883:Generated_Source\PSoC5/cyfitter_cfg.c **** 	CY_SET_XTND_REG8((void CYFAR *)CYREG_CMP3_SW3, 0x20u);
 1255              		.loc 1 883 0
 1256 0088 1F4B     		ldr	r3, .L25+64
 1257 008a 2022     		movs	r2, #32
 1258 008c 1A70     		strb	r2, [r3]
 884:Generated_Source\PSoC5/cyfitter_cfg.c **** 	CY_SET_XTND_REG8((void CYFAR *)CYREG_SAR1_SW0, 0x7Au);
 1259              		.loc 1 884 0
 1260 008e 1F4B     		ldr	r3, .L25+68
 1261 0090 7A22     		movs	r2, #122
 1262 0092 1A70     		strb	r2, [r3]
 885:Generated_Source\PSoC5/cyfitter_cfg.c **** 	CY_SET_XTND_REG8((void CYFAR *)CYREG_SAR1_SW3, 0x20u);
 1263              		.loc 1 885 0
 1264 0094 1E4B     		ldr	r3, .L25+72
 1265 0096 2022     		movs	r2, #32
 1266 0098 1A70     		strb	r2, [r3]
 886:Generated_Source\PSoC5/cyfitter_cfg.c **** 	CY_SET_XTND_REG8((void CYFAR *)CYREG_OPAMP2_MX, 0x20u);
 1267              		.loc 1 886 0
 1268 009a 1E4B     		ldr	r3, .L25+76
 1269 009c 2022     		movs	r2, #32
 1270 009e 1A70     		strb	r2, [r3]
 887:Generated_Source\PSoC5/cyfitter_cfg.c **** 	CY_SET_XTND_REG8((void CYFAR *)CYREG_BUS_SW0, 0x2Au);
 1271              		.loc 1 887 0
 1272 00a0 1D4B     		ldr	r3, .L25+80
 1273 00a2 2A22     		movs	r2, #42
 1274 00a4 1A70     		strb	r2, [r3]
ARM GAS  C:\Users\JEFFSN~1\AppData\Local\Temp\cc8Xq6Yn.s 			page 39


 888:Generated_Source\PSoC5/cyfitter_cfg.c **** 	CyDelayUs(10u); /* Allow vref to settle before re-enabling PRES */
 1275              		.loc 1 888 0
 1276 00a6 0A20     		movs	r0, #10
 1277 00a8 FFF7FEFF 		bl	CyDelayUs
 889:Generated_Source\PSoC5/cyfitter_cfg.c **** 	CY_SET_XTND_REG8((void CYFAR *)(CYREG_RESET_CR5), (cr5));
 1278              		.loc 1 889 0
 1279 00ac 084A     		ldr	r2, .L25+8
 1280 00ae 7B79     		ldrb	r3, [r7, #5]
 1281 00b0 1370     		strb	r3, [r2]
 890:Generated_Source\PSoC5/cyfitter_cfg.c **** 	CY_SET_XTND_REG8((void CYFAR *)(CYREG_RESET_CR4), (cr4));
 1282              		.loc 1 890 0
 1283 00b2 064A     		ldr	r2, .L25+4
 1284 00b4 BB79     		ldrb	r3, [r7, #6]
 1285 00b6 1370     		strb	r3, [r2]
 891:Generated_Source\PSoC5/cyfitter_cfg.c **** 	CY_SET_XTND_REG8((void CYFAR *)CYREG_PUMP_CR0, 0x66u);
 1286              		.loc 1 891 0
 1287 00b8 184B     		ldr	r3, .L25+84
 1288 00ba 6622     		movs	r2, #102
 1289 00bc 1A70     		strb	r2, [r3]
 892:Generated_Source\PSoC5/cyfitter_cfg.c **** }
 1290              		.loc 1 892 0
 1291 00be 00BF     		nop
 1292 00c0 0837     		adds	r7, r7, #8
 1293              		.cfi_def_cfa_offset 8
 1294 00c2 BD46     		mov	sp, r7
 1295              		.cfi_def_cfa_register 13
 1296              		@ sp needed
 1297 00c4 80BD     		pop	{r7, pc}
 1298              	.L26:
 1299 00c6 00BF     		.align	2
 1300              	.L25:
 1301 00c8 CF010049 		.word	1224737231
 1302 00cc F8460040 		.word	1073759992
 1303 00d0 F9460040 		.word	1073759993
 1304 00d4 6E580040 		.word	1073764462
 1305 00d8 6F580040 		.word	1073764463
 1306 00dc 0D510040 		.word	1073762573
 1307 00e0 1D510040 		.word	1073762589
 1308 00e4 2D510040 		.word	1073762605
 1309 00e8 3D510040 		.word	1073762621
 1310 00ec FD510040 		.word	1073762813
 1311 00f0 70580040 		.word	1073764464
 1312 00f4 72580040 		.word	1073764466
 1313 00f8 09590040 		.word	1073764617
 1314 00fc 0B590040 		.word	1073764619
 1315 0100 935A0040 		.word	1073765011
 1316 0104 C35A0040 		.word	1073765059
 1317 0108 DB5A0040 		.word	1073765083
 1318 010c 285B0040 		.word	1073765160
 1319 0110 2B5B0040 		.word	1073765163
 1320 0114 445B0040 		.word	1073765188
 1321 0118 585B0040 		.word	1073765208
 1322 011c 76580040 		.word	1073764470
 1323              		.cfi_endproc
 1324              	.LFE6:
 1325              		.size	AnalogSetDefault, .-AnalogSetDefault
 1326              		.section	.text.SetAnalogRoutingPumps,"ax",%progbits
ARM GAS  C:\Users\JEFFSN~1\AppData\Local\Temp\cc8Xq6Yn.s 			page 40


 1327              		.align	2
 1328              		.global	SetAnalogRoutingPumps
 1329              		.thumb
 1330              		.thumb_func
 1331              		.type	SetAnalogRoutingPumps, %function
 1332              	SetAnalogRoutingPumps:
 1333              	.LFB7:
 893:Generated_Source\PSoC5/cyfitter_cfg.c **** 
 894:Generated_Source\PSoC5/cyfitter_cfg.c **** 
 895:Generated_Source\PSoC5/cyfitter_cfg.c **** /*******************************************************************************
 896:Generated_Source\PSoC5/cyfitter_cfg.c **** * Function Name: SetAnalogRoutingPumps
 897:Generated_Source\PSoC5/cyfitter_cfg.c **** ********************************************************************************
 898:Generated_Source\PSoC5/cyfitter_cfg.c **** *
 899:Generated_Source\PSoC5/cyfitter_cfg.c **** * Summary:
 900:Generated_Source\PSoC5/cyfitter_cfg.c **** * Enables or disables the analog pumps feeding analog routing switches.
 901:Generated_Source\PSoC5/cyfitter_cfg.c **** * Intended to be called at startup, based on the Vdda system configuration;
 902:Generated_Source\PSoC5/cyfitter_cfg.c **** * may be called during operation when the user informs us that the Vdda voltage
 903:Generated_Source\PSoC5/cyfitter_cfg.c **** * crossed the pump threshold.
 904:Generated_Source\PSoC5/cyfitter_cfg.c **** *
 905:Generated_Source\PSoC5/cyfitter_cfg.c **** * Parameters:
 906:Generated_Source\PSoC5/cyfitter_cfg.c **** *  enabled - 1 to enable the pumps, 0 to disable the pumps
 907:Generated_Source\PSoC5/cyfitter_cfg.c **** *
 908:Generated_Source\PSoC5/cyfitter_cfg.c **** * Return:
 909:Generated_Source\PSoC5/cyfitter_cfg.c **** *  void
 910:Generated_Source\PSoC5/cyfitter_cfg.c **** *
 911:Generated_Source\PSoC5/cyfitter_cfg.c **** *******************************************************************************/
 912:Generated_Source\PSoC5/cyfitter_cfg.c **** void SetAnalogRoutingPumps(uint8 enabled)
 913:Generated_Source\PSoC5/cyfitter_cfg.c **** {
 1334              		.loc 1 913 0
 1335              		.cfi_startproc
 1336              		@ args = 0, pretend = 0, frame = 16
 1337              		@ frame_needed = 1, uses_anonymous_args = 0
 1338              		@ link register save eliminated.
 1339 0000 80B4     		push	{r7}
 1340              		.cfi_def_cfa_offset 4
 1341              		.cfi_offset 7, -4
 1342 0002 85B0     		sub	sp, sp, #20
 1343              		.cfi_def_cfa_offset 24
 1344 0004 00AF     		add	r7, sp, #0
 1345              		.cfi_def_cfa_register 7
 1346 0006 0346     		mov	r3, r0
 1347 0008 FB71     		strb	r3, [r7, #7]
 914:Generated_Source\PSoC5/cyfitter_cfg.c **** 	uint8 regValue = CY_GET_XTND_REG8((void CYFAR *)CYREG_PUMP_CR0);
 1348              		.loc 1 914 0
 1349 000a 0B4B     		ldr	r3, .L30
 1350 000c 1B78     		ldrb	r3, [r3]
 1351 000e FB73     		strb	r3, [r7, #15]
 915:Generated_Source\PSoC5/cyfitter_cfg.c **** 	if (enabled != 0u)
 1352              		.loc 1 915 0
 1353 0010 FB79     		ldrb	r3, [r7, #7]	@ zero_extendqisi2
 1354 0012 002B     		cmp	r3, #0
 1355 0014 04D0     		beq	.L28
 916:Generated_Source\PSoC5/cyfitter_cfg.c **** 	{
 917:Generated_Source\PSoC5/cyfitter_cfg.c **** 		regValue |= 0x22u;
 1356              		.loc 1 917 0
 1357 0016 FB7B     		ldrb	r3, [r7, #15]
 1358 0018 43F02203 		orr	r3, r3, #34
ARM GAS  C:\Users\JEFFSN~1\AppData\Local\Temp\cc8Xq6Yn.s 			page 41


 1359 001c FB73     		strb	r3, [r7, #15]
 1360 001e 03E0     		b	.L29
 1361              	.L28:
 918:Generated_Source\PSoC5/cyfitter_cfg.c **** 	}
 919:Generated_Source\PSoC5/cyfitter_cfg.c **** 	else
 920:Generated_Source\PSoC5/cyfitter_cfg.c **** 	{
 921:Generated_Source\PSoC5/cyfitter_cfg.c **** 		regValue &= (uint8)~0x22u;
 1362              		.loc 1 921 0
 1363 0020 FB7B     		ldrb	r3, [r7, #15]
 1364 0022 23F02203 		bic	r3, r3, #34
 1365 0026 FB73     		strb	r3, [r7, #15]
 1366              	.L29:
 922:Generated_Source\PSoC5/cyfitter_cfg.c **** 	}
 923:Generated_Source\PSoC5/cyfitter_cfg.c **** 	CY_SET_XTND_REG8((void CYFAR *)CYREG_PUMP_CR0, regValue);
 1367              		.loc 1 923 0
 1368 0028 034A     		ldr	r2, .L30
 1369 002a FB7B     		ldrb	r3, [r7, #15]
 1370 002c 1370     		strb	r3, [r2]
 924:Generated_Source\PSoC5/cyfitter_cfg.c **** }
 1371              		.loc 1 924 0
 1372 002e 00BF     		nop
 1373 0030 1437     		adds	r7, r7, #20
 1374              		.cfi_def_cfa_offset 4
 1375 0032 BD46     		mov	sp, r7
 1376              		.cfi_def_cfa_register 13
 1377              		@ sp needed
 1378 0034 80BC     		pop	{r7}
 1379              		.cfi_restore 7
 1380              		.cfi_def_cfa_offset 0
 1381 0036 7047     		bx	lr
 1382              	.L31:
 1383              		.align	2
 1384              	.L30:
 1385 0038 76580040 		.word	1073764470
 1386              		.cfi_endproc
 1387              	.LFE7:
 1388              		.size	SetAnalogRoutingPumps, .-SetAnalogRoutingPumps
 1389              		.section	.rodata
 1390              		.align	2
 1391              		.type	AMux_1_CYAMUXSIDE_A__outerAddr, %object
 1392              		.size	AMux_1_CYAMUXSIDE_A__outerAddr, 8
 1393              	AMux_1_CYAMUXSIDE_A__outerAddr:
 1394 0000 0D510040 		.word	1073762573
 1395 0004 0D510040 		.word	1073762573
 1396              		.align	2
 1397              		.type	AMux_1_CYAMUXSIDE_A__outerMask, %object
 1398              		.size	AMux_1_CYAMUXSIDE_A__outerMask, 2
 1399              	AMux_1_CYAMUXSIDE_A__outerMask:
 1400 0008 10       		.byte	16
 1401 0009 01       		.byte	1
 1402 000a 0000     		.align	2
 1403              		.type	AMux_1_CYAMUXSIDE_A__innerAddr, %object
 1404              		.size	AMux_1_CYAMUXSIDE_A__innerAddr, 4
 1405              	AMux_1_CYAMUXSIDE_A__innerAddr:
 1406 000c 005B0040 		.word	1073765120
 1407              		.align	2
 1408              		.type	AMux_1_CYAMUXSIDE_A__innerMask, %object
ARM GAS  C:\Users\JEFFSN~1\AppData\Local\Temp\cc8Xq6Yn.s 			page 42


 1409              		.size	AMux_1_CYAMUXSIDE_A__innerMask, 1
 1410              	AMux_1_CYAMUXSIDE_A__innerMask:
 1411 0010 10       		.byte	16
 1412 0011 000000   		.align	2
 1413              		.type	AMux_1_CYAMUXSIDE_A__innerMap, %object
 1414              		.size	AMux_1_CYAMUXSIDE_A__innerMap, 2
 1415              	AMux_1_CYAMUXSIDE_A__innerMap:
 1416 0014 0000     		.space	2
 1417              		.bss
 1418              	AMux_1_CYAMUXSIDE_A__armsEnabled:
 1419 0000 00       		.space	1
 1420 0001 000000   		.align	2
 1421              	AMux_1_CYAMUXSIDE_A__refCnt:
 1422 0004 00       		.space	1
 1423              		.section	.text.AMux_1_CYAMUXSIDE_A_Set,"ax",%progbits
 1424              		.align	2
 1425              		.global	AMux_1_CYAMUXSIDE_A_Set
 1426              		.thumb
 1427              		.thumb_func
 1428              		.type	AMux_1_CYAMUXSIDE_A_Set, %function
 1429              	AMux_1_CYAMUXSIDE_A_Set:
 1430              	.LFB8:
 925:Generated_Source\PSoC5/cyfitter_cfg.c **** 
 926:Generated_Source\PSoC5/cyfitter_cfg.c **** 
 927:Generated_Source\PSoC5/cyfitter_cfg.c **** #define CY_AMUX_UNUSED CYREG_BOOST_SR
 928:Generated_Source\PSoC5/cyfitter_cfg.c **** static uint8 CYXDATA * const CYCODE AMux_1_CYAMUXSIDE_A__outerAddr[2] = {
 929:Generated_Source\PSoC5/cyfitter_cfg.c **** 	(uint8 CYXDATA *)CYREG_PRT0_AG, 
 930:Generated_Source\PSoC5/cyfitter_cfg.c **** 	(uint8 CYXDATA *)CYREG_PRT0_AG, 
 931:Generated_Source\PSoC5/cyfitter_cfg.c **** };
 932:Generated_Source\PSoC5/cyfitter_cfg.c **** 
 933:Generated_Source\PSoC5/cyfitter_cfg.c **** static const uint8 CYCODE AMux_1_CYAMUXSIDE_A__outerMask[2] = {
 934:Generated_Source\PSoC5/cyfitter_cfg.c **** 	0x10u, 
 935:Generated_Source\PSoC5/cyfitter_cfg.c **** 	0x01u, 
 936:Generated_Source\PSoC5/cyfitter_cfg.c **** };
 937:Generated_Source\PSoC5/cyfitter_cfg.c **** 
 938:Generated_Source\PSoC5/cyfitter_cfg.c **** static uint8 CYXDATA * const CYCODE AMux_1_CYAMUXSIDE_A__innerAddr[1] = {
 939:Generated_Source\PSoC5/cyfitter_cfg.c **** 	(uint8 CYXDATA *)CYREG_DSM0_SW0, 
 940:Generated_Source\PSoC5/cyfitter_cfg.c **** };
 941:Generated_Source\PSoC5/cyfitter_cfg.c **** 
 942:Generated_Source\PSoC5/cyfitter_cfg.c **** static const uint8 CYCODE AMux_1_CYAMUXSIDE_A__innerMask[1] = {
 943:Generated_Source\PSoC5/cyfitter_cfg.c **** 	0x10u, 
 944:Generated_Source\PSoC5/cyfitter_cfg.c **** };
 945:Generated_Source\PSoC5/cyfitter_cfg.c **** 
 946:Generated_Source\PSoC5/cyfitter_cfg.c **** static const uint8 CYCODE AMux_1_CYAMUXSIDE_A__innerMap[2] = {
 947:Generated_Source\PSoC5/cyfitter_cfg.c **** 	0u, 
 948:Generated_Source\PSoC5/cyfitter_cfg.c **** 	0u, 
 949:Generated_Source\PSoC5/cyfitter_cfg.c **** };
 950:Generated_Source\PSoC5/cyfitter_cfg.c **** 
 951:Generated_Source\PSoC5/cyfitter_cfg.c **** static uint8 AMux_1_CYAMUXSIDE_A__armsEnabled = 0u;
 952:Generated_Source\PSoC5/cyfitter_cfg.c **** static uint8 AMux_1_CYAMUXSIDE_A__refCnt[] = {0u};
 953:Generated_Source\PSoC5/cyfitter_cfg.c **** 
 954:Generated_Source\PSoC5/cyfitter_cfg.c **** /*******************************************************************************
 955:Generated_Source\PSoC5/cyfitter_cfg.c **** * Function Name: AMux_1_CYAMUXSIDE_A_Set
 956:Generated_Source\PSoC5/cyfitter_cfg.c **** ********************************************************************************
 957:Generated_Source\PSoC5/cyfitter_cfg.c **** * Summary:
 958:Generated_Source\PSoC5/cyfitter_cfg.c **** *  This function is used to set a particular channel as active on the AMux.
 959:Generated_Source\PSoC5/cyfitter_cfg.c **** *
ARM GAS  C:\Users\JEFFSN~1\AppData\Local\Temp\cc8Xq6Yn.s 			page 43


 960:Generated_Source\PSoC5/cyfitter_cfg.c **** * Parameters:  
 961:Generated_Source\PSoC5/cyfitter_cfg.c **** *   channel - The mux channel input to set as active
 962:Generated_Source\PSoC5/cyfitter_cfg.c **** *
 963:Generated_Source\PSoC5/cyfitter_cfg.c **** * Return:
 964:Generated_Source\PSoC5/cyfitter_cfg.c **** *   void
 965:Generated_Source\PSoC5/cyfitter_cfg.c **** *
 966:Generated_Source\PSoC5/cyfitter_cfg.c **** *******************************************************************************/
 967:Generated_Source\PSoC5/cyfitter_cfg.c **** void AMux_1_CYAMUXSIDE_A_Set(uint8 channel)
 968:Generated_Source\PSoC5/cyfitter_cfg.c **** {
 1431              		.loc 1 968 0
 1432              		.cfi_startproc
 1433              		@ args = 0, pretend = 0, frame = 16
 1434              		@ frame_needed = 1, uses_anonymous_args = 0
 1435              		@ link register save eliminated.
 1436 0000 80B4     		push	{r7}
 1437              		.cfi_def_cfa_offset 4
 1438              		.cfi_offset 7, -4
 1439 0002 85B0     		sub	sp, sp, #20
 1440              		.cfi_def_cfa_offset 24
 1441 0004 00AF     		add	r7, sp, #0
 1442              		.cfi_def_cfa_register 7
 1443 0006 0346     		mov	r3, r0
 1444 0008 FB71     		strb	r3, [r7, #7]
 969:Generated_Source\PSoC5/cyfitter_cfg.c **** 	uint8 i;
 970:Generated_Source\PSoC5/cyfitter_cfg.c **** 	uint8 channelMask = (1UL << channel);
 1445              		.loc 1 970 0
 1446 000a FB79     		ldrb	r3, [r7, #7]	@ zero_extendqisi2
 1447 000c 0122     		movs	r2, #1
 1448 000e 02FA03F3 		lsl	r3, r2, r3
 1449 0012 FB73     		strb	r3, [r7, #15]
 971:Generated_Source\PSoC5/cyfitter_cfg.c **** 	if ((channel < 2u) && ((AMux_1_CYAMUXSIDE_A__armsEnabled & channelMask) == ((uint32)0u)))
 1450              		.loc 1 971 0
 1451 0014 FB79     		ldrb	r3, [r7, #7]	@ zero_extendqisi2
 1452 0016 012B     		cmp	r3, #1
 1453 0018 33D8     		bhi	.L35
 1454              		.loc 1 971 0 is_stmt 0 discriminator 1
 1455 001a 1C4B     		ldr	r3, .L36
 1456 001c 1A78     		ldrb	r2, [r3]	@ zero_extendqisi2
 1457 001e FB7B     		ldrb	r3, [r7, #15]
 1458 0020 1340     		ands	r3, r3, r2
 1459 0022 DBB2     		uxtb	r3, r3
 1460 0024 002B     		cmp	r3, #0
 1461 0026 2CD1     		bne	.L35
 972:Generated_Source\PSoC5/cyfitter_cfg.c **** 	{
 973:Generated_Source\PSoC5/cyfitter_cfg.c **** 		AMux_1_CYAMUXSIDE_A__armsEnabled |= channelMask;
 1462              		.loc 1 973 0 is_stmt 1
 1463 0028 184B     		ldr	r3, .L36
 1464 002a 1A78     		ldrb	r2, [r3]	@ zero_extendqisi2
 1465 002c FB7B     		ldrb	r3, [r7, #15]
 1466 002e 1343     		orrs	r3, r3, r2
 1467 0030 DAB2     		uxtb	r2, r3
 1468 0032 164B     		ldr	r3, .L36
 1469 0034 1A70     		strb	r2, [r3]
 974:Generated_Source\PSoC5/cyfitter_cfg.c **** 		*AMux_1_CYAMUXSIDE_A__outerAddr[channel] |= AMux_1_CYAMUXSIDE_A__outerMask[channel];
 1470              		.loc 1 974 0
 1471 0036 FB79     		ldrb	r3, [r7, #7]	@ zero_extendqisi2
 1472 0038 154A     		ldr	r2, .L36+4
ARM GAS  C:\Users\JEFFSN~1\AppData\Local\Temp\cc8Xq6Yn.s 			page 44


 1473 003a 52F82330 		ldr	r3, [r2, r3, lsl #2]
 1474 003e FA79     		ldrb	r2, [r7, #7]	@ zero_extendqisi2
 1475 0040 1349     		ldr	r1, .L36+4
 1476 0042 51F82220 		ldr	r2, [r1, r2, lsl #2]
 1477 0046 1178     		ldrb	r1, [r2]	@ zero_extendqisi2
 1478 0048 FA79     		ldrb	r2, [r7, #7]	@ zero_extendqisi2
 1479 004a 1248     		ldr	r0, .L36+8
 1480 004c 825C     		ldrb	r2, [r0, r2]	@ zero_extendqisi2
 1481 004e 0A43     		orrs	r2, r2, r1
 1482 0050 D2B2     		uxtb	r2, r2
 1483 0052 1A70     		strb	r2, [r3]
 975:Generated_Source\PSoC5/cyfitter_cfg.c **** 		i = AMux_1_CYAMUXSIDE_A__innerMap[channel];
 1484              		.loc 1 975 0
 1485 0054 FB79     		ldrb	r3, [r7, #7]	@ zero_extendqisi2
 1486 0056 104A     		ldr	r2, .L36+12
 1487 0058 D35C     		ldrb	r3, [r2, r3]
 1488 005a BB73     		strb	r3, [r7, #14]
 976:Generated_Source\PSoC5/cyfitter_cfg.c **** 		if (AMux_1_CYAMUXSIDE_A__refCnt[i] == 0u)
 1489              		.loc 1 976 0
 1490 005c BB7B     		ldrb	r3, [r7, #14]	@ zero_extendqisi2
 1491 005e 0F4A     		ldr	r2, .L36+16
 1492 0060 D35C     		ldrb	r3, [r2, r3]	@ zero_extendqisi2
 1493 0062 002B     		cmp	r3, #0
 1494 0064 06D1     		bne	.L34
 977:Generated_Source\PSoC5/cyfitter_cfg.c **** 		{
 978:Generated_Source\PSoC5/cyfitter_cfg.c **** 			*AMux_1_CYAMUXSIDE_A__innerAddr[i] |= AMux_1_CYAMUXSIDE_A__innerMask[i];
 1495              		.loc 1 978 0
 1496 0066 0E4A     		ldr	r2, .L36+20
 1497 0068 0D4B     		ldr	r3, .L36+20
 1498 006a 1B78     		ldrb	r3, [r3]	@ zero_extendqisi2
 1499 006c 1021     		movs	r1, #16
 1500 006e 0B43     		orrs	r3, r3, r1
 1501 0070 DBB2     		uxtb	r3, r3
 1502 0072 1370     		strb	r3, [r2]
 1503              	.L34:
 979:Generated_Source\PSoC5/cyfitter_cfg.c **** 		}
 980:Generated_Source\PSoC5/cyfitter_cfg.c **** 		AMux_1_CYAMUXSIDE_A__refCnt[i]++;
 1504              		.loc 1 980 0
 1505 0074 BB7B     		ldrb	r3, [r7, #14]	@ zero_extendqisi2
 1506 0076 094A     		ldr	r2, .L36+16
 1507 0078 D25C     		ldrb	r2, [r2, r3]	@ zero_extendqisi2
 1508 007a 0132     		adds	r2, r2, #1
 1509 007c D1B2     		uxtb	r1, r2
 1510 007e 074A     		ldr	r2, .L36+16
 1511 0080 D154     		strb	r1, [r2, r3]
 1512              	.L35:
 981:Generated_Source\PSoC5/cyfitter_cfg.c **** 	}
 982:Generated_Source\PSoC5/cyfitter_cfg.c **** }
 1513              		.loc 1 982 0
 1514 0082 00BF     		nop
 1515 0084 1437     		adds	r7, r7, #20
 1516              		.cfi_def_cfa_offset 4
 1517 0086 BD46     		mov	sp, r7
 1518              		.cfi_def_cfa_register 13
 1519              		@ sp needed
 1520 0088 80BC     		pop	{r7}
 1521              		.cfi_restore 7
ARM GAS  C:\Users\JEFFSN~1\AppData\Local\Temp\cc8Xq6Yn.s 			page 45


 1522              		.cfi_def_cfa_offset 0
 1523 008a 7047     		bx	lr
 1524              	.L37:
 1525              		.align	2
 1526              	.L36:
 1527 008c 00000000 		.word	AMux_1_CYAMUXSIDE_A__armsEnabled
 1528 0090 00000000 		.word	AMux_1_CYAMUXSIDE_A__outerAddr
 1529 0094 08000000 		.word	AMux_1_CYAMUXSIDE_A__outerMask
 1530 0098 14000000 		.word	AMux_1_CYAMUXSIDE_A__innerMap
 1531 009c 04000000 		.word	AMux_1_CYAMUXSIDE_A__refCnt
 1532 00a0 005B0040 		.word	1073765120
 1533              		.cfi_endproc
 1534              	.LFE8:
 1535              		.size	AMux_1_CYAMUXSIDE_A_Set, .-AMux_1_CYAMUXSIDE_A_Set
 1536              		.section	.text.AMux_1_CYAMUXSIDE_A_Unset,"ax",%progbits
 1537              		.align	2
 1538              		.global	AMux_1_CYAMUXSIDE_A_Unset
 1539              		.thumb
 1540              		.thumb_func
 1541              		.type	AMux_1_CYAMUXSIDE_A_Unset, %function
 1542              	AMux_1_CYAMUXSIDE_A_Unset:
 1543              	.LFB9:
 983:Generated_Source\PSoC5/cyfitter_cfg.c **** 
 984:Generated_Source\PSoC5/cyfitter_cfg.c **** /*******************************************************************************
 985:Generated_Source\PSoC5/cyfitter_cfg.c **** * Function Name: AMux_1_CYAMUXSIDE_A_Unset
 986:Generated_Source\PSoC5/cyfitter_cfg.c **** ********************************************************************************
 987:Generated_Source\PSoC5/cyfitter_cfg.c **** * Summary:
 988:Generated_Source\PSoC5/cyfitter_cfg.c **** *  This function is used to clear a particular channel from being active on the
 989:Generated_Source\PSoC5/cyfitter_cfg.c **** *  AMux.
 990:Generated_Source\PSoC5/cyfitter_cfg.c **** *
 991:Generated_Source\PSoC5/cyfitter_cfg.c **** * Parameters:  
 992:Generated_Source\PSoC5/cyfitter_cfg.c **** *   channel - The mux channel input to mark inactive
 993:Generated_Source\PSoC5/cyfitter_cfg.c **** *
 994:Generated_Source\PSoC5/cyfitter_cfg.c **** * Return:
 995:Generated_Source\PSoC5/cyfitter_cfg.c **** *   void
 996:Generated_Source\PSoC5/cyfitter_cfg.c **** *
 997:Generated_Source\PSoC5/cyfitter_cfg.c **** *******************************************************************************/
 998:Generated_Source\PSoC5/cyfitter_cfg.c **** void AMux_1_CYAMUXSIDE_A_Unset(uint8 channel)
 999:Generated_Source\PSoC5/cyfitter_cfg.c **** {
 1544              		.loc 1 999 0
 1545              		.cfi_startproc
 1546              		@ args = 0, pretend = 0, frame = 16
 1547              		@ frame_needed = 1, uses_anonymous_args = 0
 1548              		@ link register save eliminated.
 1549 0000 80B4     		push	{r7}
 1550              		.cfi_def_cfa_offset 4
 1551              		.cfi_offset 7, -4
 1552 0002 85B0     		sub	sp, sp, #20
 1553              		.cfi_def_cfa_offset 24
 1554 0004 00AF     		add	r7, sp, #0
 1555              		.cfi_def_cfa_register 7
 1556 0006 0346     		mov	r3, r0
 1557 0008 FB71     		strb	r3, [r7, #7]
1000:Generated_Source\PSoC5/cyfitter_cfg.c **** 	uint8 i;
1001:Generated_Source\PSoC5/cyfitter_cfg.c **** 	uint8 channelMask = (1UL << channel);
 1558              		.loc 1 1001 0
 1559 000a FB79     		ldrb	r3, [r7, #7]	@ zero_extendqisi2
ARM GAS  C:\Users\JEFFSN~1\AppData\Local\Temp\cc8Xq6Yn.s 			page 46


 1560 000c 0122     		movs	r2, #1
 1561 000e 02FA03F3 		lsl	r3, r2, r3
 1562 0012 FB73     		strb	r3, [r7, #15]
1002:Generated_Source\PSoC5/cyfitter_cfg.c **** 	if ((channel < 2u) && ((AMux_1_CYAMUXSIDE_A__armsEnabled & channelMask) != ((uint32)0u)))
 1563              		.loc 1 1002 0
 1564 0014 FB79     		ldrb	r3, [r7, #7]	@ zero_extendqisi2
 1565 0016 012B     		cmp	r3, #1
 1566 0018 39D8     		bhi	.L40
 1567              		.loc 1 1002 0 is_stmt 0 discriminator 1
 1568 001a 1F4B     		ldr	r3, .L41
 1569 001c 1A78     		ldrb	r2, [r3]	@ zero_extendqisi2
 1570 001e FB7B     		ldrb	r3, [r7, #15]
 1571 0020 1340     		ands	r3, r3, r2
 1572 0022 DBB2     		uxtb	r3, r3
 1573 0024 002B     		cmp	r3, #0
 1574 0026 32D0     		beq	.L40
1003:Generated_Source\PSoC5/cyfitter_cfg.c **** 	{
1004:Generated_Source\PSoC5/cyfitter_cfg.c **** 		AMux_1_CYAMUXSIDE_A__armsEnabled &= (uint8)~channelMask;
 1575              		.loc 1 1004 0 is_stmt 1
 1576 0028 FB7B     		ldrb	r3, [r7, #15]
 1577 002a DB43     		mvns	r3, r3
 1578 002c DAB2     		uxtb	r2, r3
 1579 002e 1A4B     		ldr	r3, .L41
 1580 0030 1B78     		ldrb	r3, [r3]	@ zero_extendqisi2
 1581 0032 1340     		ands	r3, r3, r2
 1582 0034 DAB2     		uxtb	r2, r3
 1583 0036 184B     		ldr	r3, .L41
 1584 0038 1A70     		strb	r2, [r3]
1005:Generated_Source\PSoC5/cyfitter_cfg.c **** 		*AMux_1_CYAMUXSIDE_A__outerAddr[channel] &= (uint8)~AMux_1_CYAMUXSIDE_A__outerMask[channel];
 1585              		.loc 1 1005 0
 1586 003a FB79     		ldrb	r3, [r7, #7]	@ zero_extendqisi2
 1587 003c 174A     		ldr	r2, .L41+4
 1588 003e 52F82330 		ldr	r3, [r2, r3, lsl #2]
 1589 0042 FA79     		ldrb	r2, [r7, #7]	@ zero_extendqisi2
 1590 0044 1549     		ldr	r1, .L41+4
 1591 0046 51F82220 		ldr	r2, [r1, r2, lsl #2]
 1592 004a 1178     		ldrb	r1, [r2]	@ zero_extendqisi2
 1593 004c FA79     		ldrb	r2, [r7, #7]	@ zero_extendqisi2
 1594 004e 1448     		ldr	r0, .L41+8
 1595 0050 825C     		ldrb	r2, [r0, r2]	@ zero_extendqisi2
 1596 0052 D243     		mvns	r2, r2
 1597 0054 D2B2     		uxtb	r2, r2
 1598 0056 0A40     		ands	r2, r2, r1
 1599 0058 D2B2     		uxtb	r2, r2
 1600 005a 1A70     		strb	r2, [r3]
1006:Generated_Source\PSoC5/cyfitter_cfg.c **** 		i = AMux_1_CYAMUXSIDE_A__innerMap[channel];
 1601              		.loc 1 1006 0
 1602 005c FB79     		ldrb	r3, [r7, #7]	@ zero_extendqisi2
 1603 005e 114A     		ldr	r2, .L41+12
 1604 0060 D35C     		ldrb	r3, [r2, r3]
 1605 0062 BB73     		strb	r3, [r7, #14]
1007:Generated_Source\PSoC5/cyfitter_cfg.c **** 		AMux_1_CYAMUXSIDE_A__refCnt[i]--;
 1606              		.loc 1 1007 0
 1607 0064 BB7B     		ldrb	r3, [r7, #14]	@ zero_extendqisi2
 1608 0066 104A     		ldr	r2, .L41+16
 1609 0068 D25C     		ldrb	r2, [r2, r3]	@ zero_extendqisi2
 1610 006a 013A     		subs	r2, r2, #1
ARM GAS  C:\Users\JEFFSN~1\AppData\Local\Temp\cc8Xq6Yn.s 			page 47


 1611 006c D1B2     		uxtb	r1, r2
 1612 006e 0E4A     		ldr	r2, .L41+16
 1613 0070 D154     		strb	r1, [r2, r3]
1008:Generated_Source\PSoC5/cyfitter_cfg.c **** 		if (AMux_1_CYAMUXSIDE_A__refCnt[i] == 0)
 1614              		.loc 1 1008 0
 1615 0072 BB7B     		ldrb	r3, [r7, #14]	@ zero_extendqisi2
 1616 0074 0C4A     		ldr	r2, .L41+16
 1617 0076 D35C     		ldrb	r3, [r2, r3]	@ zero_extendqisi2
 1618 0078 002B     		cmp	r3, #0
 1619 007a 08D1     		bne	.L40
1009:Generated_Source\PSoC5/cyfitter_cfg.c **** 		{
1010:Generated_Source\PSoC5/cyfitter_cfg.c **** 			*AMux_1_CYAMUXSIDE_A__innerAddr[i] &= (uint8)~AMux_1_CYAMUXSIDE_A__innerMask[i];
 1620              		.loc 1 1010 0
 1621 007c 0B49     		ldr	r1, .L41+20
 1622 007e 0B4B     		ldr	r3, .L41+20
 1623 0080 1A78     		ldrb	r2, [r3]	@ zero_extendqisi2
 1624 0082 1023     		movs	r3, #16
 1625 0084 DB43     		mvns	r3, r3
 1626 0086 DBB2     		uxtb	r3, r3
 1627 0088 1340     		ands	r3, r3, r2
 1628 008a DBB2     		uxtb	r3, r3
 1629 008c 0B70     		strb	r3, [r1]
 1630              	.L40:
1011:Generated_Source\PSoC5/cyfitter_cfg.c **** 		}
1012:Generated_Source\PSoC5/cyfitter_cfg.c **** 	}
1013:Generated_Source\PSoC5/cyfitter_cfg.c **** }
 1631              		.loc 1 1013 0
 1632 008e 00BF     		nop
 1633 0090 1437     		adds	r7, r7, #20
 1634              		.cfi_def_cfa_offset 4
 1635 0092 BD46     		mov	sp, r7
 1636              		.cfi_def_cfa_register 13
 1637              		@ sp needed
 1638 0094 80BC     		pop	{r7}
 1639              		.cfi_restore 7
 1640              		.cfi_def_cfa_offset 0
 1641 0096 7047     		bx	lr
 1642              	.L42:
 1643              		.align	2
 1644              	.L41:
 1645 0098 00000000 		.word	AMux_1_CYAMUXSIDE_A__armsEnabled
 1646 009c 00000000 		.word	AMux_1_CYAMUXSIDE_A__outerAddr
 1647 00a0 08000000 		.word	AMux_1_CYAMUXSIDE_A__outerMask
 1648 00a4 14000000 		.word	AMux_1_CYAMUXSIDE_A__innerMap
 1649 00a8 04000000 		.word	AMux_1_CYAMUXSIDE_A__refCnt
 1650 00ac 005B0040 		.word	1073765120
 1651              		.cfi_endproc
 1652              	.LFE9:
 1653              		.size	AMux_1_CYAMUXSIDE_A_Unset, .-AMux_1_CYAMUXSIDE_A_Unset
 1654              		.global	AMux_1_CYAMUXSIDE_B__addrTable
 1655              		.section	.rodata
 1656 0016 0000     		.align	2
 1657              		.type	AMux_1_CYAMUXSIDE_B__addrTable, %object
 1658              		.size	AMux_1_CYAMUXSIDE_B__addrTable, 16
 1659              	AMux_1_CYAMUXSIDE_B__addrTable:
 1660 0018 455B0040 		.word	1073765189
 1661 001c 045B0040 		.word	1073765124
ARM GAS  C:\Users\JEFFSN~1\AppData\Local\Temp\cc8Xq6Yn.s 			page 48


 1662 0020 035B0040 		.word	1073765123
 1663 0024 24430040 		.word	1073759012
 1664              		.global	AMux_1_CYAMUXSIDE_B__maskTable
 1665              		.align	2
 1666              		.type	AMux_1_CYAMUXSIDE_B__maskTable, %object
 1667              		.size	AMux_1_CYAMUXSIDE_B__maskTable, 4
 1668              	AMux_1_CYAMUXSIDE_B__maskTable:
 1669 0028 02       		.byte	2
 1670 0029 80       		.byte	-128
 1671 002a 40       		.byte	64
 1672 002b 00       		.byte	0
 1673              		.section	.text.AMux_1_CYAMUXSIDE_B_Set,"ax",%progbits
 1674              		.align	2
 1675              		.global	AMux_1_CYAMUXSIDE_B_Set
 1676              		.thumb
 1677              		.thumb_func
 1678              		.type	AMux_1_CYAMUXSIDE_B_Set, %function
 1679              	AMux_1_CYAMUXSIDE_B_Set:
 1680              	.LFB10:
1014:Generated_Source\PSoC5/cyfitter_cfg.c **** 
1015:Generated_Source\PSoC5/cyfitter_cfg.c **** /* This is an implementation detail of the AMux. Code that depends on it may be
1016:Generated_Source\PSoC5/cyfitter_cfg.c ****    incompatible with other versions of PSoC Creator. */
1017:Generated_Source\PSoC5/cyfitter_cfg.c **** uint8 CYXDATA * const CYCODE AMux_1_CYAMUXSIDE_B__addrTable[4] = {
1018:Generated_Source\PSoC5/cyfitter_cfg.c **** 	(uint8 CYXDATA *)CYREG_OPAMP2_SW, (uint8 CYXDATA *)CYREG_DSM0_SW4, 
1019:Generated_Source\PSoC5/cyfitter_cfg.c **** 	(uint8 CYXDATA *)CYREG_DSM0_SW3, (uint8 CYXDATA *)CY_AMUX_UNUSED, 
1020:Generated_Source\PSoC5/cyfitter_cfg.c **** };
1021:Generated_Source\PSoC5/cyfitter_cfg.c **** 
1022:Generated_Source\PSoC5/cyfitter_cfg.c **** /* This is an implementation detail of the AMux. Code that depends on it may be
1023:Generated_Source\PSoC5/cyfitter_cfg.c ****    incompatible with other versions of PSoC Creator. */
1024:Generated_Source\PSoC5/cyfitter_cfg.c **** const uint8 CYCODE AMux_1_CYAMUXSIDE_B__maskTable[4] = {
1025:Generated_Source\PSoC5/cyfitter_cfg.c **** 	0x02u, 0x80u, 
1026:Generated_Source\PSoC5/cyfitter_cfg.c **** 	0x40u, 0x00u, 
1027:Generated_Source\PSoC5/cyfitter_cfg.c **** };
1028:Generated_Source\PSoC5/cyfitter_cfg.c **** 
1029:Generated_Source\PSoC5/cyfitter_cfg.c **** /*******************************************************************************
1030:Generated_Source\PSoC5/cyfitter_cfg.c **** * Function Name: AMux_1_CYAMUXSIDE_B_Set
1031:Generated_Source\PSoC5/cyfitter_cfg.c **** ********************************************************************************
1032:Generated_Source\PSoC5/cyfitter_cfg.c **** * Summary:
1033:Generated_Source\PSoC5/cyfitter_cfg.c **** *  This function is used to set a particular channel as active on the AMux.
1034:Generated_Source\PSoC5/cyfitter_cfg.c **** *
1035:Generated_Source\PSoC5/cyfitter_cfg.c **** * Parameters:  
1036:Generated_Source\PSoC5/cyfitter_cfg.c **** *   channel - The mux channel input to set as active
1037:Generated_Source\PSoC5/cyfitter_cfg.c **** *
1038:Generated_Source\PSoC5/cyfitter_cfg.c **** * Return:
1039:Generated_Source\PSoC5/cyfitter_cfg.c **** *   void
1040:Generated_Source\PSoC5/cyfitter_cfg.c **** *
1041:Generated_Source\PSoC5/cyfitter_cfg.c **** *******************************************************************************/
1042:Generated_Source\PSoC5/cyfitter_cfg.c **** void AMux_1_CYAMUXSIDE_B_Set(uint8 channel)
1043:Generated_Source\PSoC5/cyfitter_cfg.c **** {
 1681              		.loc 1 1043 0
 1682              		.cfi_startproc
 1683              		@ args = 0, pretend = 0, frame = 8
 1684              		@ frame_needed = 1, uses_anonymous_args = 0
 1685              		@ link register save eliminated.
 1686 0000 80B4     		push	{r7}
 1687              		.cfi_def_cfa_offset 4
 1688              		.cfi_offset 7, -4
ARM GAS  C:\Users\JEFFSN~1\AppData\Local\Temp\cc8Xq6Yn.s 			page 49


 1689 0002 83B0     		sub	sp, sp, #12
 1690              		.cfi_def_cfa_offset 16
 1691 0004 00AF     		add	r7, sp, #0
 1692              		.cfi_def_cfa_register 7
 1693 0006 0346     		mov	r3, r0
 1694 0008 FB71     		strb	r3, [r7, #7]
1044:Generated_Source\PSoC5/cyfitter_cfg.c **** 	if (channel < 2)
 1695              		.loc 1 1044 0
 1696 000a FB79     		ldrb	r3, [r7, #7]	@ zero_extendqisi2
 1697 000c 012B     		cmp	r3, #1
 1698 000e 24D8     		bhi	.L45
1045:Generated_Source\PSoC5/cyfitter_cfg.c **** 	{
1046:Generated_Source\PSoC5/cyfitter_cfg.c **** 		channel += channel;
 1699              		.loc 1 1046 0
 1700 0010 FA79     		ldrb	r2, [r7, #7]
 1701 0012 FB79     		ldrb	r3, [r7, #7]
 1702 0014 1344     		add	r3, r3, r2
 1703 0016 FB71     		strb	r3, [r7, #7]
1047:Generated_Source\PSoC5/cyfitter_cfg.c **** 		*AMux_1_CYAMUXSIDE_B__addrTable[channel] |= AMux_1_CYAMUXSIDE_B__maskTable[channel];
 1704              		.loc 1 1047 0
 1705 0018 FB79     		ldrb	r3, [r7, #7]	@ zero_extendqisi2
 1706 001a 124A     		ldr	r2, .L46
 1707 001c 52F82330 		ldr	r3, [r2, r3, lsl #2]
 1708 0020 FA79     		ldrb	r2, [r7, #7]	@ zero_extendqisi2
 1709 0022 1049     		ldr	r1, .L46
 1710 0024 51F82220 		ldr	r2, [r1, r2, lsl #2]
 1711 0028 1178     		ldrb	r1, [r2]	@ zero_extendqisi2
 1712 002a FA79     		ldrb	r2, [r7, #7]	@ zero_extendqisi2
 1713 002c 0E48     		ldr	r0, .L46+4
 1714 002e 825C     		ldrb	r2, [r0, r2]	@ zero_extendqisi2
 1715 0030 0A43     		orrs	r2, r2, r1
 1716 0032 D2B2     		uxtb	r2, r2
 1717 0034 1A70     		strb	r2, [r3]
1048:Generated_Source\PSoC5/cyfitter_cfg.c **** 		channel++;
 1718              		.loc 1 1048 0
 1719 0036 FB79     		ldrb	r3, [r7, #7]	@ zero_extendqisi2
 1720 0038 0133     		adds	r3, r3, #1
 1721 003a FB71     		strb	r3, [r7, #7]
1049:Generated_Source\PSoC5/cyfitter_cfg.c **** 		*AMux_1_CYAMUXSIDE_B__addrTable[channel] |= AMux_1_CYAMUXSIDE_B__maskTable[channel];
 1722              		.loc 1 1049 0
 1723 003c FB79     		ldrb	r3, [r7, #7]	@ zero_extendqisi2
 1724 003e 094A     		ldr	r2, .L46
 1725 0040 52F82330 		ldr	r3, [r2, r3, lsl #2]
 1726 0044 FA79     		ldrb	r2, [r7, #7]	@ zero_extendqisi2
 1727 0046 0749     		ldr	r1, .L46
 1728 0048 51F82220 		ldr	r2, [r1, r2, lsl #2]
 1729 004c 1178     		ldrb	r1, [r2]	@ zero_extendqisi2
 1730 004e FA79     		ldrb	r2, [r7, #7]	@ zero_extendqisi2
 1731 0050 0548     		ldr	r0, .L46+4
 1732 0052 825C     		ldrb	r2, [r0, r2]	@ zero_extendqisi2
 1733 0054 0A43     		orrs	r2, r2, r1
 1734 0056 D2B2     		uxtb	r2, r2
 1735 0058 1A70     		strb	r2, [r3]
 1736              	.L45:
1050:Generated_Source\PSoC5/cyfitter_cfg.c **** 	}
1051:Generated_Source\PSoC5/cyfitter_cfg.c **** }
 1737              		.loc 1 1051 0
ARM GAS  C:\Users\JEFFSN~1\AppData\Local\Temp\cc8Xq6Yn.s 			page 50


 1738 005a 00BF     		nop
 1739 005c 0C37     		adds	r7, r7, #12
 1740              		.cfi_def_cfa_offset 4
 1741 005e BD46     		mov	sp, r7
 1742              		.cfi_def_cfa_register 13
 1743              		@ sp needed
 1744 0060 80BC     		pop	{r7}
 1745              		.cfi_restore 7
 1746              		.cfi_def_cfa_offset 0
 1747 0062 7047     		bx	lr
 1748              	.L47:
 1749              		.align	2
 1750              	.L46:
 1751 0064 00000000 		.word	AMux_1_CYAMUXSIDE_B__addrTable
 1752 0068 00000000 		.word	AMux_1_CYAMUXSIDE_B__maskTable
 1753              		.cfi_endproc
 1754              	.LFE10:
 1755              		.size	AMux_1_CYAMUXSIDE_B_Set, .-AMux_1_CYAMUXSIDE_B_Set
 1756              		.section	.text.AMux_1_CYAMUXSIDE_B_Unset,"ax",%progbits
 1757              		.align	2
 1758              		.global	AMux_1_CYAMUXSIDE_B_Unset
 1759              		.thumb
 1760              		.thumb_func
 1761              		.type	AMux_1_CYAMUXSIDE_B_Unset, %function
 1762              	AMux_1_CYAMUXSIDE_B_Unset:
 1763              	.LFB11:
1052:Generated_Source\PSoC5/cyfitter_cfg.c **** 
1053:Generated_Source\PSoC5/cyfitter_cfg.c **** /*******************************************************************************
1054:Generated_Source\PSoC5/cyfitter_cfg.c **** * Function Name: AMux_1_CYAMUXSIDE_B_Unset
1055:Generated_Source\PSoC5/cyfitter_cfg.c **** ********************************************************************************
1056:Generated_Source\PSoC5/cyfitter_cfg.c **** * Summary:
1057:Generated_Source\PSoC5/cyfitter_cfg.c **** *  This function is used to clear a particular channel from being active on the
1058:Generated_Source\PSoC5/cyfitter_cfg.c **** *  AMux.
1059:Generated_Source\PSoC5/cyfitter_cfg.c **** *
1060:Generated_Source\PSoC5/cyfitter_cfg.c **** * Parameters:  
1061:Generated_Source\PSoC5/cyfitter_cfg.c **** *   channel - The mux channel input to mark inactive
1062:Generated_Source\PSoC5/cyfitter_cfg.c **** *
1063:Generated_Source\PSoC5/cyfitter_cfg.c **** * Return:
1064:Generated_Source\PSoC5/cyfitter_cfg.c **** *   void
1065:Generated_Source\PSoC5/cyfitter_cfg.c **** *
1066:Generated_Source\PSoC5/cyfitter_cfg.c **** *******************************************************************************/
1067:Generated_Source\PSoC5/cyfitter_cfg.c **** void AMux_1_CYAMUXSIDE_B_Unset(uint8 channel)
1068:Generated_Source\PSoC5/cyfitter_cfg.c **** {
 1764              		.loc 1 1068 0
 1765              		.cfi_startproc
 1766              		@ args = 0, pretend = 0, frame = 8
 1767              		@ frame_needed = 1, uses_anonymous_args = 0
 1768              		@ link register save eliminated.
 1769 0000 80B4     		push	{r7}
 1770              		.cfi_def_cfa_offset 4
 1771              		.cfi_offset 7, -4
 1772 0002 83B0     		sub	sp, sp, #12
 1773              		.cfi_def_cfa_offset 16
 1774 0004 00AF     		add	r7, sp, #0
 1775              		.cfi_def_cfa_register 7
 1776 0006 0346     		mov	r3, r0
 1777 0008 FB71     		strb	r3, [r7, #7]
ARM GAS  C:\Users\JEFFSN~1\AppData\Local\Temp\cc8Xq6Yn.s 			page 51


1069:Generated_Source\PSoC5/cyfitter_cfg.c **** 	if (channel < 2)
 1778              		.loc 1 1069 0
 1779 000a FB79     		ldrb	r3, [r7, #7]	@ zero_extendqisi2
 1780 000c 012B     		cmp	r3, #1
 1781 000e 28D8     		bhi	.L50
1070:Generated_Source\PSoC5/cyfitter_cfg.c **** 	{
1071:Generated_Source\PSoC5/cyfitter_cfg.c **** 		channel += channel;
 1782              		.loc 1 1071 0
 1783 0010 FA79     		ldrb	r2, [r7, #7]
 1784 0012 FB79     		ldrb	r3, [r7, #7]
 1785 0014 1344     		add	r3, r3, r2
 1786 0016 FB71     		strb	r3, [r7, #7]
1072:Generated_Source\PSoC5/cyfitter_cfg.c **** 		*AMux_1_CYAMUXSIDE_B__addrTable[channel] &= (uint8)~AMux_1_CYAMUXSIDE_B__maskTable[channel];
 1787              		.loc 1 1072 0
 1788 0018 FB79     		ldrb	r3, [r7, #7]	@ zero_extendqisi2
 1789 001a 144A     		ldr	r2, .L51
 1790 001c 52F82330 		ldr	r3, [r2, r3, lsl #2]
 1791 0020 FA79     		ldrb	r2, [r7, #7]	@ zero_extendqisi2
 1792 0022 1249     		ldr	r1, .L51
 1793 0024 51F82220 		ldr	r2, [r1, r2, lsl #2]
 1794 0028 1178     		ldrb	r1, [r2]	@ zero_extendqisi2
 1795 002a FA79     		ldrb	r2, [r7, #7]	@ zero_extendqisi2
 1796 002c 1048     		ldr	r0, .L51+4
 1797 002e 825C     		ldrb	r2, [r0, r2]	@ zero_extendqisi2
 1798 0030 D243     		mvns	r2, r2
 1799 0032 D2B2     		uxtb	r2, r2
 1800 0034 0A40     		ands	r2, r2, r1
 1801 0036 D2B2     		uxtb	r2, r2
 1802 0038 1A70     		strb	r2, [r3]
1073:Generated_Source\PSoC5/cyfitter_cfg.c **** 		channel++;
 1803              		.loc 1 1073 0
 1804 003a FB79     		ldrb	r3, [r7, #7]	@ zero_extendqisi2
 1805 003c 0133     		adds	r3, r3, #1
 1806 003e FB71     		strb	r3, [r7, #7]
1074:Generated_Source\PSoC5/cyfitter_cfg.c **** 		*AMux_1_CYAMUXSIDE_B__addrTable[channel] &= (uint8)~AMux_1_CYAMUXSIDE_B__maskTable[channel];
 1807              		.loc 1 1074 0
 1808 0040 FB79     		ldrb	r3, [r7, #7]	@ zero_extendqisi2
 1809 0042 0A4A     		ldr	r2, .L51
 1810 0044 52F82330 		ldr	r3, [r2, r3, lsl #2]
 1811 0048 FA79     		ldrb	r2, [r7, #7]	@ zero_extendqisi2
 1812 004a 0849     		ldr	r1, .L51
 1813 004c 51F82220 		ldr	r2, [r1, r2, lsl #2]
 1814 0050 1178     		ldrb	r1, [r2]	@ zero_extendqisi2
 1815 0052 FA79     		ldrb	r2, [r7, #7]	@ zero_extendqisi2
 1816 0054 0648     		ldr	r0, .L51+4
 1817 0056 825C     		ldrb	r2, [r0, r2]	@ zero_extendqisi2
 1818 0058 D243     		mvns	r2, r2
 1819 005a D2B2     		uxtb	r2, r2
 1820 005c 0A40     		ands	r2, r2, r1
 1821 005e D2B2     		uxtb	r2, r2
 1822 0060 1A70     		strb	r2, [r3]
 1823              	.L50:
1075:Generated_Source\PSoC5/cyfitter_cfg.c **** 	}
1076:Generated_Source\PSoC5/cyfitter_cfg.c **** }
 1824              		.loc 1 1076 0
 1825 0062 00BF     		nop
 1826 0064 0C37     		adds	r7, r7, #12
ARM GAS  C:\Users\JEFFSN~1\AppData\Local\Temp\cc8Xq6Yn.s 			page 52


 1827              		.cfi_def_cfa_offset 4
 1828 0066 BD46     		mov	sp, r7
 1829              		.cfi_def_cfa_register 13
 1830              		@ sp needed
 1831 0068 80BC     		pop	{r7}
 1832              		.cfi_restore 7
 1833              		.cfi_def_cfa_offset 0
 1834 006a 7047     		bx	lr
 1835              	.L52:
 1836              		.align	2
 1837              	.L51:
 1838 006c 00000000 		.word	AMux_1_CYAMUXSIDE_B__addrTable
 1839 0070 00000000 		.word	AMux_1_CYAMUXSIDE_B__maskTable
 1840              		.cfi_endproc
 1841              	.LFE11:
 1842              		.size	AMux_1_CYAMUXSIDE_B_Unset, .-AMux_1_CYAMUXSIDE_B_Unset
 1843              		.global	CapSense_AMuxCH0__addrTable
 1844              		.section	.rodata
 1845              		.align	2
 1846              		.type	CapSense_AMuxCH0__addrTable, %object
 1847              		.size	CapSense_AMuxCH0__addrTable, 28
 1848              	CapSense_AMuxCH0__addrTable:
 1849 002c 2C510040 		.word	1073762604
 1850 0030 2C510040 		.word	1073762604
 1851 0034 2C510040 		.word	1073762604
 1852 0038 2C510040 		.word	1073762604
 1853 003c FC510040 		.word	1073762812
 1854 0040 C35A0040 		.word	1073765059
 1855 0044 835A0040 		.word	1073764995
 1856              		.global	CapSense_AMuxCH0__maskTable
 1857              		.align	2
 1858              		.type	CapSense_AMuxCH0__maskTable, %object
 1859              		.size	CapSense_AMuxCH0__maskTable, 7
 1860              	CapSense_AMuxCH0__maskTable:
 1861 0048 01       		.byte	1
 1862 0049 04       		.byte	4
 1863 004a 10       		.byte	16
 1864 004b 40       		.byte	64
 1865 004c 10       		.byte	16
 1866 004d 01       		.byte	1
 1867 004e 10       		.byte	16
 1868              		.section	.text.CapSense_AMuxCH0_Set,"ax",%progbits
 1869              		.align	2
 1870              		.global	CapSense_AMuxCH0_Set
 1871              		.thumb
 1872              		.thumb_func
 1873              		.type	CapSense_AMuxCH0_Set, %function
 1874              	CapSense_AMuxCH0_Set:
 1875              	.LFB12:
1077:Generated_Source\PSoC5/cyfitter_cfg.c **** 
1078:Generated_Source\PSoC5/cyfitter_cfg.c **** /* This is an implementation detail of the AMux. Code that depends on it may be
1079:Generated_Source\PSoC5/cyfitter_cfg.c ****    incompatible with other versions of PSoC Creator. */
1080:Generated_Source\PSoC5/cyfitter_cfg.c **** uint8 CYXDATA * const CYCODE CapSense_AMuxCH0__addrTable[7] = {
1081:Generated_Source\PSoC5/cyfitter_cfg.c **** 	(uint8 CYXDATA *)CYREG_PRT2_AMUX, 
1082:Generated_Source\PSoC5/cyfitter_cfg.c **** 	(uint8 CYXDATA *)CYREG_PRT2_AMUX, 
1083:Generated_Source\PSoC5/cyfitter_cfg.c **** 	(uint8 CYXDATA *)CYREG_PRT2_AMUX, 
1084:Generated_Source\PSoC5/cyfitter_cfg.c **** 	(uint8 CYXDATA *)CYREG_PRT2_AMUX, 
ARM GAS  C:\Users\JEFFSN~1\AppData\Local\Temp\cc8Xq6Yn.s 			page 53


1085:Generated_Source\PSoC5/cyfitter_cfg.c **** 	(uint8 CYXDATA *)CYREG_PRT15_AMUX, 
1086:Generated_Source\PSoC5/cyfitter_cfg.c **** 	(uint8 CYXDATA *)CYREG_CMP0_SW3, 
1087:Generated_Source\PSoC5/cyfitter_cfg.c **** 	(uint8 CYXDATA *)CYREG_DAC0_SW3, 
1088:Generated_Source\PSoC5/cyfitter_cfg.c **** };
1089:Generated_Source\PSoC5/cyfitter_cfg.c **** 
1090:Generated_Source\PSoC5/cyfitter_cfg.c **** /* This is an implementation detail of the AMux. Code that depends on it may be
1091:Generated_Source\PSoC5/cyfitter_cfg.c ****    incompatible with other versions of PSoC Creator. */
1092:Generated_Source\PSoC5/cyfitter_cfg.c **** const uint8 CYCODE CapSense_AMuxCH0__maskTable[7] = {
1093:Generated_Source\PSoC5/cyfitter_cfg.c **** 	0x01u, 
1094:Generated_Source\PSoC5/cyfitter_cfg.c **** 	0x04u, 
1095:Generated_Source\PSoC5/cyfitter_cfg.c **** 	0x10u, 
1096:Generated_Source\PSoC5/cyfitter_cfg.c **** 	0x40u, 
1097:Generated_Source\PSoC5/cyfitter_cfg.c **** 	0x10u, 
1098:Generated_Source\PSoC5/cyfitter_cfg.c **** 	0x01u, 
1099:Generated_Source\PSoC5/cyfitter_cfg.c **** 	0x10u, 
1100:Generated_Source\PSoC5/cyfitter_cfg.c **** };
1101:Generated_Source\PSoC5/cyfitter_cfg.c **** 
1102:Generated_Source\PSoC5/cyfitter_cfg.c **** /*******************************************************************************
1103:Generated_Source\PSoC5/cyfitter_cfg.c **** * Function Name: CapSense_AMuxCH0_Set
1104:Generated_Source\PSoC5/cyfitter_cfg.c **** ********************************************************************************
1105:Generated_Source\PSoC5/cyfitter_cfg.c **** * Summary:
1106:Generated_Source\PSoC5/cyfitter_cfg.c **** *  This function is used to set a particular channel as active on the AMux.
1107:Generated_Source\PSoC5/cyfitter_cfg.c **** *
1108:Generated_Source\PSoC5/cyfitter_cfg.c **** * Parameters:  
1109:Generated_Source\PSoC5/cyfitter_cfg.c **** *   channel - The mux channel input to set as active
1110:Generated_Source\PSoC5/cyfitter_cfg.c **** *
1111:Generated_Source\PSoC5/cyfitter_cfg.c **** * Return:
1112:Generated_Source\PSoC5/cyfitter_cfg.c **** *   void
1113:Generated_Source\PSoC5/cyfitter_cfg.c **** *
1114:Generated_Source\PSoC5/cyfitter_cfg.c **** *******************************************************************************/
1115:Generated_Source\PSoC5/cyfitter_cfg.c **** void CapSense_AMuxCH0_Set(uint8 channel)
1116:Generated_Source\PSoC5/cyfitter_cfg.c **** {
 1876              		.loc 1 1116 0
 1877              		.cfi_startproc
 1878              		@ args = 0, pretend = 0, frame = 8
 1879              		@ frame_needed = 1, uses_anonymous_args = 0
 1880              		@ link register save eliminated.
 1881 0000 80B4     		push	{r7}
 1882              		.cfi_def_cfa_offset 4
 1883              		.cfi_offset 7, -4
 1884 0002 83B0     		sub	sp, sp, #12
 1885              		.cfi_def_cfa_offset 16
 1886 0004 00AF     		add	r7, sp, #0
 1887              		.cfi_def_cfa_register 7
 1888 0006 0346     		mov	r3, r0
 1889 0008 FB71     		strb	r3, [r7, #7]
1117:Generated_Source\PSoC5/cyfitter_cfg.c **** 	if (channel < 7)
 1890              		.loc 1 1117 0
 1891 000a FB79     		ldrb	r3, [r7, #7]	@ zero_extendqisi2
 1892 000c 062B     		cmp	r3, #6
 1893 000e 0ED8     		bhi	.L55
1118:Generated_Source\PSoC5/cyfitter_cfg.c **** 	{
1119:Generated_Source\PSoC5/cyfitter_cfg.c **** 		*CapSense_AMuxCH0__addrTable[channel] |= CapSense_AMuxCH0__maskTable[channel];
 1894              		.loc 1 1119 0
 1895 0010 FB79     		ldrb	r3, [r7, #7]	@ zero_extendqisi2
 1896 0012 094A     		ldr	r2, .L56
 1897 0014 52F82330 		ldr	r3, [r2, r3, lsl #2]
ARM GAS  C:\Users\JEFFSN~1\AppData\Local\Temp\cc8Xq6Yn.s 			page 54


 1898 0018 FA79     		ldrb	r2, [r7, #7]	@ zero_extendqisi2
 1899 001a 0749     		ldr	r1, .L56
 1900 001c 51F82220 		ldr	r2, [r1, r2, lsl #2]
 1901 0020 1178     		ldrb	r1, [r2]	@ zero_extendqisi2
 1902 0022 FA79     		ldrb	r2, [r7, #7]	@ zero_extendqisi2
 1903 0024 0548     		ldr	r0, .L56+4
 1904 0026 825C     		ldrb	r2, [r0, r2]	@ zero_extendqisi2
 1905 0028 0A43     		orrs	r2, r2, r1
 1906 002a D2B2     		uxtb	r2, r2
 1907 002c 1A70     		strb	r2, [r3]
 1908              	.L55:
1120:Generated_Source\PSoC5/cyfitter_cfg.c **** 	}
1121:Generated_Source\PSoC5/cyfitter_cfg.c **** }
 1909              		.loc 1 1121 0
 1910 002e 00BF     		nop
 1911 0030 0C37     		adds	r7, r7, #12
 1912              		.cfi_def_cfa_offset 4
 1913 0032 BD46     		mov	sp, r7
 1914              		.cfi_def_cfa_register 13
 1915              		@ sp needed
 1916 0034 80BC     		pop	{r7}
 1917              		.cfi_restore 7
 1918              		.cfi_def_cfa_offset 0
 1919 0036 7047     		bx	lr
 1920              	.L57:
 1921              		.align	2
 1922              	.L56:
 1923 0038 00000000 		.word	CapSense_AMuxCH0__addrTable
 1924 003c 00000000 		.word	CapSense_AMuxCH0__maskTable
 1925              		.cfi_endproc
 1926              	.LFE12:
 1927              		.size	CapSense_AMuxCH0_Set, .-CapSense_AMuxCH0_Set
 1928              		.section	.text.CapSense_AMuxCH0_Unset,"ax",%progbits
 1929              		.align	2
 1930              		.global	CapSense_AMuxCH0_Unset
 1931              		.thumb
 1932              		.thumb_func
 1933              		.type	CapSense_AMuxCH0_Unset, %function
 1934              	CapSense_AMuxCH0_Unset:
 1935              	.LFB13:
1122:Generated_Source\PSoC5/cyfitter_cfg.c **** 
1123:Generated_Source\PSoC5/cyfitter_cfg.c **** /*******************************************************************************
1124:Generated_Source\PSoC5/cyfitter_cfg.c **** * Function Name: CapSense_AMuxCH0_Unset
1125:Generated_Source\PSoC5/cyfitter_cfg.c **** ********************************************************************************
1126:Generated_Source\PSoC5/cyfitter_cfg.c **** * Summary:
1127:Generated_Source\PSoC5/cyfitter_cfg.c **** *  This function is used to clear a particular channel from being active on the
1128:Generated_Source\PSoC5/cyfitter_cfg.c **** *  AMux.
1129:Generated_Source\PSoC5/cyfitter_cfg.c **** *
1130:Generated_Source\PSoC5/cyfitter_cfg.c **** * Parameters:  
1131:Generated_Source\PSoC5/cyfitter_cfg.c **** *   channel - The mux channel input to mark inactive
1132:Generated_Source\PSoC5/cyfitter_cfg.c **** *
1133:Generated_Source\PSoC5/cyfitter_cfg.c **** * Return:
1134:Generated_Source\PSoC5/cyfitter_cfg.c **** *   void
1135:Generated_Source\PSoC5/cyfitter_cfg.c **** *
1136:Generated_Source\PSoC5/cyfitter_cfg.c **** *******************************************************************************/
1137:Generated_Source\PSoC5/cyfitter_cfg.c **** void CapSense_AMuxCH0_Unset(uint8 channel)
1138:Generated_Source\PSoC5/cyfitter_cfg.c **** {
ARM GAS  C:\Users\JEFFSN~1\AppData\Local\Temp\cc8Xq6Yn.s 			page 55


 1936              		.loc 1 1138 0
 1937              		.cfi_startproc
 1938              		@ args = 0, pretend = 0, frame = 8
 1939              		@ frame_needed = 1, uses_anonymous_args = 0
 1940              		@ link register save eliminated.
 1941 0000 80B4     		push	{r7}
 1942              		.cfi_def_cfa_offset 4
 1943              		.cfi_offset 7, -4
 1944 0002 83B0     		sub	sp, sp, #12
 1945              		.cfi_def_cfa_offset 16
 1946 0004 00AF     		add	r7, sp, #0
 1947              		.cfi_def_cfa_register 7
 1948 0006 0346     		mov	r3, r0
 1949 0008 FB71     		strb	r3, [r7, #7]
1139:Generated_Source\PSoC5/cyfitter_cfg.c **** 	if (channel < 7)
 1950              		.loc 1 1139 0
 1951 000a FB79     		ldrb	r3, [r7, #7]	@ zero_extendqisi2
 1952 000c 062B     		cmp	r3, #6
 1953 000e 10D8     		bhi	.L60
1140:Generated_Source\PSoC5/cyfitter_cfg.c **** 	{
1141:Generated_Source\PSoC5/cyfitter_cfg.c **** 		*CapSense_AMuxCH0__addrTable[channel] &= (uint8)~CapSense_AMuxCH0__maskTable[channel];
 1954              		.loc 1 1141 0
 1955 0010 FB79     		ldrb	r3, [r7, #7]	@ zero_extendqisi2
 1956 0012 0A4A     		ldr	r2, .L61
 1957 0014 52F82330 		ldr	r3, [r2, r3, lsl #2]
 1958 0018 FA79     		ldrb	r2, [r7, #7]	@ zero_extendqisi2
 1959 001a 0849     		ldr	r1, .L61
 1960 001c 51F82220 		ldr	r2, [r1, r2, lsl #2]
 1961 0020 1178     		ldrb	r1, [r2]	@ zero_extendqisi2
 1962 0022 FA79     		ldrb	r2, [r7, #7]	@ zero_extendqisi2
 1963 0024 0648     		ldr	r0, .L61+4
 1964 0026 825C     		ldrb	r2, [r0, r2]	@ zero_extendqisi2
 1965 0028 D243     		mvns	r2, r2
 1966 002a D2B2     		uxtb	r2, r2
 1967 002c 0A40     		ands	r2, r2, r1
 1968 002e D2B2     		uxtb	r2, r2
 1969 0030 1A70     		strb	r2, [r3]
 1970              	.L60:
1142:Generated_Source\PSoC5/cyfitter_cfg.c **** 	}
1143:Generated_Source\PSoC5/cyfitter_cfg.c **** }
 1971              		.loc 1 1143 0
 1972 0032 00BF     		nop
 1973 0034 0C37     		adds	r7, r7, #12
 1974              		.cfi_def_cfa_offset 4
 1975 0036 BD46     		mov	sp, r7
 1976              		.cfi_def_cfa_register 13
 1977              		@ sp needed
 1978 0038 80BC     		pop	{r7}
 1979              		.cfi_restore 7
 1980              		.cfi_def_cfa_offset 0
 1981 003a 7047     		bx	lr
 1982              	.L62:
 1983              		.align	2
 1984              	.L61:
 1985 003c 00000000 		.word	CapSense_AMuxCH0__addrTable
 1986 0040 00000000 		.word	CapSense_AMuxCH0__maskTable
 1987              		.cfi_endproc
ARM GAS  C:\Users\JEFFSN~1\AppData\Local\Temp\cc8Xq6Yn.s 			page 56


 1988              	.LFE13:
 1989              		.size	CapSense_AMuxCH0_Unset, .-CapSense_AMuxCH0_Unset
 1990              		.global	CapSense_AMuxCH1__addrTable
 1991              		.section	.rodata
 1992 004f 00       		.align	2
 1993              		.type	CapSense_AMuxCH1__addrTable, %object
 1994              		.size	CapSense_AMuxCH1__addrTable, 28
 1995              	CapSense_AMuxCH1__addrTable:
 1996 0050 3C510040 		.word	1073762620
 1997 0054 3C510040 		.word	1073762620
 1998 0058 3C510040 		.word	1073762620
 1999 005c 3C510040 		.word	1073762620
 2000 0060 1C510040 		.word	1073762588
 2001 0064 DB5A0040 		.word	1073765083
 2002 0068 8B5A0040 		.word	1073765003
 2003              		.global	CapSense_AMuxCH1__maskTable
 2004              		.align	2
 2005              		.type	CapSense_AMuxCH1__maskTable, %object
 2006              		.size	CapSense_AMuxCH1__maskTable, 7
 2007              	CapSense_AMuxCH1__maskTable:
 2008 006c 01       		.byte	1
 2009 006d 08       		.byte	8
 2010 006e 20       		.byte	32
 2011 006f 80       		.byte	-128
 2012 0070 10       		.byte	16
 2013 0071 01       		.byte	1
 2014 0072 10       		.byte	16
 2015              		.section	.text.CapSense_AMuxCH1_Set,"ax",%progbits
 2016              		.align	2
 2017              		.global	CapSense_AMuxCH1_Set
 2018              		.thumb
 2019              		.thumb_func
 2020              		.type	CapSense_AMuxCH1_Set, %function
 2021              	CapSense_AMuxCH1_Set:
 2022              	.LFB14:
1144:Generated_Source\PSoC5/cyfitter_cfg.c **** 
1145:Generated_Source\PSoC5/cyfitter_cfg.c **** /* This is an implementation detail of the AMux. Code that depends on it may be
1146:Generated_Source\PSoC5/cyfitter_cfg.c ****    incompatible with other versions of PSoC Creator. */
1147:Generated_Source\PSoC5/cyfitter_cfg.c **** uint8 CYXDATA * const CYCODE CapSense_AMuxCH1__addrTable[7] = {
1148:Generated_Source\PSoC5/cyfitter_cfg.c **** 	(uint8 CYXDATA *)CYREG_PRT3_AMUX, 
1149:Generated_Source\PSoC5/cyfitter_cfg.c **** 	(uint8 CYXDATA *)CYREG_PRT3_AMUX, 
1150:Generated_Source\PSoC5/cyfitter_cfg.c **** 	(uint8 CYXDATA *)CYREG_PRT3_AMUX, 
1151:Generated_Source\PSoC5/cyfitter_cfg.c **** 	(uint8 CYXDATA *)CYREG_PRT3_AMUX, 
1152:Generated_Source\PSoC5/cyfitter_cfg.c **** 	(uint8 CYXDATA *)CYREG_PRT1_AMUX, 
1153:Generated_Source\PSoC5/cyfitter_cfg.c **** 	(uint8 CYXDATA *)CYREG_CMP3_SW3, 
1154:Generated_Source\PSoC5/cyfitter_cfg.c **** 	(uint8 CYXDATA *)CYREG_DAC1_SW3, 
1155:Generated_Source\PSoC5/cyfitter_cfg.c **** };
1156:Generated_Source\PSoC5/cyfitter_cfg.c **** 
1157:Generated_Source\PSoC5/cyfitter_cfg.c **** /* This is an implementation detail of the AMux. Code that depends on it may be
1158:Generated_Source\PSoC5/cyfitter_cfg.c ****    incompatible with other versions of PSoC Creator. */
1159:Generated_Source\PSoC5/cyfitter_cfg.c **** const uint8 CYCODE CapSense_AMuxCH1__maskTable[7] = {
1160:Generated_Source\PSoC5/cyfitter_cfg.c **** 	0x01u, 
1161:Generated_Source\PSoC5/cyfitter_cfg.c **** 	0x08u, 
1162:Generated_Source\PSoC5/cyfitter_cfg.c **** 	0x20u, 
1163:Generated_Source\PSoC5/cyfitter_cfg.c **** 	0x80u, 
1164:Generated_Source\PSoC5/cyfitter_cfg.c **** 	0x10u, 
1165:Generated_Source\PSoC5/cyfitter_cfg.c **** 	0x01u, 
ARM GAS  C:\Users\JEFFSN~1\AppData\Local\Temp\cc8Xq6Yn.s 			page 57


1166:Generated_Source\PSoC5/cyfitter_cfg.c **** 	0x10u, 
1167:Generated_Source\PSoC5/cyfitter_cfg.c **** };
1168:Generated_Source\PSoC5/cyfitter_cfg.c **** 
1169:Generated_Source\PSoC5/cyfitter_cfg.c **** /*******************************************************************************
1170:Generated_Source\PSoC5/cyfitter_cfg.c **** * Function Name: CapSense_AMuxCH1_Set
1171:Generated_Source\PSoC5/cyfitter_cfg.c **** ********************************************************************************
1172:Generated_Source\PSoC5/cyfitter_cfg.c **** * Summary:
1173:Generated_Source\PSoC5/cyfitter_cfg.c **** *  This function is used to set a particular channel as active on the AMux.
1174:Generated_Source\PSoC5/cyfitter_cfg.c **** *
1175:Generated_Source\PSoC5/cyfitter_cfg.c **** * Parameters:  
1176:Generated_Source\PSoC5/cyfitter_cfg.c **** *   channel - The mux channel input to set as active
1177:Generated_Source\PSoC5/cyfitter_cfg.c **** *
1178:Generated_Source\PSoC5/cyfitter_cfg.c **** * Return:
1179:Generated_Source\PSoC5/cyfitter_cfg.c **** *   void
1180:Generated_Source\PSoC5/cyfitter_cfg.c **** *
1181:Generated_Source\PSoC5/cyfitter_cfg.c **** *******************************************************************************/
1182:Generated_Source\PSoC5/cyfitter_cfg.c **** void CapSense_AMuxCH1_Set(uint8 channel)
1183:Generated_Source\PSoC5/cyfitter_cfg.c **** {
 2023              		.loc 1 1183 0
 2024              		.cfi_startproc
 2025              		@ args = 0, pretend = 0, frame = 8
 2026              		@ frame_needed = 1, uses_anonymous_args = 0
 2027              		@ link register save eliminated.
 2028 0000 80B4     		push	{r7}
 2029              		.cfi_def_cfa_offset 4
 2030              		.cfi_offset 7, -4
 2031 0002 83B0     		sub	sp, sp, #12
 2032              		.cfi_def_cfa_offset 16
 2033 0004 00AF     		add	r7, sp, #0
 2034              		.cfi_def_cfa_register 7
 2035 0006 0346     		mov	r3, r0
 2036 0008 FB71     		strb	r3, [r7, #7]
1184:Generated_Source\PSoC5/cyfitter_cfg.c **** 	if (channel < 7)
 2037              		.loc 1 1184 0
 2038 000a FB79     		ldrb	r3, [r7, #7]	@ zero_extendqisi2
 2039 000c 062B     		cmp	r3, #6
 2040 000e 0ED8     		bhi	.L65
1185:Generated_Source\PSoC5/cyfitter_cfg.c **** 	{
1186:Generated_Source\PSoC5/cyfitter_cfg.c **** 		*CapSense_AMuxCH1__addrTable[channel] |= CapSense_AMuxCH1__maskTable[channel];
 2041              		.loc 1 1186 0
 2042 0010 FB79     		ldrb	r3, [r7, #7]	@ zero_extendqisi2
 2043 0012 094A     		ldr	r2, .L66
 2044 0014 52F82330 		ldr	r3, [r2, r3, lsl #2]
 2045 0018 FA79     		ldrb	r2, [r7, #7]	@ zero_extendqisi2
 2046 001a 0749     		ldr	r1, .L66
 2047 001c 51F82220 		ldr	r2, [r1, r2, lsl #2]
 2048 0020 1178     		ldrb	r1, [r2]	@ zero_extendqisi2
 2049 0022 FA79     		ldrb	r2, [r7, #7]	@ zero_extendqisi2
 2050 0024 0548     		ldr	r0, .L66+4
 2051 0026 825C     		ldrb	r2, [r0, r2]	@ zero_extendqisi2
 2052 0028 0A43     		orrs	r2, r2, r1
 2053 002a D2B2     		uxtb	r2, r2
 2054 002c 1A70     		strb	r2, [r3]
 2055              	.L65:
1187:Generated_Source\PSoC5/cyfitter_cfg.c **** 	}
1188:Generated_Source\PSoC5/cyfitter_cfg.c **** }
 2056              		.loc 1 1188 0
ARM GAS  C:\Users\JEFFSN~1\AppData\Local\Temp\cc8Xq6Yn.s 			page 58


 2057 002e 00BF     		nop
 2058 0030 0C37     		adds	r7, r7, #12
 2059              		.cfi_def_cfa_offset 4
 2060 0032 BD46     		mov	sp, r7
 2061              		.cfi_def_cfa_register 13
 2062              		@ sp needed
 2063 0034 80BC     		pop	{r7}
 2064              		.cfi_restore 7
 2065              		.cfi_def_cfa_offset 0
 2066 0036 7047     		bx	lr
 2067              	.L67:
 2068              		.align	2
 2069              	.L66:
 2070 0038 00000000 		.word	CapSense_AMuxCH1__addrTable
 2071 003c 00000000 		.word	CapSense_AMuxCH1__maskTable
 2072              		.cfi_endproc
 2073              	.LFE14:
 2074              		.size	CapSense_AMuxCH1_Set, .-CapSense_AMuxCH1_Set
 2075              		.section	.text.CapSense_AMuxCH1_Unset,"ax",%progbits
 2076              		.align	2
 2077              		.global	CapSense_AMuxCH1_Unset
 2078              		.thumb
 2079              		.thumb_func
 2080              		.type	CapSense_AMuxCH1_Unset, %function
 2081              	CapSense_AMuxCH1_Unset:
 2082              	.LFB15:
1189:Generated_Source\PSoC5/cyfitter_cfg.c **** 
1190:Generated_Source\PSoC5/cyfitter_cfg.c **** /*******************************************************************************
1191:Generated_Source\PSoC5/cyfitter_cfg.c **** * Function Name: CapSense_AMuxCH1_Unset
1192:Generated_Source\PSoC5/cyfitter_cfg.c **** ********************************************************************************
1193:Generated_Source\PSoC5/cyfitter_cfg.c **** * Summary:
1194:Generated_Source\PSoC5/cyfitter_cfg.c **** *  This function is used to clear a particular channel from being active on the
1195:Generated_Source\PSoC5/cyfitter_cfg.c **** *  AMux.
1196:Generated_Source\PSoC5/cyfitter_cfg.c **** *
1197:Generated_Source\PSoC5/cyfitter_cfg.c **** * Parameters:  
1198:Generated_Source\PSoC5/cyfitter_cfg.c **** *   channel - The mux channel input to mark inactive
1199:Generated_Source\PSoC5/cyfitter_cfg.c **** *
1200:Generated_Source\PSoC5/cyfitter_cfg.c **** * Return:
1201:Generated_Source\PSoC5/cyfitter_cfg.c **** *   void
1202:Generated_Source\PSoC5/cyfitter_cfg.c **** *
1203:Generated_Source\PSoC5/cyfitter_cfg.c **** *******************************************************************************/
1204:Generated_Source\PSoC5/cyfitter_cfg.c **** void CapSense_AMuxCH1_Unset(uint8 channel)
1205:Generated_Source\PSoC5/cyfitter_cfg.c **** {
 2083              		.loc 1 1205 0
 2084              		.cfi_startproc
 2085              		@ args = 0, pretend = 0, frame = 8
 2086              		@ frame_needed = 1, uses_anonymous_args = 0
 2087              		@ link register save eliminated.
 2088 0000 80B4     		push	{r7}
 2089              		.cfi_def_cfa_offset 4
 2090              		.cfi_offset 7, -4
 2091 0002 83B0     		sub	sp, sp, #12
 2092              		.cfi_def_cfa_offset 16
 2093 0004 00AF     		add	r7, sp, #0
 2094              		.cfi_def_cfa_register 7
 2095 0006 0346     		mov	r3, r0
 2096 0008 FB71     		strb	r3, [r7, #7]
ARM GAS  C:\Users\JEFFSN~1\AppData\Local\Temp\cc8Xq6Yn.s 			page 59


1206:Generated_Source\PSoC5/cyfitter_cfg.c **** 	if (channel < 7)
 2097              		.loc 1 1206 0
 2098 000a FB79     		ldrb	r3, [r7, #7]	@ zero_extendqisi2
 2099 000c 062B     		cmp	r3, #6
 2100 000e 10D8     		bhi	.L70
1207:Generated_Source\PSoC5/cyfitter_cfg.c **** 	{
1208:Generated_Source\PSoC5/cyfitter_cfg.c **** 		*CapSense_AMuxCH1__addrTable[channel] &= (uint8)~CapSense_AMuxCH1__maskTable[channel];
 2101              		.loc 1 1208 0
 2102 0010 FB79     		ldrb	r3, [r7, #7]	@ zero_extendqisi2
 2103 0012 0A4A     		ldr	r2, .L71
 2104 0014 52F82330 		ldr	r3, [r2, r3, lsl #2]
 2105 0018 FA79     		ldrb	r2, [r7, #7]	@ zero_extendqisi2
 2106 001a 0849     		ldr	r1, .L71
 2107 001c 51F82220 		ldr	r2, [r1, r2, lsl #2]
 2108 0020 1178     		ldrb	r1, [r2]	@ zero_extendqisi2
 2109 0022 FA79     		ldrb	r2, [r7, #7]	@ zero_extendqisi2
 2110 0024 0648     		ldr	r0, .L71+4
 2111 0026 825C     		ldrb	r2, [r0, r2]	@ zero_extendqisi2
 2112 0028 D243     		mvns	r2, r2
 2113 002a D2B2     		uxtb	r2, r2
 2114 002c 0A40     		ands	r2, r2, r1
 2115 002e D2B2     		uxtb	r2, r2
 2116 0030 1A70     		strb	r2, [r3]
 2117              	.L70:
1209:Generated_Source\PSoC5/cyfitter_cfg.c **** 	}
1210:Generated_Source\PSoC5/cyfitter_cfg.c **** }
 2118              		.loc 1 1210 0
 2119 0032 00BF     		nop
 2120 0034 0C37     		adds	r7, r7, #12
 2121              		.cfi_def_cfa_offset 4
 2122 0036 BD46     		mov	sp, r7
 2123              		.cfi_def_cfa_register 13
 2124              		@ sp needed
 2125 0038 80BC     		pop	{r7}
 2126              		.cfi_restore 7
 2127              		.cfi_def_cfa_offset 0
 2128 003a 7047     		bx	lr
 2129              	.L72:
 2130              		.align	2
 2131              	.L71:
 2132 003c 00000000 		.word	CapSense_AMuxCH1__addrTable
 2133 0040 00000000 		.word	CapSense_AMuxCH1__maskTable
 2134              		.cfi_endproc
 2135              	.LFE15:
 2136              		.size	CapSense_AMuxCH1_Unset, .-CapSense_AMuxCH1_Unset
 2137              		.section	.text.cyfitter_cfg,"ax",%progbits
 2138              		.align	2
 2139              		.global	cyfitter_cfg
 2140              		.thumb
 2141              		.thumb_func
 2142              		.type	cyfitter_cfg, %function
 2143              	cyfitter_cfg:
 2144              	.LFB16:
1211:Generated_Source\PSoC5/cyfitter_cfg.c **** 
1212:Generated_Source\PSoC5/cyfitter_cfg.c **** 
1213:Generated_Source\PSoC5/cyfitter_cfg.c **** 
1214:Generated_Source\PSoC5/cyfitter_cfg.c **** /*******************************************************************************
ARM GAS  C:\Users\JEFFSN~1\AppData\Local\Temp\cc8Xq6Yn.s 			page 60


1215:Generated_Source\PSoC5/cyfitter_cfg.c **** * Function Name: cyfitter_cfg
1216:Generated_Source\PSoC5/cyfitter_cfg.c **** ********************************************************************************
1217:Generated_Source\PSoC5/cyfitter_cfg.c **** * Summary:
1218:Generated_Source\PSoC5/cyfitter_cfg.c **** *  This function is called by the start-up code for the selected device. It
1219:Generated_Source\PSoC5/cyfitter_cfg.c **** *  performs all of the necessary device configuration based on the design
1220:Generated_Source\PSoC5/cyfitter_cfg.c **** *  settings.  This includes settings from the Design Wide Resources (DWR) such
1221:Generated_Source\PSoC5/cyfitter_cfg.c **** *  as Clocks and Pins as well as any component configuration that is necessary.
1222:Generated_Source\PSoC5/cyfitter_cfg.c **** *
1223:Generated_Source\PSoC5/cyfitter_cfg.c **** * Parameters:
1224:Generated_Source\PSoC5/cyfitter_cfg.c **** *   void
1225:Generated_Source\PSoC5/cyfitter_cfg.c **** *
1226:Generated_Source\PSoC5/cyfitter_cfg.c **** * Return:
1227:Generated_Source\PSoC5/cyfitter_cfg.c **** *   void
1228:Generated_Source\PSoC5/cyfitter_cfg.c **** *
1229:Generated_Source\PSoC5/cyfitter_cfg.c **** *******************************************************************************/
1230:Generated_Source\PSoC5/cyfitter_cfg.c **** 
1231:Generated_Source\PSoC5/cyfitter_cfg.c **** void cyfitter_cfg(void)
1232:Generated_Source\PSoC5/cyfitter_cfg.c **** {
 2145              		.loc 1 1232 0
 2146              		.cfi_startproc
 2147              		@ args = 0, pretend = 0, frame = 0
 2148              		@ frame_needed = 1, uses_anonymous_args = 0
 2149 0000 80B5     		push	{r7, lr}
 2150              		.cfi_def_cfa_offset 8
 2151              		.cfi_offset 7, -8
 2152              		.cfi_offset 14, -4
 2153 0002 00AF     		add	r7, sp, #0
 2154              		.cfi_def_cfa_register 7
1233:Generated_Source\PSoC5/cyfitter_cfg.c **** #ifdef CYGlobalIntDisable
1234:Generated_Source\PSoC5/cyfitter_cfg.c **** 	/* Disable interrupts by default. Let user enable if/when they want. */
1235:Generated_Source\PSoC5/cyfitter_cfg.c **** 	CYGlobalIntDisable
 2155              		.loc 1 1235 0
 2156              		.syntax unified
 2157              	@ 1235 "Generated_Source\PSoC5\cyfitter_cfg.c" 1
 2158 0004 72B6     		CPSID   i
 2159              	@ 0 "" 2
1236:Generated_Source\PSoC5/cyfitter_cfg.c **** #endif
1237:Generated_Source\PSoC5/cyfitter_cfg.c **** 
1238:Generated_Source\PSoC5/cyfitter_cfg.c **** 
1239:Generated_Source\PSoC5/cyfitter_cfg.c **** 	/* Set Flash Cycles based on max possible frequency in case a glitch occurs during ClockSetup(). *
1240:Generated_Source\PSoC5/cyfitter_cfg.c **** 	CY_SET_XTND_REG8((void CYFAR *)(CYREG_CACHE_CC_CTL), (((CYDEV_INSTRUCT_CACHE_ENABLED) != 0) ? 0x61
 2160              		.loc 1 1240 0
 2161              		.thumb
 2162              		.syntax unified
 2163 0006 4B4B     		ldr	r3, .L74
 2164 0008 6122     		movs	r2, #97
 2165 000a 1A70     		strb	r2, [r3]
1241:Generated_Source\PSoC5/cyfitter_cfg.c **** 	/* Setup clocks based on selections from Clock DWR */
1242:Generated_Source\PSoC5/cyfitter_cfg.c **** 	ClockSetup();
 2166              		.loc 1 1242 0
 2167 000c FFF7FEFF 		bl	ClockSetup
1243:Generated_Source\PSoC5/cyfitter_cfg.c **** 	/* Enable/Disable Debug functionality based on settings from System DWR */
1244:Generated_Source\PSoC5/cyfitter_cfg.c **** 	CY_SET_XTND_REG8((void CYFAR *)CYREG_MLOGIC_DEBUG, (CY_GET_XTND_REG8((void CYFAR *)CYREG_MLOGIC_DE
 2168              		.loc 1 1244 0
 2169 0010 494A     		ldr	r2, .L74+4
 2170 0012 494B     		ldr	r3, .L74+4
 2171 0014 1B78     		ldrb	r3, [r3]
ARM GAS  C:\Users\JEFFSN~1\AppData\Local\Temp\cc8Xq6Yn.s 			page 61


 2172 0016 DBB2     		uxtb	r3, r3
 2173 0018 43F00403 		orr	r3, r3, #4
 2174 001c DBB2     		uxtb	r3, r3
 2175 001e 1370     		strb	r3, [r2]
1245:Generated_Source\PSoC5/cyfitter_cfg.c **** 
1246:Generated_Source\PSoC5/cyfitter_cfg.c **** 	{
1247:Generated_Source\PSoC5/cyfitter_cfg.c **** 		cfg_dma_init();
 2176              		.loc 1 1247 0
 2177 0020 FFF7FEFF 		bl	cfg_dma_init
1248:Generated_Source\PSoC5/cyfitter_cfg.c **** 
1249:Generated_Source\PSoC5/cyfitter_cfg.c **** 		/* Perform normal device configuration. Order is not critical for these items. */
1250:Generated_Source\PSoC5/cyfitter_cfg.c **** 		CY_SET_XTND_REG16((void CYFAR *)(CYREG_CAPSL_CFG0), 0x0300u);
 2178              		.loc 1 1250 0
 2179 0024 454B     		ldr	r3, .L74+8
 2180 0026 4FF44072 		mov	r2, #768
 2181 002a 1A80     		strh	r2, [r3]	@ movhi
1251:Generated_Source\PSoC5/cyfitter_cfg.c **** 		CY_SET_XTND_REG16((void CYFAR *)(CYREG_CAPSR_CFG0), 0x0300u);
 2182              		.loc 1 1251 0
 2183 002c 444B     		ldr	r3, .L74+12
 2184 002e 4FF44072 		mov	r2, #768
 2185 0032 1A80     		strh	r2, [r3]	@ movhi
1252:Generated_Source\PSoC5/cyfitter_cfg.c **** 		CY_SET_XTND_REG8((void CYFAR *)(CYREG_DSM0_CR3), 0x0Au);
 2186              		.loc 1 1252 0
 2187 0034 434B     		ldr	r3, .L74+16
 2188 0036 0A22     		movs	r2, #10
 2189 0038 1A70     		strb	r2, [r3]
1253:Generated_Source\PSoC5/cyfitter_cfg.c **** 		CY_SET_XTND_REG16((void CYFAR *)(CYREG_LUT0_CR), 0x0003u);
 2190              		.loc 1 1253 0
 2191 003a 434B     		ldr	r3, .L74+20
 2192 003c 0322     		movs	r2, #3
 2193 003e 1A80     		strh	r2, [r3]	@ movhi
1254:Generated_Source\PSoC5/cyfitter_cfg.c **** 		CY_SET_XTND_REG16((void CYFAR *)(CYREG_LUT3_CR), 0x0303u);
 2194              		.loc 1 1254 0
 2195 0040 424B     		ldr	r3, .L74+24
 2196 0042 40F20332 		movw	r2, #771
 2197 0046 1A80     		strh	r2, [r3]	@ movhi
1255:Generated_Source\PSoC5/cyfitter_cfg.c **** 		CYMEMZERO((void CYFAR *)(CYREG_PHUB_CFGMEM0_CFG0), 4u);
 2198              		.loc 1 1255 0
 2199 0048 0421     		movs	r1, #4
 2200 004a 4148     		ldr	r0, .L74+28
 2201 004c FFF7FEFF 		bl	CYMEMZERO
1256:Generated_Source\PSoC5/cyfitter_cfg.c **** 		CYCONFIGCPY((void CYFAR *)(CYREG_PHUB_CFGMEM1_CFG0), (const void CYFAR *)(BS_PHUB_CFGMEM1_VAL), 4
 2202              		.loc 1 1256 0
 2203 0050 0422     		movs	r2, #4
 2204 0052 4049     		ldr	r1, .L74+32
 2205 0054 4048     		ldr	r0, .L74+36
 2206 0056 FFF7FEFF 		bl	CYCONFIGCPY
1257:Generated_Source\PSoC5/cyfitter_cfg.c **** 		CYMEMZERO((void CYFAR *)(CYREG_PHUB_CFGMEM2_CFG0), 4u);
 2207              		.loc 1 1257 0
 2208 005a 0421     		movs	r1, #4
 2209 005c 3F48     		ldr	r0, .L74+40
 2210 005e FFF7FEFF 		bl	CYMEMZERO
1258:Generated_Source\PSoC5/cyfitter_cfg.c **** 		CYMEMZERO((void CYFAR *)(CYREG_PHUB_CFGMEM3_CFG0), 4u);
 2211              		.loc 1 1258 0
 2212 0062 0421     		movs	r1, #4
 2213 0064 3E48     		ldr	r0, .L74+44
 2214 0066 FFF7FEFF 		bl	CYMEMZERO
ARM GAS  C:\Users\JEFFSN~1\AppData\Local\Temp\cc8Xq6Yn.s 			page 62


1259:Generated_Source\PSoC5/cyfitter_cfg.c **** 		CYMEMZERO((void CYFAR *)(CYREG_PHUB_CFGMEM4_CFG0), 4u);
 2215              		.loc 1 1259 0
 2216 006a 0421     		movs	r1, #4
 2217 006c 3D48     		ldr	r0, .L74+48
 2218 006e FFF7FEFF 		bl	CYMEMZERO
1260:Generated_Source\PSoC5/cyfitter_cfg.c **** 		CYMEMZERO((void CYFAR *)(CYREG_PHUB_CFGMEM5_CFG0), 4u);
 2219              		.loc 1 1260 0
 2220 0072 0421     		movs	r1, #4
 2221 0074 3C48     		ldr	r0, .L74+52
 2222 0076 FFF7FEFF 		bl	CYMEMZERO
1261:Generated_Source\PSoC5/cyfitter_cfg.c **** 		CYCONFIGCPY((void CYFAR *)(CYREG_PHUB_CFGMEM6_CFG0), (const void CYFAR *)(BS_PHUB_CFGMEM6_VAL), 4
 2223              		.loc 1 1261 0
 2224 007a 0422     		movs	r2, #4
 2225 007c 3B49     		ldr	r1, .L74+56
 2226 007e 3C48     		ldr	r0, .L74+60
 2227 0080 FFF7FEFF 		bl	CYCONFIGCPY
1262:Generated_Source\PSoC5/cyfitter_cfg.c **** 		CYCONFIGCPY((void CYFAR *)(CYREG_PHUB_CFGMEM7_CFG0), (const void CYFAR *)(BS_PHUB_CFGMEM7_VAL), 4
 2228              		.loc 1 1262 0
 2229 0084 0422     		movs	r2, #4
 2230 0086 3B49     		ldr	r1, .L74+64
 2231 0088 3B48     		ldr	r0, .L74+68
 2232 008a FFF7FEFF 		bl	CYCONFIGCPY
1263:Generated_Source\PSoC5/cyfitter_cfg.c **** 
1264:Generated_Source\PSoC5/cyfitter_cfg.c **** 		/* B0_P7_U0_CFG24 Starting address: CYDEV_UCFG_B0_P7_U0_CFG24 */
1265:Generated_Source\PSoC5/cyfitter_cfg.c **** 		CY_SET_XTND_REG32((void CYFAR *)(CYREG_B0_P7_U0_CFG24), 0xC4040404u);
 2233              		.loc 1 1265 0
 2234 008e 3B4B     		ldr	r3, .L74+72
 2235 0090 3B4A     		ldr	r2, .L74+76
 2236 0092 1A60     		str	r2, [r3]
1266:Generated_Source\PSoC5/cyfitter_cfg.c **** 
1267:Generated_Source\PSoC5/cyfitter_cfg.c **** 		/* Enable digital routing */
1268:Generated_Source\PSoC5/cyfitter_cfg.c **** 		CY_SET_XTND_REG8((void CYFAR *)CYREG_BCTL0_BANK_CTL, CY_GET_XTND_REG8((void CYFAR *)CYREG_BCTL0_B
 2237              		.loc 1 1268 0
 2238 0094 3B4A     		ldr	r2, .L74+80
 2239 0096 3B4B     		ldr	r3, .L74+80
 2240 0098 1B78     		ldrb	r3, [r3]
 2241 009a DBB2     		uxtb	r3, r3
 2242 009c 43F00203 		orr	r3, r3, #2
 2243 00a0 DBB2     		uxtb	r3, r3
 2244 00a2 1370     		strb	r3, [r2]
1269:Generated_Source\PSoC5/cyfitter_cfg.c **** 		CY_SET_XTND_REG8((void CYFAR *)CYREG_BCTL1_BANK_CTL, CY_GET_XTND_REG8((void CYFAR *)CYREG_BCTL1_B
 2245              		.loc 1 1269 0
 2246 00a4 384A     		ldr	r2, .L74+84
 2247 00a6 384B     		ldr	r3, .L74+84
 2248 00a8 1B78     		ldrb	r3, [r3]
 2249 00aa DBB2     		uxtb	r3, r3
 2250 00ac 43F00203 		orr	r3, r3, #2
 2251 00b0 DBB2     		uxtb	r3, r3
 2252 00b2 1370     		strb	r3, [r2]
1270:Generated_Source\PSoC5/cyfitter_cfg.c **** 
1271:Generated_Source\PSoC5/cyfitter_cfg.c **** 		/* Enable UDB array */
1272:Generated_Source\PSoC5/cyfitter_cfg.c **** 		CY_SET_XTND_REG8((void CYFAR *)CYREG_PM_ACT_CFG0, CY_GET_XTND_REG8((void CYFAR *)CYREG_PM_ACT_CFG
 2253              		.loc 1 1272 0
 2254 00b4 354A     		ldr	r2, .L74+88
 2255 00b6 354B     		ldr	r3, .L74+88
 2256 00b8 1B78     		ldrb	r3, [r3]
 2257 00ba DBB2     		uxtb	r3, r3
ARM GAS  C:\Users\JEFFSN~1\AppData\Local\Temp\cc8Xq6Yn.s 			page 63


 2258 00bc 43F04003 		orr	r3, r3, #64
 2259 00c0 DBB2     		uxtb	r3, r3
 2260 00c2 1370     		strb	r3, [r2]
1273:Generated_Source\PSoC5/cyfitter_cfg.c **** 		CY_SET_XTND_REG8((void CYFAR *)CYREG_PM_AVAIL_CR2, CY_GET_XTND_REG8((void CYFAR *)CYREG_PM_AVAIL_
 2261              		.loc 1 1273 0
 2262 00c4 324A     		ldr	r2, .L74+92
 2263 00c6 324B     		ldr	r3, .L74+92
 2264 00c8 1B78     		ldrb	r3, [r3]
 2265 00ca DBB2     		uxtb	r3, r3
 2266 00cc 43F01003 		orr	r3, r3, #16
 2267 00d0 DBB2     		uxtb	r3, r3
 2268 00d2 1370     		strb	r3, [r2]
1274:Generated_Source\PSoC5/cyfitter_cfg.c **** 	}
1275:Generated_Source\PSoC5/cyfitter_cfg.c **** 
1276:Generated_Source\PSoC5/cyfitter_cfg.c **** 
1277:Generated_Source\PSoC5/cyfitter_cfg.c **** 	/* Perform second pass device configuration. These items must be configured in specific order afte
1278:Generated_Source\PSoC5/cyfitter_cfg.c **** 	CYCONFIGCPY((void CYFAR *)(CYREG_PRT0_DM0), (const void CYFAR *)(BS_IOPINS0_0_VAL), 8u);
 2269              		.loc 1 1278 0
 2270 00d4 0822     		movs	r2, #8
 2271 00d6 2F49     		ldr	r1, .L74+96
 2272 00d8 2F48     		ldr	r0, .L74+100
 2273 00da FFF7FEFF 		bl	CYCONFIGCPY
1279:Generated_Source\PSoC5/cyfitter_cfg.c **** 	CYCONFIGCPY((void CYFAR *)(CYREG_PRT12_DR), (const void CYFAR *)(BS_IOPINS0_7_VAL), 10u);
 2274              		.loc 1 1279 0
 2275 00de 0A22     		movs	r2, #10
 2276 00e0 2E49     		ldr	r1, .L74+104
 2277 00e2 2F48     		ldr	r0, .L74+108
 2278 00e4 FFF7FEFF 		bl	CYCONFIGCPY
1280:Generated_Source\PSoC5/cyfitter_cfg.c **** 	CYCONFIGCPY((void CYFAR *)(CYREG_PRT15_DR), (const void CYFAR *)(BS_IOPINS0_8_VAL), 10u);
 2279              		.loc 1 1280 0
 2280 00e8 0A22     		movs	r2, #10
 2281 00ea 2E49     		ldr	r1, .L74+112
 2282 00ec 2E48     		ldr	r0, .L74+116
 2283 00ee FFF7FEFF 		bl	CYCONFIGCPY
1281:Generated_Source\PSoC5/cyfitter_cfg.c **** 	CYCONFIGCPY((void CYFAR *)(CYREG_PRT1_DM0), (const void CYFAR *)(BS_IOPINS0_1_VAL), 8u);
 2284              		.loc 1 1281 0
 2285 00f2 0822     		movs	r2, #8
 2286 00f4 2D49     		ldr	r1, .L74+120
 2287 00f6 2E48     		ldr	r0, .L74+124
 2288 00f8 FFF7FEFF 		bl	CYCONFIGCPY
1282:Generated_Source\PSoC5/cyfitter_cfg.c **** 	CYCONFIGCPY((void CYFAR *)(CYREG_PRT2_DM0), (const void CYFAR *)(BS_IOPINS0_2_VAL), 8u);
 2289              		.loc 1 1282 0
 2290 00fc 0822     		movs	r2, #8
 2291 00fe 2D49     		ldr	r1, .L74+128
 2292 0100 2D48     		ldr	r0, .L74+132
 2293 0102 FFF7FEFF 		bl	CYCONFIGCPY
1283:Generated_Source\PSoC5/cyfitter_cfg.c **** 	CYCONFIGCPY((void CYFAR *)(CYREG_PRT3_DR), (const void CYFAR *)(BS_IOPINS0_3_VAL), 10u);
 2294              		.loc 1 1283 0
 2295 0106 0A22     		movs	r2, #10
 2296 0108 2C49     		ldr	r1, .L74+136
 2297 010a 2D48     		ldr	r0, .L74+140
 2298 010c FFF7FEFF 		bl	CYCONFIGCPY
1284:Generated_Source\PSoC5/cyfitter_cfg.c **** 	/* Switch Boost to the precision bandgap reference from its internal reference */
1285:Generated_Source\PSoC5/cyfitter_cfg.c **** 	CY_SET_REG8((void CYXDATA *)CYREG_BOOST_CR2, (CY_GET_REG8((void CYXDATA *)CYREG_BOOST_CR2) | 0x08u
 2299              		.loc 1 1285 0
 2300 0110 2C4A     		ldr	r2, .L74+144
 2301 0112 2C4B     		ldr	r3, .L74+144
ARM GAS  C:\Users\JEFFSN~1\AppData\Local\Temp\cc8Xq6Yn.s 			page 64


 2302 0114 1B78     		ldrb	r3, [r3]
 2303 0116 DBB2     		uxtb	r3, r3
 2304 0118 43F00803 		orr	r3, r3, #8
 2305 011c DBB2     		uxtb	r3, r3
 2306 011e 1370     		strb	r3, [r2]
1286:Generated_Source\PSoC5/cyfitter_cfg.c **** 
1287:Generated_Source\PSoC5/cyfitter_cfg.c **** 	/* Perform basic analog initialization to defaults */
1288:Generated_Source\PSoC5/cyfitter_cfg.c **** 	AnalogSetDefault();
 2307              		.loc 1 1288 0
 2308 0120 FFF7FEFF 		bl	AnalogSetDefault
1289:Generated_Source\PSoC5/cyfitter_cfg.c **** 
1290:Generated_Source\PSoC5/cyfitter_cfg.c **** 	/* Configure alternate active mode */
1291:Generated_Source\PSoC5/cyfitter_cfg.c **** 	CYCONFIGCPY((void CYFAR *)CYDEV_PM_STBY_BASE, (const void CYFAR *)CYDEV_PM_ACT_BASE, 14u);
 2309              		.loc 1 1291 0
 2310 0124 0E22     		movs	r2, #14
 2311 0126 1949     		ldr	r1, .L74+88
 2312 0128 2748     		ldr	r0, .L74+148
 2313 012a FFF7FEFF 		bl	CYCONFIGCPY
1292:Generated_Source\PSoC5/cyfitter_cfg.c **** }
 2314              		.loc 1 1292 0
 2315 012e 00BF     		nop
 2316 0130 80BD     		pop	{r7, pc}
 2317              	.L75:
 2318 0132 00BF     		.align	2
 2319              	.L74:
 2320 0134 00480040 		.word	1073760256
 2321 0138 E8460040 		.word	1073759976
 2322 013c 70580040 		.word	1073764464
 2323 0140 72580040 		.word	1073764466
 2324 0144 83580040 		.word	1073764483
 2325 0148 48580040 		.word	1073764424
 2326 014c 4E580040 		.word	1073764430
 2327 0150 00760040 		.word	1073772032
 2328 0154 F8230048 		.word	1207968760
 2329 0158 08760040 		.word	1073772040
 2330 015c 10760040 		.word	1073772048
 2331 0160 18760040 		.word	1073772056
 2332 0164 20760040 		.word	1073772064
 2333 0168 28760040 		.word	1073772072
 2334 016c FC230048 		.word	1207968764
 2335 0170 30760040 		.word	1073772080
 2336 0174 00240048 		.word	1207968768
 2337 0178 38760040 		.word	1073772088
 2338 017c 580E0140 		.word	1073811032
 2339 0180 040404C4 		.word	-1006369788
 2340 0184 03500140 		.word	1073827843
 2341 0188 13500140 		.word	1073827859
 2342 018c A0430040 		.word	1073759136
 2343 0190 C2430040 		.word	1073759170
 2344 0194 B8230048 		.word	1207968696
 2345 0198 02510040 		.word	1073762562
 2346 019c C0230048 		.word	1207968704
 2347 01a0 C0510040 		.word	1073762752
 2348 01a4 CC230048 		.word	1207968716
 2349 01a8 F0510040 		.word	1073762800
 2350 01ac D8230048 		.word	1207968728
 2351 01b0 12510040 		.word	1073762578
ARM GAS  C:\Users\JEFFSN~1\AppData\Local\Temp\cc8Xq6Yn.s 			page 65


 2352 01b4 E0230048 		.word	1207968736
 2353 01b8 22510040 		.word	1073762594
 2354 01bc E8230048 		.word	1207968744
 2355 01c0 30510040 		.word	1073762608
 2356 01c4 22430040 		.word	1073759010
 2357 01c8 B0430040 		.word	1073759152
 2358              		.cfi_endproc
 2359              	.LFE16:
 2360              		.size	cyfitter_cfg, .-cyfitter_cfg
 2361              		.bss
 2362 0005 000000   		.align	3
 2363              	DMA_ZERO_VAL.5003:
 2364 0008 00000000 		.space	4
 2365              		.section	.rodata
 2366 0073 00       		.align	2
 2367              		.type	CFG_TD_ADDR0.5005, %object
 2368              		.size	CFG_TD_ADDR0.5005, 384
 2369              	CFG_TD_ADDR0.5005:
 2370 0074 00000000 		.word	CH1_ADDR_DATA0.4998
 2371 0078 08000000 		.word	CH2_ADDR_DATA0.4999
 2372 007c 10000000 		.word	CH5_ADDR_DATA0.5000
 2373 0080 18000000 		.word	CH6_ADDR_DATA0.5001
 2374 0084 20000000 		.word	DMA_TD_START_CMD.5002
 2375 0088 20000000 		.word	DMA_TD_START_CMD.5002
 2376 008c 20000000 		.word	DMA_TD_START_CMD.5002
 2377 0090 20000000 		.word	DMA_TD_START_CMD.5002
 2378 0094 08000000 		.word	DMA_ZERO_VAL.5003
 2379 0098 08000000 		.word	DMA_ZERO_VAL.5003
 2380 009c 08000000 		.word	DMA_ZERO_VAL.5003
 2381 00a0 08000048 		.word	1207959560
 2382 00a4 10000048 		.word	1207959568
 2383 00a8 18000048 		.word	1207959576
 2384 00ac 20000048 		.word	1207959584
 2385 00b0 28000048 		.word	1207959592
 2386 00b4 30000048 		.word	1207959600
 2387 00b8 38000048 		.word	1207959608
 2388 00bc 40000048 		.word	1207959616
 2389 00c0 50000048 		.word	1207959632
 2390 00c4 580B0048 		.word	1207962456
 2391 00c8 980B0048 		.word	1207962520
 2392 00cc B80B0048 		.word	1207962552
 2393 00d0 F80B0048 		.word	1207962616
 2394 00d4 48000048 		.word	1207959624
 2395 00d8 58000048 		.word	1207959640
 2396 00dc D8000048 		.word	1207959768
 2397 00e0 58010048 		.word	1207959896
 2398 00e4 D8010048 		.word	1207960024
 2399 00e8 58020048 		.word	1207960152
 2400 00ec D8020048 		.word	1207960280
 2401 00f0 58030048 		.word	1207960408
 2402 00f4 D8030048 		.word	1207960536
 2403 00f8 58040048 		.word	1207960664
 2404 00fc D8040048 		.word	1207960792
 2405 0100 58050048 		.word	1207960920
 2406 0104 D8050048 		.word	1207961048
 2407 0108 58060048 		.word	1207961176
 2408 010c D8060048 		.word	1207961304
ARM GAS  C:\Users\JEFFSN~1\AppData\Local\Temp\cc8Xq6Yn.s 			page 66


 2409 0110 58070048 		.word	1207961432
 2410 0114 D8070048 		.word	1207961560
 2411 0118 58080048 		.word	1207961688
 2412 011c D8080048 		.word	1207961816
 2413 0120 58090048 		.word	1207961944
 2414 0124 D8090048 		.word	1207962072
 2415 0128 580A0048 		.word	1207962200
 2416 012c D80A0048 		.word	1207962328
 2417 0130 180C0048 		.word	1207962648
 2418 0134 280C0048 		.word	1207962664
 2419 0138 380C0048 		.word	1207962680
 2420 013c B80C0048 		.word	1207962808
 2421 0140 380D0048 		.word	1207962936
 2422 0144 B80D0048 		.word	1207963064
 2423 0148 380E0048 		.word	1207963192
 2424 014c B80E0048 		.word	1207963320
 2425 0150 380F0048 		.word	1207963448
 2426 0154 B80F0048 		.word	1207963576
 2427 0158 38100048 		.word	1207963704
 2428 015c B8100048 		.word	1207963832
 2429 0160 38110048 		.word	1207963960
 2430 0164 B8110048 		.word	1207964088
 2431 0168 38120048 		.word	1207964216
 2432 016c B8120048 		.word	1207964344
 2433 0170 38130048 		.word	1207964472
 2434 0174 B8130048 		.word	1207964600
 2435 0178 38140048 		.word	1207964728
 2436 017c B8140048 		.word	1207964856
 2437 0180 38150048 		.word	1207964984
 2438 0184 B8150048 		.word	1207965112
 2439 0188 38160048 		.word	1207965240
 2440 018c B8160048 		.word	1207965368
 2441 0190 38170048 		.word	1207965496
 2442 0194 B8170048 		.word	1207965624
 2443 0198 38180048 		.word	1207965752
 2444 019c B8180048 		.word	1207965880
 2445 01a0 38190048 		.word	1207966008
 2446 01a4 B8190048 		.word	1207966136
 2447 01a8 381A0048 		.word	1207966264
 2448 01ac B81A0048 		.word	1207966392
 2449 01b0 381B0048 		.word	1207966520
 2450 01b4 B81B0048 		.word	1207966648
 2451 01b8 381C0048 		.word	1207966776
 2452 01bc B81C0048 		.word	1207966904
 2453 01c0 381D0048 		.word	1207967032
 2454 01c4 B81D0048 		.word	1207967160
 2455 01c8 381E0048 		.word	1207967288
 2456 01cc B81E0048 		.word	1207967416
 2457 01d0 381F0048 		.word	1207967544
 2458 01d4 B81F0048 		.word	1207967672
 2459 01d8 38200048 		.word	1207967800
 2460 01dc B8200048 		.word	1207967928
 2461 01e0 38210048 		.word	1207968056
 2462 01e4 B8210048 		.word	1207968184
 2463 01e8 38220048 		.word	1207968312
 2464 01ec B8220048 		.word	1207968440
 2465 01f0 38230048 		.word	1207968568
ARM GAS  C:\Users\JEFFSN~1\AppData\Local\Temp\cc8Xq6Yn.s 			page 67


 2466              		.text
 2467              	.Letext0:
 2468              		.file 2 "c:\\program files (x86)\\cypress\\psoc creator\\4.4\\psoc creator\\import\\gnu\\arm\\5.4.
 2469              		.file 3 "Generated_Source\\PSoC5\\cytypes.h"