ARM GAS  C:\Users\JEFFSN~1\AppData\Local\Temp\cc5KWU8R.s 			page 1


   1              		.syntax unified
   2              		.cpu cortex-m3
   3              		.fpu softvfp
   4              		.eabi_attribute 20, 1
   5              		.eabi_attribute 21, 1
   6              		.eabi_attribute 23, 3
   7              		.eabi_attribute 24, 1
   8              		.eabi_attribute 25, 1
   9              		.eabi_attribute 26, 1
  10              		.eabi_attribute 30, 1
  11              		.eabi_attribute 34, 1
  12              		.eabi_attribute 18, 4
  13              		.thumb
  14              		.syntax unified
  15              		.file	"DMA_2_TX_dma.c"
  16              		.text
  17              	.Ltext0:
  18              		.section	.gnu.lto_.profile.c724161a,"",%progbits
  19 0000 789C6361 		.ascii	"x\234ca`d`a`\000\222\266\342\000\000\373\000_"
  19      60646061 
  19      600092B6 
  19      E20000FB 
  19      005F
  20              		.text
  21              		.section	.gnu.lto_.inline.c724161a,"",%progbits
  22 0000 789C6361 		.ascii	"x\234ca`d\000\001\177\006\004`b`\020\325gd`\3428`\307"
  22      60640001 
  22      7F060460 
  22      626010D5 
  22      676460E2 
  23 0017 C0B6409E 		.ascii	"\300\266@\236\011$\306\314\003\024\237\340\307\300\302"
  23      0924C6CC 
  23      03149FE0 
  23      C7C0C2
  24 0026 0B644FF0 		.ascii	"\013dO\360\003Av\001\006\0066\006\020\013\254\207\215"
  24      03417601 
  24      06063606 
  24      100BAC87 
  24      8D
  25 0037 0FA885E9 		.ascii	"\017\250\205\351\002?\\\013\0237\003\003#P\022\000\264"
  25      023F5C0B 
  25      13370303 
  25      23501200 
  25      B4
  26 0048 960A8E   		.ascii	"\226\012\216"
  27              		.text
  28              		.section	.gnu.lto_.jmpfuncs.c724161a,"",%progbits
  29 0000 789C6361 		.ascii	"x\234ca`d\000\001\036\006\004`B\242\000\002\000\000"
  29      60640001 
  29      1E060460 
  29      42A20002 
  29      0000
  30 0012 16       		.ascii	"\026"
  31              		.text
  32              		.section	.gnu.lto_.pureconst.c724161a,"",%progbits
  33 0000 789C6361 		.ascii	"x\234ca`d`e```b\220`\222\000\000\000\347\000?"
  33      60646065 
ARM GAS  C:\Users\JEFFSN~1\AppData\Local\Temp\cc5KWU8R.s 			page 2


  33      60606062 
  33      90609200 
  33      0000E700 
  34              		.text
  35              		.section	.gnu.lto_DMA_2_TX_DmaInitialize.c724161a,"",%progbits
  36 0000 789C9592 		.ascii	"x\234\225\222KL\023Q\024\206\357\271\267\355\324\241"
  36      4B4C1351 
  36      1486EFB9 
  36      B7EDD4A1 
  37 0010 14762EEC 		.ascii	"\024v.\354\302\225\265\033c|$n\021\022W&\204j\342\002"
  37      C295B51B 
  37      637C246E 
  37      11125726 
  37      846AE202 
  38 0024 D3907696 		.ascii	"\323\220v\226\002N\313\272\227\326\252$.$\001\224\030"
  38      024ECBBA 
  38      97D6AA24 
  38      2E240194 
  38      18
  39 0035 6C7C1050 		.ascii	"l|\020P\301\212\357\202b\361\0215\022\211\212+51.\032"
  39      C18AEF82 
  39      62F11135 
  39      12898A2B 
  39      35312E1A 
  40 0049 D390F048 		.ascii	"\323\220\360H\201h\254\3439\267#\232\320\015\223Lf\356"
  40      8168ACE3 
  40      39B7239A 
  40      D00D934C 
  40      66EE
  41 005b 99F37FFF 		.ascii	"\231\363\177\377\177\356\\\007\003F\327\250`,\214\317"
  41      7FEE5C07 
  41      0346D7A8 
  41      602C8CCF 
  42 006b 2D788360 		.ascii	"-x\203`\300\317\276e\254\323\315\001\350E\272\201\305"
  42      C0CFBE65 
  42      ACD3CD01 
  42      E845BA81 
  42      C5
  43 007c 39C46199 		.ascii	"9\304a\231\2278\274Y}uF\017\014I\231\220_\007\227\366"
  43      9738BC59 
  43      7D75460F 
  43      0C499990 
  43      5F0797F6 
  44 0090 9D1BCE41 		.ascii	"\235\033\316A\012\345\026g\260\333\007;}\204\030\202"
  44      0AE51667 
  44      B0DB073B 
  44      7D841882 
  45 00a0 0076CE8E 		.ascii	"\000v\316\216\314tyE\000\030\276_\354\231.\012\377 "
  45      CC747945 
  45      0018BE5F 
  45      EC992E0A 
  45      FF20
  46 00b2 A964FF51 		.ascii	"\251d\377Q)P\002\303 \376\251\210\001\327\300\217\275"
  46      295002C3 
  46      20FEA988 
  46      01D7C08F 
  46      BD
ARM GAS  C:\Users\JEFFSN~1\AppData\Local\Temp\cc5KWU8R.s 			page 3


  47 00c3 F31F2E6F 		.ascii	"\363\037.o\026{\224\254;\375\262\340\264e_l\331\365"
  47      167B94AC 
  47      3BFDB2E0 
  47      B4655F6C 
  47      D9F5
  48 00d5 75B21B4A 		.ascii	"u\262\033J\366\302Z\315\325\024yJ\000P\316\367\013\323"
  48      F6C25ACD 
  48      D514794A 
  48      0050CEF7 
  48      0BD3
  49 00e7 0355B4E4 		.ascii	"\003U\264\344P\213\313\271+\227f=\242^Q\023\245\245"
  49      508BCBB9 
  49      2B97663D 
  49      A25E5113 
  49      A5A5
  50 00f9 49AF4D9D 		.ascii	"I\257M\2358\351\221\215)!\340f\031;\012>\030\001\002"
  50      38E9918D 
  50      2921E066 
  50      193B0A3E 
  50      180102
  51 010c A3554681 		.ascii	"\243UF\201\307\177\346\347\275\"\250\244=\317\262\326"
  51      C77FE6E7 
  51      BD22A8A4 
  51      3DCFB2D6 
  52 011c DF40174E 		.ascii	"\337@\027N\331\322[\025\244c\340\247\376oc\277{\253"
  52      D9D25B15 
  52      A463E0A7 
  52      FE6F63BF 
  52      7BAB
  53 012e 5D27245E 		.ascii	"]'$^[i\2170\355mp\321\256g\232r\322\262\2222\327\253"
  53      5B698F30 
  53      ED6D70D1 
  53      AE679A72 
  53      D2B29232 
  54 0144 4D7DD6AA 		.ascii	"M}\326\25215N\357\000\032\306\205\010\207\006d\357\006"
  54      31354EEF 
  54      001AC685 
  54      08870664 
  54      EF06
  55 0156 22E954F0 		.ascii	"\"\351T\360\250a\331\002B\350\257,rNO\221\207Dq!\337"
  55      A861D902 
  55      42E8AF2C 
  55      724E4F91 
  55      87447121 
  56 016b A911170D 		.ascii	"\251\021\027\015\373ROg4\032\333\251\362f\263s\237\264"
  56      FB524F67 
  56      341ADBA9 
  56      F266B373 
  56      9FB4
  57 017d 78499E96 		.ascii	"xI\236\226\262\026k]D\300ra\372\343s=\015\003\235R\325"
  57      B2166B5D 
  57      44C07261 
  57      FAE3733D 
  57      0D039D52 
  58 0192 19DCC5DF 		.ascii	"\031\334\305\337{\007\2633\270\007i\300\216\327W\307"
  58      7B07B333 
  58      B80769C0 
ARM GAS  C:\Users\JEFFSN~1\AppData\Local\Temp\cc5KWU8R.s 			page 4


  58      8ED757C7 
  59 01a2 7F7988E3 		.ascii	"\177y\210\343\000'\334\307/\337\241_\236_\331N6\353"
  59      0027DCC7 
  59      2FDFA15F 
  59      9E5FD94E 
  59      36EB
  60 01b4 C12E8BE3 		.ascii	"\301.\213\343L\360\000\342\214\232\223B$\205\003\273"
  60      4CF000E2 
  60      8C9A9342 
  60      248503BB 
  61 01c4 3273D91F 		.ascii	"2s\331\037\325e\012\203\207\270?\366\235\022\032\303"
  61      D5650A83 
  61      87B83FF6 
  61      9D121AC3 
  62 01d4 E07DDD45 		.ascii	"\340}\335E `R\2706\2205\273\226u\034\263b0W\345Pn\013"
  62      206052B8 
  62      369035BB 
  62      96751CB3 
  62      623057E5 
  63 01eb B788C104 		.ascii	"\267\210\301\004\206B\203\244\320\222\302\235\022\233"
  63      864283A4 
  63      D092C29D 
  63      129B
  64 01f9 94F1BB65 		.ascii	"\224\361\273e\333X\337\200\361\2435\343\307ecgec\335"
  64      DB58DF80 
  64      F1A335E3 
  64      C7656367 
  64      6563DD
  65 020c E2742C27 		.ascii	"\342t,'\225\261\376\377\321t\000\207'4~\225J\261\270"
  65      95B1FEFF 
  65      D1740087 
  65      27347E95 
  65      4AB1B8
  66 021f 3225CA31 		.ascii	"2%\3121<\033\210\221[\2131E1\012\310,3\230:\036@\307"
  66      3C1B8891 
  66      5B8B3145 
  66      310AC82C 
  66      33983A1E 
  67 0235 0207DF76 		.ascii	"\002\007\337v\300h5\314\226\230\021\011\005\333:\314"
  67      C06835CC 
  67      96981109 
  67      05DB3ACC 
  68 0245 B0D1DC18 		.ascii	"\260\321\334\030l\253\337\333\334p\260.\264+t\350H("
  68      6CABDFDB 
  68      DC70B02E 
  68      B42B74E8 
  68      4828
  69 0257 72AC6547 		.ascii	"r\254eG\230\351\373;\314h\254\276\255\2435\346m2\216"
  69      98E9FB3B 
  69      CC68ACBE 
  69      ADA335E6 
  69      6D328E
  70 026a 1BD158A3 		.ascii	"\033\321X\243a\252Z\315\341\366v\303\014\232\341\272"
  70      61AA5ACD 
  70      E1F676C3 
  70      0C9AE1BA 
  71 027a 48C434A2 		.ascii	"H\3044\242\321Z\265n\300\016\273\360\007 \373\\\354"
ARM GAS  C:\Users\JEFFSN~1\AppData\Local\Temp\cc5KWU8R.s 			page 5


  71      D15AB56E 
  71      C00EBBF0 
  71      0720FB5C 
  71      EC
  72              		.text
  73              		.section	.gnu.lto_DMA_2_TX_DmaRelease.c724161a,"",%progbits
  74 0000 789C6361 		.ascii	"x\234ca`d\000\0016 \245\001\244\245\201\230\221\231"
  74      60640001 
  74      3620A501 
  74      A4A58198 
  74      9199
  75 0012 819169C2 		.ascii	"\201\221i\3029\006\206F\016&FF\020\243\201\203\221\241"
  75      39068646 
  75      0E264646 
  75      10A38183 
  75      91A1
  76 0024 9E89B19E 		.ascii	"\236\211\261\236\361+\323_&\306C\355\317v2i.o\000\202"
  76      F12BD35F 
  76      26C643ED 
  76      CF763269 
  76      2E6F0082 
  77 0038 07ADCB0C 		.ascii	"\007\255\313\014\033V\034`lef`\370\317\0046\211\201"
  77      1B561C60 
  77      6C656660 
  77      F8CF0436 
  77      8981
  78 004a 7139A326 		.ascii	"q9\243&\003P\331\243\215\377\246\362\262\265\200\224"
  78      0350D9A3 
  78      8DFFA6F2 
  78      B2B58094 
  79 005a 29402419 		.ascii	")@$\031W0\202\354aX\037t\240\341\377\377\346\206\003"
  79      573082EC 
  79      61581F74 
  79      A0E1FFFF 
  79      E68603
  80 006d 9BB90EEE 		.ascii	"\233\271\016\356\340babhe\006\012\177\000*\001Y\366"
  80      E0626162 
  80      6865060A 
  80      7F002A01 
  80      59F6
  81 007f 91890944 		.ascii	"\221\211\011D3?cl\232\366\361l\020HS33\310\336i\255"
  81      333F636C 
  81      9AF6F16C 
  81      10485333 
  81      33C8DE69 
  82 0094 87CEB37F 		.ascii	"\207\316\263\177ajefb\004\231\277s\347\233\333\354\365"
  82      616A6566 
  82      620499BF 
  82      73E79BDB 
  82      ECF5
  83 00a6 7F1B3A1A 		.ascii	"\177\033:\032\032\004\200b\235@'\200\204_\235\271z\204"
  83      1A048062 
  83      9D402780 
  83      845F9DB9 
  83      7A84
  84 00b8 6B3EE3DC 		.ascii	"k>\343\334\306\006\26083\343*\240\273W2\312\000\255"
  84      C606B038 
ARM GAS  C:\Users\JEFFSN~1\AppData\Local\Temp\cc5KWU8R.s 			page 6


  84      33E32AA0 
  84      BB5732CA 
  84      00AD
  85 00ca 5FCD389F 		.ascii	"_\3158\237\221\341\005#\013\310HL\023X\376\003\315e"
  85      91E10523 
  85      0BC8484C 
  85      1358FE03 
  85      CD65
  86 00dc 605CC358 		.ascii	"`\\\303X\317\000\264\257\225\231\225\341\025c\323\201"
  86      CF00B4AF 
  86      959995E1 
  86      1563D381 
  87 00ec 9D5E60D5 		.ascii	"\235^`\325 \360\001(\017t\030\320\231j\356\251y\251"
  87      20F00128 
  87      0F7418D0 
  87      996AEEA9 
  87      79A9
  88 00fe 458925A9 		.ascii	"E\211%\251)\361\301\371\245E\311\2511\001\301\371\316"
  88      29F1C1F9 
  88      A545C9A9 
  88      3101C1F9 
  88      CE
  89 010f A6312EBE 		.ascii	"\2461.\276\216\361F\361!\021\361)\271\211z\311\014\000"
  89      8EF146F1 
  89      2111F129 
  89      B9897AC9 
  89      0C00
  90 0121 FF056903 		.ascii	"\377\005i\003"
  91              		.text
  92              		.section	.gnu.lto_.symbol_nodes.c724161a,"",%progbits
  93 0000 789C558C 		.ascii	"x\234U\214\261\015\2000\014\004\317q\222\001\230\000"
  93      B10D8030 
  93      0C04CF71 
  93      92019800 
  94 0010 26759028 		.ascii	"&u\220()\230\2039R3\003,\202pR\221oN\367/}D\330\361"
  94      29988339 
  94      5233032C 
  94      82705291 
  94      6F4EF72F 
  95 0028 0431382E 		.ascii	"\00418.p\234e\201\004\353\324\206`2\014\222,\364\002"
  95      709C6581 
  95      04EBD486 
  95      60320C92 
  95      2CF402
  96 003b 4A99DDA3 		.ascii	"J\231\335\243\351\340jq\360l\351\357\352\327\365~E\211"
  96      E9E06A71 
  96      F06CE9EF 
  96      EAD7F57E 
  96      4589
  97 004d 6C4FA352 		.ascii	"lO\243R\033C\356=\037\276\244\037\006"
  97      1B43EE3D 
  97      1FBEA41F 
  97      06
  98              		.text
  99              		.section	.gnu.lto_.refs.c724161a,"",%progbits
 100 0000 789C0DC7 		.ascii	"x\234\015\307I\021\000 \000\000!\326c,`\377\254\312"
 100      49110020 
ARM GAS  C:\Users\JEFFSN~1\AppData\Local\Temp\cc5KWU8R.s 			page 7


 100      000021D6 
 100      632C60FF 
 100      ACCA
 101 0012 8F25174B 		.ascii	"\217%\027K\245\251\255\323\370\365\000\003\311\0008"
 101      A5A9ADD3 
 101      F8F50003 
 101      C90038
 102              		.text
 103              		.section	.gnu.lto_.decls.c724161a,"",%progbits
 104 0000 789C8D54 		.ascii	"x\234\215ToL\024G\024\337\267\273\"\034 \206\032\213"
 104      6F4C1447 
 104      14DFB7BB 
 104      221C2086 
 104      1A8B
 105 0012 C925A526 		.ascii	"\311%\245&\012\237hi\323\246\375\322\304\034U\233\306"
 105      0A9F6869 
 105      D3A6FDD2 
 105      C41C559B 
 105      C6
 106 0023 C6146BDA 		.ascii	"\306\024k\332\304\204\034\334\266^\202G\303\035\211"
 106      C4841CDC 
 106      B65E8247 
 106      C31D89
 107 0032 F4D3B640 		.ascii	"\364\323\266@\025m\332bl\251\210\025\324Z@\0218\020"
 107      156DDA62 
 107      6CA98815 
 107      D45A4011 
 107      3810
 108 0044 CA1FF528 		.ascii	"\312\037\365(\225\003\004\001\001\205\003\312\311\201"
 108      95030401 
 108      018503CA 
 108      C981
 109 0052 960A2A55 		.ascii	"\226\012*U#\326\320\353\233\331\331\333\275\246\227"
 109      23D6D0EB 
 109      9BD9D9DB 
 109      BDA697
 110 0061 76E0DDCC 		.ascii	"v\340\335\314\274\371\315\373\275\337\233\331\0219\340"
 110      BCF9CDFB 
 110      BDDF9BD9 
 110      1139E0
 111 0070 489B5AC9 		.ascii	"H\233Z\311q\353p\370\033\216\375\330\004\354wrZ\013"
 111      71EB70F8 
 111      1B8EFDD8 
 111      04EC7772 
 111      5A0B
 112 0082 43BB80E6 		.ascii	"C\273\200\346B\353A\033@\033C\233D#\021\274\\p#\330"
 112      42EB411B 
 112      401B439B 
 112      442311BC 
 112      5C7023D8 
 113 0096 28B426B4 		.ascii	"(\264&\264X\2645h5hF\264\233h\323h\243h>\264~\264\031"
 113      58B43568 
 113      356846B4 
 113      9B68D368 
 113      A3683EB4 
 114 00ad B46EB657 		.ascii	"\264n\266Wd\373\307\030OO\010\016\027\313k\247..\341"
 114      64FBC718 
ARM GAS  C:\Users\JEFFSN~1\AppData\Local\Temp\cc5KWU8R.s 			page 8


 114      4F4F080E 
 114      17CB6BA7 
 114      2E2EE1
 115 00c0 9B459B60 		.ascii	"\233E\233`\030\236\341B\345\271\314Ci\373\367\035+\306"
 115      189EE142 
 115      E5B9CC43 
 115      69FBF71D 
 115      2BC6
 116 00d2 610C8003 		.ascii	"a\014\200\003\3328V\023\216xXO\006\240Lx\216\305\002"
 116      DA385613 
 116      8E78584F 
 116      06A04C78 
 116      8EC502
 117 00e5 15C4D0F4 		.ascii	"\025\304\320\364\017\377y\212\017\370U\\\200\323\257"
 117      0FFF798A 
 117      0FF8555C 
 117      80D3AF
 118 00f4 36CD0581 		.ascii	"6\315\005\201\246\"!8(\211\252Mq\316k\033t\361X\366"
 118      A6222138 
 118      2889AA4D 
 118      71CE6B1B 
 118      74F158F6 
 119 0108 8C1FF4B4 		.ascii	"\214\037\364\2644\264\240\212\376\256\273\274\304 `"
 119      34B4A08A 
 119      FEAEBBBC 
 119      C42060
 120 0117 4C1C4F3D 		.ascii	"L\034O=\251\330\234tV\306\366\265,\363\257k\225\371"
 120      A9D89C74 
 120      56C6F6B5 
 120      2CF3AF6B 
 120      95F9
 121 0129 E1CFA7F7 		.ascii	"\341\317\247\367\205\207<l4\000\336\010t\324\3147?\211"
 121      85873C6C 
 121      3400DE08 
 121      74D4CC37 
 121      3F89
 122 013b 561C64BD 		.ascii	"V\034d\275\242\274\263\336 \254\247\343\313\376\307"
 122      A2BCB3DE 
 122      20ACA7E3 
 122      CBFEC7
 123 014a AE185C8A 		.ascii	"\256\030\\\2125\000\217\323k\367{\217E\342t\215\001"
 123      35008FD3 
 123      6BF77B8F 
 123      45E2748D 
 123      01
 124 015b 562FF3FC 		.ascii	"V/\363\374\335\006\367h4\030\022\367\313\362g\262\234"
 124      DD06F768 
 124      341812F7 
 124      CBF267B2 
 124      9C
 125 016c 271B1239 		.ascii	"'\033\02298\007F\250\006#\007\265\220H\"VB\022\007g"
 125      380746A8 
 125      062307B5 
 125      90482256 
 125      42120767 
 126 0180 D05985CE 		.ascii	"\320Y\205\316\323$\035o\375\334\033\315\262\274\032"
 126      D3241D6F 
ARM GAS  C:\Users\JEFFSN~1\AppData\Local\Temp\cc5KWU8R.s 			page 9


 126      FDDC1BCD 
 126      B2BC1A
 127 018f 6AC00067 		.ascii	"j\300\000gA\240\020T\262\321\300D\234\374*Q\304\343"
 127      41A01054 
 127      B2D1C044 
 127      9CFC2A51 
 127      C4E3
 128 01a1 A0EBE922 		.ascii	"\240\353\351\"q\265W\337\3525\004|u@\2355\0053\225\341"
 128      71B557DF 
 128      EA35047C 
 128      75409D35 
 128      053395E1 
 129 01b5 988C1175 		.ascii	"\230\214\021u\200N\206Q\221q\244\310\367W\244\3606\031"
 129      804E8651 
 129      9171A4C8 
 129      F757A4F0 
 129      3619
 130 01c7 F343BE33 		.ascii	"\363C\2763s\"$\032(\277\313\371\234\314C\023\006:\257"
 130      7322241A 
 130      28BFCBF9 
 130      9CCC4313 
 130      063AAF
 131 01da 911B0939 		.ascii	"\221\033\0119\325q\377\204\034\026\307\301\313Fx\021"
 131      D571FF84 
 131      1C16C7C1 
 131      CB467811 
 132 01ea 5534A20A 		.ascii	"U4\242\012#S\321\200*\352Q\005\006\237\374\374AU\024"
 132      2353D180 
 132      2AEA5105 
 132      069FFCFC 
 132      415514
 133 01fd 4D88C471 		.ascii	"M\210\304q*\011\215\334kvC\300\371\223\342\034\314\257"
 133      2A098DDC 
 133      6B7643C0 
 133      F993E21C 
 133      CCAF
 134 020f 2D15940A 		.ascii	"-\025\224\012\2128]\354+\361\255R*\030\217\323O\207"
 134      8A385DEC 
 134      2BF1AD52 
 134      2A188FD3 
 134      4F87
 135 0221 DDA7A2E3 		.ascii	"\335\247\242\343\276\245\247\224'\307\213tg+\362\264"
 135      BEA5A794 
 135      27C78B74 
 135      672BF2B4 
 136 0231 200F076D 		.ascii	" \017\007m\020\207\277\315 *\225Y((>%\254/\223\313j"
 136      1087BFCD 
 136      202A9559 
 136      28283E25 
 136      AC2F93CB 
 137 0246 65EF50A7 		.ascii	"e\357P\247e\321)\313\205\270S$8\250\320\304\340\220"
 137      65D129CB 
 137      85B85324 
 137      38A8D0C4 
 137      E090
 138 0258 743FC238 		.ascii	"t?\3028\336\226\013\260\036\267:\367\217wD\010{ie\226"
 138      DE960BB0 
ARM GAS  C:\Users\JEFFSN~1\AppData\Local\Temp\cc5KWU8R.s 			page 10


 138      1EB73AF7 
 138      8F774408 
 138      7B696596 
 139 026c BB8F96F0 		.ascii	"\273\217\226\360z\322\235ku\234\227(g:\243l<^\344\212"
 139      7AD29D6B 
 139      759C9728 
 139      673AA36C 
 139      3C5EE48A 
 140 0280 50285D75 		.ascii	"P(]u\007\204#\262+\037\267\361\004\005\0275\306\213"
 140      078423B2 
 140      2B1FB7F1 
 140      04051735 
 140      C68B
 141 0292 7A461765 		.ascii	"zF\027e\354:RU/\012_\000\245\234->~',P\032\345P\227"
 141      EC3A5255 
 141      2F0A5F00 
 141      A59C2D3E 
 141      7E272C50 
 142 02aa DA8E79F8 		.ascii	"\332\216y\370\200\357g\245\\\223]\225gH\271\022\310"
 142      80EF67A5 
 142      5C935D95 
 142      6748B912 
 142      C8
 143 02bb E5F4FB63 		.ascii	"\345\364\373ct\347\232\240\234\353Hc\301|\244PJ\343"
 143      74E79AA0 
 143      9CEB4863 
 143      C17CA450 
 143      4AE3
 144 02cd F2F74E55 		.ascii	"\362\367NU\324\206\2537\020\305\304n\345\002R\240\013"
 144      D486AB37 
 144      10C5C46E 
 144      E50252A0 
 144      0B
 145 02de CF2E819D 		.ascii	"\317.\201\235\335et\376\242\335\300\205\035u\373\210"
 145      DD6574FE 
 145      A2DDC085 
 145      1D75FB88 
 146 02ee 0C373277 		.ascii	"\01472wj2\022\330\025\314\363:{\242\364\025r\007\035"
 146      6A3212D8 
 146      15CCF33A 
 146      7BA2F415 
 146      72071D
 147 0301 4B372D51 		.ascii	"K7-Q\207z,m-\265\231X\"/\006>z0\251\304)\347G\020\010"
 147      877A2C6D 
 147      2DB59958 
 147      222F063E 
 147      7A30A9C4 
 148 031a B46B81DB 		.ascii	"\264k\201\333A\371F\241\207\326\346\326\354\243\261"
 148      41F946A1 
 148      87D6E6D6 
 148      ECA3B1
 149 0329 9542A752 		.ascii	"\225B\247R\233\377\274\357\275\2544Aw\256Oq~9\367\207"
 149      9BFFBCEF 
 149      BDAC3441 
 149      77AE4F71 
 149      7E39F787 
 150 033d 5F089D69 		.ascii	"_\010\235i?\315\364\252\232i\265\363\367yQI\325\325"
ARM GAS  C:\Users\JEFFSN~1\AppData\Local\Temp\cc5KWU8R.s 			page 11


 150      3FCDF4AA 
 150      9A69B5F3 
 150      F7795149 
 150      D5D5
 151 034f 22619AB8 		.ascii	"\"a\232\270\016W\2644\257\250i\016\3204+o\317-D\013"
 151      0E57B434 
 151      AFA8690E 
 151      D0342B6F 
 151      CF2D440B 
 152 0363 DEFF7B84 		.ascii	"\336\377{\204\327\224\224\012\363\036\224\031\002\316"
 152      D794940A 
 152      F31E9419 
 152      02CE
 153 0371 21C5D9E5 		.ascii	"!\305\331\3459\373TC\016+\316\276\352\303\333\002\276"
 153      39FB5443 
 153      0E2BCEBE 
 153      EAC3DB02 
 153      BE
 154 0382 11C537D1 		.ascii	"\021\3057\321U\330\252\355\276\2568\353\335S\207\243"
 154      55D8AAED 
 154      BEAE38EB 
 154      DD5387A3 
 155 0392 43AB1CA5 		.ascii	"C\253\034\245*o\250*\257N\334\276\024\306T^'*q\035\006"
 155      2A6FA82A 
 155      AF4EDCBE 
 155      14C6545E 
 155      272A711D 
 156 03a7 359583AA 		.ascii	"5\225\203\252\3121\252\322]7\260\020),\205Vyb\361n\237"
 156      CA31AAD2 
 156      5D37B010 
 156      292C8556 
 156      7962F16E 
 157 03bc 189A7D82 		.ascii	"\030\232}\202\262\217\253\354\305\307\306\357\2043\366"
 157      B28FABEC 
 157      C5C7C6EF 
 157      8433F6
 158 03cb 06C28EEB 		.ascii	"\006\302\216\353\340\321\330=*\373$e\237:8}:\354\241"
 158      E0D1D83D 
 158      2AFB2465 
 158      9F3A387D 
 158      3AECA1
 159 03de F21ED167 		.ascii	"\362\036\321g\254\350\233\232%\020\366)\217xA\221\367"
 159      ACE89B9A 
 159      2510F629 
 159      8F784191 
 159      F7
 160 03ef 50F48693 		.ascii	"P\364\206\223r\331\011\362\305o^<'\313\002\205N)\001"
 160      72D909F2 
 160      C56F5E3C 
 160      27CB0285 
 160      4E2901
 161 0402 D933C5D1 		.ascii	"\3313\305\321\371\257\344\322{a\003yW\216\226\037\212"
 161      F9AFE4D2 
 161      7B610379 
 161      578E961F 
 161      8A
 162 0413 893A10F8 		.ascii	"\211:\020\370*\376\361\256\334\204(\232\002\366\010"
ARM GAS  C:\Users\JEFFSN~1\AppData\Local\Temp\cc5KWU8R.s 			page 12


 162      2AFEF1AE 
 162      DC84289A 
 162      02F608
 163 0422 1E9EF578 		.ascii	"\036\236\365x@\017&\365\322\300\323\014<M\301On<j\212"
 163      400F26F5 
 163      D2C0D30C 
 163      3C4DC14F 
 163      6E3C6A8A 
 164 0436 D283FB83 		.ascii	"\322\203\373\203\300>\006\366Qp\277\247uv\205\036\334"
 164      C03E06F6 
 164      5170BFA7 
 164      7576851E 
 164      DC
 165 0447 1D049E61 		.ascii	"\035\004\236a\340\031\012\356\251\177\334\312\353\301"
 165      E0190AEE 
 165      A97FDCCA 
 165      EBC1
 166 0455 1341E059 		.ascii	"\023A\340Y\006&\375\332\224m\233\322^J\333\361~Z\312"
 166      0626FDDA 
 166      946D9BD2 
 166      5E4ADBF1 
 166      7E5ACA
 167 0468 1EF35B36 		.ascii	"\036\363[6\253\303j\316\264~\"\205oy\347\275xSr2\027"
 167      ABC36ACE 
 167      B47E2285 
 167      6F79E7BD 
 167      78537232 
 168 047d 9663B539 		.ascii	"\226c\2659\222_}~\213d\223\262\315\016\311\222\226\232"
 168      925F7D7E 
 168      8B6493B2 
 168      CD0EC992 
 168      969A
 169 048f 95939D21 		.ascii	"\225\223\235!\355\332\236\232ez\345\205\214\\G\356\307"
 169      EDDA9E9A 
 169      657AE585 
 169      8C5C47EE 
 169      C7
 170 04a0 923D6937 		.ascii	"\222=i7\267\202\000_\333\370\357\270]\001\026\313\036"
 170      B782005F 
 170      DBF8EFB8 
 170      5D0116CB 
 170      1E
 171 04b1 735206F7 		.ascii	"sR\006\367\214\236\365])S2\333\245\030S.NL\273\267g"
 171      8C9EF55D 
 171      295332DB 
 171      A518532E 
 171      4E4CBBB7 
 172 04c6 5BB3B2AD 		.ascii	"[\263\262\255\216\334\360\214\\\273\303\354\310\261"
 172      8EDCF08C 
 172      5CBBC3EC 
 172      C8B1
 173 04d4 C787E036 		.ascii	"\307\207\3406}\200QLI[\271ulg\252\344xs\257C\262Y$\313"
 173      7D80514C 
 173      495BB975 
 173      6C67AAE4 
 173      7873AF43 
 174 04ec 268B255B 		.ascii	"&\213%[\262\333\237\325VLY\266\017\255\037\345`\034"
ARM GAS  C:\Users\JEFFSN~1\AppData\Local\Temp\cc5KWU8R.s 			page 13


 174      B2DB9FD5 
 174      564C59B6 
 174      0FAD1FE5 
 174      601C
 175 04fe 6B966D15 		.ascii	"k\226m\025\363\247X\355\346\364L)V\237\316V\263\315"
 175      F3A758ED 
 175      E6F44C29 
 175      569FCE56 
 175      B3CD
 176 0510 9229FD0D 		.ascii	"\222)\375\015\020\200\252\227"
 176      1080AA97 
 177              		.text
 178              		.section	.gnu.lto_.symtab.c724161a,"",%progbits
 179 0000 444D415F 		.ascii	"DMA_2_TX_DmaInitialize\000"
 179      325F5458 
 179      5F446D61 
 179      496E6974 
 179      69616C69 
 180 0017 00       		.ascii	"\000"
 181 0018 00       		.ascii	"\000"
 182 0019 00       		.ascii	"\000"
 183 001a 00000000 		.ascii	"\000\000\000\000\000\000\000\000"
 183      00000000 
 184 0022 BD000000 		.ascii	"\275\000\000\000"
 185 0026 444D415F 		.ascii	"DMA_2_TX_DmaHandle\000"
 185      325F5458 
 185      5F446D61 
 185      48616E64 
 185      6C6500
 186 0039 00       		.ascii	"\000"
 187 003a 00       		.ascii	"\000"
 188 003b 00       		.ascii	"\000"
 189 003c 00000000 		.ascii	"\000\000\000\000\000\000\000\000"
 189      00000000 
 190 0044 E0000000 		.ascii	"\340\000\000\000"
 191 0048 444D415F 		.ascii	"DMA_2_TX_DmaRelease\000"
 191      325F5458 
 191      5F446D61 
 191      52656C65 
 191      61736500 
 192 005c 00       		.ascii	"\000"
 193 005d 00       		.ascii	"\000"
 194 005e 00       		.ascii	"\000"
 195 005f 00000000 		.ascii	"\000\000\000\000\000\000\000\000"
 195      00000000 
 196 0067 C0000000 		.ascii	"\300\000\000\000"
 197 006b 4379446D 		.ascii	"CyDmaChPriority\000"
 197      61436850 
 197      72696F72 
 197      69747900 
 198 007b 00       		.ascii	"\000"
 199 007c 02       		.ascii	"\002"
 200 007d 00       		.ascii	"\000"
 201 007e 00000000 		.ascii	"\000\000\000\000\000\000\000\000"
 201      00000000 
 202 0086 CA000000 		.ascii	"\312\000\000\000"
 203 008a 4379446D 		.ascii	"CyDmaChSetExtendedAddress\000"
ARM GAS  C:\Users\JEFFSN~1\AppData\Local\Temp\cc5KWU8R.s 			page 14


 203      61436853 
 203      65744578 
 203      74656E64 
 203      65644164 
 204 00a4 00       		.ascii	"\000"
 205 00a5 02       		.ascii	"\002"
 206 00a6 00       		.ascii	"\000"
 207 00a7 00000000 		.ascii	"\000\000\000\000\000\000\000\000"
 207      00000000 
 208 00af D0000000 		.ascii	"\320\000\000\000"
 209 00b3 4379446D 		.ascii	"CyDmaChSetConfiguration\000"
 209      61436853 
 209      6574436F 
 209      6E666967 
 209      75726174 
 210 00cb 00       		.ascii	"\000"
 211 00cc 02       		.ascii	"\002"
 212 00cd 00       		.ascii	"\000"
 213 00ce 00000000 		.ascii	"\000\000\000\000\000\000\000\000"
 213      00000000 
 214 00d6 D9000000 		.ascii	"\331\000\000\000"
 215 00da 4379446D 		.ascii	"CyDmaChDisable\000"
 215      61436844 
 215      69736162 
 215      6C6500
 216 00e9 00       		.ascii	"\000"
 217 00ea 02       		.ascii	"\002"
 218 00eb 00       		.ascii	"\000"
 219 00ec 00000000 		.ascii	"\000\000\000\000\000\000\000\000"
 219      00000000 
 220 00f4 DD000000 		.ascii	"\335\000\000\000"
 221              		.text
 222              		.section	.gnu.lto_.opts,"",%progbits
 223 0000 272D666D 		.ascii	"'-fmath-errno' '-fsigned-zeros' '-ftrapping-math' '"
 223      6174682D 
 223      6572726E 
 223      6F272027 
 223      2D667369 
 224 0033 2D666E6F 		.ascii	"-fno-trapv' '-fno-strict-overflow' '-fno-openmp' '-"
 224      2D747261 
 224      70762720 
 224      272D666E 
 224      6F2D7374 
 225 0066 666E6F2D 		.ascii	"fno-openacc' '-mcpu=cortex-m3' '-mthumb' '-g' '-Og'"
 225      6F70656E 
 225      61636327 
 225      20272D6D 
 225      6370753D 
 226 0099 20272D66 		.ascii	" '-ffunction-sections' '-ffat-lto-objects' '-finlin"
 226      66756E63 
 226      74696F6E 
 226      2D736563 
 226      74696F6E 
 227 00cc 652D6675 		.ascii	"e-functions' '-flto'\000"
 227      6E637469 
 227      6F6E7327 
 227      20272D66 
ARM GAS  C:\Users\JEFFSN~1\AppData\Local\Temp\cc5KWU8R.s 			page 15


 227      6C746F27 
 228              		.text
 229              		.cfi_sections	.debug_frame
 230              		.section	.text.DMA_2_TX_DmaInitialize,"ax",%progbits
 231              		.align	2
 232              		.global	DMA_2_TX_DmaInitialize
 233              		.thumb
 234              		.thumb_func
 235              		.type	DMA_2_TX_DmaInitialize, %function
 236              	DMA_2_TX_DmaInitialize:
 237              	.LFB0:
 238              		.file 1 "Generated_Source\\PSoC5\\DMA_2_TX_dma.c"
   1:Generated_Source\PSoC5/DMA_2_TX_dma.c **** /***************************************************************************
   2:Generated_Source\PSoC5/DMA_2_TX_dma.c **** * File Name: DMA_2_TX_dma.c  
   3:Generated_Source\PSoC5/DMA_2_TX_dma.c **** * Version 1.70
   4:Generated_Source\PSoC5/DMA_2_TX_dma.c **** *
   5:Generated_Source\PSoC5/DMA_2_TX_dma.c **** *  Description:
   6:Generated_Source\PSoC5/DMA_2_TX_dma.c **** *   Provides an API for the DMAC component. The API includes functions
   7:Generated_Source\PSoC5/DMA_2_TX_dma.c **** *   for the DMA controller, DMA channels and Transfer Descriptors.
   8:Generated_Source\PSoC5/DMA_2_TX_dma.c **** *
   9:Generated_Source\PSoC5/DMA_2_TX_dma.c **** *
  10:Generated_Source\PSoC5/DMA_2_TX_dma.c **** *   Note:
  11:Generated_Source\PSoC5/DMA_2_TX_dma.c **** *     This module requires the developer to finish or fill in the auto
  12:Generated_Source\PSoC5/DMA_2_TX_dma.c **** *     generated funcions and setup the dma channel and TD's.
  13:Generated_Source\PSoC5/DMA_2_TX_dma.c **** *
  14:Generated_Source\PSoC5/DMA_2_TX_dma.c **** ********************************************************************************
  15:Generated_Source\PSoC5/DMA_2_TX_dma.c **** * Copyright 2008-2010, Cypress Semiconductor Corporation.  All rights reserved.
  16:Generated_Source\PSoC5/DMA_2_TX_dma.c **** * You may use this file only in accordance with the license, terms, conditions, 
  17:Generated_Source\PSoC5/DMA_2_TX_dma.c **** * disclaimers, and limitations in the end user license agreement accompanying 
  18:Generated_Source\PSoC5/DMA_2_TX_dma.c **** * the software package with which this file was provided.
  19:Generated_Source\PSoC5/DMA_2_TX_dma.c **** ********************************************************************************/
  20:Generated_Source\PSoC5/DMA_2_TX_dma.c **** #include <CYLIB.H>
  21:Generated_Source\PSoC5/DMA_2_TX_dma.c **** #include <CYDMAC.H>
  22:Generated_Source\PSoC5/DMA_2_TX_dma.c **** #include <DMA_2_TX_dma.H>
  23:Generated_Source\PSoC5/DMA_2_TX_dma.c **** 
  24:Generated_Source\PSoC5/DMA_2_TX_dma.c **** 
  25:Generated_Source\PSoC5/DMA_2_TX_dma.c **** 
  26:Generated_Source\PSoC5/DMA_2_TX_dma.c **** /****************************************************************************
  27:Generated_Source\PSoC5/DMA_2_TX_dma.c **** * 
  28:Generated_Source\PSoC5/DMA_2_TX_dma.c **** * The following defines are available in Cyfitter.h
  29:Generated_Source\PSoC5/DMA_2_TX_dma.c **** * 
  30:Generated_Source\PSoC5/DMA_2_TX_dma.c **** * 
  31:Generated_Source\PSoC5/DMA_2_TX_dma.c **** * 
  32:Generated_Source\PSoC5/DMA_2_TX_dma.c **** * DMA_2_TX__DRQ_CTL_REG
  33:Generated_Source\PSoC5/DMA_2_TX_dma.c **** * 
  34:Generated_Source\PSoC5/DMA_2_TX_dma.c **** * 
  35:Generated_Source\PSoC5/DMA_2_TX_dma.c **** * DMA_2_TX__DRQ_NUMBER
  36:Generated_Source\PSoC5/DMA_2_TX_dma.c **** * 
  37:Generated_Source\PSoC5/DMA_2_TX_dma.c **** * Number of TD's used by this channel.
  38:Generated_Source\PSoC5/DMA_2_TX_dma.c **** * DMA_2_TX__NUMBEROF_TDS
  39:Generated_Source\PSoC5/DMA_2_TX_dma.c **** * 
  40:Generated_Source\PSoC5/DMA_2_TX_dma.c **** * Priority of this channel.
  41:Generated_Source\PSoC5/DMA_2_TX_dma.c **** * DMA_2_TX__PRIORITY
  42:Generated_Source\PSoC5/DMA_2_TX_dma.c **** * 
  43:Generated_Source\PSoC5/DMA_2_TX_dma.c **** * True if DMA_2_TX_TERMIN_SEL is used.
  44:Generated_Source\PSoC5/DMA_2_TX_dma.c **** * DMA_2_TX__TERMIN_EN
  45:Generated_Source\PSoC5/DMA_2_TX_dma.c **** * 
ARM GAS  C:\Users\JEFFSN~1\AppData\Local\Temp\cc5KWU8R.s 			page 16


  46:Generated_Source\PSoC5/DMA_2_TX_dma.c **** * TERMIN interrupt line to signal terminate.
  47:Generated_Source\PSoC5/DMA_2_TX_dma.c **** * DMA_2_TX__TERMIN_SEL
  48:Generated_Source\PSoC5/DMA_2_TX_dma.c **** * 
  49:Generated_Source\PSoC5/DMA_2_TX_dma.c **** * 
  50:Generated_Source\PSoC5/DMA_2_TX_dma.c **** * True if DMA_2_TX_TERMOUT0_SEL is used.
  51:Generated_Source\PSoC5/DMA_2_TX_dma.c **** * DMA_2_TX__TERMOUT0_EN
  52:Generated_Source\PSoC5/DMA_2_TX_dma.c **** * 
  53:Generated_Source\PSoC5/DMA_2_TX_dma.c **** * 
  54:Generated_Source\PSoC5/DMA_2_TX_dma.c **** * TERMOUT0 interrupt line to signal completion.
  55:Generated_Source\PSoC5/DMA_2_TX_dma.c **** * DMA_2_TX__TERMOUT0_SEL
  56:Generated_Source\PSoC5/DMA_2_TX_dma.c **** * 
  57:Generated_Source\PSoC5/DMA_2_TX_dma.c **** * 
  58:Generated_Source\PSoC5/DMA_2_TX_dma.c **** * True if DMA_2_TX_TERMOUT1_SEL is used.
  59:Generated_Source\PSoC5/DMA_2_TX_dma.c **** * DMA_2_TX__TERMOUT1_EN
  60:Generated_Source\PSoC5/DMA_2_TX_dma.c **** * 
  61:Generated_Source\PSoC5/DMA_2_TX_dma.c **** * 
  62:Generated_Source\PSoC5/DMA_2_TX_dma.c **** * TERMOUT1 interrupt line to signal completion.
  63:Generated_Source\PSoC5/DMA_2_TX_dma.c **** * DMA_2_TX__TERMOUT1_SEL
  64:Generated_Source\PSoC5/DMA_2_TX_dma.c **** * 
  65:Generated_Source\PSoC5/DMA_2_TX_dma.c **** ****************************************************************************/
  66:Generated_Source\PSoC5/DMA_2_TX_dma.c **** 
  67:Generated_Source\PSoC5/DMA_2_TX_dma.c **** 
  68:Generated_Source\PSoC5/DMA_2_TX_dma.c **** /* Zero based index of DMA_2_TX dma channel */
  69:Generated_Source\PSoC5/DMA_2_TX_dma.c **** uint8 DMA_2_TX_DmaHandle = DMA_INVALID_CHANNEL;
  70:Generated_Source\PSoC5/DMA_2_TX_dma.c **** 
  71:Generated_Source\PSoC5/DMA_2_TX_dma.c **** /*********************************************************************
  72:Generated_Source\PSoC5/DMA_2_TX_dma.c **** * Function Name: uint8 DMA_2_TX_DmaInitalize
  73:Generated_Source\PSoC5/DMA_2_TX_dma.c **** **********************************************************************
  74:Generated_Source\PSoC5/DMA_2_TX_dma.c **** * Summary:
  75:Generated_Source\PSoC5/DMA_2_TX_dma.c **** *   Allocates and initialises a channel of the DMAC to be used by the
  76:Generated_Source\PSoC5/DMA_2_TX_dma.c **** *   caller.
  77:Generated_Source\PSoC5/DMA_2_TX_dma.c **** *
  78:Generated_Source\PSoC5/DMA_2_TX_dma.c **** * Parameters:
  79:Generated_Source\PSoC5/DMA_2_TX_dma.c **** *   BurstCount.
  80:Generated_Source\PSoC5/DMA_2_TX_dma.c **** *       
  81:Generated_Source\PSoC5/DMA_2_TX_dma.c **** *       
  82:Generated_Source\PSoC5/DMA_2_TX_dma.c **** *   ReqestPerBurst.
  83:Generated_Source\PSoC5/DMA_2_TX_dma.c **** *       
  84:Generated_Source\PSoC5/DMA_2_TX_dma.c **** *       
  85:Generated_Source\PSoC5/DMA_2_TX_dma.c **** *   UpperSrcAddress.
  86:Generated_Source\PSoC5/DMA_2_TX_dma.c **** *       
  87:Generated_Source\PSoC5/DMA_2_TX_dma.c **** *       
  88:Generated_Source\PSoC5/DMA_2_TX_dma.c **** *   UpperDestAddress.
  89:Generated_Source\PSoC5/DMA_2_TX_dma.c **** *       
  90:Generated_Source\PSoC5/DMA_2_TX_dma.c **** *
  91:Generated_Source\PSoC5/DMA_2_TX_dma.c **** * Return:
  92:Generated_Source\PSoC5/DMA_2_TX_dma.c **** *   The channel that can be used by the caller for DMA activity.
  93:Generated_Source\PSoC5/DMA_2_TX_dma.c **** *   DMA_INVALID_CHANNEL (0xFF) if there are no channels left. 
  94:Generated_Source\PSoC5/DMA_2_TX_dma.c **** *
  95:Generated_Source\PSoC5/DMA_2_TX_dma.c **** *
  96:Generated_Source\PSoC5/DMA_2_TX_dma.c **** *******************************************************************/
  97:Generated_Source\PSoC5/DMA_2_TX_dma.c **** uint8 DMA_2_TX_DmaInitialize(uint8 BurstCount, uint8 ReqestPerBurst, uint16 UpperSrcAddress, uint16
  98:Generated_Source\PSoC5/DMA_2_TX_dma.c **** {
 239              		.loc 1 98 0
 240              		.cfi_startproc
 241              		@ args = 0, pretend = 0, frame = 0
 242              		@ frame_needed = 0, uses_anonymous_args = 0
ARM GAS  C:\Users\JEFFSN~1\AppData\Local\Temp\cc5KWU8R.s 			page 17


 243              	.LVL0:
 244 0000 F0B5     		push	{r4, r5, r6, r7, lr}
 245              		.cfi_def_cfa_offset 20
 246              		.cfi_offset 4, -20
 247              		.cfi_offset 5, -16
 248              		.cfi_offset 6, -12
 249              		.cfi_offset 7, -8
 250              		.cfi_offset 14, -4
 251 0002 83B0     		sub	sp, sp, #12
 252              		.cfi_def_cfa_offset 32
 253 0004 1646     		mov	r6, r2
 254 0006 1F46     		mov	r7, r3
  99:Generated_Source\PSoC5/DMA_2_TX_dma.c **** 
 100:Generated_Source\PSoC5/DMA_2_TX_dma.c ****     /* Allocate a DMA channel. */
 101:Generated_Source\PSoC5/DMA_2_TX_dma.c ****     DMA_2_TX_DmaHandle = (uint8)DMA_2_TX__DRQ_NUMBER;
 255              		.loc 1 101 0
 256 0008 0B4C     		ldr	r4, .L3
 257 000a 0525     		movs	r5, #5
 258 000c 2570     		strb	r5, [r4]
 102:Generated_Source\PSoC5/DMA_2_TX_dma.c **** 
 103:Generated_Source\PSoC5/DMA_2_TX_dma.c ****     /* Configure the channel. */
 104:Generated_Source\PSoC5/DMA_2_TX_dma.c ****     (void)CyDmaChSetConfiguration(DMA_2_TX_DmaHandle,
 259              		.loc 1 104 0
 260 000e 0023     		movs	r3, #0
 261              	.LVL1:
 262 0010 0193     		str	r3, [sp, #4]
 263 0012 0093     		str	r3, [sp]
 264 0014 0A46     		mov	r2, r1
 265              	.LVL2:
 266 0016 0146     		mov	r1, r0
 267              	.LVL3:
 268 0018 2846     		mov	r0, r5
 269              	.LVL4:
 270 001a FFF7FEFF 		bl	CyDmaChSetConfiguration
 271              	.LVL5:
 105:Generated_Source\PSoC5/DMA_2_TX_dma.c ****                                   BurstCount,
 106:Generated_Source\PSoC5/DMA_2_TX_dma.c ****                                   ReqestPerBurst,
 107:Generated_Source\PSoC5/DMA_2_TX_dma.c ****                                   (uint8)DMA_2_TX__TERMOUT0_SEL,
 108:Generated_Source\PSoC5/DMA_2_TX_dma.c ****                                   (uint8)DMA_2_TX__TERMOUT1_SEL,
 109:Generated_Source\PSoC5/DMA_2_TX_dma.c ****                                   (uint8)DMA_2_TX__TERMIN_SEL);
 110:Generated_Source\PSoC5/DMA_2_TX_dma.c **** 
 111:Generated_Source\PSoC5/DMA_2_TX_dma.c ****     /* Set the extended address for the transfers */
 112:Generated_Source\PSoC5/DMA_2_TX_dma.c ****     (void)CyDmaChSetExtendedAddress(DMA_2_TX_DmaHandle, UpperSrcAddress, UpperDestAddress);
 272              		.loc 1 112 0
 273 001e 3A46     		mov	r2, r7
 274 0020 3146     		mov	r1, r6
 275 0022 2078     		ldrb	r0, [r4]	@ zero_extendqisi2
 276 0024 FFF7FEFF 		bl	CyDmaChSetExtendedAddress
 277              	.LVL6:
 113:Generated_Source\PSoC5/DMA_2_TX_dma.c **** 
 114:Generated_Source\PSoC5/DMA_2_TX_dma.c ****     /* Set the priority for this channel */
 115:Generated_Source\PSoC5/DMA_2_TX_dma.c ****     (void)CyDmaChPriority(DMA_2_TX_DmaHandle, (uint8)DMA_2_TX__PRIORITY);
 278              		.loc 1 115 0
 279 0028 0221     		movs	r1, #2
 280 002a 2078     		ldrb	r0, [r4]	@ zero_extendqisi2
 281 002c FFF7FEFF 		bl	CyDmaChPriority
 282              	.LVL7:
ARM GAS  C:\Users\JEFFSN~1\AppData\Local\Temp\cc5KWU8R.s 			page 18


 116:Generated_Source\PSoC5/DMA_2_TX_dma.c ****     
 117:Generated_Source\PSoC5/DMA_2_TX_dma.c ****     return DMA_2_TX_DmaHandle;
 118:Generated_Source\PSoC5/DMA_2_TX_dma.c **** }
 283              		.loc 1 118 0
 284 0030 2078     		ldrb	r0, [r4]	@ zero_extendqisi2
 285 0032 03B0     		add	sp, sp, #12
 286              		.cfi_def_cfa_offset 20
 287              		@ sp needed
 288 0034 F0BD     		pop	{r4, r5, r6, r7, pc}
 289              	.L4:
 290 0036 00BF     		.align	2
 291              	.L3:
 292 0038 00000000 		.word	.LANCHOR0
 293              		.cfi_endproc
 294              	.LFE0:
 295              		.size	DMA_2_TX_DmaInitialize, .-DMA_2_TX_DmaInitialize
 296              		.section	.text.DMA_2_TX_DmaRelease,"ax",%progbits
 297              		.align	2
 298              		.global	DMA_2_TX_DmaRelease
 299              		.thumb
 300              		.thumb_func
 301              		.type	DMA_2_TX_DmaRelease, %function
 302              	DMA_2_TX_DmaRelease:
 303              	.LFB1:
 119:Generated_Source\PSoC5/DMA_2_TX_dma.c **** 
 120:Generated_Source\PSoC5/DMA_2_TX_dma.c **** /*********************************************************************
 121:Generated_Source\PSoC5/DMA_2_TX_dma.c **** * Function Name: void DMA_2_TX_DmaRelease
 122:Generated_Source\PSoC5/DMA_2_TX_dma.c **** **********************************************************************
 123:Generated_Source\PSoC5/DMA_2_TX_dma.c **** * Summary:
 124:Generated_Source\PSoC5/DMA_2_TX_dma.c **** *   Frees the channel associated with DMA_2_TX.
 125:Generated_Source\PSoC5/DMA_2_TX_dma.c **** *
 126:Generated_Source\PSoC5/DMA_2_TX_dma.c **** *
 127:Generated_Source\PSoC5/DMA_2_TX_dma.c **** * Parameters:
 128:Generated_Source\PSoC5/DMA_2_TX_dma.c **** *   void.
 129:Generated_Source\PSoC5/DMA_2_TX_dma.c **** *
 130:Generated_Source\PSoC5/DMA_2_TX_dma.c **** *
 131:Generated_Source\PSoC5/DMA_2_TX_dma.c **** *
 132:Generated_Source\PSoC5/DMA_2_TX_dma.c **** * Return:
 133:Generated_Source\PSoC5/DMA_2_TX_dma.c **** *   void.
 134:Generated_Source\PSoC5/DMA_2_TX_dma.c **** *
 135:Generated_Source\PSoC5/DMA_2_TX_dma.c **** *******************************************************************/
 136:Generated_Source\PSoC5/DMA_2_TX_dma.c **** void DMA_2_TX_DmaRelease(void) 
 137:Generated_Source\PSoC5/DMA_2_TX_dma.c **** {
 304              		.loc 1 137 0
 305              		.cfi_startproc
 306              		@ args = 0, pretend = 0, frame = 0
 307              		@ frame_needed = 0, uses_anonymous_args = 0
 308 0000 08B5     		push	{r3, lr}
 309              		.cfi_def_cfa_offset 8
 310              		.cfi_offset 3, -8
 311              		.cfi_offset 14, -4
 138:Generated_Source\PSoC5/DMA_2_TX_dma.c ****     /* Disable the channel */
 139:Generated_Source\PSoC5/DMA_2_TX_dma.c ****     (void)CyDmaChDisable(DMA_2_TX_DmaHandle);
 312              		.loc 1 139 0
 313 0002 024B     		ldr	r3, .L7
 314 0004 1878     		ldrb	r0, [r3]	@ zero_extendqisi2
 315 0006 FFF7FEFF 		bl	CyDmaChDisable
ARM GAS  C:\Users\JEFFSN~1\AppData\Local\Temp\cc5KWU8R.s 			page 19


 316              	.LVL8:
 317 000a 08BD     		pop	{r3, pc}
 318              	.L8:
 319              		.align	2
 320              	.L7:
 321 000c 00000000 		.word	.LANCHOR0
 322              		.cfi_endproc
 323              	.LFE1:
 324              		.size	DMA_2_TX_DmaRelease, .-DMA_2_TX_DmaRelease
 325              		.global	DMA_2_TX_DmaHandle
 326              		.data
 327              		.set	.LANCHOR0,. + 0
 328              		.type	DMA_2_TX_DmaHandle, %object
 329              		.size	DMA_2_TX_DmaHandle, 1
 330              	DMA_2_TX_DmaHandle:
 331 0000 FF       		.byte	-1
 332              		.text
 333              	.Letext0:
 334              		.file 2 "Generated_Source\\PSoC5/cytypes.h"
 335              		.file 3 "Generated_Source\\PSoC5/CYDMAC.H"