ARM GAS  C:\Users\JEFFSN~1\AppData\Local\Temp\ccr2HgNQ.s 			page 1


   1              		.syntax unified
   2              		.cpu cortex-m3
   3              		.fpu softvfp
   4              		.eabi_attribute 20, 1
   5              		.eabi_attribute 21, 1
   6              		.eabi_attribute 23, 3
   7              		.eabi_attribute 24, 1
   8              		.eabi_attribute 25, 1
   9              		.eabi_attribute 26, 1
  10              		.eabi_attribute 30, 2
  11              		.eabi_attribute 34, 1
  12              		.eabi_attribute 18, 4
  13              		.thumb
  14              		.syntax unified
  15              		.file	"DMA_1_TX_dma.c"
  16              		.text
  17              	.Ltext0:
  18              		.section	.gnu.lto_.profile.f743d57d,"",%progbits
  19 0000 789C6361 		.ascii	"x\234ca`d`a`\000\222\266\342\000\000\373\000_"
  19      60646061 
  19      600092B6 
  19      E20000FB 
  19      005F
  20              		.text
  21              		.section	.gnu.lto_.icf.f743d57d,"",%progbits
  22 0000 789C6361 		.ascii	"x\234ca`d\000\001\021\006\004`fh8\177e\026\017c\367"
  22      60640001 
  22      11060460 
  22      6668387F 
  22      65160F63 
  23 0015 9CB61BAC 		.ascii	"\234\266\033\254L7W\377\232\316\311\000\000Y\322\010"
  23      4C3757FF 
  23      9ACEC900 
  23      0059D208 
  24 0025 91       		.ascii	"\221"
  25              		.text
  26              		.section	.gnu.lto_.jmpfuncs.f743d57d,"",%progbits
  27 0000 789C6361 		.ascii	"x\234ca`d\000\2012\006\004`b`a\004\002~\020\301\002"
  27      60640081 
  27      32060460 
  27      62606104 
  27      027E10C1 
  28 0015 E433FE65 		.ascii	"\3443\376eb<\364i\303r\236/L\255\314\014\214\314\214"
  28      623CF469 
  28      C3729E2F 
  28      4CADCC0C 
  28      8CCC8C
  29 0028 CB196518 		.ascii	"\313\031e\030\030\330@*+\231\300$3\220\344a\204\210"
  29      18D8402A 
  29      2B99C024 
  29      3390E461 
  29      8488
  30 003a 335582CD 		.ascii	"3U\202\315\250d\204\352\\\377f\347O^\210N\006\306\025"
  30      A86484EA 
  30      5CFF66E7 
  30      4F5E884E 
  30      06C615
ARM GAS  C:\Users\JEFFSN~1\AppData\Local\Temp\ccr2HgNQ.s 			page 2


  31 004d 20158C28 		.ascii	" \025\214(\024\023\03010\000\000cL\021\370"
  31      14131831 
  31      30000063 
  31      4C11F8
  32              		.text
  33              		.section	.gnu.lto_.inline.f743d57d,"",%progbits
  34 0000 789C6361 		.ascii	"x\234ca`d\000\001\177\006\004`b`\020\325gd`\3428`\307"
  34      60640001 
  34      7F060460 
  34      626010D5 
  34      676460E2 
  35 0017 C0B6409E 		.ascii	"\300\266@\236\011$\306\314\003\024\237\340\307\300\302"
  35      0924C6CC 
  35      03149FE0 
  35      C7C0C2
  36 0026 0B644FF0 		.ascii	"\013dO\360\003Av\001\006\0066\006\020\013\254\207\215"
  36      03417601 
  36      06063606 
  36      100BAC87 
  36      8D
  37 0037 0FA885E9 		.ascii	"\017\250\205\351\002?\\\013\0237\003\003#P\022\000\264"
  37      023F5C0B 
  37      13370303 
  37      23501200 
  37      B4
  38 0048 960A8E   		.ascii	"\226\012\216"
  39              		.text
  40              		.section	.gnu.lto_.pureconst.f743d57d,"",%progbits
  41 0000 789C6361 		.ascii	"x\234ca`d`e```b\220`\222\000\000\000\347\000?"
  41      60646065 
  41      60606062 
  41      90609200 
  41      0000E700 
  42              		.text
  43              		.section	.gnu.lto_DMA_1_TX_DmaInitialize.f743d57d,"",%progbits
  44 0000 789C9592 		.ascii	"x\234\225\222OL\023A\024\306\347\315\224n]J\351\315"
  44      4F4C1341 
  44      14C6E7CD 
  44      946E5D4A 
  44      E9CD
  45 0012 831C3C89 		.ascii	"\203\034<\211\\\214FM\274\"$\236L\032\252\211\007LC"
  45      5C8C464D 
  45      BC22249E 
  45      4C1AAA89 
  45      074C43
  46 0025 DA3D0AB8 		.ascii	"\332=\012\270m\317\035ZW%\361 \011\240\304@\243\206"
  46      6DCF1D5A 
  46      5725F120 
  46      09A0C440 
  46      A386
  47 0037 808A02FE 		.ascii	"\200\212\002\376/(\026\324h\"\221\250xR\023\343\241"
  47      2F2816D4 
  47      682291A8 
  47      785213E3 
  47      A1
  48 0048 3184843F 		.ascii	"1\204\204?)\020M\352\372\336t\255\007z\351&\233\335"
  48      29104DEA 
ARM GAS  C:\Users\JEFFSN~1\AppData\Local\Temp\ccr2HgNQ.s 			page 3


  48      FADE74AD 
  48      077AE926 
  48      9BDD
  49 005a 79FBBEDF 		.ascii	"y\373\276\337\367\275\331q1`t\015\011\306\302\370\334"
  49      F7BDD971 
  49      3160740D 
  49      09C6C2F8 
  49      DC
  50 006b 85370806 		.ascii	"\2057\010\006\374\362{\306\272<\034\200^\244\007X\202"
  50      FCF27BC6 
  50      BA3C1C80 
  50      5EA40758 
  50      82
  51 007c 43023678 		.ascii	"C\0026x\201\303\273\255\267\227\364\206\021)\223\362"
  51      81C3BBAD 
  51      B797F486 
  51      112993F2 
  52 008c FBF0FA91 		.ascii	"\373\360\372\221+\243Y\260Pns\006\007\353`\177\035!"
  52      2BA359B0 
  52      506E7306 
  52      07EB607F 
  52      1D21
  53 009e 46A0013B 		.ascii	"F\240\001;\027\307\026\272}\242\001\030\276\017\365"
  53      17C716BA 
  53      7DA20118 
  53      BE0FF5
  54 00ad CEE745FD 		.ascii	"\316\347E\3750\251\344\300i)P\002\243 \376\253\210\001"
  54      30A9E4C0 
  54      69295002 
  54      A320FEAB 
  54      8801
  55 00bf B7A01E7B 		.ascii	"\267\240\036{W>\335\330)\016)YO\372\315R\225#\373\346"
  55      573EDDD8 
  55      290E2959 
  55      4FFACD52 
  55      9523FBE6 
  56 00d3 C86E6F93 		.ascii	"\310no\223\335Q\262\327\366V\2666\317-\001@9?\256\316"
  56      DD51B2D7 
  56      F656B636 
  56      CF2D0140 
  56      393FAECE 
  57 00e7 0F56D392 		.ascii	"\017V\323\222\203\037\227\3137\257/zE\223\242&\013\353"
  57      831F97CB 
  57      37AF2F7A 
  57      4593A226 
  57      0BEB
  58 00f9 333E873A 		.ascii	"3>\207:}\336+\003\226\020p\257\210\275\013u0\006\004"
  58      7DDE2B03 
  58      961070AF 
  58      88BD0B75 
  58      300604
  59 010c 46AB7105 		.ascii	"F\253q\005\236\372\235[\361\211\240\222\366\276\314"
  59      9EFA9D5B 
  59      F189A092 
  59      F6BECC
  60 011b D8FF025D 		.ascii	"\330\377\002]\273\340H'\312H'\241\236\372\177L\376\351"
  60      BBE04827 
ARM GAS  C:\Users\JEFFSN~1\AppData\Local\Temp\ccr2HgNQ.s 			page 4


  60      CA4827A1 
  60      9EFA7F4C 
  60      FEE9
  61 012d AB719F93 		.ascii	"\253q\237\223x\355\246=\302\264\367\301M\273>\336\222"
  61      78EDA63D 
  61      C2B4F7C1 
  61      4DBB3EDE 
  61      92
  62 013e 95B69D92 		.ascii	"\225\266\235\222\331>m\366\253V\203\251qz\027\3200n"
  62      D93E6DF6 
  62      AB5683A9 
  62      717A17D0 
  62      306E
  63 0150 44B83420 		.ascii	"D\2704 {\017\020I\247\202W\015\313V\021B\177e\215sz"
  63      7B0F1049 
  63      A782570D 
  63      CB561142 
  63      7F658D73 
  64 0165 8A1C24F3 		.ascii	"\212\034$\363\253\271.\215\270h\330o\315-h4v\225\312"
  64      ABB92E8D 
  64      B868D86F 
  64      CD2D6834 
  64      7695CA
  65 0178 9BC92C7F 		.ascii	"\233\311,\177\321\022\005yQJ?\326\272\211\200\345\245"
  65      D1120579 
  65      514A3FD6 
  65      BA8980E5 
  65      A5
  66 0189 F9CFAFF4 		.ascii	"\371\317\257\3644\014vIUg\360\020\177\357\003\314\316"
  66      340C7649 
  66      5567F010 
  66      7FEF03CC 
  66      CE
  67 019a E011A401 		.ascii	"\340\021\244\001;\346\326'F\274\304q\201\200\307\370"
  67      3BE6D627 
  67      46BCC471 
  67      8180C7F8 
  68 01aa E5270CC8 		.ascii	"\345'\014\310\253\233{\311f;\330ms\234\011\236@\202"
  68      AB9B7BC9 
  68      663BD86D 
  68      739C099E 
  68      4082
  69 01bc 51734A88 		.ascii	"QsJ\210\224pa\327\370r\346WM\221\302\340)\356\217s["
  69      947061D7 
  69      F872E657 
  69      4D91C2E0 
  69      29EE8F73 
  70 01d1 426318BC 		.ascii	"Bc\030\274\277'\017\004L\011w\005Y3\245\254S\230\025"
  70      BF270F04 
  70      4C097705 
  70      5933A5AC 
  70      539815
  71 01e4 83B9CB87 		.ascii	"\203\271\313\207\362\330\270E\014\2461\024\032\244\204"
  71      F2D8B845 
  71      0CA63114 
  71      1AA484
  72 01f3 96121E4B 		.ascii	"\226\022\036K\354P\306\0376\034c\275\002\343g%\343\347"
ARM GAS  C:\Users\JEFFSN~1\AppData\Local\Temp\ccr2HgNQ.s 			page 5


  72      EC50C61F 
  72      361C63BD 
  72      02E36725 
  72      E3E7
  73 0205 45E3AAF2 		.ascii	"E\343\252\362\306\272\315\351X\316(c\2356\304\022\325"
  73      C6BACDE9 
  73      58CE2863 
  73      9D36C412 
  73      D5
  74 0216 CA766D73 		.ascii	"\312vmsV\024}\275\025\370\276(\371f\311w\011\270\303"
  74      56147DBD 
  74      15F8BE28 
  74      F966C977 
  74      09B8C3
  75 0229 60EA3C00 		.ascii	"`\352<\000\235\003\234t\3171\243\3350\333bF$\024\354"
  75      9D039C74 
  75      CF31A3DD 
  75      30DB6246 
  75      2414EC
  76 023c 889B61A3 		.ascii	"\210\233a\2435\020\354h:\334\332|\2741t t\342T(r\246"
  76      3510EC68 
  76      3ADCDA7C 
  76      BC317420 
  76      74E25428 
  77 0252 6D5F98E9 		.ascii	"m_\230\351G\343f4\326\324\021o\217\371Z\214\263F4\026"
  77      47E36634 
  77      D6D4116F 
  77      8FF95A8C 
  77      B3463416 
  78 0266 304C55AB 		.ascii	"0LU\253=\331\331i\230A3\334\030\211\230F4\352W\353f"
  78      3DD9D969 
  78      984133DC 
  78      18899846 
  78      34EA57EB 
  79 027b EC700A7F 		.ascii	"\354p\012\177\001\201\032V\250"
  79      01811A56 
  79      A8
  80              		.text
  81              		.section	.gnu.lto_DMA_1_TX_DmaRelease.f743d57d,"",%progbits
  82 0000 789C6361 		.ascii	"x\234ca`d\000\0016 \245\001\244\245\201\230\221\231"
  82      60640001 
  82      3620A501 
  82      A4A58198 
  82      9199
  83 0012 819169C2 		.ascii	"\201\221i\3029\006\206F\016&FF\020\243\201\203\221\241"
  83      39068646 
  83      0E264646 
  83      10A38183 
  83      91A1
  84 0024 9E89B19E 		.ascii	"\236\211\261\236\361+\323_&\306C\355\317v2i.o\000\202"
  84      F12BD35F 
  84      26C643ED 
  84      CF763269 
  84      2E6F0082 
  85 0038 07ADCB0C 		.ascii	"\007\255\313\014\033V\034`lef`\370\317\0046\211\201"
  85      1B561C60 
  85      6C656660 
ARM GAS  C:\Users\JEFFSN~1\AppData\Local\Temp\ccr2HgNQ.s 			page 6


  85      F8CF0436 
  85      8981
  86 004a 7139A326 		.ascii	"q9\243&\003P\331\243\215\377\246\362\262\265\200\224"
  86      0350D9A3 
  86      8DFFA6F2 
  86      B2B58094 
  87 005a 29402419 		.ascii	")@$\031W0\202\354aX\037t\240\341\377\377\346\206\003"
  87      573082EC 
  87      61581F74 
  87      A0E1FFFF 
  87      E68603
  88 006d 9BB90EEE 		.ascii	"\233\271\016\356\340babhe\006\012\177\000*\001Y\366"
  88      E0626162 
  88      6865060A 
  88      7F002A01 
  88      59F6
  89 007f 91890944 		.ascii	"\221\211\011D3?cl\232\366\361l\020HS33\310\336i\255"
  89      333F636C 
  89      9AF6F16C 
  89      10485333 
  89      33C8DE69 
  90 0094 87CEB37F 		.ascii	"\207\316\263\177ajefb\004\231\277s\347\233\333\354\365"
  90      616A6566 
  90      620499BF 
  90      73E79BDB 
  90      ECF5
  91 00a6 7F1B3A1A 		.ascii	"\177\033:\032\032\004\200b\235@'\200\204_\235\271z\204"
  91      1A048062 
  91      9D402780 
  91      845F9DB9 
  91      7A84
  92 00b8 6B3EE3DC 		.ascii	"k>\343\334\306\006\26083\343*\240\273W2\312\000\255"
  92      C606B038 
  92      33E32AA0 
  92      BB5732CA 
  92      00AD
  93 00ca 5FCD389F 		.ascii	"_\3158\237\221\341\005#\013\310HL\023X\376\003\315e"
  93      91E10523 
  93      0BC8484C 
  93      1358FE03 
  93      CD65
  94 00dc 605CC358 		.ascii	"`\\\303X\317\000\264\257\225\231\225\341\025c\323\201"
  94      CF00B4AF 
  94      959995E1 
  94      1563D381 
  95 00ec 9D5E60D5 		.ascii	"\235^`\325 \360\001(\017t\030\320\231j\356\251y\251"
  95      20F00128 
  95      0F7418D0 
  95      996AEEA9 
  95      79A9
  96 00fe 458925A9 		.ascii	"E\211%\251)\361\301\371\245E\311\2511\001\301\371\316"
  96      29F1C1F9 
  96      A545C9A9 
  96      3101C1F9 
  96      CE
  97 010f A6312EBE 		.ascii	"\2461.\276\216\361\206\361!\021\361)\271\211z\311\014"
  97      8EF186F1 
ARM GAS  C:\Users\JEFFSN~1\AppData\Local\Temp\ccr2HgNQ.s 			page 7


  97      2111F129 
  97      B9897AC9 
  97      0C
  98 0120 00FEFA69 		.ascii	"\000\376\372i\002"
  98      02
  99              		.text
 100              		.section	.gnu.lto_.symbol_nodes.f743d57d,"",%progbits
 101 0000 789C558C 		.ascii	"x\234U\214\261\015\2000\014\004\317q\222\001\230\000"
 101      B10D8030 
 101      0C04CF71 
 101      92019800 
 102 0010 26759028 		.ascii	"&u\220()\230\207:53\300\"\010'\025\371\346t\377\322"
 102      2998873A 
 102      3533C022 
 102      082715F9 
 102      E674FFD2 
 103 0024 47841D4F 		.ascii	"G\204\035O\020\203\343\002\307Y\026H\260Nm\010&\303"
 103      1083E302 
 103      C7591648 
 103      B04E6D08 
 103      26C3
 104 0036 20C9422F 		.ascii	" \311B/\240\224\331=\232\016\256\026\007\317\226\376"
 104      A094D93D 
 104      9A0EAE16 
 104      07CF96FE 
 105 0046 AE7E5DEF 		.ascii	"\256~]\357W\224\310\3664*\2651\344\336\363\001\314\364"
 105      5794C8F6 
 105      342AB531 
 105      E4DEF301 
 105      CCF4
 106 0058 1F26     		.ascii	"\037&"
 107              		.text
 108              		.section	.gnu.lto_.refs.f743d57d,"",%progbits
 109 0000 789C0DC7 		.ascii	"x\234\015\307I\021\000 \000\000!\326c,`\377\254\312"
 109      49110020 
 109      000021D6 
 109      632C60FF 
 109      ACCA
 110 0012 8F25174B 		.ascii	"\217%\027K\245\251\255\323\370\365\000\003\311\0008"
 110      A5A9ADD3 
 110      F8F50003 
 110      C90038
 111              		.text
 112              		.section	.gnu.lto_.decls.f743d57d,"",%progbits
 113 0000 789C8D54 		.ascii	"x\234\215TkL\024W\024\23633.\313\"`\250\261\232lRj\""
 113      6B4C1457 
 113      149E3333 
 113      2ECB2260 
 113      A8B19A6C 
 114 0017 F86B5BD2 		.ascii	"\370k[\322\264i\37741k\325\246\2611\305\23261!+;\255"
 114      B469FF34 
 114      316BD5A6 
 114      B131C59A 
 114      3631212B 
 115 002d 9BE0D2B0 		.ascii	"\233\340\322\260K\"\3755*\276\300\246\220\032Z\020\""
 115      4B22FD35 
 115      2ABEC0A6 
ARM GAS  C:\Users\JEFFSN~1\AppData\Local\Temp\ccr2HgNQ.s 			page 8


 115      901A5A10 
 115      22
 116 003e 62ABA0BC 		.ascii	"b\253\240\274A\305\027][\345)\362\364\261<\004YP\261"
 116      41C5175D 
 116      5BE529F2 
 116      F4B13C04 
 116      5950B1
 117 0051 9042D128 		.ascii	"\220B\321(\245@\317}\314\316\256)mo\366\354\334{\356"
 117      A540CF7D 
 117      CCCEAE29 
 117      6D6FF6EC 
 117      DC7BEE
 118 0064 77CE77BE 		.ascii	"w\316w\276s\357\214,\200@\306\343\020AX\205\323q\234"
 118      73EF8C2C 
 118      8040C6E3 
 118      10415885 
 118      D3719C
 119 0077 2FE090F0 		.ascii	"/\340\220\360\271\015\215\354\232\0056\014hW\321<h-"
 119      B90D8DEC 
 119      9A05360C 
 119      6857D13C 
 119      682D
 120 0089 681D685E 		.ascii	"h\035h^\264\001\216\033\022\202\007\301.E\273\200\026"
 120      B4018E1B 
 120      128207C1 
 120      2E45BB80 
 120      16
 121 009a 85B61CAD 		.ascii	"\205\266\034\255\202\347{\2006\214v\017\315\207\326"
 121      82E77B80 
 121      368C760F 
 121      CD87D6
 122 00a9 8E3682D6 		.ascii	"\2166\202\326\314ce\036\357\345<-\213pxx]\333\002\362"
 122      CC63651E 
 122      EFE53C2D 
 122      8B707878 
 122      5DDB02F2 
 123 00bd 12BE51B4 		.ascii	"\022\276Q\264~\216\0219n\261:\347DX8^\373\255\261\017"
 123      7E8E1139 
 123      6EB13AE7 
 123      4458385E 
 123      FBADB10F 
 124 00d1 BC2009BC 		.ascii	"\274 \011\274!\002\000\373\007j\0023\272\304\211(\260"
 124      210200FB 
 124      076A0233 
 124      BAC48928 
 124      B0
 125 00e2 89E6F20F 		.ascii	"\211\346\362\017\201CDm\252'\243?\036\017\013\332\240"
 125      8143446D 
 125      AA27A33F 
 125      1E0F0BDA 
 125      A0
 126 00f3 49F4ECC0 		.ascii	"I\364\354\300\203\330\232\007\013<\010D\235\000\330"
 126      83D89A07 
 126      0B3C0844 
 126      9D00D8
 127 0102 528B08C8 		.ascii	"R\213\010\310\367REZ\315\032\015m\007\025=\377\344\306"
 127      F752455A 
ARM GAS  C:\Users\JEFFSN~1\AppData\Local\Temp\ccr2HgNQ.s 			page 9


 127      CD1A0D6D 
 127      07153DFF 
 127      E4C6
 128 0114 1E491281 		.ascii	"\036I\022\201\314\007g\2127XJU\034Y\252*\276\247w\346"
 128      CC07678A 
 128      37584A55 
 128      1C59AA2A 
 128      BEA777E6 
 129 0128 A73F6727 		.ascii	"\247?g'\245\247\"\304\230\260f\011\035\025\343\027g"
 129      A5A722C4 
 129      98B06609 
 129      1D15E317 
 129      67
 130 0139 C29983EC 		.ascii	"\302\231\203\354\027\237h\2501I\253\351\374\306\302"
 130      179F68A8 
 130      3149ABE9 
 130      FCC6C2
 131 0148 734F246E 		.ascii	"sO$nE\231@\304e\327\344\315\2020\\.7\301\2629Q\314?"
 131      459940C4 
 131      65D7E4CD 
 131      82305C2E 
 131      37C1B239 
 132 015f 7AADCC00 		.ascii	"z\255\314\000\246\265\207Tu\257\252\356SM\305\021\002"
 132      A6B58754 
 132      75AFAAEE 
 132      534DC511 
 132      02
 133 0170 948319CA 		.ascii	"\224\203\031\312\300,@%\254%)K\300\"\300Yt\236A\347"
 133      C02C4025 
 133      AC25294B 
 133      C022C059 
 133      749E41E7 
 134 0184 2952CF50 		.ascii	")R\317P\315\330\373\027Uu\031T\200\011JA\242\020\024"
 134      CDD8FB17 
 134      55751954 
 134      80094A41 
 134      A21014
 135 0197 13636205 		.ascii	"\023cb\005\346t?\235\001\031EQ\300\016\231\370\212~"
 135      E6743F9D 
 135      01194551 
 135      C00E99F8 
 135      8A7E
 136 01a9 9FCE36FA 		.ascii	"\237\3166\372}U@\235\025\373GJ\214X\216\031\225@\200"
 136      7D55409D 
 136      15FB474A 
 136      8C588E19 
 136      954080
 137 01bc 10331392 		.ascii	"\0203\023\222\233\355\233\017\223>\"s\261\333wvL\206"
 137      9BED9B0F 
 137      933E2273 
 137      B1DB7776 
 137      4C86
 138 01ce B5265A80 		.ascii	"\265&Z\200\247\3725U\204\013\230\350\234\316n&\354T"
 138      A7FA3555 
 138      840B98E8 
 138      9CCE6E26 
 138      EC54
ARM GAS  C:\Users\JEFFSN~1\AppData\Local\Temp\ccr2HgNQ.s 			page 10


 139 01e0 C964916A 		.ascii	"\311d\221jX)\300[fx\023e\234G\031f.\243\026e\324\240"
 139      5829C05B 
 139      66781365 
 139      9C471966 
 139      2EA31665 
 140 01f6 0C4CEEF3 		.ascii	"\014L\356\363fO\207\321\202H\236jV\320\335\251\352\234"
 140      664F87D1 
 140      82489E6A 
 140      56D0DDA9 
 140      EA9C
 141 0208 48BFB38E 		.ascii	"H\277\263\2169;\323+\363%\326C\031\227Smy\276\010\326"
 141      393BD32B 
 141      F325D643 
 141      1997536D 
 141      79BE08D6 
 142 021c C368226C 		.ascii	"\303h\"l\317\343\211\320\2259\364\234\366\251\3212\215"
 142      CFE389D0 
 142      9539F49C 
 142      F6A9D132 
 142      8D
 143 022d BC8C3C97 		.ascii	"\274\214<\227\220G\200+\260\022\377/\202\314Z\323rf"
 143      9047802B 
 143      B012FF2F 
 143      82CC5AD3 
 143      7266
 144 023f 207DC9EA 		.ascii	" }\311\352B\265\260R\035\352n\260OU\253\352a\214\224"
 144      42B5B052 
 144      1DEA6EB0 
 144      4F55ABEA 
 144      618C94
 145 0252 090E8A75 		.ascii	"\011\016\212u1\305\344\332\013p\032\372\360\212\\\205"
 145      31C5E4DA 
 145      0B701AFA 
 145      F08A5C85 
 146 0262 D5E485A8 		.ascii	"\325\344\205\250}\362\\\226v\323\316\3145\037\313\023"
 146      7DF25C96 
 146      76D3CECC 
 146      351FCB13 
 147 0272 0349B7AD 		.ascii	"\003I\267\255\010\340\374\231r\356\340\224\336C?~\027"
 147      08E0FC99 
 147      72EEE094 
 147      DE433F7E 
 147      17
 148 0283 CA283D55 		.ascii	"\312(=U\031R\256\352I\3070\221\240\240^g\254\017d\364"
 148      1952AEEA 
 148      49C73091 
 148      A0A05E67 
 148      AC0F64F4 
 149 0297 50C6A6DC 		.ascii	"P\306\246\33435\262t\004(\345\350\367\307\1773\370["
 149      3335B274 
 149      0428E5E8 
 149      F7C77F33 
 149      F85B
 150 02a9 C30EF5C5 		.ascii	"\303\016\365\305\225\202^\321\357\373\205\265k\240\251"
 150      95825ED1 
 150      EFFB85B5 
 150      6BA0A9
ARM GAS  C:\Users\JEFFSN~1\AppData\Local\Temp\ccr2HgNQ.s 			page 11


 151 02b8 E42C6957 		.ascii	"\344,iW\254\211\276R\221\001\347\032\313\316\365\366"
 151      AC89BE52 
 151      9101E71A 
 151      CBCEF5F6 
 152 02c8 F9FDE361 		.ascii	"\371\375\343aR>\315+\226\2358R\341\277\203(&\252\011"
 152      523ECD2B 
 152      969D3852 
 152      E1BF8328 
 152      26AA09
 153 02db EFA0A605 		.ascii	"\357\240\246\005\232\360\360b\371\341\335@\347u\375"
 153      9AF0F062 
 153      F9E1DD40 
 153      E775FD
 154 02ea 0E4E6CAD 		.ascii	"\016Nl\255:Ht4\"u\203\256#\226_\302\361\236\373\252"
 154      3A487434 
 154      227583AE 
 154      23965FC2 
 154      F19EFBAA 
 155 02fe 31B0458D 		.ascii	"1\260E\215A\347\322L{\364\253v.u\275\337\344\210\330"
 155      41E7D24C 
 155      7BF4AB76 
 155      2E75BDDF 
 155      E488D8
 156 0311 A421CC7C 		.ascii	"\244!\314|,\323\222W\255\246\207\022\014\\\3233_\243"
 156      2CD39257 
 156      ADA68712 
 156      0C5CD333 
 156      5FA3
 157 0323 1DC2490B 		.ascii	"\035\302I\013\355\316\303\321g\336\020\251\201u\347"
 157      EDCEC3D1 
 157      67DE10A9 
 157      8175E7
 158 0332 BFAFFC4D 		.ascii	"\277\257\374M\326\235\340k\327\306\234\255\215\375e"
 158      D69DE06B 
 158      D7C69CAD 
 158      8DFD65
 159 0341 D2E2B5B6 		.ascii	"\322\342\265\266\323Zoi\265\356\275[wIf\265z.)X'\356"
 159      D35A6F69 
 159      B5EEBD5B 
 159      774966B5 
 159      7A2E2958 
 160 0357 43AB5E67 		.ascii	"C\253^g\253Vg\007\255\263\344\321\330D\2704\364\177"
 160      AB566707 
 160      ADB3E4D1 
 160      D844B834 
 160      F47F
 161 0369 4FB18B95 		.ascii	"O\261\213\225tx\337t\241\311\357\354f\316\246\336\322"
 161      7478DF74 
 161      A1C9EFEC 
 161      66CEA6DE 
 161      D2
 162 037a 591DD9C3 		.ascii	"Y\035\331\303\234meG7\373}\267\231\257\277\351\360e"
 162      9C6D6547 
 162      37FB7DB7 
 162      99AFBFE9 
 162      F065
 163 038c 3DFA0E7F 		.ascii	"=\372\016\177\333O\347\325\375\213\312{T\345]M\345\311"
ARM GAS  C:\Users\JEFFSN~1\AppData\Local\Temp\ccr2HgNQ.s 			page 12


 163      DB4FE7D5 
 163      FD8BCA7B 
 163      54E55D4D 
 163      E5C9
 164 039e AC1FB222 		.ascii	"\254\037\262\"\271\312;D%\356C\247\256\262SS\351\245"
 164      B9CA3B44 
 164      25EE43A7 
 164      AEB25353 
 164      E9A5
 165 03b0 2A1BAB3A 		.ascii	"*\033\253:&\302\244\027\213\253\234\275UY..\316\336"
 165      26C2A417 
 165      8BAB9CBD 
 165      55592E2E 
 165      CEDE
 166 03c2 4FD9FB34 		.ascii	"O\331\3734\366?\232\247\037\205p\366Z\302\216\373\320"
 166      F63F9AA7 
 166      1F8570F6 
 166      5AC28EFB 
 166      D0
 167 03d3 ABB3F76A 		.ascii	"\253\263\367j\354\003\224}0s\370\224\341)\373$\321/"
 167      EC03947D 
 167      3073F894 
 167      E129FB24 
 167      D12F
 168 03e5 D981D2B6 		.ascii	"\331\201\322\266\002Y:\310\276\344Y\007z\347\303\327"
 168      02593AC8 
 168      BEE45907 
 168      7AE7C3D7 
 169 03f5 9C540B8B 		.ascii	"\234T\013\213\310K\277a\252\\U%\012\035d\011\371\227"
 169      C84BBF61 
 169      AA5C5525 
 169      0A1D6409 
 169      F997
 170 0407 4AA0EBFB 		.ascii	"J\240\353\373\344\332\017\301\032\214\313\354\371k\335"
 170      E4DA0FC1 
 170      1A8CCBEC 
 170      F96BDD
 171 0416 D20CFDBD 		.ascii	"\322\014\375\275x\351\323\362\000\226\322\022\360\211"
 171      78E9D3F2 
 171      0096D212 
 171      F089
 172 0424 E043457D 		.ascii	"\340CE}m\341Ah\3220\035=\314\321\303\024}\375\331\275"
 172      6DE14168 
 172      D2301D3D 
 172      CCD1C314 
 172      7DFDD9BD 
 173 0438 7A4310BA 		.ascii	"zC\020\272=\010\355\343h\037E\317\244g\214\005\243\233"
 173      3D08EDE3 
 173      681F45CF 
 173      A4678C05 
 173      A39B
 174 044a 83D0231C 		.ascii	"\203\320#\034=B\321\017\233\273\346\214A\350\376 \364"
 174      3D42D10F 
 174      9BBBE68C 
 174      41E8FE20 
 174      F4
 175 045b 284793E7 		.ascii	"(G\223\347\212\365\233\327%\304%l\375,a\375.\333\207"
ARM GAS  C:\Users\JEFFSN~1\AppData\Local\Temp\ccr2HgNQ.s 			page 13


 175      8AF59BD7 
 175      25C4256C 
 175      FD2C61FD 
 175      2EDB87
 176 046e 4E87DB61 		.ascii	"N\207\333aKr|\255\0307~\374i\2645.N0\244:\234\356\270"
 176      4B727CAD 
 176      18377EFC 
 176      69B4352E 
 176      4E30A43A 
 177 0485 775EDFA8 		.ascii	"w^\337\2508\225\024\233[\261'\304'\247\246$*\333\267"
 177      3895149B 
 177      5BB127C4 
 177      27A7A624 
 177      2ADBB7
 178 0498 C4275BDF 		.ascii	"\304'[\337~#1\315\235\366\225\342\262\354\024\226\020"
 178      7E2331CD 
 178      9DF695E2 
 178      B2EC1496 
 178      10
 179 04a9 E0BB31FF 		.ascii	"\340\2731\377\214\333\356g\261\357\262Y\022\205W\002"
 179      8CDBEE67 
 179      B1EFB259 
 179      12855702 
 180 04b9 593F5192 		.ascii	"Y?Q\222\024\233K\211\264\246\341\302\272sK\212#9\305"
 180      149B4B89 
 180      B4A6E1C2 
 180      BA734B8A 
 180      2339C5
 181 04cc E14E3326 		.ascii	"\341N3&\246\271\3346w\252+z\021n\353\347\230\305j\331"
 181      A6B9DC36 
 181      77AA2B7A 
 181      116EEBE7 
 181      98C56AD9 
 182 04e0 24ACE291 		.ascii	"$\254\342\221\361\212\373\203\335n\305iW\354\353\354"
 182      F18AFB83 
 182      DD6EC569 
 182      57ECEBEC 
 183 04f0 F614C5E5 		.ascii	"\366\024\305\345zU\337\261&;\277p|\231\212y\034\311"
 183      7A55DFB1 
 183      263BBF70 
 183      7C998A79 
 183      1CC9
 184 0502 CE08EE5F 		.ascii	"\316\010\356_\357p\331v$)Q\201\345l\2629\355I\312\337"
 184      EF70D976 
 184      24295181 
 184      E56CB239 
 184      ED49CADF 
 185 0516 1507B111 		.ascii	"\025\007\261\021"
 186              		.text
 187              		.section	.gnu.lto_.symtab.f743d57d,"",%progbits
 188 0000 444D415F 		.ascii	"DMA_1_TX_DmaInitialize\000"
 188      315F5458 
 188      5F446D61 
 188      496E6974 
 188      69616C69 
 189 0017 00       		.ascii	"\000"
 190 0018 00       		.ascii	"\000"
ARM GAS  C:\Users\JEFFSN~1\AppData\Local\Temp\ccr2HgNQ.s 			page 14


 191 0019 00       		.ascii	"\000"
 192 001a 00000000 		.ascii	"\000\000\000\000\000\000\000\000"
 192      00000000 
 193 0022 BD000000 		.ascii	"\275\000\000\000"
 194 0026 444D415F 		.ascii	"DMA_1_TX_DmaHandle\000"
 194      315F5458 
 194      5F446D61 
 194      48616E64 
 194      6C6500
 195 0039 00       		.ascii	"\000"
 196 003a 00       		.ascii	"\000"
 197 003b 00       		.ascii	"\000"
 198 003c 00000000 		.ascii	"\000\000\000\000\000\000\000\000"
 198      00000000 
 199 0044 E0000000 		.ascii	"\340\000\000\000"
 200 0048 444D415F 		.ascii	"DMA_1_TX_DmaRelease\000"
 200      315F5458 
 200      5F446D61 
 200      52656C65 
 200      61736500 
 201 005c 00       		.ascii	"\000"
 202 005d 00       		.ascii	"\000"
 203 005e 00       		.ascii	"\000"
 204 005f 00000000 		.ascii	"\000\000\000\000\000\000\000\000"
 204      00000000 
 205 0067 C0000000 		.ascii	"\300\000\000\000"
 206 006b 4379446D 		.ascii	"CyDmaChPriority\000"
 206      61436850 
 206      72696F72 
 206      69747900 
 207 007b 00       		.ascii	"\000"
 208 007c 02       		.ascii	"\002"
 209 007d 00       		.ascii	"\000"
 210 007e 00000000 		.ascii	"\000\000\000\000\000\000\000\000"
 210      00000000 
 211 0086 CA000000 		.ascii	"\312\000\000\000"
 212 008a 4379446D 		.ascii	"CyDmaChSetExtendedAddress\000"
 212      61436853 
 212      65744578 
 212      74656E64 
 212      65644164 
 213 00a4 00       		.ascii	"\000"
 214 00a5 02       		.ascii	"\002"
 215 00a6 00       		.ascii	"\000"
 216 00a7 00000000 		.ascii	"\000\000\000\000\000\000\000\000"
 216      00000000 
 217 00af D0000000 		.ascii	"\320\000\000\000"
 218 00b3 4379446D 		.ascii	"CyDmaChSetConfiguration\000"
 218      61436853 
 218      6574436F 
 218      6E666967 
 218      75726174 
 219 00cb 00       		.ascii	"\000"
 220 00cc 02       		.ascii	"\002"
 221 00cd 00       		.ascii	"\000"
 222 00ce 00000000 		.ascii	"\000\000\000\000\000\000\000\000"
 222      00000000 
ARM GAS  C:\Users\JEFFSN~1\AppData\Local\Temp\ccr2HgNQ.s 			page 15


 223 00d6 D9000000 		.ascii	"\331\000\000\000"
 224 00da 4379446D 		.ascii	"CyDmaChDisable\000"
 224      61436844 
 224      69736162 
 224      6C6500
 225 00e9 00       		.ascii	"\000"
 226 00ea 02       		.ascii	"\002"
 227 00eb 00       		.ascii	"\000"
 228 00ec 00000000 		.ascii	"\000\000\000\000\000\000\000\000"
 228      00000000 
 229 00f4 DD000000 		.ascii	"\335\000\000\000"
 230              		.text
 231              		.section	.gnu.lto_.opts,"",%progbits
 232 0000 272D666D 		.ascii	"'-fmath-errno' '-fsigned-zeros' '-ftrapping-math' '"
 232      6174682D 
 232      6572726E 
 232      6F272027 
 232      2D667369 
 233 0033 2D666E6F 		.ascii	"-fno-trapv' '-fno-openmp' '-fno-openacc' '-mcpu=cor"
 233      2D747261 
 233      70762720 
 233      272D666E 
 233      6F2D6F70 
 234 0066 7465782D 		.ascii	"tex-m3' '-mthumb' '-g' '-O3' '-ffunction-sections' "
 234      6D332720 
 234      272D6D74 
 234      68756D62 
 234      2720272D 
 235 0099 272D6666 		.ascii	"'-ffat-lto-objects' '-finline-functions' '-flto'\000"
 235      61742D6C 
 235      746F2D6F 
 235      626A6563 
 235      74732720 
 236              		.text
 237              		.cfi_sections	.debug_frame
 238              		.section	.text.DMA_1_TX_DmaInitialize,"ax",%progbits
 239              		.align	2
 240              		.global	DMA_1_TX_DmaInitialize
 241              		.thumb
 242              		.thumb_func
 243              		.type	DMA_1_TX_DmaInitialize, %function
 244              	DMA_1_TX_DmaInitialize:
 245              	.LFB0:
 246              		.file 1 "Generated_Source\\PSoC5\\DMA_1_TX_dma.c"
   1:Generated_Source\PSoC5/DMA_1_TX_dma.c **** /***************************************************************************
   2:Generated_Source\PSoC5/DMA_1_TX_dma.c **** * File Name: DMA_1_TX_dma.c  
   3:Generated_Source\PSoC5/DMA_1_TX_dma.c **** * Version 1.70
   4:Generated_Source\PSoC5/DMA_1_TX_dma.c **** *
   5:Generated_Source\PSoC5/DMA_1_TX_dma.c **** *  Description:
   6:Generated_Source\PSoC5/DMA_1_TX_dma.c **** *   Provides an API for the DMAC component. The API includes functions
   7:Generated_Source\PSoC5/DMA_1_TX_dma.c **** *   for the DMA controller, DMA channels and Transfer Descriptors.
   8:Generated_Source\PSoC5/DMA_1_TX_dma.c **** *
   9:Generated_Source\PSoC5/DMA_1_TX_dma.c **** *
  10:Generated_Source\PSoC5/DMA_1_TX_dma.c **** *   Note:
  11:Generated_Source\PSoC5/DMA_1_TX_dma.c **** *     This module requires the developer to finish or fill in the auto
  12:Generated_Source\PSoC5/DMA_1_TX_dma.c **** *     generated funcions and setup the dma channel and TD's.
  13:Generated_Source\PSoC5/DMA_1_TX_dma.c **** *
ARM GAS  C:\Users\JEFFSN~1\AppData\Local\Temp\ccr2HgNQ.s 			page 16


  14:Generated_Source\PSoC5/DMA_1_TX_dma.c **** ********************************************************************************
  15:Generated_Source\PSoC5/DMA_1_TX_dma.c **** * Copyright 2008-2010, Cypress Semiconductor Corporation.  All rights reserved.
  16:Generated_Source\PSoC5/DMA_1_TX_dma.c **** * You may use this file only in accordance with the license, terms, conditions, 
  17:Generated_Source\PSoC5/DMA_1_TX_dma.c **** * disclaimers, and limitations in the end user license agreement accompanying 
  18:Generated_Source\PSoC5/DMA_1_TX_dma.c **** * the software package with which this file was provided.
  19:Generated_Source\PSoC5/DMA_1_TX_dma.c **** ********************************************************************************/
  20:Generated_Source\PSoC5/DMA_1_TX_dma.c **** #include <CYLIB.H>
  21:Generated_Source\PSoC5/DMA_1_TX_dma.c **** #include <CYDMAC.H>
  22:Generated_Source\PSoC5/DMA_1_TX_dma.c **** #include <DMA_1_TX_dma.H>
  23:Generated_Source\PSoC5/DMA_1_TX_dma.c **** 
  24:Generated_Source\PSoC5/DMA_1_TX_dma.c **** 
  25:Generated_Source\PSoC5/DMA_1_TX_dma.c **** 
  26:Generated_Source\PSoC5/DMA_1_TX_dma.c **** /****************************************************************************
  27:Generated_Source\PSoC5/DMA_1_TX_dma.c **** * 
  28:Generated_Source\PSoC5/DMA_1_TX_dma.c **** * The following defines are available in Cyfitter.h
  29:Generated_Source\PSoC5/DMA_1_TX_dma.c **** * 
  30:Generated_Source\PSoC5/DMA_1_TX_dma.c **** * 
  31:Generated_Source\PSoC5/DMA_1_TX_dma.c **** * 
  32:Generated_Source\PSoC5/DMA_1_TX_dma.c **** * DMA_1_TX__DRQ_CTL_REG
  33:Generated_Source\PSoC5/DMA_1_TX_dma.c **** * 
  34:Generated_Source\PSoC5/DMA_1_TX_dma.c **** * 
  35:Generated_Source\PSoC5/DMA_1_TX_dma.c **** * DMA_1_TX__DRQ_NUMBER
  36:Generated_Source\PSoC5/DMA_1_TX_dma.c **** * 
  37:Generated_Source\PSoC5/DMA_1_TX_dma.c **** * Number of TD's used by this channel.
  38:Generated_Source\PSoC5/DMA_1_TX_dma.c **** * DMA_1_TX__NUMBEROF_TDS
  39:Generated_Source\PSoC5/DMA_1_TX_dma.c **** * 
  40:Generated_Source\PSoC5/DMA_1_TX_dma.c **** * Priority of this channel.
  41:Generated_Source\PSoC5/DMA_1_TX_dma.c **** * DMA_1_TX__PRIORITY
  42:Generated_Source\PSoC5/DMA_1_TX_dma.c **** * 
  43:Generated_Source\PSoC5/DMA_1_TX_dma.c **** * True if DMA_1_TX_TERMIN_SEL is used.
  44:Generated_Source\PSoC5/DMA_1_TX_dma.c **** * DMA_1_TX__TERMIN_EN
  45:Generated_Source\PSoC5/DMA_1_TX_dma.c **** * 
  46:Generated_Source\PSoC5/DMA_1_TX_dma.c **** * TERMIN interrupt line to signal terminate.
  47:Generated_Source\PSoC5/DMA_1_TX_dma.c **** * DMA_1_TX__TERMIN_SEL
  48:Generated_Source\PSoC5/DMA_1_TX_dma.c **** * 
  49:Generated_Source\PSoC5/DMA_1_TX_dma.c **** * 
  50:Generated_Source\PSoC5/DMA_1_TX_dma.c **** * True if DMA_1_TX_TERMOUT0_SEL is used.
  51:Generated_Source\PSoC5/DMA_1_TX_dma.c **** * DMA_1_TX__TERMOUT0_EN
  52:Generated_Source\PSoC5/DMA_1_TX_dma.c **** * 
  53:Generated_Source\PSoC5/DMA_1_TX_dma.c **** * 
  54:Generated_Source\PSoC5/DMA_1_TX_dma.c **** * TERMOUT0 interrupt line to signal completion.
  55:Generated_Source\PSoC5/DMA_1_TX_dma.c **** * DMA_1_TX__TERMOUT0_SEL
  56:Generated_Source\PSoC5/DMA_1_TX_dma.c **** * 
  57:Generated_Source\PSoC5/DMA_1_TX_dma.c **** * 
  58:Generated_Source\PSoC5/DMA_1_TX_dma.c **** * True if DMA_1_TX_TERMOUT1_SEL is used.
  59:Generated_Source\PSoC5/DMA_1_TX_dma.c **** * DMA_1_TX__TERMOUT1_EN
  60:Generated_Source\PSoC5/DMA_1_TX_dma.c **** * 
  61:Generated_Source\PSoC5/DMA_1_TX_dma.c **** * 
  62:Generated_Source\PSoC5/DMA_1_TX_dma.c **** * TERMOUT1 interrupt line to signal completion.
  63:Generated_Source\PSoC5/DMA_1_TX_dma.c **** * DMA_1_TX__TERMOUT1_SEL
  64:Generated_Source\PSoC5/DMA_1_TX_dma.c **** * 
  65:Generated_Source\PSoC5/DMA_1_TX_dma.c **** ****************************************************************************/
  66:Generated_Source\PSoC5/DMA_1_TX_dma.c **** 
  67:Generated_Source\PSoC5/DMA_1_TX_dma.c **** 
  68:Generated_Source\PSoC5/DMA_1_TX_dma.c **** /* Zero based index of DMA_1_TX dma channel */
  69:Generated_Source\PSoC5/DMA_1_TX_dma.c **** uint8 DMA_1_TX_DmaHandle = DMA_INVALID_CHANNEL;
  70:Generated_Source\PSoC5/DMA_1_TX_dma.c **** 
ARM GAS  C:\Users\JEFFSN~1\AppData\Local\Temp\ccr2HgNQ.s 			page 17


  71:Generated_Source\PSoC5/DMA_1_TX_dma.c **** /*********************************************************************
  72:Generated_Source\PSoC5/DMA_1_TX_dma.c **** * Function Name: uint8 DMA_1_TX_DmaInitalize
  73:Generated_Source\PSoC5/DMA_1_TX_dma.c **** **********************************************************************
  74:Generated_Source\PSoC5/DMA_1_TX_dma.c **** * Summary:
  75:Generated_Source\PSoC5/DMA_1_TX_dma.c **** *   Allocates and initialises a channel of the DMAC to be used by the
  76:Generated_Source\PSoC5/DMA_1_TX_dma.c **** *   caller.
  77:Generated_Source\PSoC5/DMA_1_TX_dma.c **** *
  78:Generated_Source\PSoC5/DMA_1_TX_dma.c **** * Parameters:
  79:Generated_Source\PSoC5/DMA_1_TX_dma.c **** *   BurstCount.
  80:Generated_Source\PSoC5/DMA_1_TX_dma.c **** *       
  81:Generated_Source\PSoC5/DMA_1_TX_dma.c **** *       
  82:Generated_Source\PSoC5/DMA_1_TX_dma.c **** *   ReqestPerBurst.
  83:Generated_Source\PSoC5/DMA_1_TX_dma.c **** *       
  84:Generated_Source\PSoC5/DMA_1_TX_dma.c **** *       
  85:Generated_Source\PSoC5/DMA_1_TX_dma.c **** *   UpperSrcAddress.
  86:Generated_Source\PSoC5/DMA_1_TX_dma.c **** *       
  87:Generated_Source\PSoC5/DMA_1_TX_dma.c **** *       
  88:Generated_Source\PSoC5/DMA_1_TX_dma.c **** *   UpperDestAddress.
  89:Generated_Source\PSoC5/DMA_1_TX_dma.c **** *       
  90:Generated_Source\PSoC5/DMA_1_TX_dma.c **** *
  91:Generated_Source\PSoC5/DMA_1_TX_dma.c **** * Return:
  92:Generated_Source\PSoC5/DMA_1_TX_dma.c **** *   The channel that can be used by the caller for DMA activity.
  93:Generated_Source\PSoC5/DMA_1_TX_dma.c **** *   DMA_INVALID_CHANNEL (0xFF) if there are no channels left. 
  94:Generated_Source\PSoC5/DMA_1_TX_dma.c **** *
  95:Generated_Source\PSoC5/DMA_1_TX_dma.c **** *
  96:Generated_Source\PSoC5/DMA_1_TX_dma.c **** *******************************************************************/
  97:Generated_Source\PSoC5/DMA_1_TX_dma.c **** uint8 DMA_1_TX_DmaInitialize(uint8 BurstCount, uint8 ReqestPerBurst, uint16 UpperSrcAddress, uint16
  98:Generated_Source\PSoC5/DMA_1_TX_dma.c **** {
 247              		.loc 1 98 0
 248              		.cfi_startproc
 249              		@ args = 0, pretend = 0, frame = 0
 250              		@ frame_needed = 0, uses_anonymous_args = 0
 251              	.LVL0:
 252 0000 2DE9F041 		push	{r4, r5, r6, r7, r8, lr}
 253              		.cfi_def_cfa_offset 24
 254              		.cfi_offset 4, -24
 255              		.cfi_offset 5, -20
 256              		.cfi_offset 6, -16
 257              		.cfi_offset 7, -12
 258              		.cfi_offset 8, -8
 259              		.cfi_offset 14, -4
 260 0004 1746     		mov	r7, r2
 261 0006 9846     		mov	r8, r3
 262 0008 82B0     		sub	sp, sp, #8
 263              		.cfi_def_cfa_offset 32
  99:Generated_Source\PSoC5/DMA_1_TX_dma.c **** 
 100:Generated_Source\PSoC5/DMA_1_TX_dma.c ****     /* Allocate a DMA channel. */
 101:Generated_Source\PSoC5/DMA_1_TX_dma.c ****     DMA_1_TX_DmaHandle = (uint8)DMA_1_TX__DRQ_NUMBER;
 264              		.loc 1 101 0
 265 000a 0C4C     		ldr	r4, .L3
 266 000c 0325     		movs	r5, #3
 102:Generated_Source\PSoC5/DMA_1_TX_dma.c **** 
 103:Generated_Source\PSoC5/DMA_1_TX_dma.c ****     /* Configure the channel. */
 104:Generated_Source\PSoC5/DMA_1_TX_dma.c ****     (void)CyDmaChSetConfiguration(DMA_1_TX_DmaHandle,
 267              		.loc 1 104 0
 268 000e 0026     		movs	r6, #0
 269 0010 3346     		mov	r3, r6
ARM GAS  C:\Users\JEFFSN~1\AppData\Local\Temp\ccr2HgNQ.s 			page 18


 270              	.LVL1:
 271 0012 0A46     		mov	r2, r1
 272              	.LVL2:
 273 0014 0196     		str	r6, [sp, #4]
 274 0016 0146     		mov	r1, r0
 275              	.LVL3:
 276 0018 0096     		str	r6, [sp]
 277 001a 2846     		mov	r0, r5
 278              	.LVL4:
 101:Generated_Source\PSoC5/DMA_1_TX_dma.c **** 
 279              		.loc 1 101 0
 280 001c 2570     		strb	r5, [r4]
 281              		.loc 1 104 0
 282 001e FFF7FEFF 		bl	CyDmaChSetConfiguration
 283              	.LVL5:
 105:Generated_Source\PSoC5/DMA_1_TX_dma.c ****                                   BurstCount,
 106:Generated_Source\PSoC5/DMA_1_TX_dma.c ****                                   ReqestPerBurst,
 107:Generated_Source\PSoC5/DMA_1_TX_dma.c ****                                   (uint8)DMA_1_TX__TERMOUT0_SEL,
 108:Generated_Source\PSoC5/DMA_1_TX_dma.c ****                                   (uint8)DMA_1_TX__TERMOUT1_SEL,
 109:Generated_Source\PSoC5/DMA_1_TX_dma.c ****                                   (uint8)DMA_1_TX__TERMIN_SEL);
 110:Generated_Source\PSoC5/DMA_1_TX_dma.c **** 
 111:Generated_Source\PSoC5/DMA_1_TX_dma.c ****     /* Set the extended address for the transfers */
 112:Generated_Source\PSoC5/DMA_1_TX_dma.c ****     (void)CyDmaChSetExtendedAddress(DMA_1_TX_DmaHandle, UpperSrcAddress, UpperDestAddress);
 284              		.loc 1 112 0
 285 0022 4246     		mov	r2, r8
 286 0024 3946     		mov	r1, r7
 287 0026 2078     		ldrb	r0, [r4]	@ zero_extendqisi2
 288 0028 FFF7FEFF 		bl	CyDmaChSetExtendedAddress
 289              	.LVL6:
 113:Generated_Source\PSoC5/DMA_1_TX_dma.c **** 
 114:Generated_Source\PSoC5/DMA_1_TX_dma.c ****     /* Set the priority for this channel */
 115:Generated_Source\PSoC5/DMA_1_TX_dma.c ****     (void)CyDmaChPriority(DMA_1_TX_DmaHandle, (uint8)DMA_1_TX__PRIORITY);
 290              		.loc 1 115 0
 291 002c 2946     		mov	r1, r5
 292 002e 2078     		ldrb	r0, [r4]	@ zero_extendqisi2
 293 0030 FFF7FEFF 		bl	CyDmaChPriority
 294              	.LVL7:
 116:Generated_Source\PSoC5/DMA_1_TX_dma.c ****     
 117:Generated_Source\PSoC5/DMA_1_TX_dma.c ****     return DMA_1_TX_DmaHandle;
 118:Generated_Source\PSoC5/DMA_1_TX_dma.c **** }
 295              		.loc 1 118 0
 296 0034 2078     		ldrb	r0, [r4]	@ zero_extendqisi2
 297 0036 02B0     		add	sp, sp, #8
 298              		.cfi_def_cfa_offset 24
 299              		@ sp needed
 300 0038 BDE8F081 		pop	{r4, r5, r6, r7, r8, pc}
 301              	.L4:
 302              		.align	2
 303              	.L3:
 304 003c 00000000 		.word	.LANCHOR0
 305              		.cfi_endproc
 306              	.LFE0:
 307              		.size	DMA_1_TX_DmaInitialize, .-DMA_1_TX_DmaInitialize
 308              		.section	.text.DMA_1_TX_DmaRelease,"ax",%progbits
 309              		.align	2
 310              		.global	DMA_1_TX_DmaRelease
 311              		.thumb
ARM GAS  C:\Users\JEFFSN~1\AppData\Local\Temp\ccr2HgNQ.s 			page 19


 312              		.thumb_func
 313              		.type	DMA_1_TX_DmaRelease, %function
 314              	DMA_1_TX_DmaRelease:
 315              	.LFB1:
 119:Generated_Source\PSoC5/DMA_1_TX_dma.c **** 
 120:Generated_Source\PSoC5/DMA_1_TX_dma.c **** /*********************************************************************
 121:Generated_Source\PSoC5/DMA_1_TX_dma.c **** * Function Name: void DMA_1_TX_DmaRelease
 122:Generated_Source\PSoC5/DMA_1_TX_dma.c **** **********************************************************************
 123:Generated_Source\PSoC5/DMA_1_TX_dma.c **** * Summary:
 124:Generated_Source\PSoC5/DMA_1_TX_dma.c **** *   Frees the channel associated with DMA_1_TX.
 125:Generated_Source\PSoC5/DMA_1_TX_dma.c **** *
 126:Generated_Source\PSoC5/DMA_1_TX_dma.c **** *
 127:Generated_Source\PSoC5/DMA_1_TX_dma.c **** * Parameters:
 128:Generated_Source\PSoC5/DMA_1_TX_dma.c **** *   void.
 129:Generated_Source\PSoC5/DMA_1_TX_dma.c **** *
 130:Generated_Source\PSoC5/DMA_1_TX_dma.c **** *
 131:Generated_Source\PSoC5/DMA_1_TX_dma.c **** *
 132:Generated_Source\PSoC5/DMA_1_TX_dma.c **** * Return:
 133:Generated_Source\PSoC5/DMA_1_TX_dma.c **** *   void.
 134:Generated_Source\PSoC5/DMA_1_TX_dma.c **** *
 135:Generated_Source\PSoC5/DMA_1_TX_dma.c **** *******************************************************************/
 136:Generated_Source\PSoC5/DMA_1_TX_dma.c **** void DMA_1_TX_DmaRelease(void) 
 137:Generated_Source\PSoC5/DMA_1_TX_dma.c **** {
 316              		.loc 1 137 0
 317              		.cfi_startproc
 318              		@ args = 0, pretend = 0, frame = 0
 319              		@ frame_needed = 0, uses_anonymous_args = 0
 320              		@ link register save eliminated.
 138:Generated_Source\PSoC5/DMA_1_TX_dma.c ****     /* Disable the channel */
 139:Generated_Source\PSoC5/DMA_1_TX_dma.c ****     (void)CyDmaChDisable(DMA_1_TX_DmaHandle);
 321              		.loc 1 139 0
 322 0000 014B     		ldr	r3, .L6
 323 0002 1878     		ldrb	r0, [r3]	@ zero_extendqisi2
 324 0004 FFF7FEBF 		b	CyDmaChDisable
 325              	.LVL8:
 326              	.L7:
 327              		.align	2
 328              	.L6:
 329 0008 00000000 		.word	.LANCHOR0
 330              		.cfi_endproc
 331              	.LFE1:
 332              		.size	DMA_1_TX_DmaRelease, .-DMA_1_TX_DmaRelease
 333              		.global	DMA_1_TX_DmaHandle
 334              		.data
 335              		.set	.LANCHOR0,. + 0
 336              		.type	DMA_1_TX_DmaHandle, %object
 337              		.size	DMA_1_TX_DmaHandle, 1
 338              	DMA_1_TX_DmaHandle:
 339 0000 FF       		.byte	-1
 340              		.text
 341              	.Letext0:
 342              		.file 2 "Generated_Source\\PSoC5/cytypes.h"
 343              		.file 3 "Generated_Source\\PSoC5/CYDMAC.H"