ARM GAS  C:\Users\JEFFSN~1\AppData\Local\Temp\ccCzNL5v.s 			page 1


   1              		.syntax unified
   2              		.cpu cortex-m3
   3              		.fpu softvfp
   4              		.eabi_attribute 20, 1
   5              		.eabi_attribute 21, 1
   6              		.eabi_attribute 23, 3
   7              		.eabi_attribute 24, 1
   8              		.eabi_attribute 25, 1
   9              		.eabi_attribute 26, 1
  10              		.eabi_attribute 30, 1
  11              		.eabi_attribute 34, 1
  12              		.eabi_attribute 18, 4
  13              		.thumb
  14              		.syntax unified
  15              		.file	"edit.c"
  16              		.text
  17              	.Ltext0:
  18              		.section	.gnu.lto_.profile.cdd0aa18,"",%progbits
  19 0000 789C6361 		.ascii	"x\234ca`d`a`\000\222\222\242\000\000\261\0009"
  19      60646061 
  19      60009292 
  19      A20000B1 
  19      0039
  20              		.text
  21              		.section	.gnu.lto_.inline.cdd0aa18,"",%progbits
  22 0000 789C6361 		.ascii	"x\234ca`d\000\001?\006\004`a`\340\344`d`\342y\020\313"
  22      60640001 
  22      3F060460 
  22      6160E0E4 
  22      606460E2 
  23 0017 C0B6409E 		.ascii	"\300\266@\236\011$\306\310\300\301\016\024\342\232\340"
  23      0924C6C8 
  23      C0C10E14 
  23      E29AE0
  24 0026 07176262 		.ascii	"\007\027bb`c\005\012\261}\320\203\0131c\0121\000\000"
  24      6063050A 
  24      B17DD083 
  24      0B31630A 
  24      310000
  25 0039 537C0835 		.ascii	"S|\0105"
  26              		.text
  27              		.section	.gnu.lto_.jmpfuncs.cdd0aa18,"",%progbits
  28 0000 789C6361 		.ascii	"x\234ca`d\000\001>\006\004`\001b\240(\023\003\0033\220"
  28      60640001 
  28      3E060460 
  28      0162A028 
  28      13030333 
  29 0015 05000292 		.ascii	"\005\000\002\222\000\036"
  29      001E
  30              		.text
  31              		.section	.gnu.lto_.pureconst.cdd0aa18,"",%progbits
  32 0000 789C6361 		.ascii	"x\234ca`d\340d```a\220b\224b\222b\226\002\000\002\261"
  32      6064E064 
  32      60606061 
  32      90629462 
  32      92629602 
  33 0017 0081     		.ascii	"\000\201"
ARM GAS  C:\Users\JEFFSN~1\AppData\Local\Temp\ccCzNL5v.s 			page 2


  34              		.text
  35              		.section	.gnu.lto_edit_Write.cdd0aa18,"",%progbits
  36 0000 789C5551 		.ascii	"x\234UQ=k\024Q\024\275\347\275\231\331\350\372\361\003"
  36      3D6B1451 
  36      14BDE7BD 
  36      99D9E8FA 
  36      F103
  37 0012 5C241661 		.ascii	"\\$\026a\211\205(\342\037\320\302V\222vA\226\315\024"
  37      898528E2 
  37      1FD0C256 
  37      92764196 
  37      CD14
  38 0024 0B6A2099 		.ascii	"\013j \231\330\346M&\273\001\253\200dS\305\205\204\220"
  38      D8E64D26 
  38      BB01AB80 
  38      6453C585 
  38      8490
  39 0036 F8959808 		.ascii	"\370\225\230\010\202`1\016\244\325&\250\210hH1B\260"
  39      8260310E 
  39      A4D526A8 
  39      88684831 
  39      42B0
  40 0048 98804B16 		.ascii	"\230\200K\026\243\256\367\276Ia.\274\217\271s\316\271"
  40      A3AEF7BE 
  40      49612EBC 
  40      8FB973CE 
  40      B9
  41 0059 E7DEE710 		.ascii	"\347\336\347\020H\342\242\"\272\302\3479^\320\0045\373"
  41      48E2A222 
  41      BAC2E739 
  41      5ED00435 
  41      FB
  42 006a 8E28EC53 		.ascii	"\216(\354S\200\\L\037hRa\022\035\365G!\231I_\253\301"
  42      805C4C1F 
  42      68526112 
  42      1DF54721 
  42      99495FAB 
  43 007f 15C3B1B3 		.ascii	"\025\303\261\263\374H\233\325\030\015M\324SV\211\260"
  43      FC489BD5 
  43      180D4DD4 
  43      535689B0 
  44 008f 8241467D 		.ascii	"\202AF}\1773\263\015}\001\304\367f\322\311\212\345e"
  44      7F33B30D 
  44      7D01C4F7 
  44      66D2C98A 
  44      E565
  45 00a1 63A68CF9 		.ascii	"c\246\214\371V1\272\241\201Uhf\340j\011\227K\304\011"
  45      5631BAA1 
  45      81556866 
  45      E06A0997 
  45      4BC409
  46 00b4 C2639405 		.ascii	"\302c\224\005\334\375\274\275vF\227-q\326\244\213\247"
  46      DCFDBCBD 
  46      7646972D 
  46      71D6A48B 
  46      A7
  47 00c5 06968418 		.ascii	"\006\226\204\030\037\334\2357q\330/\334'\377s%\030\272"
ARM GAS  C:\Users\JEFFSN~1\AppData\Local\Temp\ccCzNL5v.s 			page 3


  47      1FDC9D37 
  47      71D82FDC 
  47      27FF7325 
  47      18BA
  48 00d7 BBF177EE 		.ascii	"\273\361w\356\2647-\256\372\361\024\003\271\037<\203"
  48      B4372DAE 
  48      FAF11403 
  48      B91F3C83 
  49 00e7 C71D4232 		.ascii	"\307\035B2\353C\261\351\365\"\023w\334\216>\241\270"
  49      EB43B1E9 
  49      F5221377 
  49      DC8E3EA1 
  49      B8
  50 00f8 A8E24EF9 		.ascii	"\250\342N\371\207\003\251\355J\302\223\255 \033Q\306"
  50      8703A9ED 
  50      4AC293AD 
  50      201B51C6 
  51 0108 4BBADF57 		.ascii	"K\272\337WJN\235\"\371\365\340\353|A4#-\223h5\222\367"
  51      4A4E9D22 
  51      F9F5E0EB 
  51      7C413423 
  51      2D936835 
  52 011e 859FAAA1 		.ascii	"\205\237\252\241\265u\373)jw\213\371g\266\024\032\207"
  52      B575FB29 
  52      6A778BF9 
  52      67B6141A 
  52      87
  53 012f 530F5FCD 		.ascii	"S\017_\315\3559m,\204\323<#\007k(\3419\3303\326\321"
  53      ED396D2C 
  53      84D33C23 
  53      076B28E1 
  53      39D833D6 
  54 0144 06A5887E 		.ascii	"\006\245\210~7\277 \027\324\271\346\207\205\255\226"
  54      37BF2017 
  54      D4B9E687 
  54      85AD96
  55 0153 15010E81 		.ascii	"\025\001\016\201\027\014\336\205\262m\260SF\011)k\246"
  55      170CDE85 
  55      B26DB053 
  55      4609296B 
  55      A6
  56 0164 1F8F6CB8 		.ascii	"\037\217l\270\221\226:[\275\203\370\254\260\\\006o0"
  56      91963A5B 
  56      BD83F8AC 
  56      B05C066F 
  56      30
  57 0175 C94AFF38 		.ascii	"\311J\3778\222\026\034\203\336\356l\356[i\007\0166s"
  57      92161C83 
  57      DEEE6CEE 
  57      5B69070E 
  57      3673
  58 0187 50D7CB21 		.ascii	"P\327\313!\005k\300\343T\322\262\254c\346Cc\212\307"
  58      056BC0E3 
  58      54D2B2AC 
  58      63E64363 
  58      8AC7
  59 0199 FDBF64FF 		.ascii	"\375\277d\377\314\242=L\305\207\256\020\354Cd\0122+"
ARM GAS  C:\Users\JEFFSN~1\AppData\Local\Temp\ccCzNL5v.s 			page 4


  59      CCA23D4C 
  59      C587AE10 
  59      EC43640A 
  59      322B
  60 01ab 9EDCF99B 		.ascii	"\236\334\371\233\376=\177\254\032\370#\267\207G'\306"
  60      FE3D7FAC 
  60      1AF823B7 
  60      874727C6 
  61 01bb 6A7EE5D6 		.ascii	"j~\345\326\360\350\215k\025\177\244\036\\\252\221{\277"
  61      F0E88D6B 
  61      157FA41E 
  61      5CAA917B 
  61      BF
  62 01cc 7A67C23F 		.ascii	"zg\302?9\036T\203z\355z=\030\377\007%e\302\353"
  62      391E5483 
  62      7AED7A3D 
  62      18FF0725 
  62      65C2EB
  63              		.text
  64              		.section	.gnu.lto_edit_SetDriveMode.cdd0aa18,"",%progbits
  65 0000 789C7D51 		.ascii	"x\234}QMk\023Q\024\275\347\275\311\314\244\301\374\001"
  65      4D6B1351 
  65      14BDE7BD 
  65      C9CCA4C1 
  65      FC01
  66 0012 07D18584 		.ascii	"\007\321\205\204nJ@\374\005\202n\305n\003E\222Y\270"
  66      6E4A40FC 
  66      05826EC5 
  66      6E034592 
  66      59B8
  67 0024 B0C112D7 		.ascii	"\260\301\022\327y\311d(\230\215 v\241H\273hI\264\325"
  67      79C96428 
  67      988D2076 
  67      A148BB68 
  67      49B4D5
  68 0037 28AE5C25 		.ascii	"(\256\\%\015(\270\211\273.\272\020\2610\024\301\222"
  68      0D28B889 
  68      BB2EBA10 
  68      B13014C1 
  68      92
  69 0048 D4164B34 		.ascii	"\324\026K4\306{g\\d\345c\336\3758\234s\270\367\215E"
  69      C67B675C 
  69      64E563DE 
  69      FD389C73 
  69      B8F78D45 
  70 005c 2039879C 		.ascii	" 9\207\234.s>\317\027\232\240\036\016\210j\256\002\244"
  70      2E733ECF 
  70      179AA01E 
  70      0E886AAE 
  70      02A4
  71 006e 302EA8AA 		.ascii	"0.\250\252P\305\251\232(\364W\243wj\276e\370|y\177\224"
  71      50C5A99A 
  71      28F457A3 
  71      776ABE65 
  71      F87C797F 
  72 0083 37ED1E42 		.ascii	"7\355\036BM4U\261\023\241\205yf\375x\273\365(\243/\201"
  72      4D3455B1 
ARM GAS  C:\Users\JEFFSN~1\AppData\Local\Temp\ccCzNL5v.s 			page 5


  72      13A18579 
  72      66FD78BB 
  72      F528A32F 
  73 0098 B81E0D86 		.ascii	"\270\036\015\206\237\263\271-c\352\306L\012F\207\032"
  73      9FB3B92D 
  73      63EAC64C 
  73      0A46871A 
  74 00a8 6843B302 		.ascii	"hC\263\002W<\344=b\200\360\0349!\177}\363\347\3619\273"
  74      573CE43D 
  74      6280F01C 
  74      39217F7D 
  74      F3E7F139 
  75 00bd 21F61713 		.ascii	"!\366\027\023S\274\200-cvn\365\314t\032\230\336O{wl"
  75      53BC802D 
  75      63766EF5 
  75      CC741A98 
  75      DE4F7B77 
  76 00d2 6714CB94 		.ascii	"g\024\313\224\346\240-\011)\210\203-\245#\301\225\220"
  76      E6A02D09 
  76      2988832D 
  76      A523C195 
  76      90
  77 00e3 160ED190 		.ascii	"\026\016\321\220\257,2RJ\262\216\320\037?\210\236Z\342"
  77      AF2C3252 
  77      4AB28ED0 
  77      1F3F889E 
  77      5AE2
  78 00f5 1C68596A 		.ascii	"\034hYj-\354\177rNT\250\255x\342\301f\367\343\\\322"
  78      2DEC7F72 
  78      4E54A8AD 
  78      78E2C166 
  78      F7E35CD2 
  79 0109 8E376AC6 		.ascii	"\2167j\306b\250\373\244y\340\254\343Y\255\301\353\246"
  79      62A8FBA4 
  79      79E0ACE3 
  79      59ADC1EB 
  79      A6
  80 011a B0030FDB 		.ascii	"\260\003\017\333\360x\272\227X\007E\250\037;\211\235"
  80      F078BA97 
  80      580745A8 
  80      1F3B899D 
  81 012a 6647EE83 		.ascii	"fG\356\203\337v\322[\014\261~\377Cs\222\026K\215{x\305"
  81      DF76D25B 
  81      0CB17EFF 
  81      43739216 
  81      4B8D7B78 
  82 013f CA19097F 		.ascii	"\312\031\011\177\251Y\211\303\020K\276\357m\357\350"
  82      A95989C3 
  82      104BBEEF 
  82      6DEFE8
  83 014e 44924527 		.ascii	"D\222E'\226\004g\377(nl\354\314\272\244\031\345\276"
  83      960467FF 
  83      286E6CEC 
  83      CCBAA419 
  83      E5BE
  84 0160 BF06E9FF 		.ascii	"\277\006\351\3777\362k\036\231\371\364\015\365\336\257"
  84      37F26B1E 
ARM GAS  C:\Users\JEFFSN~1\AppData\Local\Temp\ccCzNL5v.s 			page 6


  84      99F9F40D 
  84      F5DEAF
  85 016f EBC28E7F 		.ascii	"\353\302\216\177\335PA\236\207\037\353\302\015\177\331"
  85      DD50419E 
  85      871FEBC2 
  85      0D7FD9
  86 017e 5FB95DF1 		.ascii	"_\271]\361KK\213\345\373+E\277ps\261|\355j\301/\335"
  86      4B4B8BE5 
  86      FB2B45BF 
  86      7073B17C 
  86      ED6AC12F 
  87 0193 A92C14C9 		.ascii	"\251,\024\311\272[.\371\177\001\301\205\245\200"
  87      BA5B2EF9 
  87      7F01C185 
  87      A580
  88              		.text
  89              		.section	.gnu.lto_edit_Read.cdd0aa18,"",%progbits
  90 0000 789C354F 		.ascii	"x\2345O\315K\002Q\020\237\337{\353\256\004\321\037\220"
  90      CD4B0251 
  90      109FDF7B 
  90      EBAE04D1 
  90      1F90
  91 0012 84572F11 		.ascii	"\204W/\021D\020]\203\272F\322M\210\320%\272$\210\235"
  91      44105D83 
  91      BA46D24D 
  91      88D025BA 
  91      24889D
  92 0025 DD75DD82 		.ascii	"\335u\335\202(\360b]*\017!\332\027\325\177\260\011A"
  92      28F0625D 
  92      2A0F21DA 
  92      17D57FB0 
  92      0941
  93 0037 10144141 		.ascii	"\020\024AA\247\210\010\203\350\220R\010bm\363\332\032"
  93      A7880883 
  93      E8905208 
  93      626DF3DA 
  93      1A
  94 0048 7833EFCD 		.ascii	"x3\357\315\373}\314h\004R1\303%\312\265\237\017$A\024"
  94      FB7DCC68 
  94      045231C3 
  94      25CAB59F 
  94      0F244114 
  95 005c AF88ECB0 		.ascii	"\257\210\354\260\000\324\305\012\203r\0029|\212/\201"
  95      00D4C50A 
  95      83720239 
  95      7C8A2F81 
  96 006c CBF6C55A 		.ascii	"\313\366\305ZO\254jYy\353\261\322\031\335\254yp%\221"
  96      4FAC6A59 
  96      79EBB1D2 
  96      19DDAC79 
  96      702591
  97 007f 2F08C311 		.ascii	"/\010\303\021\014E\224D\0251b\350\323\351w\251W/X\034"
  97      0C459444 
  97      153162E8 
  97      D3E977A9 
  97      572F581C 
  98 0093 5105E09F 		.ascii	"Q\005\340\237\032tey<\355Y\276\357X\336\235qvo\030 "
ARM GAS  C:\Users\JEFFSN~1\AppData\Local\Temp\ccCzNL5v.s 			page 7


  98      1A746579 
  98      3CED59BE 
  98      EF58DE9D 
  98      71766F18 
  99 00a8 57B22F27 		.ascii	"W\262/'\215\223\010\251\244\223\222\245w\246\251!\232"
  99      8D9308A9 
  99      A49392A5 
  99      77A6A921 
  99      9A
 100 00b9 42A82A1B 		.ascii	"B\250*\033\250wV\037v\306\224\222#%\273l\270\365k\343"
 100      A877561F 
 100      76C69492 
 100      2325BB6C 
 100      B8F56BE3 
 101 00cd 43B85242 		.ascii	"C\270RB\231v\327K/\010\236\315]\333\322\270U)\332\363"
 101      9976D74B 
 101      2F089ECD 
 101      5DDBD2B8 
 101      5529DAF3 
 102 00e1 656CDB05 		.ascii	"el\333\005\236T\303>\"\330\003\317\211\003\224A\015"
 102      9E54C33E 
 102      22D803CF 
 102      89039441 
 102      0D
 103 00f2 38DD0972 		.ascii	"8\335\011r$\002\265\233\302\311\226Tt@\303!\303\032"
 103      2402B59B 
 103      C2C99654 
 103      7440C321 
 103      C31A
 104 0104 C8B756DE 		.ascii	"\310\267V\336D\340\2471N1Z\313\267Z\320\011q\223i\347"
 104      44E0A731 
 104      4E315ACB 
 104      B75AD009 
 104      719369E7 
 105 0118 7EDBEB53 		.ascii	"~\333\353S4\001\201\243\177\3323\002\220\302\321+\376"
 105      340181A3 
 105      7FDA3302 
 105      90C2D12B 
 105      FE
 106 0129 4474FADD 		.ascii	"Dt\372\335\013j\037\336n`\322\\43sY35\033O/e\222fb*"
 106      0B6A1FDE 
 106      6E60D25C 
 106      34337359 
 106      33351B4F 
 107 0143 9E1E1F49 		.ascii	"\236\036\037I\230\251\205\354`\222~\000|\243zU"
 107      98A985EC 
 107      60927E00 
 107      7CA37A55 
 108              		.text
 109              		.section	.gnu.lto_edit_ReadDataReg.cdd0aa18,"",%progbits
 110 0000 789C354F 		.ascii	"x\2345O;K\003A\020\236ows\011\021\361\007\030$m\032"
 110      3B4B0341 
 110      109E6F77 
 110      730911F1 
 110      0718246D 
 111 0015 11C4425B 		.ascii	"\021\304B[A[1`\025\020I\256\2601\020b\235K.\247 \026"
 111      415B3160 
ARM GAS  C:\Users\JEFFSN~1\AppData\Local\Temp\ccCzNL5v.s 			page 8


 111      151049AE 
 111      B0311062 
 111      9D4B2EA7 
 112 002b 82441B25 		.ascii	"\202D\033%\205H\022\037\250\215\235p\006\004A\360\001"
 112      8548121F 
 112      A88D9D70 
 112      060441F0 
 112      01
 113 003c 16962292 		.ascii	"\026\226\"\222\"X\304\240DDs\316z:\2603\273\263\337"
 113      2258C4A0 
 113      444473CE 
 113      7A3AB033 
 113      BBB3DF
 114 004f 63461148 		.ascii	"cF\021H\307\014\227(\327~>\220\004\261vM\224\017\011"
 114      C70C9728 
 114      D77E3E90 
 114      04B1764D 
 114      940F09
 115 0062 405FAC10 		.ascii	"@_\254\020('\220\303\273\370\026\270\352\\\256\206c"
 115      282790C3 
 115      BBF816B8 
 115      EA5CAE86 
 115      63
 116 0073 15CB2A58 		.ascii	"\025\313*X\217\273\225\321\315\252\013G\022y\2020\034"
 116      8FBB95D1 
 116      CDAA0B47 
 116      12798230 
 116      1C
 117 0084 C150444B 		.ascii	"\301PDKT\020#\206>\235tK\275F\321\342\210j\000\377T"
 117      54102386 
 117      3E9D744B 
 117      BD46D1E2 
 117      886A00FF 
 118 0099 6168CBA3 		.ascii	"ah\313\243i\327\362<\333r\317\302\347\267\341 \310\221"
 118      69D7F23C 
 118      DB72CFC2 
 118      E7B7E120 
 118      C891
 119 00ab ECCB4971 		.ascii	"\354\313Iq\022\001\235\014\322\262\324b\232\036\342"
 119      12019D0C 
 119      D2B2D462 
 119      9A1EE2
 120 00ba 55085D65 		.ascii	"U\010]e\003\365\317\225nmL+\331R\262\313\206S\277\011"
 120      03F5CF95 
 120      6E6D4C2B 
 120      D952B2CB 
 120      8653BF09 
 121 00ce BE09474A 		.ascii	"\276\011GJh\323\007\273\374\321\343?[;yKqk\375\264\324"
 121      68D307BB 
 121      FCD1E33F 
 121      5B3B794B 
 121      716BFDB4 
 122 00e3 54656CE7 		.ascii	"Tel\347\213<\252\302\036\"\250\201\007\305>\312\240"
 122      8B3CAAC2 
 122      1E22A881 
 122      07C53ECA 
 122      A0
ARM GAS  C:\Users\JEFFSN~1\AppData\Local\Temp\ccCzNL5v.s 			page 9


 123 00f4 06ECAF09 		.ascii	"\006\354\257\011\262%|\271\273\342\361\226\324|@\341"
 123      B2257CB9 
 123      BBE2F196 
 123      D47C40E1 
 124 0104 80610D14 		.ascii	"\200a\015\024\332\313/\3027T\214\323\214\366\322\275"
 124      DACB2FC2 
 124      37548CD3 
 124      8CF6D2BD 
 125 0114 F23B016E 		.ascii	"\362;\001n2\355\302\353\270}\232& p\370O{\206\017\322"
 125      32EDC2EB 
 125      B87D9A26 
 125      2070F84F 
 125      7B860FD2 
 126 0128 386AE24F 		.ascii	"8j\342O\304\240\337\305\240\027\342\365\006&\315\005"
 126      C4A0DFC5 
 126      A017E2F5 
 126      0626CD05 
 127 0138 33339735 		.ascii	"33\2275S\263\361\364b&i&\246\342\351\361\221\204\231"
 127      53B3F1F4 
 127      62266926 
 127      A6E2E9F1 
 127      918499
 128 014b 9ACF0E26 		.ascii	"\232\317\016&\351\007\322\001z\272"
 128      E907D201 
 128      7ABA
 129              		.text
 130              		.section	.gnu.lto_.symbol_nodes.cdd0aa18,"",%progbits
 131 0000 789C6361 		.ascii	"x\234ca`dpc\000\002&\206z\006\206\011\347\030@\324\252"
 131      60647063 
 131      00022686 
 131      7A068609 
 131      E71840D4 
 132 0015 0645A000 		.ascii	"\006E\240\000c=#\252\000S=\023\252\000s=3\212\000\003"
 132      633D23AA 
 132      00533D13 
 132      AA00733D 
 132      338A0003 
 133 0029 001ED60E 		.ascii	"\000\036\326\016\374"
 133      FC
 134              		.text
 135              		.section	.gnu.lto_.refs.cdd0aa18,"",%progbits
 136 0000 789C6361 		.ascii	"x\234ca`\004B \000\000\0009\000\007"
 136      60044220 
 136      00000039 
 136      0007
 137              		.text
 138              		.section	.gnu.lto_.decls.cdd0aa18,"",%progbits
 139 0000 789C8D52 		.ascii	"x\234\215R]H\024Q\024\276gfv\325\321\314$\304\207-\314"
 139      5D481451 
 139      14BE6766 
 139      76D5D1CC 
 139      24C4872D 
 140 0015 279F9644 		.ascii	"'\237\226D\002!\250@\311^\312P\264\027CV\035\314\027"
 140      0221A840 
 140      C95ECA50 
 140      B4174356 
 140      1DCC17
ARM GAS  C:\Users\JEFFSN~1\AppData\Local\Temp\ccCzNL5v.s 			page 10


 141 0028 8D750D7C 		.ascii	"\215u\015|\273\376D\246\020JZ(b\332Ci\232k\351\232\273"
 141      BBFE44A6 
 141      104A5A28 
 141      62DA4369 
 141      9A6BE99A 
 142 003d 65AEA949 		.ascii	"e\256\251I\222\220\030\225\231%\254>H\022\033\371\""
 142      92901895 
 142      9925AC3E 
 142      48121BF9 
 142      22
 143 004e B16DE7DE 		.ascii	"\261m\347\336\235\331\231j\003\017\334\271\347\334{"
 143      9DD9996A 
 143      030FDCB9 
 143      E7DC7B
 144 005d BEEF7CE7 		.ascii	"\276\357|\347\314\225\010\020f\307%Bn\340n\3010\210"
 144      CC950810 
 144      66C72542 
 144      6EE06EC1 
 144      3088
 145 006f 6642BF90 		.ascii	"fB\277\220\350\206\327d\024\227\013\327\004.\017\371"
 145      E886D764 
 145      14970BD7 
 145      042E0FF9 
 146 007f D7D8BD59 		.ascii	"\327\330\275Y\305\0153.\\S\270&q\345\2529\240\346\375"
 146      C50D332E 
 146      5C53B826 
 146      71E5AA39 
 146      A0E6FD
 147 0092 6DAE0858 		.ascii	"m\256\010X\257\001\257a]\021\260L\217\311\200\313\215"
 147      AF01AF61 
 147      5D11B04C 
 147      8FC980CB 
 147      8D
 148 00a3 809B8880 		.ascii	"\200\233\210\200\363\354\001\027\251\317\200\000\335"
 148      F3EC0117 
 148      A9CF8000 
 148      DD
 149 00b0 D33D33A6 		.ascii	"\323=3\246UX\001 \300\215\250s$\354D\335\231\003\241"
 149      55580120 
 149      C08DA873 
 149      24EC44DD 
 149      9903A1
 150 00c3 40D0F840 		.ascii	"@\320\370@K\322J\360t \002\317\017\237ky\341\232A\315"
 150      4BD24AF0 
 150      742002CF 
 150      0F9F6B79 
 150      E19A41CD 
 151 00d7 F423089B 		.ascii	"\364#\010\233\226\011\177\2222V=\304X\320\001\006>U"
 151      96097F92 
 151      32563DC4 
 151      58D00106 
 151      3E55
 152 00e9 BD5A1F8C 		.ascii	"\275Z\037\214e9\265\2505\375\366\265\377\275 \"'\372"
 152      6539B5A8 
 152      35FDF6B5 
 152      FFBD2022 
 152      27FA
ARM GAS  C:\Users\JEFFSN~1\AppData\Local\Temp\ccCzNL5v.s 			page 11


 153 00fb 5F76FB4F 		.ascii	"_v\373O[\207(Z+\245\302!}2\316\253\033\003\321;\002"
 153      5B87285A 
 153      2BA5C221 
 153      7D32CEAB 
 153      1B03D13B 
 154 0110 58640802 		.ascii	"Xd\010\002\213\267\335\273\373B1\273\356l\363\375\212"
 154      8BB7DDBB 
 154      FB4231BB 
 154      EE6CF3FD 
 154      8A
 155 0121 1593982F 		.ascii	"\025\223\230/,\373\006\267$H\223\3571\232\365\335\215"
 155      2CFB06B7 
 155      244893EF 
 155      319AF5DD 
 155      8D
 156 0132 136E4A13 		.ascii	"\023nJ\023`\030d\030\002\021\006\300\312\024Xd\3746"
 156      60186418 
 156      021106C0 
 156      CA145864 
 156      FC36
 157 0144 515A4FFD 		.ascii	"QZO\375w\2519\231@\206\005\216Z\010<\2044\306\311\262"
 157      77A93999 
 157      4086058E 
 157      5A083C84 
 157      34C6C9B2 
 158 0158 60102CF0 		.ascii	"`\020,\360\000,\214\177\363\366\235\257f\011\307\315"
 158      002C8C7F 
 158      F3F69DAF 
 158      6609C7CD 
 159 0168 794A2476 		.ascii	"yJ$v\266\3248\322-\242\204D\031$\014\277/v\371\3421"
 159      B6D438D2 
 159      2DA28444 
 159      19240CBF 
 159      2F76F9E2 
 160 017d 3C28430A 		.ascii	"<(C\012\206C\236O\333\346\344[\274\225\006\232\"Aa\022"
 160      86439E4F 
 160      DBE6E45B 
 160      BC95069A 
 160      22416112 
 161 0191 3C42C211 		.ascii	"<B\302\021$$\360\030\222\361\353\004)\324\335\312\232"
 161      2424F018 
 161      92F1EB04 
 161      29D4DDCA 
 161      9A
 162 01a2 B33D36B5 		.ascii	"\263=6\265\227\366\216\320\365\300fF'\3656\"N`i\320"
 162      97F68ED0 
 162      F5C06646 
 162      27F53622 
 162      4E6069D0 
 163 01b6 AF8B4697 		.ascii	"\257\213F\227m\367a\025\007:\012\251\210\274\366am:"
 163      6DF76115 
 163      073A0AA9 
 163      88BCF661 
 163      6D3A
 164 01c8 46BCC887 		.ascii	"F\274\310\207P\327\367s%*\304\342\335y\031G[\353(=\305"
 164      50D7F773 
 164      252AC4E2 
ARM GAS  C:\Users\JEFFSN~1\AppData\Local\Temp\ccCzNL5v.s 			page 12


 164      DD791947 
 164      5BEB283D 
 165 01dd 39C6748E 		.ascii	"9\306t\2161#\207\213s\264\017/\264\304\213U\234\343"
 165      3123878B 
 165      73B40F2F 
 165      B4C48B55 
 165      9CE3
 166 01ef 4DCB5CC3 		.ascii	"M\313\\\303~\243l\326\257\256\373\011\327]\242\312\376"
 166      7EA36CD6 
 166      AFAEFB09 
 166      D75DA2CA 
 166      FE
 167 0200 FC8A7E8C 		.ascii	"\374\212~\214V\013.\317\213a\331\230\005\343z\311qc"
 167      560B2ECF 
 167      8B61D998 
 167      05E37AC9 
 167      7163
 168 0212 C9095E72 		.ascii	"\311\011^r6\340\253\026ky\305\271\233\363=j\357^\317"
 168      36E0AB16 
 168      6B79C5B9 
 168      9BF33D6A 
 168      EF5ECF
 169 0225 82A69A51 		.ascii	"\202\246\232Q\270u\012\267\221\302\303)v\032\177\274"
 169      B8750AB7 
 169      91C2C329 
 169      761A7FBC 
 170 0235 33CBF80B 		.ascii	"3\313\370\013\033\366\366\013\027\267\372\202Qb3\360"
 170      1BF6F60B 
 170      17B7FA82 
 170      516233F0 
 171 0245 3732DAD1 		.ascii	"72\332\321\331\021\005rZ\004\370\363\010p\365)\015\025"
 171      D9110572 
 171      5A04F8F3 
 171      0870F529 
 171      0D15
 172 0257 B45D67FD 		.ascii	"\264]g\375M\342L\236\351\342\236\202\034\232\307\300"
 172      4DE24C9E 
 172      E9E29E82 
 172      1C9AC7C0 
 173 0267 B7192FC4 		.ascii	"\267\031/\3045\263W\205\303K<\303\023\365\341MA\034"
 173      35B35785 
 173      C34B3CC3 
 173      13F5E14D 
 173      411C
 174 0279 7FFDB807 		.ascii	"\177\375\270\007\004qv\3319%\203l\001\274\207&V\300"
 174      047176D9 
 174      3925836C 
 174      01BC8726 
 174      56C0
 175 028b 5F6FD041 		.ascii	"_o\320A\300\313ha\032\257_ \274\213\262\234%\340\307"
 175      C0CB6861 
 175      1AAF5F20 
 175      BC8BB29C 
 175      25E0C7
 176 029e 3CF09FE4 		.ascii	"<\360\237\344>\377\310JY\205\243\370\202\275\302\241"
 176      3EFFC84A 
 176      5985A3F8 
ARM GAS  C:\Users\JEFFSN~1\AppData\Local\Temp\ccCzNL5v.s 			page 13


 176      82BDC2A1 
 177 02ae 44E79C2B 		.ascii	"D\347\234+H\311JO'\246\232\212JG\346\221\034\245R\261"
 177      48C94A4F 
 177      27A69A8A 
 177      4A47E691 
 177      1CA552B1 
 178 02c2 DB1C4A59 		.ascii	"\333\034JYq~U\215\275T):\237_\225u\254\250\264\326Q"
 178      717E558D 
 178      BD54293A 
 178      9F5F9575 
 178      ACA8B4D6 
 179 02d7 7B59A9B6 		.ascii	"{Y\251\266^\"\207\377\223\301(\255\245\344\000\247\316"
 179      5E2287FF 
 179      93C128AD 
 179      A5E400A7 
 179      CE
 180 02e8 571CD9F6 		.ascii	"W\034\331\366\212+\312\331\2522%\206\237\344)\266\262"
 180      8A2BCAD9 
 180      AA322586 
 180      9FE429B6 
 180      B2
 181 02f9 84B0976D 		.ascii	"\204\260\227ms\330\362\224r\311\256\224g\376\0065\\"
 181      73D8F294 
 181      72C9AE94 
 181      67FE0635 
 181      5C
 182 030a 5F9D     		.ascii	"_\235"
 183              		.text
 184              		.section	.gnu.lto_.symtab.cdd0aa18,"",%progbits
 185 0000 65646974 		.ascii	"edit_Write\000"
 185      5F577269 
 185      746500
 186 000b 00       		.ascii	"\000"
 187 000c 00       		.ascii	"\000"
 188 000d 00       		.ascii	"\000"
 189 000e 00000000 		.ascii	"\000\000\000\000\000\000\000\000"
 189      00000000 
 190 0016 B3000000 		.ascii	"\263\000\000\000"
 191 001a 65646974 		.ascii	"edit_SetDriveMode\000"
 191      5F536574 
 191      44726976 
 191      654D6F64 
 191      6500
 192 002c 00       		.ascii	"\000"
 193 002d 00       		.ascii	"\000"
 194 002e 00       		.ascii	"\000"
 195 002f 00000000 		.ascii	"\000\000\000\000\000\000\000\000"
 195      00000000 
 196 0037 B5000000 		.ascii	"\265\000\000\000"
 197 003b 65646974 		.ascii	"edit_Read\000"
 197      5F526561 
 197      6400
 198 0045 00       		.ascii	"\000"
 199 0046 00       		.ascii	"\000"
 200 0047 00       		.ascii	"\000"
 201 0048 00000000 		.ascii	"\000\000\000\000\000\000\000\000"
 201      00000000 
ARM GAS  C:\Users\JEFFSN~1\AppData\Local\Temp\ccCzNL5v.s 			page 14


 202 0050 B8000000 		.ascii	"\270\000\000\000"
 203 0054 65646974 		.ascii	"edit_ReadDataReg\000"
 203      5F526561 
 203      64446174 
 203      61526567 
 203      00
 204 0065 00       		.ascii	"\000"
 205 0066 00       		.ascii	"\000"
 206 0067 00       		.ascii	"\000"
 207 0068 00000000 		.ascii	"\000\000\000\000\000\000\000\000"
 207      00000000 
 208 0070 BA000000 		.ascii	"\272\000\000\000"
 209              		.text
 210              		.section	.gnu.lto_.opts,"",%progbits
 211 0000 272D666D 		.ascii	"'-fmath-errno' '-fsigned-zeros' '-ftrapping-math' '"
 211      6174682D 
 211      6572726E 
 211      6F272027 
 211      2D667369 
 212 0033 2D666E6F 		.ascii	"-fno-trapv' '-fno-strict-overflow' '-fno-openmp' '-"
 212      2D747261 
 212      70762720 
 212      272D666E 
 212      6F2D7374 
 213 0066 666E6F2D 		.ascii	"fno-openacc' '-mcpu=cortex-m3' '-mthumb' '-g' '-Og'"
 213      6F70656E 
 213      61636327 
 213      20272D6D 
 213      6370753D 
 214 0099 20272D66 		.ascii	" '-ffunction-sections' '-ffat-lto-objects' '-finlin"
 214      66756E63 
 214      74696F6E 
 214      2D736563 
 214      74696F6E 
 215 00cc 652D6675 		.ascii	"e-functions' '-flto'\000"
 215      6E637469 
 215      6F6E7327 
 215      20272D66 
 215      6C746F27 
 216              		.text
 217              		.cfi_sections	.debug_frame
 218              		.section	.text.edit_Write,"ax",%progbits
 219              		.align	2
 220              		.global	edit_Write
 221              		.thumb
 222              		.thumb_func
 223              		.type	edit_Write, %function
 224              	edit_Write:
 225              	.LFB0:
 226              		.file 1 "Generated_Source\\PSoC5\\edit.c"
   1:Generated_Source\PSoC5/edit.c **** /*******************************************************************************
   2:Generated_Source\PSoC5/edit.c **** * File Name: edit.c  
   3:Generated_Source\PSoC5/edit.c **** * Version 2.20
   4:Generated_Source\PSoC5/edit.c **** *
   5:Generated_Source\PSoC5/edit.c **** * Description:
   6:Generated_Source\PSoC5/edit.c **** *  This file contains API to enable firmware control of a Pins component.
   7:Generated_Source\PSoC5/edit.c **** *
ARM GAS  C:\Users\JEFFSN~1\AppData\Local\Temp\ccCzNL5v.s 			page 15


   8:Generated_Source\PSoC5/edit.c **** * Note:
   9:Generated_Source\PSoC5/edit.c **** *
  10:Generated_Source\PSoC5/edit.c **** ********************************************************************************
  11:Generated_Source\PSoC5/edit.c **** * Copyright 2008-2015, Cypress Semiconductor Corporation.  All rights reserved.
  12:Generated_Source\PSoC5/edit.c **** * You may use this file only in accordance with the license, terms, conditions, 
  13:Generated_Source\PSoC5/edit.c **** * disclaimers, and limitations in the end user license agreement accompanying 
  14:Generated_Source\PSoC5/edit.c **** * the software package with which this file was provided.
  15:Generated_Source\PSoC5/edit.c **** *******************************************************************************/
  16:Generated_Source\PSoC5/edit.c **** 
  17:Generated_Source\PSoC5/edit.c **** #include "cytypes.h"
  18:Generated_Source\PSoC5/edit.c **** #include "edit.h"
  19:Generated_Source\PSoC5/edit.c **** 
  20:Generated_Source\PSoC5/edit.c **** /* APIs are not generated for P15[7:6] on PSoC 5 */
  21:Generated_Source\PSoC5/edit.c **** #if !(CY_PSOC5A &&\
  22:Generated_Source\PSoC5/edit.c **** 	 edit__PORT == 15 && ((edit__MASK & 0xC0) != 0))
  23:Generated_Source\PSoC5/edit.c **** 
  24:Generated_Source\PSoC5/edit.c **** 
  25:Generated_Source\PSoC5/edit.c **** /*******************************************************************************
  26:Generated_Source\PSoC5/edit.c **** * Function Name: edit_Write
  27:Generated_Source\PSoC5/edit.c **** ****************************************************************************//**
  28:Generated_Source\PSoC5/edit.c **** *
  29:Generated_Source\PSoC5/edit.c **** * \brief Writes the value to the physical port (data output register), masking
  30:Generated_Source\PSoC5/edit.c **** *  and shifting the bits appropriately. 
  31:Generated_Source\PSoC5/edit.c **** *
  32:Generated_Source\PSoC5/edit.c **** * The data output register controls the signal applied to the physical pin in 
  33:Generated_Source\PSoC5/edit.c **** * conjunction with the drive mode parameter. This function avoids changing 
  34:Generated_Source\PSoC5/edit.c **** * other bits in the port by using the appropriate method (read-modify-write or
  35:Generated_Source\PSoC5/edit.c **** * bit banding).
  36:Generated_Source\PSoC5/edit.c **** *
  37:Generated_Source\PSoC5/edit.c **** * <b>Note</b> This function should not be used on a hardware digital output pin 
  38:Generated_Source\PSoC5/edit.c **** * as it is driven by the hardware signal attached to it.
  39:Generated_Source\PSoC5/edit.c **** *
  40:Generated_Source\PSoC5/edit.c **** * \param value
  41:Generated_Source\PSoC5/edit.c **** *  Value to write to the component instance.
  42:Generated_Source\PSoC5/edit.c **** *
  43:Generated_Source\PSoC5/edit.c **** * \return 
  44:Generated_Source\PSoC5/edit.c **** *  None 
  45:Generated_Source\PSoC5/edit.c **** *
  46:Generated_Source\PSoC5/edit.c **** * \sideeffect
  47:Generated_Source\PSoC5/edit.c **** *  If you use read-modify-write operations that are not atomic; the Interrupt 
  48:Generated_Source\PSoC5/edit.c **** *  Service Routines (ISR) can cause corruption of this function. An ISR that 
  49:Generated_Source\PSoC5/edit.c **** *  interrupts this function and performs writes to the Pins component data 
  50:Generated_Source\PSoC5/edit.c **** *  register can cause corrupted port data. To avoid this issue, you should 
  51:Generated_Source\PSoC5/edit.c **** *  either use the Per-Pin APIs (primary method) or disable interrupts around 
  52:Generated_Source\PSoC5/edit.c **** *  this function.
  53:Generated_Source\PSoC5/edit.c **** *
  54:Generated_Source\PSoC5/edit.c **** * \funcusage
  55:Generated_Source\PSoC5/edit.c **** *  \snippet edit_SUT.c usage_edit_Write
  56:Generated_Source\PSoC5/edit.c **** *******************************************************************************/
  57:Generated_Source\PSoC5/edit.c **** void edit_Write(uint8 value)
  58:Generated_Source\PSoC5/edit.c **** {
 227              		.loc 1 58 0
 228              		.cfi_startproc
 229              		@ args = 0, pretend = 0, frame = 0
 230              		@ frame_needed = 0, uses_anonymous_args = 0
 231              		@ link register save eliminated.
 232              	.LVL0:
ARM GAS  C:\Users\JEFFSN~1\AppData\Local\Temp\ccCzNL5v.s 			page 16


  59:Generated_Source\PSoC5/edit.c ****     uint8 staticBits = (edit_DR & (uint8)(~edit_MASK));
 233              		.loc 1 59 0
 234 0000 044A     		ldr	r2, .L2
 235 0002 1378     		ldrb	r3, [r2]	@ zero_extendqisi2
 236 0004 03F0FB03 		and	r3, r3, #251
 237              	.LVL1:
  60:Generated_Source\PSoC5/edit.c ****     edit_DR = staticBits | ((uint8)(value << edit_SHIFT) & edit_MASK);
 238              		.loc 1 60 0
 239 0008 8000     		lsls	r0, r0, #2
 240              	.LVL2:
 241 000a 00F00400 		and	r0, r0, #4
 242 000e 1843     		orrs	r0, r0, r3
 243 0010 1070     		strb	r0, [r2]
 244 0012 7047     		bx	lr
 245              	.L3:
 246              		.align	2
 247              	.L2:
 248 0014 F0510040 		.word	1073762800
 249              		.cfi_endproc
 250              	.LFE0:
 251              		.size	edit_Write, .-edit_Write
 252              		.section	.text.edit_SetDriveMode,"ax",%progbits
 253              		.align	2
 254              		.global	edit_SetDriveMode
 255              		.thumb
 256              		.thumb_func
 257              		.type	edit_SetDriveMode, %function
 258              	edit_SetDriveMode:
 259              	.LFB1:
  61:Generated_Source\PSoC5/edit.c **** }
  62:Generated_Source\PSoC5/edit.c **** 
  63:Generated_Source\PSoC5/edit.c **** 
  64:Generated_Source\PSoC5/edit.c **** /*******************************************************************************
  65:Generated_Source\PSoC5/edit.c **** * Function Name: edit_SetDriveMode
  66:Generated_Source\PSoC5/edit.c **** ****************************************************************************//**
  67:Generated_Source\PSoC5/edit.c **** *
  68:Generated_Source\PSoC5/edit.c **** * \brief Sets the drive mode for each of the Pins component's pins.
  69:Generated_Source\PSoC5/edit.c **** * 
  70:Generated_Source\PSoC5/edit.c **** * <b>Note</b> This affects all pins in the Pins component instance. Use the
  71:Generated_Source\PSoC5/edit.c **** * Per-Pin APIs if you wish to control individual pin's drive modes.
  72:Generated_Source\PSoC5/edit.c **** *
  73:Generated_Source\PSoC5/edit.c **** * \param mode
  74:Generated_Source\PSoC5/edit.c **** *  Mode for the selected signals. Valid options are documented in 
  75:Generated_Source\PSoC5/edit.c **** *  \ref driveMode.
  76:Generated_Source\PSoC5/edit.c **** *
  77:Generated_Source\PSoC5/edit.c **** * \return
  78:Generated_Source\PSoC5/edit.c **** *  None
  79:Generated_Source\PSoC5/edit.c **** *
  80:Generated_Source\PSoC5/edit.c **** * \sideeffect
  81:Generated_Source\PSoC5/edit.c **** *  If you use read-modify-write operations that are not atomic, the ISR can
  82:Generated_Source\PSoC5/edit.c **** *  cause corruption of this function. An ISR that interrupts this function 
  83:Generated_Source\PSoC5/edit.c **** *  and performs writes to the Pins component Drive Mode registers can cause 
  84:Generated_Source\PSoC5/edit.c **** *  corrupted port data. To avoid this issue, you should either use the Per-Pin
  85:Generated_Source\PSoC5/edit.c **** *  APIs (primary method) or disable interrupts around this function.
  86:Generated_Source\PSoC5/edit.c **** *
  87:Generated_Source\PSoC5/edit.c **** * \funcusage
  88:Generated_Source\PSoC5/edit.c **** *  \snippet edit_SUT.c usage_edit_SetDriveMode
ARM GAS  C:\Users\JEFFSN~1\AppData\Local\Temp\ccCzNL5v.s 			page 17


  89:Generated_Source\PSoC5/edit.c **** *******************************************************************************/
  90:Generated_Source\PSoC5/edit.c **** void edit_SetDriveMode(uint8 mode)
  91:Generated_Source\PSoC5/edit.c **** {
 260              		.loc 1 91 0
 261              		.cfi_startproc
 262              		@ args = 0, pretend = 0, frame = 0
 263              		@ frame_needed = 0, uses_anonymous_args = 0
 264              		@ link register save eliminated.
 265              	.LVL3:
  92:Generated_Source\PSoC5/edit.c **** 	CyPins_SetPinDriveMode(edit_0, mode);
 266              		.loc 1 92 0
 267 0000 044A     		ldr	r2, .L5
 268 0002 1378     		ldrb	r3, [r2]	@ zero_extendqisi2
 269 0004 03F0F103 		and	r3, r3, #241
 270 0008 00F00E00 		and	r0, r0, #14
 271              	.LVL4:
 272 000c 1843     		orrs	r0, r0, r3
 273 000e 1070     		strb	r0, [r2]
 274 0010 7047     		bx	lr
 275              	.L6:
 276 0012 00BF     		.align	2
 277              	.L5:
 278 0014 7A500040 		.word	1073762426
 279              		.cfi_endproc
 280              	.LFE1:
 281              		.size	edit_SetDriveMode, .-edit_SetDriveMode
 282              		.section	.text.edit_Read,"ax",%progbits
 283              		.align	2
 284              		.global	edit_Read
 285              		.thumb
 286              		.thumb_func
 287              		.type	edit_Read, %function
 288              	edit_Read:
 289              	.LFB2:
  93:Generated_Source\PSoC5/edit.c **** }
  94:Generated_Source\PSoC5/edit.c **** 
  95:Generated_Source\PSoC5/edit.c **** 
  96:Generated_Source\PSoC5/edit.c **** /*******************************************************************************
  97:Generated_Source\PSoC5/edit.c **** * Function Name: edit_Read
  98:Generated_Source\PSoC5/edit.c **** ****************************************************************************//**
  99:Generated_Source\PSoC5/edit.c **** *
 100:Generated_Source\PSoC5/edit.c **** * \brief Reads the associated physical port (pin status register) and masks 
 101:Generated_Source\PSoC5/edit.c **** *  the required bits according to the width and bit position of the component
 102:Generated_Source\PSoC5/edit.c **** *  instance. 
 103:Generated_Source\PSoC5/edit.c **** *
 104:Generated_Source\PSoC5/edit.c **** * The pin's status register returns the current logic level present on the 
 105:Generated_Source\PSoC5/edit.c **** * physical pin.
 106:Generated_Source\PSoC5/edit.c **** *
 107:Generated_Source\PSoC5/edit.c **** * \return 
 108:Generated_Source\PSoC5/edit.c **** *  The current value for the pins in the component as a right justified number.
 109:Generated_Source\PSoC5/edit.c **** *
 110:Generated_Source\PSoC5/edit.c **** * \funcusage
 111:Generated_Source\PSoC5/edit.c **** *  \snippet edit_SUT.c usage_edit_Read  
 112:Generated_Source\PSoC5/edit.c **** *******************************************************************************/
 113:Generated_Source\PSoC5/edit.c **** uint8 edit_Read(void)
 114:Generated_Source\PSoC5/edit.c **** {
 290              		.loc 1 114 0
ARM GAS  C:\Users\JEFFSN~1\AppData\Local\Temp\ccCzNL5v.s 			page 18


 291              		.cfi_startproc
 292              		@ args = 0, pretend = 0, frame = 0
 293              		@ frame_needed = 0, uses_anonymous_args = 0
 294              		@ link register save eliminated.
 115:Generated_Source\PSoC5/edit.c ****     return (edit_PS & edit_MASK) >> edit_SHIFT;
 295              		.loc 1 115 0
 296 0000 024B     		ldr	r3, .L8
 297 0002 1878     		ldrb	r0, [r3]	@ zero_extendqisi2
 116:Generated_Source\PSoC5/edit.c **** }
 298              		.loc 1 116 0
 299 0004 C0F38000 		ubfx	r0, r0, #2, #1
 300 0008 7047     		bx	lr
 301              	.L9:
 302 000a 00BF     		.align	2
 303              	.L8:
 304 000c F1510040 		.word	1073762801
 305              		.cfi_endproc
 306              	.LFE2:
 307              		.size	edit_Read, .-edit_Read
 308              		.section	.text.edit_ReadDataReg,"ax",%progbits
 309              		.align	2
 310              		.global	edit_ReadDataReg
 311              		.thumb
 312              		.thumb_func
 313              		.type	edit_ReadDataReg, %function
 314              	edit_ReadDataReg:
 315              	.LFB3:
 117:Generated_Source\PSoC5/edit.c **** 
 118:Generated_Source\PSoC5/edit.c **** 
 119:Generated_Source\PSoC5/edit.c **** /*******************************************************************************
 120:Generated_Source\PSoC5/edit.c **** * Function Name: edit_ReadDataReg
 121:Generated_Source\PSoC5/edit.c **** ****************************************************************************//**
 122:Generated_Source\PSoC5/edit.c **** *
 123:Generated_Source\PSoC5/edit.c **** * \brief Reads the associated physical port's data output register and masks 
 124:Generated_Source\PSoC5/edit.c **** *  the correct bits according to the width and bit position of the component 
 125:Generated_Source\PSoC5/edit.c **** *  instance. 
 126:Generated_Source\PSoC5/edit.c **** *
 127:Generated_Source\PSoC5/edit.c **** * The data output register controls the signal applied to the physical pin in 
 128:Generated_Source\PSoC5/edit.c **** * conjunction with the drive mode parameter. This is not the same as the 
 129:Generated_Source\PSoC5/edit.c **** * preferred edit_Read() API because the 
 130:Generated_Source\PSoC5/edit.c **** * edit_ReadDataReg() reads the data register instead of the status 
 131:Generated_Source\PSoC5/edit.c **** * register. For output pins this is a useful function to determine the value 
 132:Generated_Source\PSoC5/edit.c **** * just written to the pin.
 133:Generated_Source\PSoC5/edit.c **** *
 134:Generated_Source\PSoC5/edit.c **** * \return 
 135:Generated_Source\PSoC5/edit.c **** *  The current value of the data register masked and shifted into a right 
 136:Generated_Source\PSoC5/edit.c **** *  justified number for the component instance.
 137:Generated_Source\PSoC5/edit.c **** *
 138:Generated_Source\PSoC5/edit.c **** * \funcusage
 139:Generated_Source\PSoC5/edit.c **** *  \snippet edit_SUT.c usage_edit_ReadDataReg 
 140:Generated_Source\PSoC5/edit.c **** *******************************************************************************/
 141:Generated_Source\PSoC5/edit.c **** uint8 edit_ReadDataReg(void)
 142:Generated_Source\PSoC5/edit.c **** {
 316              		.loc 1 142 0
 317              		.cfi_startproc
 318              		@ args = 0, pretend = 0, frame = 0
 319              		@ frame_needed = 0, uses_anonymous_args = 0
ARM GAS  C:\Users\JEFFSN~1\AppData\Local\Temp\ccCzNL5v.s 			page 19


 320              		@ link register save eliminated.
 143:Generated_Source\PSoC5/edit.c ****     return (edit_DR & edit_MASK) >> edit_SHIFT;
 321              		.loc 1 143 0
 322 0000 024B     		ldr	r3, .L11
 323 0002 1878     		ldrb	r0, [r3]	@ zero_extendqisi2
 144:Generated_Source\PSoC5/edit.c **** }
 324              		.loc 1 144 0
 325 0004 C0F38000 		ubfx	r0, r0, #2, #1
 326 0008 7047     		bx	lr
 327              	.L12:
 328 000a 00BF     		.align	2
 329              	.L11:
 330 000c F0510040 		.word	1073762800
 331              		.cfi_endproc
 332              	.LFE3:
 333              		.size	edit_ReadDataReg, .-edit_ReadDataReg
 334              		.text
 335              	.Letext0:
 336              		.file 2 "Generated_Source\\PSoC5\\cytypes.h"