ARM GAS  C:\Users\JEFFSN~1\AppData\Local\Temp\ccqqD8Rg.s 			page 1


   1              		.syntax unified
   2              		.cpu cortex-m3
   3              		.fpu softvfp
   4              		.eabi_attribute 20, 1
   5              		.eabi_attribute 21, 1
   6              		.eabi_attribute 23, 3
   7              		.eabi_attribute 24, 1
   8              		.eabi_attribute 25, 1
   9              		.eabi_attribute 26, 1
  10              		.eabi_attribute 30, 2
  11              		.eabi_attribute 34, 1
  12              		.eabi_attribute 18, 4
  13              		.thumb
  14              		.syntax unified
  15              		.file	"Em_EEPROM.c"
  16              		.text
  17              	.Ltext0:
  18              		.section	.gnu.lto_.profile.807d5206,"",%progbits
  19 0000 789C6361 		.ascii	"x\234ca`d`a`\000\222\"\\\000\000\234\000)"
  19      60646061 
  19      60009222 
  19      5C00009C 
  19      0029
  20              		.text
  21              		.section	.gnu.lto_.icf.807d5206,"",%progbits
  22 0000 789C6361 		.ascii	"x\234ca`d\000\001\021\006\004`f\270\271p\3611.\3067"
  22      60640001 
  22      11060460 
  22      66B8B970 
  22      F1312EC6 
  23 0015 7FB6ACE5 		.ascii	"\177\266\254\345a\372v\374\334]F\006\000f\347\011\313"
  23      61FA76FC 
  23      DC5D4606 
  23      0066E709 
  23      CB
  24              		.text
  25              		.section	.gnu.lto_.jmpfuncs.807d5206,"",%progbits
  26 0000 789C6361 		.ascii	"x\234ca`d\000\201\002\006\004`d`dd\254ga`ad\370\313"
  26      60640081 
  26      02060460 
  26      64606464 
  26      AC676160 
  27 0018 C4B8EDD9 		.ascii	"\304\270\355\331\311c\\_\230Z\231\031\030\033\030\031"
  27      C9635C5F 
  27      985A9919 
  27      181B1819 
  28 0028 9733CA28 		.ascii	"\2273\312(\000\005/\266l\230\303\014\021da\\\301(\343"
  28      00052FB6 
  28      6C98C30C 
  28      1164615C 
  28      C128E3
  29 003b 00145BFF 		.ascii	"\000\024[\377f\347O^\220\030#\320\200\225\2142\036 "
  29      66E74F5E 
  29      901823D0 
  29      80958C32 
  29      1E20
  30 004d 82918581 		.ascii	"\202\221\205\201\021(\267s\347\233\333\354\365\177\033"
ARM GAS  C:\Users\JEFFSN~1\AppData\Local\Temp\ccqqD8Rg.s 			page 2


  30      1128B773 
  30      E79BDBEC 
  30      F57F1B
  31 005c 3A1A1A04 		.ascii	":\032\032\004Z\231\231:\231A\326\254b\254\007jg`\000"
  31      5A99993A 
  31      9941D6AC 
  31      62AC076A 
  31      676000
  32 006f 00412720 		.ascii	"\000A' \031"
  32      19
  33              		.text
  34              		.section	.gnu.lto_.inline.807d5206,"",%progbits
  35 0000 789C6361 		.ascii	"x\234ca`d\000\001\031\006\004`d\020\340\021ad`\342\232"
  35      60640001 
  35      19060460 
  35      6410E011 
  35      616460E2 
  36 0015 E0C7C0B6 		.ascii	"\340\307\300\266@\236\011$\306\302\313\300\000b\000"
  36      409E0924 
  36      C6C2CBC0 
  36      006200
  37 0024 00278A02 		.ascii	"\000'\212\002\030"
  37      18
  38              		.text
  39              		.section	.gnu.lto_.pureconst.807d5206,"",%progbits
  40 0000 789C6361 		.ascii	"x\234ca`d`f`\000\222\022\000\000p\000\""
  40      60646066 
  40      60009212 
  40      00007000 
  40      22
  41              		.text
  42              		.section	.gnu.lto_Em_EEPROM_Init.807d5206,"",%progbits
  43 0000 789C8593 		.ascii	"x\234\205\223]HSa\030\307\337\377y\367\355\014/\203"
  43      5D485361 
  43      18C7DFFF 
  43      79F7ED0C 
  43      2F83
  44 0012 460961E2 		.ascii	"F\011a\342M\013$\222\240\213\010\351*\022\275\025Dt"
  44      4D0B2492 
  44      A08B08E9 
  44      2A12BD15 
  44      4474
  45 0024 451729CC 		.ascii	"E\027)\314u\275\327\271#\006\011\221_$\212E\204e\331"
  45      75BDD7B9 
  45      23060991 
  45      5F248A45 
  45      8465D9
  46 0037 5CA935CD 		.ascii	"\\\2515\315:JL#-\254\244@!1\260\022!WJ\031\350z\236"
  46      3A4A4C23 
  46      2DACA440 
  46      2131B012 
  46      21574A19 
  47 004e B3690485 		.ascii	"\263i\004\205\007\3069\317\373>\377\337\3639\213\200"
  47      07C639CF 
  47      FB3EFFDF 
  47      F3398B80 
  48 005e E0A7590A 		.ascii	"\340\247Y\012q\214\336{\350\007)\240]~)D\255C\003\370"
ARM GAS  C:\Users\JEFFSN~1\AppData\Local\Temp\ccqqD8Rg.s 			page 3


  48      718CDE7B 
  48      E80729A0 
  48      5D7E2944 
  48      AD4303F8 
  49 0072 43392082 		.ascii	"C9 \202\032\202X\32364\274\3701q\311\225\327\255TH\315"
  49      1A8258D3 
  49      3634BCF8 
  49      3171C995 
  49      D7AD5448 
  50 0087 EB0B45DF 		.ascii	"\353\013E\337C\372n\235\344IM \337\203C\036Ft#\217<"
  50      43FA6E9D 
  50      E4494D20 
  50      DF83431E 
  50      4674238F 
  51 009c A7C37D1D 		.ascii	"\247\303}\035rU\323%`!31\325\376q\027\233\032\262\311"
  51      7255D325 
  51      60213331 
  51      D5FE7117 
  51      9B1AB2C9 
  52 00b0 FC36F966 		.ascii	"\3746\371f\330.\017@\320\367\327\265\216\001k\356Mf"
  52      D82E0F40 
  52      D0F7D7B5 
  52      8E016BEE 
  52      4D66
  53 00c2 AA699F72 		.ascii	"\252i\237r\352R\242\007\222\231\267\341\301-x\004\035"
  53      EA52A207 
  53      9299B7E1 
  53      C12D7804 
  53      1D
  54 00d3 09DC412E 		.ascii	"\011\334A.\273\277^\231\354\314H\201\263\310\034\\|"
  54      BBBF5E99 
  54      ECCC4881 
  54      B3C81C5C 
  54      7C
  55 00e4 1E77A5C0 		.ascii	"\036w\245\300\012d\177\331\214|\262\310|\223\2547w\177"
  55      0A647FD9 
  55      8C7CB2C8 
  55      7C93AC37 
  55      777F
  56 00f6 70E6DC50 		.ascii	"p\346\334P\206RF[\375\336Ze\204\263ui\301\275\024\275"
  56      8652465B 
  56      FDDE5A65 
  56      84B37569 
  56      C1BD14BD 
  57 010a 97E877E1 		.ascii	"\227\350w\3411\233@\336\253C\375S\220GMe\343\324\317"
  57      319B40DE 
  57      AB43FD53 
  57      90474D65 
  57      E3D4CF
  58 011d 6B565252 		.ascii	"kVRRNFK\375\2766e\324\222R\240/\245\334\252\325\324"
  58      4E464BFD 
  58      BE3665D4 
  58      9252A02F 
  58      A5DCAAD5 
  59 0132 2D44375B 		.ascii	"-D7[2maEO6\242\310A\0049\334\021j\305}\330\250\307\332"
  59      326D6145 
  59      4F36A2C8 
ARM GAS  C:\Users\JEFFSN~1\AppData\Local\Temp\ccqqD8Rg.s 			page 4


  59      410439DC 
  59      116AC57D 
  60 014a D669A4D8 		.ascii	"\326i\244\330P\311d\2352\232l\243s\266\014\033\270&"
  60      50C9649D 
  60      329A6CA3 
  60      73B60C1B 
  60      B826
  61 015c A7E06B21 		.ascii	"\247\340k!VH\301\015Oh\032\277\345\"B\255\211\370u;"
  61      5648C10D 
  61      4F681ABF 
  61      E52242AD 
  61      89F8753B 
  62 0170 43284A4F 		.ascii	"C(JOc\270\311\351\355\345(\352\210.\255\314\333\344"
  62      63B8C9E9 
  62      EDE528EA 
  62      882EADCC 
  62      DBE4
  63 0182 20020FE0 		.ascii	" \002\017\340%\207\310rl=\223\033A!\321Oe1 :\236\260"
  63      2587C872 
  63      6C3D931B 
  63      4121D14F 
  63      6531203A 
  64 0198 FE1B2053 		.ascii	"\376\033 S\000^\001\014\230\200\355N\332\251\223\030"
  64      005E010C 
  64      9880ED4E 
  64      DAA99318 
  65 01a8 4C1312E3 		.ascii	"L\023\022\343;\244`\026\372\020\336?1'\023\377Q\244"
  65      3BA46016 
  65      FA10DE3F 
  65      312713FF 
  65      51A4
  66 01ba 634A563C 		.ascii	"cJV<2cno\211\035\026\304R\200\366\350\333\035\000\026"
  66      32636E6F 
  66      891D16C4 
  66      5280F6E8 
  66      DB1D0016 
  67 01ce 060CC15B 		.ascii	"\006\014\301['m\3423t\343]\334\315\376u\322I\222Xly"
  67      276DE233 
  67      74E35DDC 
  67      CDFE75D2 
  67      4992586C 
  68 01e3 D61EDC50 		.ascii	"\326\036\334P\015Je\351\322\221\344\0221\214 \217j~"
  68      0D4A65E9 
  68      D291E412 
  68      318C208F 
  68      6A7E
  69 01f5 62E4BD9B 		.ascii	"b\344\275\233\356\3228'\343X)\360\030A\272o\325\307"
  69      EED23827 
  69      E35829F0 
  69      1841BA6F 
  69      D5C7
  70 0207 5ED9391D 		.ascii	"^\3319\035\227\271\005\177\243\\\027ej\340K\2233\317"
  70      97B9057F 
  70      A35C1765 
  70      6AE04B93 
  70      33CF
  71 0219 5C5DE8AC 		.ascii	"\\]\350\254U\346y\006\236\320\337c\204\027\211.\257"
ARM GAS  C:\Users\JEFFSN~1\AppData\Local\Temp\ccqqD8Rg.s 			page 5


  71      55E67906 
  71      9ED0DF63 
  71      8417892E 
  71      AF
  72 022a FD5A9FE1 		.ascii	"\375Z\237\341\020\016\206<E\027R|\003A]\272\305\002"
  72      100E863C 
  72      4517527C 
  72      03415DBA 
  72      C502
  73 023c 422ADF5C 		.ascii	"B*\337\\\013\2329\345K\365\216\315\231\023\342TH~u\336"
  73      0B9A39E5 
  73      4BF58ECD 
  73      9913E254 
  73      487E75DE 
  74 0250 B8622D18 		.ascii	"\270b-\030T\015\240E\025\030E\201XB\310\230\215g\246"
  74      540DA045 
  74      15184581 
  74      5842C898 
  74      8D67A6
  75 0263 2BE489AF 		.ascii	"+\344\211\257PM\264\"\324\371\375'}U>\177y\300WYVR}"
  75      504DB422 
  75      D4F9FD27 
  75      7D553E7F 
  75      79C05759 
  76 027a C15FE12B 		.ascii	"\301_\341+-*\251>q\270\264\360|YaaQ\361\351S\007+\204"
  76      2D2AA93E 
  76      71B8B4F0 
  76      7C596161 
  76      51F1E953 
  77 0291 BB2650EE 		.ascii	"\273&P\356\017\034\257\254\364\373jjl\025\325Ug\316"
  77      0F1CAFAC 
  77      F4FB6A6A 
  77      6C15D555 
  77      67CE
  78 02a3 9D957E5F 		.ascii	"\235\225~_\3407\357\257M5"
  78      E037EFAF 
  78      4D35
  79              		.text
  80              		.section	.gnu.lto_Em_EEPROM_config.807d5206,"",%progbits
  81 0000 789C6361 		.ascii	"x\234ca`d\000\201r \206\260\030\030\37621\256\177\263"
  81      60640081 
  81      722086B0 
  81      1818FE32 
  81      31AE7FB3 
  82 0014 F327EF17 		.ascii	"\363'\357\027\246Vf\240 2\227\021\314\275\330\262a\016"
  82      A65666A0 
  82      20329711 
  82      CCBDD8B2 
  82      610E
  83 0026 33449605 		.ascii	"3D\226\005\310\335\366\354\3441.\010\267\201\021\310"
  83      C8DDF6EC 
  83      E4312E08 
  83      B78111C8 
  84 0036 5FBBFAFC 		.ascii	"_\273\372\374$N\213m\015\035\013\032\002Z\231\231\376"
  84      244E8B6D 
  84      0D1D0B1A 
  84      025A9999 
ARM GAS  C:\Users\JEFFSN~1\AppData\Local\Temp\ccqqD8Rg.s 			page 6


  84      FE
  85 0047 313130AE 		.ascii	"110\256b\224\371\307\304\310\270\022D11\256\000Q\314"
  85      6294F9C7 
  85      C4C8B812 
  85      443131AE 
  85      0051CC
  86 005a 108A8571 		.ascii	"\020\212\205q9\243\014\003\343jF\013\006\000\001I)\016"
  86      39A30C03 
  86      E36A460B 
  86      06000149 
  86      290E
  87              		.text
  88              		.section	.gnu.lto_.symbol_nodes.807d5206,"",%progbits
  89 0000 789C6361 		.ascii	"x\234ca`d\260f\000\002&\246z\006\206\011\347\030\030"
  89      6064B066 
  89      000226A6 
  89      7A068609 
  89      E71818
  90 0013 80D4AE06 		.ascii	"\200\324\256\006E\006\006VF\206F!\240\004+\003#\230"
  90      45060656 
  90      46864621 
  90      A0042B03 
  90      2398
  91 0025 6664AE67 		.ascii	"fd\256g\004+``hhP```\006\302#\017\37712\000\0002\360"
  91      042B6060 
  91      68685060 
  91      606006C2 
  91      230FFF31 
  92 003e 0ADA     		.ascii	"\012\332"
  93              		.text
  94              		.section	.gnu.lto_.refs.807d5206,"",%progbits
  95 0000 789C6361 		.ascii	"x\234ca`d`c`\000\222L\214l\014\000\000\253\000\026"
  95      60646063 
  95      6000924C 
  95      8C6C0C00 
  95      00AB0016 
  96              		.text
  97              		.section	.gnu.lto_.decls.807d5206,"",%progbits
  98 0000 789C9555 		.ascii	"x\234\225U}PTU\024\177\347\335\005a\345C\301\024g\266"
  98      7D505455 
  98      147FE7DD 
  98      0561E543 
  98      C11467B6 
  99 0014 C90C63A7 		.ascii	"\311\014c\247\032\313\234f\372\253\211V4'MG4\247\031"
  99      1ACB9C66 
  99      FAAB8956 
  99      34274D47 
  99      34A719
 100 0027 673684A7 		.ascii	"g6\204\2472\351\342,\217\314\246?\256H\026~\244\230"
 100      32E9E22C 
 100      8FCCA63F 
 100      AE48167E 
 100      A498
 101 0039 41180649 		.ascii	"A\030\006I$\210\037T\204 \241\353\367'\232\254\251\250"
 101      24881F54 
 101      8420A1EB 
 101      F7279AAC 
ARM GAS  C:\Users\JEFFSN~1\AppData\Local\Temp\ccqqD8Rg.s 			page 7


 101      A9A8
 102 004b C82662A1 		.ascii	"\310&b\241\200 \310\372\031\235{\357[\336\356\0023u"
 102      8020C8FA 
 102      199D7BEF 
 102      5BDEEE02 
 102      3375
 103 005d 67CFDB7B 		.ascii	"g\317\333{\356\375\235s~\367\334\363\3163H \2611n\250"
 103      EEFD9D73 
 103      7EF7DCF3 
 103      CE334820 
 103      B1316EA8 
 104 0071 24F5E0B4 		.ascii	"$\365\340\264\033\347\2758\010\376\277\207\302\376c"
 104      1BE7BD38 
 104      08FEBF87 
 104      C2FE63
 105 0080 504C2867 		.ascii	"PL(g%1d\224f\224\036m~\037\345\221\344;\330~(J\023J"
 105      25316494 
 105      66941E6D 
 105      7E1FE591 
 105      E43BD87E 
 106 0098 04CA0894 		.ascii	"\004\312\010\224J\224N\224\2375\177\314\357c\224.\315"
 106      4A944E94 
 106      9F357FCC 
 106      EF63942E 
 106      CD
 107 00a9 F719947B 		.ascii	"\367\031\224{(\001(\267Qn\241\264\240\264\241\264\372"
 107      280128B7 
 107      516EA1B4 
 107      A0B4A1B4 
 107      FA
 108 00ba C5052DAE 		.ascii	"\305\005-\256\367x\344\307\367\241\346\353\226\346\243"
 108      F778E4C7 
 108      F7A1E6EB 
 108      96E6A3
 109 00c9 45F3DB2A 		.ascii	"E\363\333*\015<\236\310p.\243,\217t\313\020a\004\003"
 109      0D3C9EC8 
 109      702EA32C 
 109      8F74CB10 
 109      610403
 110 00dc AA9DB59B 		.ascii	"\252\235\265\233\233\302P\035a\2041\250\266g4\273\206"
 110      9BC2501D 
 110      618431A8 
 110      B66734BB 
 110      86
 111 00ed 8ADD2854 		.ascii	"\212\335(T\277\355jh\011\026\273fT\353:No\321v\207\241"
 111      BFED6A68 
 111      0916BB66 
 111      54EB3A4E 
 111      6FD17687 
 112 0102 5ADB7C94 		.ascii	"Z\333|\224\022\"\003s\273\373\263\033%A\270e2B/0\275"
 112      12220373 
 112      BBFBB31B 
 112      2541B865 
 112      32422F30 
 113 0117 B5EA41A8 		.ascii	"\265\352A\250\320\331v\343\203\342\311\343wP\034\033"
 113      D0D976E3 
 113      83E2C9E3 
ARM GAS  C:\Users\JEFFSN~1\AppData\Local\Temp\ccqqD8Rg.s 			page 8


 113      77501C1B 
 114 0127 2895CD3A 		.ascii	"(\225\315:\235\334\254\246\177\206\222\321\014$;\233"
 114      9DDCACA6 
 114      7F8692D1 
 114      0C243B9B 
 115 0137 4A5B0C60 		.ascii	"J[\014`6\376\310p\256\336\2627\252(\035\006?\203\021"
 115      36FEC870 
 115      AEDEB237 
 115      AA281D06 
 115      3F8311
 116 014a CA80C06E 		.ascii	"\312\200\300n\030\317\262b2\342\363\013J\323i\307V\032"
 116      18CFB262 
 116      32E2F30B 
 116      4AD369C7 
 116      561A
 117 015c 1825C144 		.ascii	"\030%\301D\023\274b\222\340'0\263`\014\005\273\300\004"
 117      13BC6292 
 117      E02730B3 
 117      600C05BB 
 117      C004
 118 016e 3BC1C4FC 		.ascii	";\301\304\374\327\326\357\310\010 \261\234\304\345/"
 118      D7D6EFC8 
 118      0820B19C 
 118      C4E52F
 119 017d CBDD0632 		.ascii	"\313\335\0062\203\317\033\216\227\224\2624\304 _\034"
 119      83CF1B8E 
 119      9794B234 
 119      C4205F1C 
 120 018d E15E9463 		.ascii	"\341^\224c\004\345\223\215\315w\203\311|\316\254\242"
 120      04E5938D 
 120      CD7783C9 
 120      7CCEACA2 
 121 019d 30BF2B00 		.ascii	"0\277+\000\214f\036w\303J\032q<L\202b\214\262\015\243"
 121      8C661E77 
 121      C34A1A71 
 121      3C4C8262 
 121      8CB20DA3 
 122 01b1 4015868E 		.ascii	"@\025\206\216\321BW\340\342\257\270\310\317\340\310"
 122      D14257E0 
 122      E2AFB8C8 
 122      CFE0C8
 123 01c0 7B86CA50 		.ascii	"{\206\312P\211\007\330\243\037 \306(N\276\271\272\373"
 123      8907D8A3 
 123      1F20C628 
 123      4EBEB9BA 
 123      FB
 124 01d1 64804866 		.ascii	"d\200Hf\020\252W\263\213Z\302I2\017]w&\373\257`\242"
 124      10AA57B3 
 124      8B5AC249 
 124      320F5D77 
 124      26FBAF60 
 125 01e6 F2797B6E 		.ascii	"\362y{n\311\005B\322\201+\373\037w\326\023\262^(\225"
 125      C90542D2 
 125      812BFB1F 
 125      77D613B2 
 125      5E2895
 126 01f9 356DAF0A 		.ascii	"5m\257\012{\023j{\033:\035C\305U\271\330\005dl\254."
ARM GAS  C:\Users\JEFFSN~1\AppData\Local\Temp\ccqqD8Rg.s 			page 9


 126      7B136A7B 
 126      1B3A1D43 
 126      C555B9D8 
 126      05646CAC 
 127 020e 0821B91C 		.ascii	"\010!\271\034j\\\353\312y\005\242\3310GGGFoe\307pU\235"
 127      6A5CEBCA 
 127      7905A2D9 
 127      30474747 
 127      466F65C7 
 128 0225 520E17AE 		.ascii	"R\016\027\256\242\033\0228\303\337\220\341I\210\324"
 128      A21B1238 
 128      C3DF90E1 
 128      4988D4
 129 0234 4FB5171F 		.ascii	"O\265\027\037\022L`e\306\361\216<g\210\007\\=0\270\030"
 129      124C6065 
 129      C6F18E3C 
 129      6788075C 
 129      3D30B818 
 130 0248 7474858E 		.ascii	"tt\205\216.\367G\227\372\273\336\240\203k\374\301/\373"
 130      2EF74797 
 130      FABBDEA0 
 130      836BFCC1 
 130      2FFB
 131 025a 7BBEE80C 		.ascii	"{\276\350\014\315\241\216\025\204W\306\016\015\256U"
 131      CDA18E15 
 131      8457C60E 
 131      0DAE55
 132 0269 81F0BC9D 		.ascii	"\201\360\274\235\243\305\0254\324\205P\032\3040\222"
 132      A3C51534 
 132      D485501A 
 132      C43092
 133 0278 7603529F 		.ascii	"v\003R\237'\367\306\260\\\352\310 <\360\276\001\003"
 133      27F7C6B0 
 133      5CEAC820 
 133      3CF0BE01 
 133      03
 134 0289 7B91BCAA 		.ascii	"{\221\274\252\223<\340\217-\321O\224\245U9\005U\002"
 134      933CE08F 
 134      2DD14F94 
 134      A5553905 
 134      5502
 135 029b 0702F6F3 		.ascii	"\007\002\366\363=\006\307\370p\014\213\3458D\303\021"
 135      3D06C7F8 
 135      700C8BE5 
 135      3844C311 
 136 02ab 94832887 		.ascii	"\224\203(\207P\016\243\234B9\212r\002\242\275\030\326"
 136      500EA39C 
 136      42398A72 
 136      02A2BD18 
 136      D6
 137 02bc 789FF597 		.ascii	"x\237\365\227\201\316*2\203\027\376\344\212sS8q\362"
 137      81CE2A32 
 137      8317FEE4 
 137      8A735338 
 137      71F2
 138 02ce 0B97ABDD 		.ascii	"\013\227\253\335E\353\002\301\034)r\320\350\004\226"
 138      45EB02C1 
ARM GAS  C:\Users\JEFFSN~1\AppData\Local\Temp\ccqqD8Rg.s 			page 10


 138      1C2972D0 
 138      E80496
 139 02dd 8333687B 		.ascii	"\2033h{Z/D\226\222A\350B-\262\374\277\214\221\303\217"
 139      5A2F4496 
 139      9241E842 
 139      2DB2FCBF 
 139      8C91C38F 
 140 02f1 C7BE3286 		.ascii	"\307\2762\206\254\326_\022\036\322\223$\011\316B\010"
 140      ACD65F12 
 140      1ED29324 
 140      09CE4208 
 141 0301 03B27F04 		.ascii	"\003\262\177\004\367\346\227\257\017\272\002\365@$\255"
 141      F7E697AF 
 141      0FBA02F5 
 141      4024AD
 142 0310 454B00E2 		.ascii	"EK\000\342\011\\$!\\\305\211,\211\211g\251oH\032D\366"
 142      095C2421 
 142      5CC5892C 
 142      898967A9 
 142      6F481A44 
 143 0325 4C7567FC 		.ascii	"Lug\374\247\331\363\027\235\017\356D\367\016\232\221"
 143      A7D9F317 
 143      9D0FEE44 
 143      F70E9A91 
 144 0335 D0356349 		.ascii	"\3205cI3\002Y\017\000B\365Xx\371\363c\344\341\354\011"
 144      3302590F 
 144      0042F558 
 144      78F9F363 
 144      E4E1EC09 
 145 0349 C31BBBB8 		.ascii	"\303\033\273\270\245\302o.\207\223\333\342\015n\273"
 145      A5C26F2E 
 145      8793DBE2 
 145      0D6EBB
 146 0358 935F3BC4 		.ascii	"\223_;\304\200{\274\250\346\033\274\373\363L\321\237"
 146      807BBCA8 
 146      E61BBCFB 
 146      F34CD19F 
 147 0368 CB32F7AC 		.ascii	"\3132\367\254\012 \017\005>\343\374\223\"\202x8\217"
 147      0A200F05 
 147      3EE3FC93 
 147      22827838 
 147      8F
 148 0379 B7E86429 		.ascii	"\267\350d)\305\305S\253\267~\036B6\2126\234y\372\326"
 148      C5C553AB 
 148      B77E1E42 
 148      368A369C 
 148      79FAD6
 149 038c 3603435C 		.ascii	"6\003C\\@\304K&\370\003\270\323#\275nG\270p*\243\372"
 149      40C44B26 
 149      F803B8D3 
 149      23BD6E47 
 149      B8702AA3 
 150 03a1 DDEE9D6B 		.ascii	"\335\356\235keR,Lr\017W\366\0043\023\274\010\270\204"
 150      65522C4C 
 150      720F57F6 
 150      043313BC 
 150      08B884
ARM GAS  C:\Users\JEFFSN~1\AppData\Local\Temp\ccqqD8Rg.s 			page 11


 151 03b4 777551D8 		.ascii	"wuQ\330\\[\331\321\014\344\240\000\025\367\036\317\011"
 151      5C5BD9D1 
 151      0CE4A000 
 151      15F71ECF 
 151      09
 152 03c5 61A02B08 		.ascii	"a\240+\010z\321\004\227\005\246\260\345D\014\251\027"
 152      7AD10497 
 152      05A6B0E5 
 152      440CA917 
 153 03d5 90A2233D 		.ascii	"\220\242#=\345\034\322\200\220\027Lp\225C\344\312\242"
 153      E51CD280 
 153      90174C70 
 153      9543E4CA 
 153      A2
 154 03e6 D58FC321 		.ascii	"\325\217\303!\310\274\212\267\354\364\364\300o\302<"
 154      C8BC8AB7 
 154      ECF4F4C0 
 154      6FC23C
 155 03f5 3D5B8246 		.ascii	"=[\202F\010\342%\346\302\022\273\006\206\276\306-\312"
 155      08E225E6 
 155      C212BB06 
 155      86BEC62D 
 155      CA
 156 0406 B6FE3D56 		.ascii	"\266\376=V\265\210\361~s1\222\373\372\366m2i\347a\345"
 156      B588F17E 
 156      733192FB 
 156      FAF66D32 
 156      69E761E5 
 157 041a C6AE5FD7 		.ascii	"\306\256_\327\015\001s\2200\271w\201Wz\023\372\375S"
 157      0D017390 
 157      30B97781 
 157      577A13FA 
 157      FD53
 158 042c AF74E642 		.ascii	"\257t\346B\222\006`\000\3271\360`$Xn\012\267\334\010"
 158      92066000 
 158      D731F060 
 158      24586E0A 
 158      B7DC08
 159 043f 8BCAE6AF 		.ascii	"\213\312\346\257\310J:\306\300\035\353\365|\003\242"
 159      C84A3AC6 
 159      C01DEBF5 
 159      7C03A2
 160 044e F0598707 		.ascii	"\360Y\207\007\025\237\326\236\216\313\341c\013hA\031"
 160      159FD69E 
 160      8ECBE163 
 160      0B684119 
 161 045e 75E56F9E 		.ascii	"u\345o\236\364\3756l\256+(}\223\003\341\234\316\347"
 161      F4FD366C 
 161      AE2B287D 
 161      9303E19C 
 161      CEE7
 162 0470 1C2B7909 		.ascii	"\034+y\011~\307lJ\320\014c\321\366^\326\371V\231\224"
 162      7EC76C4A 
 162      D00C63D1 
 162      F65ED6F9 
 162      569994
 163 0483 129ECA4D 		.ascii	"\022\236\312M\305\273\234\204\327\005\276)Z]T\334<q"
ARM GAS  C:\Users\JEFFSN~1\AppData\Local\Temp\ccqqD8Rg.s 			page 12


 163      C5BB9C84 
 163      D705BE29 
 163      5A5D54DC 
 163      3C71
 164 0495 D428FA3B 		.ascii	"\324(\372;\305\376>\304\371C\366\326p\321\323#\315Z"
 164      C5FE3EC4 
 164      F943F6D6 
 164      70D1D323 
 164      CD5A
 165 04a7 435F33A5 		.ascii	"C_3\245\274\3513Z\366A_\267h\327\273E\277v\376d\275"
 165      BCE9335A 
 165      F6415FB7 
 165      68D7BB45 
 165      BF76FE64 
 166 04bc 57F3ABD6 		.ascii	"W\363\253\326\300\2036\277=u~M\267\237\353\211:\270"
 166      C08336BF 
 166      3D757E4D 
 166      B79FEB89 
 166      3AB8
 167 04ce C6BBAF1E 		.ascii	"\306\273\257\036\360w\335\377[\221]\347\363\255\350"
 167      F077DDFF 
 167      5B915DE7 
 167      F3ADE8
 168 04dd 4F44807D 		.ascii	"OD\200}Z\325\337\010\020\035\260]\353Sw\360\376na?j"
 168      5AD5DF08 
 168      101DB05D 
 168      EB5377F0 
 168      FE6E613F 
 169 04f2 436941B9 		.ascii	"CiA\271\215\322\252\365&Q\035\356\263\374[\320\356\373"
 169      8DD2AAF5 
 169      26511DEE 
 169      B3FC5BD0 
 169      EEFB
 170 0504 2DC0E41E 		.ascii	"-\300\344\036r\265\235\012 5<\373rN&\315\016\203H\363"
 170      72B59D0A 
 170      20353CFB 
 170      724E26CD 
 170      0E8348F3 
 171 0518 80E1E02E 		.ascii	"\200\341\340.F\371\357\021\367\327\361z\354D\203\016"
 171      46F9EF11 
 171      F7D7F17A 
 171      EC44830E 
 172 0528 FDFEDB79 		.ascii	"\375\376\333y\347\305\270\335\017\363f\373\364\313N"
 172      E7C5B8DD 
 172      0FF366FB 
 172      F4CB4E
 173 0537 9F7ED925 		.ascii	"\237~\331%\372%\002\017\234xp=\220W\004\256\301_\342"
 173      FA25020F 
 173      9C78703D 
 173      905704AE 
 173      C15FE2
 174 054a EDA379AD 		.ascii	"\355\243y\255?\204\016^\235\367xuv{\252\263a\215c]("
 174      3F840E5E 
 174      9DF77875 
 174      767BAAB3 
 174      618D635D 
 175 055f 56A70B69 		.ascii	"V\247\013i\345\347<\235K\017\032\030\004n\352\274n\362"
ARM GAS  C:\Users\JEFFSN~1\AppData\Local\Temp\ccqqD8Rg.s 			page 13


 175      E5E73C9D 
 175      4B0F1A18 
 175      046EEABC 
 175      6EF2
 176 0571 BAC4490F 		.ascii	"\272\304I\017\257\311\314\225\207>%\347EI~\267}\243"
 176      AFC9CC95 
 176      873E25E7 
 176      45497EB7 
 176      7DA3
 177 0583 3B6C5C21 		.ascii	";l\\!u\025\260\332\036W\225Ni\246\370\242\270\205\275"
 177      7515B0DA 
 177      1E57954E 
 177      69A6F8A2 
 177      B885BD
 178 0596 D7A7CECD 		.ascii	"\327\247\316\315;\372}\030\207v-\031%\243\310M\341\343"
 178      3BFA7D18 
 178      87762D19 
 178      25A3C84D 
 178      E1E3
 179 05a8 CED7595B 		.ascii	"\316\327Y[\002\"\265\264:\006M\2534hN\321GsnEV \362"
 179      0222B5B4 
 179      3A064DAB 
 179      34684ED1 
 179      47736E45 
 180 05bf 282BA08E 		.ascii	"(+\240\216+\367a\005u\030\340!\332=\320X\350e\301Vf"
 180      2BF76105 
 180      7518E021 
 180      DA3DD058 
 180      E865C156 
 181 05d4 633B7AC4 		.ascii	"c;z\304y\224^\332W\021\354\223jvv=Y\217\265O\023\373"
 181      79945EDA 
 181      5711EC93 
 181      6A76763D 
 181      598FB54F 
 182 05ea 0F9DBF38 		.ascii	"\017\235\2778%\361\303d\333\302\271\366dU\011\232\362"
 182      25F1C364 
 182      DBC2B9F6 
 182      6455099A 
 182      F2
 183 05fb EE9C3196 		.ascii	"\356\2341\226\011\023\244\200\264d\233\372\372\263S"
 183      0913A480 
 183      B4649BFA 
 183      FAB353
 184 060a 149B624F 		.ascii	"\024\233bOP\225$k|J\232=Q\23173>\305\362\332\274\304"
 184      5095246B 
 184      7C4A9A3D 
 184      51993733 
 184      3EC5F2DA 
 185 0620 E5EAF2A5 		.ascii	"\345\352\362\245J\352\370ER\250]IJ\263%%\330TK\312\322"
 185      4AEAF845 
 185      52A85D49 
 185      4AB32525 
 185      D8544BCA 
 186 0635 E511CB94 		.ascii	"\345\021\313\224\004\3734\345#e1:\234\234\220\250\246"
 186      04FB34E5 
 186      2365313A 
 186      9C9C90A8 
ARM GAS  C:\Users\JEFFSN~1\AppData\Local\Temp\ccqqD8Rg.s 			page 14


 186      A6
 187 0646 D80399A3 		.ascii	"\330\003\231\243\211\257\032\025e\251=eI|\362'J\350"
 187      89AF1A15 
 187      65A93D65 
 187      497CF227 
 187      4AE8
 188 0658 E2845475 		.ascii	"\342\204Tu\256}V\312\262\330\244${\210-m\311|\305>c"
 188      AE7D56CA 
 188      B2D8A424 
 188      7B882D6D 
 188      C97CC53E 
 189 066d 01EAA9C1 		.ascii	"\001\352\251\301\313\026\307\331\222\330rDZ\252b\237"
 189      CB16C7D9 
 189      92D87244 
 189      5AAA629F 
 190 067d 8CC845F1 		.ascii	"\214\310E\361j\202]eK\317\017J\306\252,\261\012\377"
 190      6A825D65 
 190      4BCF0F4A 
 190      C6AA2CB1 
 190      0AFF
 191 068f C86814EA 		.ascii	"\310h\024\352\251j\242\266`ML\261\251\312\307\252U\015"
 191      A96AA2B6 
 191      604D4CB1 
 191      A9CAC7AA 
 191      550D
 192 06a1 8B5B628D 		.ascii	"\213[b\215\213\2339k\306t\353T[\262:\312\362\2765n\272"
 192      8B9B396B 
 192      C674EB54 
 192      5BB23ACA 
 192      F2BE356E 
 193 06b6 6765EEAC 		.ascii	"ge\356\254\251\263\343\254\223c\247N{\312g\375\255\330"
 193      A9B3E3AC 
 193      9363A74E 
 193      7BCA67FD 
 193      ADD8
 194 06c8 49D649B1 		.ascii	"I\326I\261\263cG\367[\265\274\035gy'~\316\364\221\375"
 194      B36347F7 
 194      5BB5BC1D 
 194      6779277E 
 194      CEF491FD 
 195 06dc 7666C6CE 		.ascii	"vf\306\316\212\235>\302g9~\216\305\022\027\037\037\305"
 195      8A9D3EC2 
 195      67397E8E 
 195      C512171F 
 195      1FC5
 196 06ee A8DA74B6 		.ascii	"\250\332t\266\3103AMK\265\252\317\015r\264>\312\343"
 196      C833414D 
 196      4BB5AACF 
 196      0D72B43E 
 196      CAE3
 197 0700 13A5E196 		.ascii	"\023\245\341\226\345V\337#\214\354w\322\005\311\013"
 197      E556DF23 
 197      8CEC77D2 
 197      05C90B
 198 070f ADEA701D 		.ascii	"\255\352p\035\245\035~\230\317\012\202\376\005\307L"
 198      A51D7E98 
 198      CF0A82FE 
ARM GAS  C:\Users\JEFFSN~1\AppData\Local\Temp\ccqqD8Rg.s 			page 15


 198      05C74C
 199 071e E892     		.ascii	"\350\222"
 200              		.text
 201              		.section	.gnu.lto_.symtab.807d5206,"",%progbits
 202 0000 456D5F45 		.ascii	"Em_EEPROM_Init\000"
 202      4550524F 
 202      4D5F496E 
 202      697400
 203 000f 00       		.ascii	"\000"
 204 0010 00       		.ascii	"\000"
 205 0011 00       		.ascii	"\000"
 206 0012 00000000 		.ascii	"\000\000\000\000\000\000\000\000"
 206      00000000 
 207 001a E5000000 		.ascii	"\345\000\000\000"
 208 001e 456D5F45 		.ascii	"Em_EEPROM_context\000"
 208      4550524F 
 208      4D5F636F 
 208      6E746578 
 208      7400
 209 0030 00       		.ascii	"\000"
 210 0031 04       		.ascii	"\004"
 211 0032 00       		.ascii	"\000"
 212 0033 1C000000 		.ascii	"\034\000\000\000\000\000\000\000"
 212      00000000 
 213 003b F8000000 		.ascii	"\370\000\000\000"
 214 003f 456D5F45 		.ascii	"Em_EEPROM_config\000"
 214      4550524F 
 214      4D5F636F 
 214      6E666967 
 214      00
 215 0050 00       		.ascii	"\000"
 216 0051 00       		.ascii	"\000"
 217 0052 00       		.ascii	"\000"
 218 0053 00000000 		.ascii	"\000\000\000\000\000\000\000\000"
 218      00000000 
 219 005b FB000000 		.ascii	"\373\000\000\000"
 220 005f 43795F45 		.ascii	"Cy_Em_EEPROM_Init\000"
 220      6D5F4545 
 220      50524F4D 
 220      5F496E69 
 220      7400
 221 0071 00       		.ascii	"\000"
 222 0072 02       		.ascii	"\002"
 223 0073 00       		.ascii	"\000"
 224 0074 00000000 		.ascii	"\000\000\000\000\000\000\000\000"
 224      00000000 
 225 007c F6000000 		.ascii	"\366\000\000\000"
 226              		.text
 227              		.section	.gnu.lto_.opts,"",%progbits
 228 0000 272D666D 		.ascii	"'-fmath-errno' '-fsigned-zeros' '-ftrapping-math' '"
 228      6174682D 
 228      6572726E 
 228      6F272027 
 228      2D667369 
 229 0033 2D666E6F 		.ascii	"-fno-trapv' '-fno-openmp' '-fno-openacc' '-mcpu=cor"
 229      2D747261 
 229      70762720 
ARM GAS  C:\Users\JEFFSN~1\AppData\Local\Temp\ccqqD8Rg.s 			page 16


 229      272D666E 
 229      6F2D6F70 
 230 0066 7465782D 		.ascii	"tex-m3' '-mthumb' '-g' '-O3' '-ffunction-sections' "
 230      6D332720 
 230      272D6D74 
 230      68756D62 
 230      2720272D 
 231 0099 272D6666 		.ascii	"'-ffat-lto-objects' '-finline-functions' '-flto'\000"
 231      61742D6C 
 231      746F2D6F 
 231      626A6563 
 231      74732720 
 232              		.text
 233              		.cfi_sections	.debug_frame
 234              		.section	.text.Em_EEPROM_Init,"ax",%progbits
 235              		.align	2
 236              		.global	Em_EEPROM_Init
 237              		.thumb
 238              		.thumb_func
 239              		.type	Em_EEPROM_Init, %function
 240              	Em_EEPROM_Init:
 241              	.LFB0:
 242              		.file 1 "Generated_Source\\PSoC5\\Em_EEPROM.c"
   1:Generated_Source\PSoC5/Em_EEPROM.c **** /*******************************************************************************
   2:Generated_Source\PSoC5/Em_EEPROM.c **** * File Name: Em_EEPROM.c
   3:Generated_Source\PSoC5/Em_EEPROM.c **** * Version 2.20
   4:Generated_Source\PSoC5/Em_EEPROM.c **** *
   5:Generated_Source\PSoC5/Em_EEPROM.c **** * Description:
   6:Generated_Source\PSoC5/Em_EEPROM.c **** *  This file provides source code of the API for the Emulated EEPROM
   7:Generated_Source\PSoC5/Em_EEPROM.c **** *  Component.
   8:Generated_Source\PSoC5/Em_EEPROM.c **** *
   9:Generated_Source\PSoC5/Em_EEPROM.c **** ********************************************************************************
  10:Generated_Source\PSoC5/Em_EEPROM.c **** * Copyright 2013-2017, Cypress Semiconductor Corporation. All rights reserved.
  11:Generated_Source\PSoC5/Em_EEPROM.c **** * You may use this file only in accordance with the license, terms, conditions,
  12:Generated_Source\PSoC5/Em_EEPROM.c **** * disclaimers, and limitations in the end user license agreement accompanying
  13:Generated_Source\PSoC5/Em_EEPROM.c **** * the software package with which this file was provided.
  14:Generated_Source\PSoC5/Em_EEPROM.c **** *******************************************************************************/
  15:Generated_Source\PSoC5/Em_EEPROM.c **** 
  16:Generated_Source\PSoC5/Em_EEPROM.c **** #include "Em_EEPROM.h"
  17:Generated_Source\PSoC5/Em_EEPROM.c **** 
  18:Generated_Source\PSoC5/Em_EEPROM.c **** /** The instance-specific configuration structure. This should be used in the
  19:Generated_Source\PSoC5/Em_EEPROM.c **** *  associated Em_EEPROM_Init() function.
  20:Generated_Source\PSoC5/Em_EEPROM.c **** */
  21:Generated_Source\PSoC5/Em_EEPROM.c **** cy_stc_eeprom_config_t const Em_EEPROM_config =
  22:Generated_Source\PSoC5/Em_EEPROM.c **** {
  23:Generated_Source\PSoC5/Em_EEPROM.c ****     128U,
  24:Generated_Source\PSoC5/Em_EEPROM.c ****     4U,
  25:Generated_Source\PSoC5/Em_EEPROM.c ****     0U,
  26:Generated_Source\PSoC5/Em_EEPROM.c ****     0U,
  27:Generated_Source\PSoC5/Em_EEPROM.c ****     0U
  28:Generated_Source\PSoC5/Em_EEPROM.c **** };
  29:Generated_Source\PSoC5/Em_EEPROM.c **** 
  30:Generated_Source\PSoC5/Em_EEPROM.c **** /** The instance-specific context structure that holds all required information
  31:Generated_Source\PSoC5/Em_EEPROM.c **** * about an EEPROM instance. This structure is filled by the Em_EEPROM
  32:Generated_Source\PSoC5/Em_EEPROM.c **** * library Init() function and used by EEPROM library functions.
  33:Generated_Source\PSoC5/Em_EEPROM.c **** */
  34:Generated_Source\PSoC5/Em_EEPROM.c **** cy_stc_eeprom_context_t Em_EEPROM_context;
ARM GAS  C:\Users\JEFFSN~1\AppData\Local\Temp\ccqqD8Rg.s 			page 17


  35:Generated_Source\PSoC5/Em_EEPROM.c **** 
  36:Generated_Source\PSoC5/Em_EEPROM.c **** /* For PSoC 6 place EEPROM into Emulated EEPROM flash area */
  37:Generated_Source\PSoC5/Em_EEPROM.c **** #if ((CY_PSOC6) && (Em_EEPROM_STORAGE_EM_EEPROM))
  38:Generated_Source\PSoC5/Em_EEPROM.c **** 
  39:Generated_Source\PSoC5/Em_EEPROM.c ****     CY_SECTION(".cy_em_eeprom") CY_ALIGN(CY_FLASH_SIZEOF_ROW)
  40:Generated_Source\PSoC5/Em_EEPROM.c ****     const uint8 Em_EEPROM_em_EepromStorage[Em_EEPROM_ACTUAL_SIZE] = {0u};
  41:Generated_Source\PSoC5/Em_EEPROM.c **** 
  42:Generated_Source\PSoC5/Em_EEPROM.c **** #endif /* ((CY_PSOC6) && (Em_EEPROM_STORAGE_EM_EEPROM)) */
  43:Generated_Source\PSoC5/Em_EEPROM.c **** 
  44:Generated_Source\PSoC5/Em_EEPROM.c **** 
  45:Generated_Source\PSoC5/Em_EEPROM.c **** /*******************************************************************************
  46:Generated_Source\PSoC5/Em_EEPROM.c **** * Function Name: Em_EEPROM_Init
  47:Generated_Source\PSoC5/Em_EEPROM.c **** ********************************************************************************
  48:Generated_Source\PSoC5/Em_EEPROM.c **** *
  49:Generated_Source\PSoC5/Em_EEPROM.c **** * Fills the start address of the EEPROM to the component configuration structure
  50:Generated_Source\PSoC5/Em_EEPROM.c **** * and invokes Cy_Em_EEPROM_Init() function. In case of PSoC 6 the function 
  51:Generated_Source\PSoC5/Em_EEPROM.c **** * is located in Cy_Em_EEPROM middleware library which is part of PDL. In case if
  52:Generated_Source\PSoC5/Em_EEPROM.c **** * it is utilized in the design based on non-PSOC 6 device the function is 
  53:Generated_Source\PSoC5/Em_EEPROM.c **** * located in internal design wide resource component - Em_EEPROM_Dynamic.
  54:Generated_Source\PSoC5/Em_EEPROM.c **** *
  55:Generated_Source\PSoC5/Em_EEPROM.c **** * \param startAddress
  56:Generated_Source\PSoC5/Em_EEPROM.c **** * Start address of the EEPROM storage. For PSoC 6, if Emulated EEPROM is 
  57:Generated_Source\PSoC5/Em_EEPROM.c **** * selected for EEPROM storage, the start address will be overwritten to some 
  58:Generated_Source\PSoC5/Em_EEPROM.c **** * address from Emulated EEPROM flash area.
  59:Generated_Source\PSoC5/Em_EEPROM.c **** *
  60:Generated_Source\PSoC5/Em_EEPROM.c **** * \return
  61:Generated_Source\PSoC5/Em_EEPROM.c **** * A result of function execution of type cy_en_em_eeprom_status_t.
  62:Generated_Source\PSoC5/Em_EEPROM.c **** *
  63:Generated_Source\PSoC5/Em_EEPROM.c **** *******************************************************************************/
  64:Generated_Source\PSoC5/Em_EEPROM.c **** cy_en_em_eeprom_status_t Em_EEPROM_Init(uint32 startAddress)
  65:Generated_Source\PSoC5/Em_EEPROM.c **** {
 243              		.loc 1 65 0
 244              		.cfi_startproc
 245              		@ args = 0, pretend = 0, frame = 16
 246              		@ frame_needed = 0, uses_anonymous_args = 0
 247              	.LVL0:
 248 0000 10B5     		push	{r4, lr}
 249              		.cfi_def_cfa_offset 8
 250              		.cfi_offset 4, -8
 251              		.cfi_offset 14, -4
 252 0002 84B0     		sub	sp, sp, #16
 253              		.cfi_def_cfa_offset 24
  66:Generated_Source\PSoC5/Em_EEPROM.c ****     cy_en_em_eeprom_status_t ret;
  67:Generated_Source\PSoC5/Em_EEPROM.c ****     cy_stc_eeprom_config_t config;
  68:Generated_Source\PSoC5/Em_EEPROM.c **** 
  69:Generated_Source\PSoC5/Em_EEPROM.c ****     config.blockingWrite =      Em_EEPROM_config.blockingWrite;
 254              		.loc 1 69 0
 255 0004 0023     		movs	r3, #0
  70:Generated_Source\PSoC5/Em_EEPROM.c ****     config.eepromSize =         Em_EEPROM_config.eepromSize;
  71:Generated_Source\PSoC5/Em_EEPROM.c ****     config.redundantCopy =      Em_EEPROM_config.redundantCopy;
  72:Generated_Source\PSoC5/Em_EEPROM.c ****     config.wearLevelingFactor = Em_EEPROM_config.wearLevelingFactor;
  73:Generated_Source\PSoC5/Em_EEPROM.c ****     
  74:Generated_Source\PSoC5/Em_EEPROM.c **** #if ((CY_PSOC6) && (Em_EEPROM_STORAGE_EM_EEPROM))
  75:Generated_Source\PSoC5/Em_EEPROM.c ****     /* For PSoC 6, if Emulated EEPROM is selected - override the eeprom start 
  76:Generated_Source\PSoC5/Em_EEPROM.c ****     * address.
  77:Generated_Source\PSoC5/Em_EEPROM.c ****     */
  78:Generated_Source\PSoC5/Em_EEPROM.c ****     config.userFlashStartAddr = (uint32)Em_EEPROM_em_EepromStorage;
ARM GAS  C:\Users\JEFFSN~1\AppData\Local\Temp\ccqqD8Rg.s 			page 18


  79:Generated_Source\PSoC5/Em_EEPROM.c **** #else
  80:Generated_Source\PSoC5/Em_EEPROM.c ****     config.userFlashStartAddr = startAddress;
 256              		.loc 1 80 0
 257 0006 0390     		str	r0, [sp, #12]
  72:Generated_Source\PSoC5/Em_EEPROM.c ****     
 258              		.loc 1 72 0
 259 0008 0422     		movs	r2, #4
  70:Generated_Source\PSoC5/Em_EEPROM.c ****     config.eepromSize =         Em_EEPROM_config.eepromSize;
 260              		.loc 1 70 0
 261 000a 8024     		movs	r4, #128
  81:Generated_Source\PSoC5/Em_EEPROM.c **** #endif /* ((CY_PSOC6) && (Em_EEPROM_STORAGE_EM_EEPROM)) */
  82:Generated_Source\PSoC5/Em_EEPROM.c ****         
  83:Generated_Source\PSoC5/Em_EEPROM.c ****     ret = Cy_Em_EEPROM_Init(&config, &Em_EEPROM_context);
 262              		.loc 1 83 0
 263 000c 0549     		ldr	r1, .L3
 264 000e 6846     		mov	r0, sp
 265              	.LVL1:
  69:Generated_Source\PSoC5/Em_EEPROM.c ****     config.eepromSize =         Em_EEPROM_config.eepromSize;
 266              		.loc 1 69 0
 267 0010 8DF80930 		strb	r3, [sp, #9]
  71:Generated_Source\PSoC5/Em_EEPROM.c ****     config.wearLevelingFactor = Em_EEPROM_config.wearLevelingFactor;
 268              		.loc 1 71 0
 269 0014 8DF80830 		strb	r3, [sp, #8]
  70:Generated_Source\PSoC5/Em_EEPROM.c ****     config.redundantCopy =      Em_EEPROM_config.redundantCopy;
 270              		.loc 1 70 0
 271 0018 0094     		str	r4, [sp]
  72:Generated_Source\PSoC5/Em_EEPROM.c ****     
 272              		.loc 1 72 0
 273 001a 0192     		str	r2, [sp, #4]
 274              		.loc 1 83 0
 275 001c FFF7FEFF 		bl	Cy_Em_EEPROM_Init
 276              	.LVL2:
  84:Generated_Source\PSoC5/Em_EEPROM.c **** 
  85:Generated_Source\PSoC5/Em_EEPROM.c ****     return(ret);
  86:Generated_Source\PSoC5/Em_EEPROM.c **** }
 277              		.loc 1 86 0
 278 0020 04B0     		add	sp, sp, #16
 279              		.cfi_def_cfa_offset 8
 280              		@ sp needed
 281 0022 10BD     		pop	{r4, pc}
 282              	.L4:
 283              		.align	2
 284              	.L3:
 285 0024 00000000 		.word	Em_EEPROM_context
 286              		.cfi_endproc
 287              	.LFE0:
 288              		.size	Em_EEPROM_Init, .-Em_EEPROM_Init
 289              		.comm	Em_EEPROM_context,28,4
 290              		.global	Em_EEPROM_config
 291              		.section	.rodata
 292              		.align	2
 293              		.type	Em_EEPROM_config, %object
 294              		.size	Em_EEPROM_config, 16
 295              	Em_EEPROM_config:
 296 0000 80000000 		.word	128
 297 0004 04000000 		.word	4
 298 0008 00       		.byte	0
ARM GAS  C:\Users\JEFFSN~1\AppData\Local\Temp\ccqqD8Rg.s 			page 19


 299 0009 00       		.byte	0
 300 000a 0000     		.space	2
 301 000c 00000000 		.word	0
 302              		.text
 303              	.Letext0:
 304              		.file 2 "Generated_Source\\PSoC5\\cytypes.h"
 305              		.file 3 "Generated_Source\\PSoC5\\cy_em_eeprom.h"