ARM GAS  C:\Users\JEFFSN~1\AppData\Local\Temp\ccNgqFIc.s 			page 1


   1              		.syntax unified
   2              		.cpu cortex-m3
   3              		.fpu softvfp
   4              		.eabi_attribute 20, 1
   5              		.eabi_attribute 21, 1
   6              		.eabi_attribute 23, 3
   7              		.eabi_attribute 24, 1
   8              		.eabi_attribute 25, 1
   9              		.eabi_attribute 26, 1
  10              		.eabi_attribute 30, 1
  11              		.eabi_attribute 34, 1
  12              		.eabi_attribute 18, 4
  13              		.thumb
  14              		.syntax unified
  15              		.file	"ExtMUXS1.c"
  16              		.text
  17              	.Ltext0:
  18              		.section	.gnu.lto_.profile.1c052e71,"",%progbits
  19 0000 789C6361 		.ascii	"x\234ca`d`a`\000\222\222\242\000\000\261\0009"
  19      60646061 
  19      60009292 
  19      A20000B1 
  19      0039
  20              		.text
  21              		.section	.gnu.lto_.inline.1c052e71,"",%progbits
  22 0000 789C6361 		.ascii	"x\234ca`d\000\001?\006\004`a`\340\344`d`\342y\020\313"
  22      60640001 
  22      3F060460 
  22      6160E0E4 
  22      606460E2 
  23 0017 C0B6409E 		.ascii	"\300\266@\236\011$\306\310\300\301\016\024\342\232\340"
  23      0924C6C8 
  23      C0C10E14 
  23      E29AE0
  24 0026 07176262 		.ascii	"\007\027bb`c\005\012\261}\320\203\0131c\0121\000\000"
  24      6063050A 
  24      B17DD083 
  24      0B31630A 
  24      310000
  25 0039 537C0835 		.ascii	"S|\0105"
  26              		.text
  27              		.section	.gnu.lto_.jmpfuncs.1c052e71,"",%progbits
  28 0000 789C6361 		.ascii	"x\234ca`d\000\001>\006\004`\001b\240(\023\003\0033\220"
  28      60640001 
  28      3E060460 
  28      0162A028 
  28      13030333 
  29 0015 05000292 		.ascii	"\005\000\002\222\000\036"
  29      001E
  30              		.text
  31              		.section	.gnu.lto_.pureconst.1c052e71,"",%progbits
  32 0000 789C6361 		.ascii	"x\234ca`d\340d```a\220b\224b\222b\226\002\000\002\261"
  32      6064E064 
  32      60606061 
  32      90629462 
  32      92629602 
  33 0017 0081     		.ascii	"\000\201"
ARM GAS  C:\Users\JEFFSN~1\AppData\Local\Temp\ccNgqFIc.s 			page 2


  34              		.text
  35              		.section	.gnu.lto_ExtMUXS1_Write.1c052e71,"",%progbits
  36 0000 789C5551 		.ascii	"x\234UQMk\324P\024\275\347\275$3\355\250\177\240\263"
  36      4D6BD450 
  36      14BDE7BD 
  36      2433EDA8 
  36      7FA0B3
  37 0013 28C250AA 		.ascii	"(\302P\252 \212\364\017(\342J\020\007\301\305\200\014"
  37      208AF40F 
  37      28E24A10 
  37      07C1C580 
  37      0C
  38 0024 631605B5 		.ascii	"c\026\005\265\320\246\342\256/M'\005qQ(\355\254t\300"
  38      D0A6E2AE 
  38      2F4D2705 
  38      715128ED 
  38      AC74C0
  39 0037 52DAFAD1 		.ascii	"R\332\372\321Z\025A\350\"\004\301\215(H\027\"\"\322"
  39      5A1541E8 
  39      2204C18D 
  39      28481722 
  39      22D2
  40 0049 45848210 		.ascii	"E\204\202\020\301\241\203Z\307{\223\215\275\360>rs\316"
  40      C1A1835A 
  40      C77B938D 
  40      BDF03E72 
  40      73CE
  41 005b B9E7DE67 		.ascii	"\271\347\336g\021H\342\230\"\032\341s\200\0274A\315"
  41      1148E298 
  41      221AE173 
  41      80173441 
  41      CD
  42 006c BD23F28B 		.ascii	"\275#\362\213\012\220\213)\202\246\024\246\320Q\373"
  42      0A908B29 
  42      82A614A6 
  42      D051FB
  43 007b 0AF16CF2 		.ascii	"\012\361l\362J\015\257\030\216\257\313\367\265Y\215"
  43      4A0DAF18 
  43      8EAFCBF7 
  43      B5598D
  44 008a D0D4443D 		.ascii	"\320\324D=\225)\021V0\314\250o[\263\333\320\025\020"
  44      95291156 
  44      30CCA86F 
  44      5BB3DBD0 
  44      1510
  45 009c DFC3B893 		.ascii	"\337\303\270\223\226\206\226\215\2316f\257ftS\003\253"
  45      9686968D 
  45      993666AF 
  45      66745303 
  45      AB
  46 00ad D0CCC0E9 		.ascii	"\320\314\300\3512N\226\211\023\2045\014\011\270\373"
  46      324E9689 
  46      1384350C 
  46      09B8FB
  47 00bc 697BFD88 		.ascii	"i{\375\210>\236\021\347L\362\340PeI\210\321\336\215"
  47      3E9E11E7 
  47      4CF2E050 
ARM GAS  C:\Users\JEFFSN~1\AppData\Local\Temp\ccNgqFIc.s 			page 3


  47      654988D1 
  47      DE8D
  48 00ce 9689FC41 		.ascii	"\226\211\374A\341>\374\237+\301\320\235\315\277\013"
  48      E13EFC9F 
  48      2BC1D09D 
  48      CDBF0B
  49 00dd 879D1971 		.ascii	"\207\235\031q5\210G\250\344~\360\030\016w\010\311l\\"
  49      358847A8 
  49      E47EF018 
  49      0E7708C9 
  49      6C5C
  50 00ef 8A4CAF17 		.ascii	"\212L\257\027\230\250cwt\237\342\242\212;\345\037\026"
  50      98A86377 
  50      749FE2A2 
  50      8A3BE51F 
  50      16
  51 0100 A4B62D09 		.ascii	"\244\266-\011G\266\202lD)/\351\376\207Rr\352\004\361"
  51      47B6826C 
  51      44292FE9 
  51      FE875272 
  51      EA04F1
  52 0113 AF3B5F5A 		.ascii	"\257;_Z\005\321\014\264Lb\261\031\277/\374TM\2553\267"
  52      05D10CB4 
  52      4C62B119 
  52      BF2FFC54 
  52      4DAD33B7 
  53 0127 1F8376B7 		.ascii	"\037\203v\267\224\177\246K\276\26185\377ra\327j\343"
  53      947FA64B 
  53      BEB13835 
  53      FF7261D7 
  53      6AE3
  54 0139 9E3FC333 		.ascii	"\236?\3033\262\260\2162\236\200=c\003mP\202\340O\370"
  54      B2B08E32 
  54      9E803D63 
  54      036D5082 
  54      E04FF8
  55 014c 19B9A0CE 		.ascii	"\031\271\240\3165\375\357\341\207\242\210\000\373\300"
  55      35FDEFE1 
  55      87A28800 
  55      FBC0
  56 015a 5306EF40 		.ascii	"S\006\357@em\260SF\011)\015\223V_\316\262\003-u^\274"
  56      656DB053 
  56      4609290D 
  56      93565FCE 
  56      B2032D75 
  57 0170 7E13662C 		.ascii	"~\023f,\033\300&\2232\351\267*\007\011\216A[\355\273"
  57      1BC02693 
  57      32E9B72A 
  57      07098E41 
  57      5BEDBB
  58 0183 6BFD02B2 		.ascii	"k\375\002\262X\361Y\016\352:9\244\220\031p8\025/f\206"
  58      58F1590E 
  58      EA3A39A4 
  58      90197038 
  58      152F6686 
  59 0197 0E98F78D 		.ascii	"\016\230\367\215)\035\364\377\234\3753\213v1\035\375"
  59      291DF4FF 
ARM GAS  C:\Users\JEFFSN~1\AppData\Local\Temp\ccNgqFIc.s 			page 4


  59      9CFD338B 
  59      76311DFD 
  60 01a7 B685903D 		.ascii	"\266\205\220=D\252 \263\342\311\035=\357\336t\307\353"
  60      44AA20B3 
  60      E2C91D3D 
  60      EFDE74C7 
  60      EB
  61 01b8 9E7BED6A 		.ascii	"\236{\355julr\274\341\326.V\307\316\216\324\316\335"
  61      756C72BC 
  61      E1D62E56 
  61      C7CE8ED4 
  61      CEDD
  62 01ca F62E5CBE 		.ascii	"\366.\\\276R=u\242A\366\255\372\365I\267\177\302\253"
  62      523D75A2 
  62      41F6ADFA 
  62      F549B77F 
  62      C2AB
  63 01dc 7BA38D33 		.ascii	"{\243\2153\243\336\304?%X\302A"
  63      A3DEC43F 
  63      2558C241 
  64              		.text
  65              		.section	.gnu.lto_ExtMUXS1_SetDriveMode.1c052e71,"",%progbits
  66 0000 789C7D51 		.ascii	"x\234}Q\277K[Q\024>\337\275/\357%\006\375\007\314 \005"
  66      BF4B5B51 
  66      143EDFBD 
  66      2FEF2506 
  66      FD07CC20 
  67 0015 09594429 		.ascii	"\011YD)\376\005b;\011\305 8D\244$o\254\241b\301-7\277"
  67      FE05623B 
  67      09C52038 
  67      44A4246F 
  67      ACA162C1 
  68 002c 5A5007A1 		.ascii	"ZP\007\241\350\"\022\227\220X\265i\351\324-\015\264"
  68      E8221297 
  68      9058B569 
  68      E9D42D0D 
  68      B4
  69 003d 83836E0E 		.ascii	"\203\203n\016\035D\034B)T\222\332\322\032\265\3519\357"
  69      1D441C42 
  69      295492DA 
  69      D21AB5E9 
  69      39EF
  70 004f 3964F272 		.ascii	"9d\362r\357\371\305\367}\367\234{-\002\311\372\306."
  70      EFF9C5F7 
  70      7DF79C7B 
  70      2D02C9FA 
  70      C62E
  71 0061 C67E900F 		.ascii	"\306~\220\0174A\255\037\021e\203\012\220\300\004A\031"
  71      3441AD1F 
  71      1165830A 
  71      90C00441 
  71      19
  72 0072 850C7EAB 		.ascii	"\205\014~\253[\205\306\253\346G\025\253\030^g\237/F"
  72      5B85C6AB 
  72      E64715AB 
  72      185E679F 
  72      2F46
ARM GAS  C:\Users\JEFFSN~1\AppData\Local\Temp\ccNgqFIc.s 			page 5


  73 0084 4DB58EA2 		.ascii	"M\265\216\242&\352*O\211PA\214Q\227\037\312\257\303"
  73      26EA2A4F 
  73      8950418C 
  73      51971FCA 
  73      AFC3
  74 0096 7A18C471 		.ascii	"z\030\304q\373\250u:\020-\033\2233fc\316\350\242\006"
  74      FBA8753A 
  74      102D1B93 
  74      336663CE 
  74      E8A206
  75 00a9 AAD0CCC0 		.ascii	"\252\320\314\300\303\010F#\304\005\302.\242\002>\177"
  75      C3084623 
  75      C405C22E 
  75      A2023E7F 
  76 00b9 FF6FA3DF 		.ascii	"\377o\243\337.\210\374\220/\2127\260\245\315\332t\335"
  76      2E88FC90 
  76      2F8A37B0 
  76      A5CDDA74 
  76      DD
  77 00ca 74BB7953 		.ascii	"t\273yS\377c\177\352\330a\3054\245\331hKL\000\242`K"
  77      FF637FEA 
  77      D861C534 
  77      A5D9684B 
  77      4C00A260 
  78 00df E888098A 		.ascii	"\350\210\011\212\011\011\206\250\305G\006i+%^7\321\350"
  78      090986A8 
  78      C5470669 
  78      2B255E37 
  78      D1E8
  79 00f1 AC34B72C 		.ascii	"\2544\267,Q\316k\031j\263\3308v~\251\242\266\274\216"
  79      51CE6B19 
  79      6AB3D838 
  79      767EA9A2 
  79      B6BC8E
  80 0104 8F4B6B2F 		.ascii	"\217Kk/\373\374\364j'k,.\375X9;\014\227\260\235-\360"
  80      FBFCF46A 
  80      276B2C2E 
  80      FD58393B 
  80      0C97B09D 
  81 011a B801EC23 		.ascii	"\270\001\354#\202=D\270\273\003\224@M\344~:\276\234"
  81      823D44B8 
  81      BB039440 
  81      4DE47E3A 
  81      BE9C
  82 012c 6645CEF3 		.ascii	"fE\316\3637\266\237[\\b\376\327/\253\267!\221\324x\216"
  82      37B69F5B 
  82      5C62FED7 
  82      2FABB721 
  82      91D4788E 
  83 0140 B7CCECA1 		.ascii	"\267\314\354\241\360\016\364R\034.\311\225'{\373\332"
  83      F00EF452 
  83      1C2EC995 
  83      277BFBDA 
  84 0150 A70CA0E6 		.ascii	"\247\014\240\346Q\362\177\357 AO\330\351U\011q\225\363"
  84      51F27FEF 
  84      20414FD8 
  84      E9550971 
ARM GAS  C:\Users\JEFFSN~1\AppData\Local\Temp\ccNgqFIc.s 			page 6


  84      95F3
  85 0162 C62624BF 		.ascii	"\306&$\277\257\345w\3342\343\351;r\365\353G\202\366"
  85      AFE577DC 
  85      32E3E93B 
  85      72F5EB47 
  85      82F6
  86 0174 BEAEA520 		.ascii	"\276\256\245 \317\303\217\365\340\261\273\340.>]rS\363"
  86      CFC38FF5 
  86      E0B1BBE0 
  86      2E3E5D72 
  86      53F3
  87 0186 F1F48BC5 		.ascii	"\361\364\213\305\244\233x\022OO\214'&\227\227\246ff"
  87      A49B7812 
  87      4F4F8C27 
  87      269797A6 
  87      6666
  88 0198 E3632349 		.ascii	"\343c#I\262\236\245S\356\177\254I\246o"
  88      B29EA553 
  88      EE7FAC49 
  88      A66F
  89              		.text
  90              		.section	.gnu.lto_ExtMUXS1_Read.1c052e71,"",%progbits
  91 0000 789C3550 		.ascii	"x\2345P\315K\002A\024\177\277\231\325\225 \372\003\362"
  91      CD4B0241 
  91      147FBF99 
  91      D59520FA 
  91      03F2
  92 0012 10D1C54B 		.ascii	"\020\321\305K\024\021D\327\250NA$B\007!\302\226n\011"
  92      141144D7 
  92      A84E4124 
  92      420721C2 
  92      966E09
  93 0025 62D0CD5D 		.ascii	"b\320\315]W\015\242\300\213u*\017!\332\027\021\364\007"
  93      570DA2C0 
  93      8B752A0F 
  93      21DA1711 
  93      F407
  94 0037 6C521414 		.ascii	"lR\024\024u)\350\024\021a\320)\245\020\304\332\336\264"
  94      7529E814 
  94      1161D029 
  94      A510C4DA 
  94      DEB4
  95 0049 3430EFCD 		.ascii	"40\357\315\274\371}\2747\032\201\324\212p\352\343\334"
  95      BCF97DBC 
  95      371A81D4 
  95      8A70EAE3 
  95      DC
  96 005a CD1B9220 		.ascii	"\315\033\222 \362\267DV@\000\352`\006@)\201\024\276"
  96      F2B74456 
  96      4000EA60 
  96      06402981 
  96      14BE
  97 006c C4B7C075 		.ascii	"\304\267\300u\363j\275#T6\315\264\371\\j\215lU\034d"
  97      F36ABD23 
  97      5436CDB4 
  97      F95C6A8D 
  97      6C551C64 
ARM GAS  C:\Users\JEFFSN~1\AppData\Local\Temp\ccNgqFIc.s 			page 7


  98 0080 25912B08 		.ascii	"%\221+\010CA\014\004\225D\031!b\350\313\311O\241\323"
  98      43410C04 
  98      95441921 
  98      62E8CBC9 
  98      4FA1D3
  99 0093 9F3179F5 		.ascii	"\2371y\365(\000\277T\340W\226\3073\216\351\272\266\351"
  99      2800BF54 
  99      E05796C7 
  99      338EE9BA 
  99      B6E9
 100 00a5 3CE8678F 		.ascii	"<\350g\217\272\016\312J\366\345\240q\020>\025\374\244"
 100      BA0ECA4A 
 100      F6E5A071 
 100      103E15FC 
 100      A4
 101 00b6 64E98369 		.ascii	"d\351\203i\252\211\272\020*\313\032\252\255\265\247"
 101      AA89BA10 
 101      2ACB1AAA 
 101      ADB5A7
 102 00c5 9D51A564 		.ascii	"\235Q\245dK\311.\233\331\352\235\376)\262RB\231\266"
 102      4BC92E9B 
 102      D9EA9DFE 
 102      29B25242 
 102      99B6
 103 00d7 370A6FF0 		.ascii	"7\012o\360\256\365]\313\324\270T\312[\213El[\031\356"
 103      AEF55DCB 
 103      D4B854CA 
 103      5B8B456C 
 103      5B19EE
 104 00ea 54C33E82 		.ascii	"T\303>\202\330\003\367\211\003\024A5\330\355\011\262"
 104      D803F789 
 104      03144135 
 104      D8ED09B2 
 105 00fa 253CB50B 		.ascii	"%<\265\013\267\351t): p\310\260\032\322\215\325\033"
 105      B7E97429 
 105      3A2070C8 
 105      B01AD28D 
 105      D51B
 106 010c E9F9698C 		.ascii	"\351\371i\214S\214F\356\336\347U|\\d\332\351\371e.\240"
 106      538C46EE 
 106      DEE7557C 
 106      5C64DAE9 
 106      F9652EA0 
 107 0120 68FC6738 		.ascii	"h\374g8\372\247\275\302\003)\034\275\263\240w\243\277"
 107      FAA7BDC2 
 107      03291CBD 
 107      B3A077A3 
 107      BF
 108 0131 B9A0E6E1 		.ascii	"\271\240\346\341\351z'\215%#1\2374\026\346\302\361\345"
 108      E97A278D 
 108      2523319F 
 108      3416E6C2 
 108      F1E5
 109 0143 44CC884E 		.ascii	"D\314\210N\207\343c\303\321\361\225\344Td6<\330\037"
 109      87E363C3 
 109      D1F195E4 
 109      5464363C 
ARM GAS  C:\Users\JEFFSN~1\AppData\Local\Temp\ccNgqFIc.s 			page 8


 109      D81F
 110 0155 A35FA001 		.ascii	"\243_\240\001{n"
 110      7B6E
 111              		.text
 112              		.section	.gnu.lto_ExtMUXS1_ReadDataReg.1c052e71,"",%progbits
 113 0000 789C3550 		.ascii	"x\2345P;K\003A\020\236o\367\362 \"\376\000S\210\330"
 113      3B4B0341 
 113      109E6FF7 
 113      F22022FE 
 113      005388D8 
 114 0014 A411452C 		.ascii	"\244\021E,\264\025\265\022\304\240X\004D\342\265\006"
 114      B415B512 
 114      C4A05804 
 114      44E2B506 
 115 0024 4204BB6C 		.ascii	"B\004\273lrI\004\261\020$ZI\012\221$>\020A\354\2043"
 115      724904B1 
 115      10245A49 
 115      0A91243E 
 115      1041EC84 
 116 0039 280A8A5A 		.ascii	"(\012\212ZXX\212H\212T1(\021\321\234\263\036.\354\314"
 116      58588A48 
 116      8A543128 
 116      11D19CB3 
 116      1E2EECCC 
 117 004d EEECF798 		.ascii	"\356\354\367\230Y\203@z\315p\352\341\334\311\033\222"
 117      5983407A 
 117      CD70EAE1 
 117      DCC91B92 
 118 005d 20D6EF88 		.ascii	" \326\357\210R~\001\350\203\362\203\222\002I|\210\037"
 118      527E01E8 
 118      83F28392 
 118      02497C88 
 118      1F
 119 006e 819BE6F5 		.ascii	"\201\233\346\365Z TT*\255\236w\213C[%\033YI\344\010"
 119      5A205454 
 119      2AAD9E77 
 119      8B435B25 
 119      1B5949E4 
 120 0083 C240107D 		.ascii	"\302@\020}A-QD\210\030\372r\334\312\267{3\212W\227\006"
 120      412D5144 
 120      8818FA72 
 120      DCCAB77B 
 120      338A5797 
 121 0098 F04B095E 		.ascii	"\360K\011^my4e+\307\261\224}\0268\177\010\370@Y\311"
 121      6D793465 
 121      2BC7B194 
 121      7D16387F 
 121      08F84059 
 122 00ad BE1C0C0E 		.ascii	"\276\034\014\016\302\243\203\227\264,\325\231\246\233"
 122      C2A38397 
 122      B42CD599 
 122      A69B
 123 00bb 78134267 		.ascii	"x\023BgYE\345k\265U\036\326J\226\224\354\262\231\255"
 123      5945E56B 
 123      B5551ED6 
 123      4A9694EC 
 123      B299AD
ARM GAS  C:\Users\JEFFSN~1\AppData\Local\Temp\ccNgqFIc.s 			page 9


 124 00ce DCFBDE45 		.ascii	"\334\373\336EVJh\323'\253\360\331\346^\353;)epi\343"
 124      564A68D3 
 124      27ABF0D9 
 124      E65EEB3B 
 124      29657069 
 125 00e3 345F330A 		.ascii	"4_3\012\330Ne\270U\003{\010\242\014n\024\373(\200\252"
 125      D84E65B8 
 125      55037B08 
 125      A20C6E14 
 125      FB2880AA 
 126 00f7 B0BEC7C8 		.ascii	"\260\276\307\310\222p\345.\235\246\335\241\371\200\300"
 126      9270E52E 
 126      9DA6DDA1 
 126      F980C0
 127 0106 01C3AA48 		.ascii	"\001\303\252H7Vn\245kh0N3\032\271G\217[\361p\221i'\027"
 127      37566EA5 
 127      6B68304E 
 127      331AB947 
 127      8F5BF170 
 128 011e 5739BFA6 		.ascii	"W9\277\246\361\247\341\360\237\366\012\027\244qTcA\367"
 128      F1A7E1F0 
 128      9FF60A17 
 128      A4715463 
 128      41F7
 129 0130 467F8341 		.ascii	"F\177\203A\017\304\343u\217\233\213f|>a.\314\205cK\361"
 129      0FC4E375 
 129      8F9B8B66 
 129      7C3E612E 
 129      CC85634B 
 130 0145 A819990C 		.ascii	"\250\031\231\014\307F\006#\243\313\211\211\351\331p"
 130      C7460623 
 130      A3CB8989 
 130      E9D970
 131 0154 7F6F947E 		.ascii	"\177o\224~\001\366\367{\323"
 131      01F6F77B 
 131      D3
 132              		.text
 133              		.section	.gnu.lto_.symbol_nodes.1c052e71,"",%progbits
 134 0000 789C6361 		.ascii	"x\234ca`dpc\000\002&\206z\006\206\011\347\030@\324\252"
 134      60647063 
 134      00022686 
 134      7A068609 
 134      E71840D4 
 135 0015 0645A000 		.ascii	"\006E\240\000c=#\252\000S=\023\252\000s=3\212\000\003"
 135      633D23AA 
 135      00533D13 
 135      AA00733D 
 135      338A0003 
 136 0029 001ED60E 		.ascii	"\000\036\326\016\374"
 136      FC
 137              		.text
 138              		.section	.gnu.lto_.refs.1c052e71,"",%progbits
 139 0000 789C6361 		.ascii	"x\234ca`\004B \000\000\0009\000\007"
 139      60044220 
 139      00000039 
 139      0007
 140              		.text
ARM GAS  C:\Users\JEFFSN~1\AppData\Local\Temp\ccNgqFIc.s 			page 10


 141              		.section	.gnu.lto_.decls.1c052e71,"",%progbits
 142 0000 789C8D92 		.ascii	"x\234\215\222]HTA\024\307\347\334{w\265\233Z\210\205"
 142      5D485441 
 142      14C7E7DC 
 142      7B77B59B 
 142      5A8885
 143 0013 C43E6C3E 		.ascii	"\304>l>\331\313\222D\340C_\240e/f(Z\017\202\254z1_4"
 143      D9CB9244 
 143      E0435FA0 
 143      652F6628 
 143      5A0F82AC 
 144 002b B635925E 		.ascii	"\2665\222^&5\322zH\011\22551\023)\315\217\265\326-w"
 144      2635D27A 
 144      48099535 
 144      311329CD 
 144      8FB5D62D 
 145 0040 CB5CB32C 		.ascii	"\313\\\263,\002!\021\2040\320\330,$\021+_\214l;3{\357"
 145      02211184 
 145      30D0D82C 
 145      24112B5F 
 145      8C6C3B33 
 146 0056 DE6B6DE0 		.ascii	"\336km\340\201\2713g\346\374\177\347\314\271#\021 \314"
 146      81B93367 
 146      E6FC7FE7 
 146      CCB92311 
 146      20CC
 147 0068 0E4B8474 		.ascii	"\016K\204t\341lA7\204f\302u\001\321\015\217\211\007"
 147      E16C4137 
 147      8466C275 
 147      01D10D8F 
 147      8907
 148 007a 8717C708 		.ascii	"\207\027\307\010\016?\371\327\330\271Y\325\0152\026"
 148      0E3FF9D7 
 148      D8B959D5 
 148      0D3216
 149 0089 8E311CA3 		.ascii	"\2161\034\2438r\324\030P\343\3766o\024m\300\240\327"
 149      3872D418 
 149      50E3FE36 
 149      6F146DC0 
 149      A0D7
 150 009b B4DE285A 		.ascii	"\264\336(ZV\217\311\240\313\211\242\033\211\242\363"
 150      568FC9A0 
 150      CB89A21B 
 150      89A2F3
 151 00aa 6F4117ED 		.ascii	"oA\027\355\236\033\002\264\217wL\230\346\340=\000\001"
 151      9E1B02B4 
 151      8F774C98 
 151      E6E03D00 
 151      01
 152 00bb 6E44ED23 		.ascii	"nD\355#a;\352\314\026\020v\004\215\007Z\220\226\202"
 152      613BEACC 
 152      16107604 
 152      8D075A90 
 152      9682
 153 00cd 87031178 		.ascii	"\207\003\021x|d_\213\213\344\014i\246oA\304\264H\330"
 153      7C645F8B 
 153      8BE40C69 
ARM GAS  C:\Users\JEFFSN~1\AppData\Local\Temp\ccNgqFIc.s 			page 11


 153      A66F41C4 
 153      B448D8
 154 00e0 0C6554DD 		.ascii	"\014eT\335E_\320\005\006\236Z\275\232\037\214i9Z\324"
 154      455FD005 
 154      069E5ABD 
 154      9A1F8C69 
 154      395AD4
 155 00f3 2EFD73A3 		.ascii	".\375s\243\247U\026\221\211\353\371\365\236\023\266"
 155      A7551691 
 155      89EBF9F5 
 155      9E13B6
 156 0102 7E8AD648 		.ascii	"~\212\326H\251\260O\357\214\373\352\247\336\3305\001"
 156      A9B04FEF 
 156      8CFBEAA7 
 156      DED83501 
 157 0112 2C328480 		.ascii	",2\204\200\371\313\276\365\370\260\317\216]M\301\337"
 157      F9CBBEF5 
 157      F8B0CF8E 
 157      5D4DC1DF 
 158 0122 DBC53D6C 		.ascii	"\333\305=l-\314\004\373\226$H\225\3571\314B\323\342"
 158      2DCC04FB 
 158      96244895 
 158      EF31CC42 
 158      D3E2
 159 0134 111FA53B 		.ascii	"\021\037\245;a\020d\350\007\021z\301\306*\260\310\370"
 159      611064E8 
 159      07117AC1 
 159      C62AB0C8 
 159      F8
 160 0145 ADA7B486 		.ascii	"\255\247\264\206\256vQs2\201\003\026\330o!0\000\251"
 160      AE765173 
 160      32810316 
 160      D86F2130 
 160      00A9
 161 0157 8CC9A2A0 		.ascii	"\214\311\242\240\017,\360\000,\214\277\330z\347\253"
 161      0F2CF000 
 161      2C8CBFD8 
 161      7AE7AB
 162 0166 59C27673 		.ascii	"Y\302vsN\261\304\366\246\353\206\332E,!Q\006\011\335"
 162      4EB1C4F6 
 162      A6EB86DA 
 162      452C2151 
 162      0609DD
 163 0179 6F536DC1 		.ascii	"oSm\301\004t\223d\260\242\333\357\377\260lNn\341W\251"
 163      04749364 
 163      B0A2DBEF 
 163      FFB06C4E 
 163      6EE157A9 
 164 018d A556090A 		.ascii	"\245V\011\012v\303C\004\016!\220\300#H\306\257\033\244"
 164      76C34304 
 164      0E2190C0 
 164      2348C6AF 
 164      1BA4
 165 019f F0EDA66E 		.ascii	"\360\355\246n\316{\266\245t\322\316!\272\320<y\250\245"
 165      CE7BB6A5 
 165      74D2CE21 
 165      BAD03C79 
ARM GAS  C:\Users\JEFFSN~1\AppData\Local\Temp\ccNgqFIc.s 			page 12


 165      A8A5
 166 01b1 96BE419D 		.ascii	"\226\276A\235\225\205A\217^4.\331t\037\346\260\241\036"
 166      9585418F 
 166      5E342ED9 
 166      741FE6B0 
 166      A11E
 167 01c3 484165F7 		.ascii	"HAe\367\304l\247(*\274\011\337=_\272!L\011\254M\306"
 167      C46CA728 
 167      2ABC09DF 
 167      3D5FBA21 
 167      4C09AC4D 
 168 01d8 D1C62B94 		.ascii	"\321\306+\224\036\343\214a\2351ldx9\343W\363\347[f\361"
 168      1EE38C61 
 168      9D316C64 
 168      7839E357 
 168      F3E75B66 
 169 01ed 3267BCBB 		.ascii	"2g\274\273\361\252v\207\261lv_\275\356'\274\356b\265"
 169      F1AA7687 
 169      B16C765F 
 169      BDEE27BC 
 169      EE62B5
 170 0200 6C1A0CB8 		.ascii	"l\032\014\270\023\324\2043\257E\027\015\324\241N`Q\360"
 170      13D48433 
 170      AF45170D 
 170      D4A14E60 
 170      51F0
 171 0212 584FF9D8 		.ascii	"XO\371\330\230r\204\247\\\276\366q\305$6\000\317y{\274"
 171      987284A7 
 171      5CBEF671 
 171      C5243600 
 171      CF797BBC 
 172 0226 CE15A362 		.ascii	"\316\025\243b\374o\265\272\031\304\247C|F\210\237C\326"
 172      FC6FB5BA 
 172      19C4A743 
 172      7C46889F 
 172      43D6
 173 0238 EA7ECC9A 		.ascii	"\352~\314\232e\374\211\265[\373\211SKwC1b\007O*x\232"
 173      65FC89B5 
 173      5BFB8953 
 173      4B774331 
 173      62074F2A 
 174 024e 5DCD3120 		.ascii	"]\3151 \247F\221?\217\"W\037\323@~S\003\273\341(v\345"
 174      A746913F 
 174      8F22571F 
 174      D3407E53 
 174      03BBE128 
 175 0264 995EDC53 		.ascii	"\231^\334S\220\303\035\351]\231\010@\334u\366\256\260"
 175      90C31DE9 
 175      5D990840 
 175      DC75F6AE 
 175      B0
 176 0275 7D892779 		.ascii	"}\211'y\240\336\2761\210\343\357\037\347\015A|9\343"
 176      A0DEBE31 
 176      88E3EF1F 
 176      E70D417C 
 176      39E3
 177 0287 1E9341B6 		.ascii	"\036\223A\266\000\236C=K\260Zc\250\203@\200aa\034\217"
ARM GAS  C:\Users\JEFFSN~1\AppData\Local\Temp\ccNgqFIc.s 			page 13


 177      009E433D 
 177      4BB05A63 
 177      A8834080 
 177      61611C8F 
 178 029b 5FA0BC8D 		.ascii	"_\240\274\215\262\230i\340\333\334Y=\312\327\374\223"
 178      B29869E0 
 178      DBDC593D 
 178      CAD7FC93 
 179 02ab 70FC9233 		.ascii	"p\374\2223;\377l^Z\321\031G\271S\211\315:\225o\315H"
 179      3BFF6C5E 
 179      5AD11947 
 179      B95389CD 
 179      3A956FCD 
 180 02c0 4B23A6AA 		.ascii	"K#\246\252\362\012g\372\336,\245Bq\330\235JiQ^e\225"
 180      F20A67FA 
 180      DE2CA542 
 180      71D89D4A 
 180      69515E65 
 181 02d5 A344293C 		.ascii	"\243D)<\235W\231q\260\260\244\332Y}^\271`;GR\376\023"
 181      9D579971 
 181      B0B0A4DA 
 181      597D5EB9 
 181      603B4752 
 182 02eb A1616D25 		.ascii	"\241am%dW$E\236\342\314t\224_T\262+K\225\370\310n\256"
 182      64572445 
 182      9EE2CC74 
 182      945F54B2 
 182      2B4B95F8 
 183 0302 622F4DDA 		.ascii	"b/M\332\344e\332\235\366\\\245Lr(e\351\177\000<%d\025"
 183      E465DA9D 
 183      F65CA54C 
 183      722865E9 
 183      7F003C25 
 184              		.text
 185              		.section	.gnu.lto_.symtab.1c052e71,"",%progbits
 186 0000 4578744D 		.ascii	"ExtMUXS1_Write\000"
 186      55585331 
 186      5F577269 
 186      746500
 187 000f 00       		.ascii	"\000"
 188 0010 00       		.ascii	"\000"
 189 0011 00       		.ascii	"\000"
 190 0012 00000000 		.ascii	"\000\000\000\000\000\000\000\000"
 190      00000000 
 191 001a B3000000 		.ascii	"\263\000\000\000"
 192 001e 4578744D 		.ascii	"ExtMUXS1_SetDriveMode\000"
 192      55585331 
 192      5F536574 
 192      44726976 
 192      654D6F64 
 193 0034 00       		.ascii	"\000"
 194 0035 00       		.ascii	"\000"
 195 0036 00       		.ascii	"\000"
 196 0037 00000000 		.ascii	"\000\000\000\000\000\000\000\000"
 196      00000000 
 197 003f B5000000 		.ascii	"\265\000\000\000"
 198 0043 4578744D 		.ascii	"ExtMUXS1_Read\000"
ARM GAS  C:\Users\JEFFSN~1\AppData\Local\Temp\ccNgqFIc.s 			page 14


 198      55585331 
 198      5F526561 
 198      6400
 199 0051 00       		.ascii	"\000"
 200 0052 00       		.ascii	"\000"
 201 0053 00       		.ascii	"\000"
 202 0054 00000000 		.ascii	"\000\000\000\000\000\000\000\000"
 202      00000000 
 203 005c B8000000 		.ascii	"\270\000\000\000"
 204 0060 4578744D 		.ascii	"ExtMUXS1_ReadDataReg\000"
 204      55585331 
 204      5F526561 
 204      64446174 
 204      61526567 
 205 0075 00       		.ascii	"\000"
 206 0076 00       		.ascii	"\000"
 207 0077 00       		.ascii	"\000"
 208 0078 00000000 		.ascii	"\000\000\000\000\000\000\000\000"
 208      00000000 
 209 0080 BA000000 		.ascii	"\272\000\000\000"
 210              		.text
 211              		.section	.gnu.lto_.opts,"",%progbits
 212 0000 272D666D 		.ascii	"'-fmath-errno' '-fsigned-zeros' '-ftrapping-math' '"
 212      6174682D 
 212      6572726E 
 212      6F272027 
 212      2D667369 
 213 0033 2D666E6F 		.ascii	"-fno-trapv' '-fno-strict-overflow' '-fno-openmp' '-"
 213      2D747261 
 213      70762720 
 213      272D666E 
 213      6F2D7374 
 214 0066 666E6F2D 		.ascii	"fno-openacc' '-mcpu=cortex-m3' '-mthumb' '-g' '-Og'"
 214      6F70656E 
 214      61636327 
 214      20272D6D 
 214      6370753D 
 215 0099 20272D66 		.ascii	" '-ffunction-sections' '-ffat-lto-objects' '-finlin"
 215      66756E63 
 215      74696F6E 
 215      2D736563 
 215      74696F6E 
 216 00cc 652D6675 		.ascii	"e-functions' '-flto'\000"
 216      6E637469 
 216      6F6E7327 
 216      20272D66 
 216      6C746F27 
 217              		.text
 218              		.cfi_sections	.debug_frame
 219              		.section	.text.ExtMUXS1_Write,"ax",%progbits
 220              		.align	2
 221              		.global	ExtMUXS1_Write
 222              		.thumb
 223              		.thumb_func
 224              		.type	ExtMUXS1_Write, %function
 225              	ExtMUXS1_Write:
 226              	.LFB0:
ARM GAS  C:\Users\JEFFSN~1\AppData\Local\Temp\ccNgqFIc.s 			page 15


 227              		.file 1 "Generated_Source\\PSoC5\\ExtMUXS1.c"
   1:Generated_Source\PSoC5/ExtMUXS1.c **** /*******************************************************************************
   2:Generated_Source\PSoC5/ExtMUXS1.c **** * File Name: ExtMUXS1.c  
   3:Generated_Source\PSoC5/ExtMUXS1.c **** * Version 2.20
   4:Generated_Source\PSoC5/ExtMUXS1.c **** *
   5:Generated_Source\PSoC5/ExtMUXS1.c **** * Description:
   6:Generated_Source\PSoC5/ExtMUXS1.c **** *  This file contains API to enable firmware control of a Pins component.
   7:Generated_Source\PSoC5/ExtMUXS1.c **** *
   8:Generated_Source\PSoC5/ExtMUXS1.c **** * Note:
   9:Generated_Source\PSoC5/ExtMUXS1.c **** *
  10:Generated_Source\PSoC5/ExtMUXS1.c **** ********************************************************************************
  11:Generated_Source\PSoC5/ExtMUXS1.c **** * Copyright 2008-2015, Cypress Semiconductor Corporation.  All rights reserved.
  12:Generated_Source\PSoC5/ExtMUXS1.c **** * You may use this file only in accordance with the license, terms, conditions, 
  13:Generated_Source\PSoC5/ExtMUXS1.c **** * disclaimers, and limitations in the end user license agreement accompanying 
  14:Generated_Source\PSoC5/ExtMUXS1.c **** * the software package with which this file was provided.
  15:Generated_Source\PSoC5/ExtMUXS1.c **** *******************************************************************************/
  16:Generated_Source\PSoC5/ExtMUXS1.c **** 
  17:Generated_Source\PSoC5/ExtMUXS1.c **** #include "cytypes.h"
  18:Generated_Source\PSoC5/ExtMUXS1.c **** #include "ExtMUXS1.h"
  19:Generated_Source\PSoC5/ExtMUXS1.c **** 
  20:Generated_Source\PSoC5/ExtMUXS1.c **** /* APIs are not generated for P15[7:6] on PSoC 5 */
  21:Generated_Source\PSoC5/ExtMUXS1.c **** #if !(CY_PSOC5A &&\
  22:Generated_Source\PSoC5/ExtMUXS1.c **** 	 ExtMUXS1__PORT == 15 && ((ExtMUXS1__MASK & 0xC0) != 0))
  23:Generated_Source\PSoC5/ExtMUXS1.c **** 
  24:Generated_Source\PSoC5/ExtMUXS1.c **** 
  25:Generated_Source\PSoC5/ExtMUXS1.c **** /*******************************************************************************
  26:Generated_Source\PSoC5/ExtMUXS1.c **** * Function Name: ExtMUXS1_Write
  27:Generated_Source\PSoC5/ExtMUXS1.c **** ****************************************************************************//**
  28:Generated_Source\PSoC5/ExtMUXS1.c **** *
  29:Generated_Source\PSoC5/ExtMUXS1.c **** * \brief Writes the value to the physical port (data output register), masking
  30:Generated_Source\PSoC5/ExtMUXS1.c **** *  and shifting the bits appropriately. 
  31:Generated_Source\PSoC5/ExtMUXS1.c **** *
  32:Generated_Source\PSoC5/ExtMUXS1.c **** * The data output register controls the signal applied to the physical pin in 
  33:Generated_Source\PSoC5/ExtMUXS1.c **** * conjunction with the drive mode parameter. This function avoids changing 
  34:Generated_Source\PSoC5/ExtMUXS1.c **** * other bits in the port by using the appropriate method (read-modify-write or
  35:Generated_Source\PSoC5/ExtMUXS1.c **** * bit banding).
  36:Generated_Source\PSoC5/ExtMUXS1.c **** *
  37:Generated_Source\PSoC5/ExtMUXS1.c **** * <b>Note</b> This function should not be used on a hardware digital output pin 
  38:Generated_Source\PSoC5/ExtMUXS1.c **** * as it is driven by the hardware signal attached to it.
  39:Generated_Source\PSoC5/ExtMUXS1.c **** *
  40:Generated_Source\PSoC5/ExtMUXS1.c **** * \param value
  41:Generated_Source\PSoC5/ExtMUXS1.c **** *  Value to write to the component instance.
  42:Generated_Source\PSoC5/ExtMUXS1.c **** *
  43:Generated_Source\PSoC5/ExtMUXS1.c **** * \return 
  44:Generated_Source\PSoC5/ExtMUXS1.c **** *  None 
  45:Generated_Source\PSoC5/ExtMUXS1.c **** *
  46:Generated_Source\PSoC5/ExtMUXS1.c **** * \sideeffect
  47:Generated_Source\PSoC5/ExtMUXS1.c **** *  If you use read-modify-write operations that are not atomic; the Interrupt 
  48:Generated_Source\PSoC5/ExtMUXS1.c **** *  Service Routines (ISR) can cause corruption of this function. An ISR that 
  49:Generated_Source\PSoC5/ExtMUXS1.c **** *  interrupts this function and performs writes to the Pins component data 
  50:Generated_Source\PSoC5/ExtMUXS1.c **** *  register can cause corrupted port data. To avoid this issue, you should 
  51:Generated_Source\PSoC5/ExtMUXS1.c **** *  either use the Per-Pin APIs (primary method) or disable interrupts around 
  52:Generated_Source\PSoC5/ExtMUXS1.c **** *  this function.
  53:Generated_Source\PSoC5/ExtMUXS1.c **** *
  54:Generated_Source\PSoC5/ExtMUXS1.c **** * \funcusage
  55:Generated_Source\PSoC5/ExtMUXS1.c **** *  \snippet ExtMUXS1_SUT.c usage_ExtMUXS1_Write
  56:Generated_Source\PSoC5/ExtMUXS1.c **** *******************************************************************************/
ARM GAS  C:\Users\JEFFSN~1\AppData\Local\Temp\ccNgqFIc.s 			page 16


  57:Generated_Source\PSoC5/ExtMUXS1.c **** void ExtMUXS1_Write(uint8 value)
  58:Generated_Source\PSoC5/ExtMUXS1.c **** {
 228              		.loc 1 58 0
 229              		.cfi_startproc
 230              		@ args = 0, pretend = 0, frame = 0
 231              		@ frame_needed = 0, uses_anonymous_args = 0
 232              		@ link register save eliminated.
 233              	.LVL0:
  59:Generated_Source\PSoC5/ExtMUXS1.c ****     uint8 staticBits = (ExtMUXS1_DR & (uint8)(~ExtMUXS1_MASK));
 234              		.loc 1 59 0
 235 0000 044A     		ldr	r2, .L2
 236 0002 1378     		ldrb	r3, [r2]	@ zero_extendqisi2
 237 0004 03F0FD03 		and	r3, r3, #253
 238              	.LVL1:
  60:Generated_Source\PSoC5/ExtMUXS1.c ****     ExtMUXS1_DR = staticBits | ((uint8)(value << ExtMUXS1_SHIFT) & ExtMUXS1_MASK);
 239              		.loc 1 60 0
 240 0008 4000     		lsls	r0, r0, #1
 241              	.LVL2:
 242 000a 00F00200 		and	r0, r0, #2
 243 000e 1843     		orrs	r0, r0, r3
 244 0010 1070     		strb	r0, [r2]
 245 0012 7047     		bx	lr
 246              	.L3:
 247              		.align	2
 248              	.L2:
 249 0014 F0510040 		.word	1073762800
 250              		.cfi_endproc
 251              	.LFE0:
 252              		.size	ExtMUXS1_Write, .-ExtMUXS1_Write
 253              		.section	.text.ExtMUXS1_SetDriveMode,"ax",%progbits
 254              		.align	2
 255              		.global	ExtMUXS1_SetDriveMode
 256              		.thumb
 257              		.thumb_func
 258              		.type	ExtMUXS1_SetDriveMode, %function
 259              	ExtMUXS1_SetDriveMode:
 260              	.LFB1:
  61:Generated_Source\PSoC5/ExtMUXS1.c **** }
  62:Generated_Source\PSoC5/ExtMUXS1.c **** 
  63:Generated_Source\PSoC5/ExtMUXS1.c **** 
  64:Generated_Source\PSoC5/ExtMUXS1.c **** /*******************************************************************************
  65:Generated_Source\PSoC5/ExtMUXS1.c **** * Function Name: ExtMUXS1_SetDriveMode
  66:Generated_Source\PSoC5/ExtMUXS1.c **** ****************************************************************************//**
  67:Generated_Source\PSoC5/ExtMUXS1.c **** *
  68:Generated_Source\PSoC5/ExtMUXS1.c **** * \brief Sets the drive mode for each of the Pins component's pins.
  69:Generated_Source\PSoC5/ExtMUXS1.c **** * 
  70:Generated_Source\PSoC5/ExtMUXS1.c **** * <b>Note</b> This affects all pins in the Pins component instance. Use the
  71:Generated_Source\PSoC5/ExtMUXS1.c **** * Per-Pin APIs if you wish to control individual pin's drive modes.
  72:Generated_Source\PSoC5/ExtMUXS1.c **** *
  73:Generated_Source\PSoC5/ExtMUXS1.c **** * \param mode
  74:Generated_Source\PSoC5/ExtMUXS1.c **** *  Mode for the selected signals. Valid options are documented in 
  75:Generated_Source\PSoC5/ExtMUXS1.c **** *  \ref driveMode.
  76:Generated_Source\PSoC5/ExtMUXS1.c **** *
  77:Generated_Source\PSoC5/ExtMUXS1.c **** * \return
  78:Generated_Source\PSoC5/ExtMUXS1.c **** *  None
  79:Generated_Source\PSoC5/ExtMUXS1.c **** *
  80:Generated_Source\PSoC5/ExtMUXS1.c **** * \sideeffect
ARM GAS  C:\Users\JEFFSN~1\AppData\Local\Temp\ccNgqFIc.s 			page 17


  81:Generated_Source\PSoC5/ExtMUXS1.c **** *  If you use read-modify-write operations that are not atomic, the ISR can
  82:Generated_Source\PSoC5/ExtMUXS1.c **** *  cause corruption of this function. An ISR that interrupts this function 
  83:Generated_Source\PSoC5/ExtMUXS1.c **** *  and performs writes to the Pins component Drive Mode registers can cause 
  84:Generated_Source\PSoC5/ExtMUXS1.c **** *  corrupted port data. To avoid this issue, you should either use the Per-Pin
  85:Generated_Source\PSoC5/ExtMUXS1.c **** *  APIs (primary method) or disable interrupts around this function.
  86:Generated_Source\PSoC5/ExtMUXS1.c **** *
  87:Generated_Source\PSoC5/ExtMUXS1.c **** * \funcusage
  88:Generated_Source\PSoC5/ExtMUXS1.c **** *  \snippet ExtMUXS1_SUT.c usage_ExtMUXS1_SetDriveMode
  89:Generated_Source\PSoC5/ExtMUXS1.c **** *******************************************************************************/
  90:Generated_Source\PSoC5/ExtMUXS1.c **** void ExtMUXS1_SetDriveMode(uint8 mode)
  91:Generated_Source\PSoC5/ExtMUXS1.c **** {
 261              		.loc 1 91 0
 262              		.cfi_startproc
 263              		@ args = 0, pretend = 0, frame = 0
 264              		@ frame_needed = 0, uses_anonymous_args = 0
 265              		@ link register save eliminated.
 266              	.LVL3:
  92:Generated_Source\PSoC5/ExtMUXS1.c **** 	CyPins_SetPinDriveMode(ExtMUXS1_0, mode);
 267              		.loc 1 92 0
 268 0000 044A     		ldr	r2, .L5
 269 0002 1378     		ldrb	r3, [r2]	@ zero_extendqisi2
 270 0004 03F0F103 		and	r3, r3, #241
 271 0008 00F00E00 		and	r0, r0, #14
 272              	.LVL4:
 273 000c 1843     		orrs	r0, r0, r3
 274 000e 1070     		strb	r0, [r2]
 275 0010 7047     		bx	lr
 276              	.L6:
 277 0012 00BF     		.align	2
 278              	.L5:
 279 0014 79500040 		.word	1073762425
 280              		.cfi_endproc
 281              	.LFE1:
 282              		.size	ExtMUXS1_SetDriveMode, .-ExtMUXS1_SetDriveMode
 283              		.section	.text.ExtMUXS1_Read,"ax",%progbits
 284              		.align	2
 285              		.global	ExtMUXS1_Read
 286              		.thumb
 287              		.thumb_func
 288              		.type	ExtMUXS1_Read, %function
 289              	ExtMUXS1_Read:
 290              	.LFB2:
  93:Generated_Source\PSoC5/ExtMUXS1.c **** }
  94:Generated_Source\PSoC5/ExtMUXS1.c **** 
  95:Generated_Source\PSoC5/ExtMUXS1.c **** 
  96:Generated_Source\PSoC5/ExtMUXS1.c **** /*******************************************************************************
  97:Generated_Source\PSoC5/ExtMUXS1.c **** * Function Name: ExtMUXS1_Read
  98:Generated_Source\PSoC5/ExtMUXS1.c **** ****************************************************************************//**
  99:Generated_Source\PSoC5/ExtMUXS1.c **** *
 100:Generated_Source\PSoC5/ExtMUXS1.c **** * \brief Reads the associated physical port (pin status register) and masks 
 101:Generated_Source\PSoC5/ExtMUXS1.c **** *  the required bits according to the width and bit position of the component
 102:Generated_Source\PSoC5/ExtMUXS1.c **** *  instance. 
 103:Generated_Source\PSoC5/ExtMUXS1.c **** *
 104:Generated_Source\PSoC5/ExtMUXS1.c **** * The pin's status register returns the current logic level present on the 
 105:Generated_Source\PSoC5/ExtMUXS1.c **** * physical pin.
 106:Generated_Source\PSoC5/ExtMUXS1.c **** *
 107:Generated_Source\PSoC5/ExtMUXS1.c **** * \return 
ARM GAS  C:\Users\JEFFSN~1\AppData\Local\Temp\ccNgqFIc.s 			page 18


 108:Generated_Source\PSoC5/ExtMUXS1.c **** *  The current value for the pins in the component as a right justified number.
 109:Generated_Source\PSoC5/ExtMUXS1.c **** *
 110:Generated_Source\PSoC5/ExtMUXS1.c **** * \funcusage
 111:Generated_Source\PSoC5/ExtMUXS1.c **** *  \snippet ExtMUXS1_SUT.c usage_ExtMUXS1_Read  
 112:Generated_Source\PSoC5/ExtMUXS1.c **** *******************************************************************************/
 113:Generated_Source\PSoC5/ExtMUXS1.c **** uint8 ExtMUXS1_Read(void)
 114:Generated_Source\PSoC5/ExtMUXS1.c **** {
 291              		.loc 1 114 0
 292              		.cfi_startproc
 293              		@ args = 0, pretend = 0, frame = 0
 294              		@ frame_needed = 0, uses_anonymous_args = 0
 295              		@ link register save eliminated.
 115:Generated_Source\PSoC5/ExtMUXS1.c ****     return (ExtMUXS1_PS & ExtMUXS1_MASK) >> ExtMUXS1_SHIFT;
 296              		.loc 1 115 0
 297 0000 024B     		ldr	r3, .L8
 298 0002 1878     		ldrb	r0, [r3]	@ zero_extendqisi2
 116:Generated_Source\PSoC5/ExtMUXS1.c **** }
 299              		.loc 1 116 0
 300 0004 C0F34000 		ubfx	r0, r0, #1, #1
 301 0008 7047     		bx	lr
 302              	.L9:
 303 000a 00BF     		.align	2
 304              	.L8:
 305 000c F1510040 		.word	1073762801
 306              		.cfi_endproc
 307              	.LFE2:
 308              		.size	ExtMUXS1_Read, .-ExtMUXS1_Read
 309              		.section	.text.ExtMUXS1_ReadDataReg,"ax",%progbits
 310              		.align	2
 311              		.global	ExtMUXS1_ReadDataReg
 312              		.thumb
 313              		.thumb_func
 314              		.type	ExtMUXS1_ReadDataReg, %function
 315              	ExtMUXS1_ReadDataReg:
 316              	.LFB3:
 117:Generated_Source\PSoC5/ExtMUXS1.c **** 
 118:Generated_Source\PSoC5/ExtMUXS1.c **** 
 119:Generated_Source\PSoC5/ExtMUXS1.c **** /*******************************************************************************
 120:Generated_Source\PSoC5/ExtMUXS1.c **** * Function Name: ExtMUXS1_ReadDataReg
 121:Generated_Source\PSoC5/ExtMUXS1.c **** ****************************************************************************//**
 122:Generated_Source\PSoC5/ExtMUXS1.c **** *
 123:Generated_Source\PSoC5/ExtMUXS1.c **** * \brief Reads the associated physical port's data output register and masks 
 124:Generated_Source\PSoC5/ExtMUXS1.c **** *  the correct bits according to the width and bit position of the component 
 125:Generated_Source\PSoC5/ExtMUXS1.c **** *  instance. 
 126:Generated_Source\PSoC5/ExtMUXS1.c **** *
 127:Generated_Source\PSoC5/ExtMUXS1.c **** * The data output register controls the signal applied to the physical pin in 
 128:Generated_Source\PSoC5/ExtMUXS1.c **** * conjunction with the drive mode parameter. This is not the same as the 
 129:Generated_Source\PSoC5/ExtMUXS1.c **** * preferred ExtMUXS1_Read() API because the 
 130:Generated_Source\PSoC5/ExtMUXS1.c **** * ExtMUXS1_ReadDataReg() reads the data register instead of the status 
 131:Generated_Source\PSoC5/ExtMUXS1.c **** * register. For output pins this is a useful function to determine the value 
 132:Generated_Source\PSoC5/ExtMUXS1.c **** * just written to the pin.
 133:Generated_Source\PSoC5/ExtMUXS1.c **** *
 134:Generated_Source\PSoC5/ExtMUXS1.c **** * \return 
 135:Generated_Source\PSoC5/ExtMUXS1.c **** *  The current value of the data register masked and shifted into a right 
 136:Generated_Source\PSoC5/ExtMUXS1.c **** *  justified number for the component instance.
 137:Generated_Source\PSoC5/ExtMUXS1.c **** *
 138:Generated_Source\PSoC5/ExtMUXS1.c **** * \funcusage
ARM GAS  C:\Users\JEFFSN~1\AppData\Local\Temp\ccNgqFIc.s 			page 19


 139:Generated_Source\PSoC5/ExtMUXS1.c **** *  \snippet ExtMUXS1_SUT.c usage_ExtMUXS1_ReadDataReg 
 140:Generated_Source\PSoC5/ExtMUXS1.c **** *******************************************************************************/
 141:Generated_Source\PSoC5/ExtMUXS1.c **** uint8 ExtMUXS1_ReadDataReg(void)
 142:Generated_Source\PSoC5/ExtMUXS1.c **** {
 317              		.loc 1 142 0
 318              		.cfi_startproc
 319              		@ args = 0, pretend = 0, frame = 0
 320              		@ frame_needed = 0, uses_anonymous_args = 0
 321              		@ link register save eliminated.
 143:Generated_Source\PSoC5/ExtMUXS1.c ****     return (ExtMUXS1_DR & ExtMUXS1_MASK) >> ExtMUXS1_SHIFT;
 322              		.loc 1 143 0
 323 0000 024B     		ldr	r3, .L11
 324 0002 1878     		ldrb	r0, [r3]	@ zero_extendqisi2
 144:Generated_Source\PSoC5/ExtMUXS1.c **** }
 325              		.loc 1 144 0
 326 0004 C0F34000 		ubfx	r0, r0, #1, #1
 327 0008 7047     		bx	lr
 328              	.L12:
 329 000a 00BF     		.align	2
 330              	.L11:
 331 000c F0510040 		.word	1073762800
 332              		.cfi_endproc
 333              	.LFE3:
 334              		.size	ExtMUXS1_ReadDataReg, .-ExtMUXS1_ReadDataReg
 335              		.text
 336              	.Letext0:
 337              		.file 2 "Generated_Source\\PSoC5\\cytypes.h"