ARM GAS  C:\Users\JEFFSN~1\AppData\Local\Temp\ccg7nfNn.s 			page 1


   1              		.syntax unified
   2              		.cpu cortex-m3
   3              		.fpu softvfp
   4              		.eabi_attribute 20, 1
   5              		.eabi_attribute 21, 1
   6              		.eabi_attribute 23, 3
   7              		.eabi_attribute 24, 1
   8              		.eabi_attribute 25, 1
   9              		.eabi_attribute 26, 1
  10              		.eabi_attribute 30, 2
  11              		.eabi_attribute 34, 1
  12              		.eabi_attribute 18, 4
  13              		.thumb
  14              		.syntax unified
  15              		.file	"ExtMUX_EN.c"
  16              		.text
  17              	.Ltext0:
  18              		.section	.gnu.lto_.profile.47c5628,"",%progbits
  19 0000 789C6361 		.ascii	"x\234ca`d`a`\000\222\222\242\000\000\261\0009"
  19      60646061 
  19      60009292 
  19      A20000B1 
  19      0039
  20              		.text
  21              		.section	.gnu.lto_.icf.47c5628,"",%progbits
  22 0000 789C6361 		.ascii	"x\234ca`d\000\001I\006\004`a8u{\226\035\343\311\255"
  22      60640001 
  22      49060460 
  22      6138757B 
  22      961DE3C9 
  23 0015 6F5FB130 		.ascii	"o_\2610\335\374tw\017\033\363\223\303\253\21713\000"
  23      DDFC7477 
  23      0F1BF393 
  23      C3AB8F31 
  23      3300
  24 0027 00A4D10C 		.ascii	"\000\244\321\014\204"
  24      84
  25              		.text
  26              		.section	.gnu.lto_.jmpfuncs.47c5628,"",%progbits
  27 0000 789C6361 		.ascii	"x\234ca`d\000\001!\006\004`a`dd\254g\004\021L\014\014"
  27      60640001 
  27      21060460 
  27      61606464 
  27      AC670411 
  28 0017 CC401100 		.ascii	"\314@\021\000\016\"\001&"
  28      0E220126 
  29              		.text
  30              		.section	.gnu.lto_.inline.47c5628,"",%progbits
  31 0000 789C6361 		.ascii	"x\234ca`d\000\201$\006\004`a`\340\344`dd\340\000J1s"
  31      60640081 
  31      24060460 
  31      6160E0E4 
  31      606464E0 
  32 0018 1CB06360 		.ascii	"\034\260c`[ \317\304\300\262@\236\005$\013\024g\307"
  32      5B20CFC4 
  32      C0B2409E 
  32      05240B14 
ARM GAS  C:\Users\JEFFSN~1\AppData\Local\Temp\ccg7nfNn.s 			page 2


  32      67C7
  33 002a 9064BAC0 		.ascii	"\220d\272\300\017\226db`ced`b\373\240\007\021\007\002"
  33      0F966462 
  33      60636564 
  33      6062FBA0 
  33      07110702 
  34 003e 664C2106 		.ascii	"fL!\006\000\346\332\011\346"
  34      00E6DA09 
  34      E6
  35              		.text
  36              		.section	.gnu.lto_.pureconst.47c5628,"",%progbits
  37 0000 789C6361 		.ascii	"x\234ca`d\340d```a\220b\224b\222b\226\002\000\002\261"
  37      6064E064 
  37      60606061 
  37      90629462 
  37      92629602 
  38 0017 0081     		.ascii	"\000\201"
  39              		.text
  40              		.section	.gnu.lto_ExtMUX_EN_Write.47c5628,"",%progbits
  41 0000 789C5551 		.ascii	"x\234UQMk\023Q\024\275\347\275\231Ik\252\177\300,\002"
  41      4D6B1351 
  41      14BDE7BD 
  41      99496BAA 
  41      7FC02C02 
  42 0014 524B4544 		.ascii	"RKED\020\375\001JqU\021\213\340\"PB\234EA-\264Sq\327"
  42      10FD014A 
  42      7155118B 
  42      E0225042 
  42      9C45412D 
  43 002c 379D2601 		.ascii	"7\235&\001W\205\322v\245\001kI\375j\255\202\240(\014"
  43      5785D276 
  43      A5016B49 
  43      FD6AAD82 
  43      A0280C
  44 003f B373A320 		.ascii	"\263s\243 Y\210\210J\026#\326\315\010\006\243V\343\275"
  44      5988884A 
  44      1623D6CD 
  44      0806A356 
  44      E3BD
  45 0051 331B7BE1 		.ascii	"3\033{\341}\314\235s\316=\367>\213@\022\207\024\321"
  45      7DCC9D73 
  45      CE3DF73E 
  45      8B401287 
  45      14D1
  46 0063 093EF7F3 		.ascii	"\011>\367\363\202&\250\205WD~\237\002\344b\372@\263"
  46      8226A885 
  46      57447E9F 
  46      02E462FA 
  46      40B3
  47 0075 0AB3E8A8 		.ascii	"\012\263\350\250?\012Q=~\252\206\233\206\343\323\332"
  47      3F0A513D 
  47      7EAA869B 
  47      86E3D3DA 
  48 0085 4D6DD643 		.ascii	"Mm\326CT5QO\245J\204&\206\031\365\371y\275\005}\020"
  48      5435514F 
  48      A54A8426 
  48      8619F5F9 
ARM GAS  C:\Users\JEFFSN~1\AppData\Local\Temp\ccg7nfNn.s 			page 3


  48      79BD057D 
  49 009a C4F75AD4 		.ascii	"\304\367Z\324I\362Ck\306\314\031\363\263dtU\003\353"
  49      49F2436B 
  49      C6CC19F3 
  49      B3647455 
  49      03EB
  50 00ac D0CCC0B1 		.ascii	"\320\314\300\261\002\216\026\210\023\204;\030\022p\367"
  50      028E1688 
  50      13843B18 
  50      1270F7
  51 00bb 5D6B639F 		.ascii	"]kc\237>\234\022\027L|k`pU\210\341\217\313+&\364\213"
  51      3E9C1217 
  51      4C7C6B60 
  51      705588E1 
  51      8FCB2B26 
  52 00d1 C2BDFB3F 		.ascii	"\302\275\373?W\202\241\355\255\277K{\235yqU\304=\014"
  52      5782A1ED 
  52      ADBF4B7B 
  52      9D797155 
  52      C43D0C
  53 00e4 667E701F 		.ascii	"f~p\037\016w\010\311l\236\013M\257\027\230\260cwt\277"
  53      0E7708C9 
  53      6C9E0B4D 
  53      AF1798B0 
  53      637774BF 
  54 00f8 E2A28A3B 		.ascii	"\342\242\212;\345\037\026\244\266-\011G\266\234lD\011"
  54      E51F16A4 
  54      B62D0947 
  54      B69C6C44 
  54      09
  55 0109 2FE9FE9B 		.ascii	"/\351\376\233Rr\352\030\321\257\353\037Vr\242\031h\231"
  55      5272EA18 
  55      D1AFEB1F 
  55      5672A219 
  55      6899
  56 011b C472357A 		.ascii	"\304r5z\235\373\256\252Z\247n\337\006\215n>\373LV}c"
  56      9DFBAEAA 
  56      5AA76EDF 
  56      068D6E3E 
  56      FB4C567D 
  57 0130 716AF1C9 		.ascii	"qj\361\311\322\266\325\300\015\177\236gda\003\005<\000"
  57      D2B6D5C0 
  57      0D7F9E67 
  57      64610305 
  57      3C00
  58 0142 7BC6261A 		.ascii	"{\306&\032\240\030\301N\355=2A\235i~}\323\016S\021\340"
  58      A018C14E 
  58      ED3D3241 
  58      9D697E7D 
  58      D30E5311 
  59 0157 23F090C1 		.ascii	"#\360\220\301m\250\264\015v\312(!%\265\270\331\237\261"
  59      6DA8B40D 
  59      76CA2821 
  59      25B5B8D9 
  59      9FB1
  60 0169 EC404B9D 		.ascii	"\354@K\235\227\267\237\355\014\010\313\206\215-&\245"
  60      97B79FED 
ARM GAS  C:\Users\JEFFSN~1\AppData\Local\Temp\ccg7nfNn.s 			page 4


  60      0C08CB86 
  60      8D2D26A5 
  61 0179 D22D9581 		.ascii	"\322-\225\201\004\307\240\372\027\363\302\022\220\205"
  61      04C7A0FA 
  61      17F3C212 
  61      9085
  62 0187 221E65A0 		.ascii	"\"\036e\240\256\223Ar\251\001\207S\321rjh\227y\337\230"
  62      AE934172 
  62      A9018753 
  62      D1726A68 
  62      9779DF98 
  63 019b FC6EFF8F 		.ascii	"\374n\377\217\331?\263h\033s\341o[\010\351C$\0122+\236"
  63      D93FB368 
  63      1B73E16F 
  63      5B08E943 
  63      240A322B 
  64 01b0 DC81D3EE 		.ascii	"\334\201\323\356\025w\252\354\271\027\307\307&g\246"
  64      1577AAEC 
  64      B917C7C7 
  64      2667A6
  65 01bf 2A6EE9EC 		.ascii	"*n\351\354\330\344\251\343\245\221k\336\350\371\013"
  65      D8E4A9E3 
  65      A5916BDE 
  65      E8F90B
  66 01ce E323678E 		.ascii	"\343#g\216T\310\276Z\2764\343\356\231\366\312\336D\345"
  66      54C8BE5A 
  66      BE34E3EE 
  66      99F6CADE 
  66      44E5
  67 01e0 E48437FD 		.ascii	"\344\2047\375\017\363/\303\346"
  67      0FF32FC3 
  67      E6
  68              		.text
  69              		.section	.gnu.lto_ExtMUX_EN_SetDriveMode.47c5628,"",%progbits
  70 0000 789C7D51 		.ascii	"x\234}QMK\033Q\024\275\347\275\311L\2025\177\240Y\010"
  70      4D4B1B51 
  70      14BDE7BD 
  70      C94C8235 
  70      7FA05908 
  71 0014 82922E8A 		.ascii	"\202\222.\212P\372\013$\272R\244\"\270\210\210\350,"
  71      50FA0B24 
  71      BA52A422 
  71      B88888E8 
  71      2C
  72 0025 DB505170 		.ascii	"\333PQp\347K&\241`7Bi\024J\253\0331~+.\264\2734\320"
  72      E74B26A1 
  72      60374269 
  72      144AAB1B 
  72      317E2B2E 
  73 003d 2ED35D29 		.ascii	".\323]).\244\024\011Rh\211_(\321\230\336;\323EV}\314"
  73      2EA41409 
  73      5268895F 
  73      28D198DE 
  73      3BD34556 
  74 0053 BB1F8773 		.ascii	"\273\037\207s\016\367\276\261\010$\347\224\323#\316"
  74      0EF7BEB1 
  74      0824E794 
ARM GAS  C:\Users\JEFFSN~1\AppData\Local\Temp\ccg7nfNn.s 			page 5


  74      D323CE
  75 0062 0FF94213 		.ascii	"\017\371B\023\324|\231(\035V\200\024&\014\232U\230\305"
  75      D47C9928 
  75      1D568014 
  75      260C9A55 
  75      98C5
  76 0074 95AA2B94 		.ascii	"\225\252+\224^U>\252\370\252\341\363\343\363\237.S("
  76      5E553EAA 
  76      F8AAE1F3 
  76      E3F39F2E 
  76      5328
  77 0086 22A7891A 		.ascii	"\"\247\211\032\312w\"\254\"\316\254\213\375\2257-\272"
  77      CA7722AC 
  77      22CEAC8B 
  77      FD95372D 
  77      BA
  78 0097 03C4F559 		.ascii	"\003\304\365Y\271z\034\355\\1&c\314\302\210\3219\015"
  78      B97A1CED 
  78      5C312663 
  78      CCC288D1 
  78      390D
  79 00a9 14A05981 		.ascii	"\024\240Y\201'1t\305\210\001\302\032:\205\374s\357\376"
  79      273174C5 
  79      8801C21A 
  79      3A85FC73 
  79      EFFE
  80 00bb 6DAB9D15 		.ascii	"m\253\235\025\373\266\300\024\353\260e\314\235gE\323"
  80      FBB6C014 
  80      EBB065CC 
  80      9D6745D3 
  81 00cb 6878A678 		.ascii	"hx\246xm\177\252\331-\212eJs\320\226\204\020\304\301"
  81      6D7FAAD9 
  81      2D8A654A 
  81      73D09684 
  81      10C4C1
  82 00de 96D29110 		.ascii	"\226\322\221\020\226\020\021\016Q\225\257,r\246\224"
  82      9610110E 
  82      5195AF2C 
  82      72A694
  83 00ed 645D41A9 		.ascii	"d]A\2516Wyg\211\263\247e\251|\256\364\325\271T9m\371"
  83      36577967 
  83      89B3A765 
  83      A97CAEF4 
  83      D5B95439 
  84 0103 131F7EF8 		.ascii	"\023\037~\370~\360 h\353\313ic1t\262\350\355[Kx\237"
  84      7EF02068 
  84      EBCB6963 
  84      3174B2E8 
  84      ED5B4B78 
  85 0118 CEF2BA21 		.ascii	"\316\362\272!l\"\206\015\304x\272-,\201*\310\234;\201"
  85      6C22860D 
  85      C478BA2D 
  85      2C812AC8 
  85      9C3B81
  86 012b 9D6647EE 		.ascii	"\235fG\356\275;;\350-\206X\177\364\345u=\"\226\032/"
  86      BD3B3BE8 
  86      2D86587F 
ARM GAS  C:\Users\JEFFSN~1\AppData\Local\Temp\ccg7nfNn.s 			page 6


  86      F4E5753D 
  86      22961A2F 
  87 013f B1CDCA26 		.ascii	"\261\315\312&\011\177\241f\211\303\020K~\177\333\330"
  87      097FA166 
  87      89C3104B 
  87      7E7FDBD8 
  88 014f D481248A 		.ascii	"\324\201$\212\035_\342\335\374\243\204}c\247\331%\302"
  88      1D5FE2DD 
  88      FCA3847D 
  88      63A7D925 
  88      C2
  89 0160 28F7A53C 		.ascii	"(\367\245<\244\377\337\310\273<2\363\351\0272\305\333"
  89      A4FFDFC8 
  89      BB3C32F3 
  89      E91732C5 
  89      DB
  90 0171 1E61FBBF 		.ascii	"\036a\373\277\256\252 \317\303\217\325\336\353\276p"
  90      AEAA20CF 
  90      C38FD5DE 
  90      EBBE70
  91 0180 27C7A6DC 		.ascii	"'\307\246\334\211\321\301\324\364\344\270\233\034\030"
  91      89D1C1D4 
  91      F4E4B89B 
  91      1C18
  92 018e 4C753F4D 		.ascii	"Lu?M&f\246\372\206\206G\023\375\217\307\311z\236\232"
  92      2666A6FA 
  92      86864713 
  92      FD8FC7C9 
  92      7A9E9A
  93 01a1 70FF022B 		.ascii	"p\377\002+\215\246a"
  93      8DA661
  94              		.text
  95              		.section	.gnu.lto_ExtMUX_EN_Read.47c5628,"",%progbits
  96 0000 789C354F 		.ascii	"x\2345O\313K\202A\020\237\337\356\347\203\250\376\201"
  96      CB4B8241 
  96      109FDFEE 
  96      E783A8FE 
  96      81
  97 0011 3C08D1C1 		.ascii	"<\010\321\301K\004\021D\327\260NE$B\007A\302>\272%\210"
  97      4B041144 
  97      D7B04E45 
  97      24420741 
  97      C23EBA25 
  98 0026 4137F7F3 		.ascii	"A7\367\363Q\020\005^*\010\312C\211\366\"\272v2OET\227"
  98      5110055E 
  98      2A08CA43 
  98      89F622BA 
  98      76324F45 
  99 003c 824E1125 		.ascii	"\202N\021%\006\235R\212@,\233\355\253\201\235\331\235"
  99      069D528A 
  99      402C9BED 
  99      AB819DD9 
  99      9D
 100 004d FD3D660C 		.ascii	"\375=f\014\002\351\010r\351\341\332\305\007\222 \262"
 100      02E90872 
 100      E9E1DAC5 
 100      079220B2 
ARM GAS  C:\Users\JEFFSN~1\AppData\Local\Temp\ccg7nfNn.s 			page 7


 101 005d D744965B 		.ascii	"\327D\226[\000\372\242\334\240\204@\002\037\342K\340"
 101      00FAA2DC 
 101      A0844002 
 101      1FE24BE0 
 102 006d F2F37CA5 		.ascii	"\362\363|\245\315WP*\251\036\363\215\301\215b\011\031"
 102      CD57502A 
 102      A91EF38D 
 102      C18D6209 
 102      19
 103 007e 49D41284 		.ascii	"I\324\022\204~\017\372<Z\242\000\0371\364\351\344{\255"
 103      7E0FFA3C 
 103      5AA2001F 
 103      31F4E9E4 
 103      7BAD
 104 0090 C399561C 		.ascii	"\303\231V\034^\015\340\237\"\234\332\362x\262\244Z\255"
 104      5E0DE09F 
 104      229CDAF2 
 104      78B2A45A 
 104      AD
 105 00a1 942ADDB9 		.ascii	"\224*\335\271\316\356].PF\262/'\203\223p\350\344$-K"
 105      CEEE5D2E 
 105      5046B22F 
 105      27839370 
 105      E8E4242D 
 106 00b6 6F4CD343 		.ascii	"oL\323C\324\204\320UVQn,?l\017i\245\224\224\354\262"
 106      D484D055 
 106      56516E2C 
 106      3F6C0F69 
 106      A59494EC 
 107 00cb 9E29DFB8 		.ascii	"\236)\337\270\336EFJh\323\346\352\332\013\354gm\307"
 107      DE45464A 
 107      68D3E6EA 
 107      DA0BEC67 
 107      6DC7
 108 00dd 5206B7F2 		.ascii	"R\006\267\362Yk6\207-+\315\223\032\330\207\007{\340"
 108      596B3687 
 108      2D2BCD93 
 108      1AD88707 
 108      7BE0
 109 00ef 3971801C 		.ascii	"9q\200\034\250\212Ts\204R\022\266Z\355j\363\271S\323"
 109      A88A5473 
 109      845212B6 
 109      5AED6AF3 
 109      B953D3
 110 0102 012F0E19 		.ascii	"\001/\016\031VE\262\276t+m?\203q\232Q_\2548\354\216"
 110      5645B2BE 
 110      742B6D3F 
 110      83719A51 
 110      5FAC38EC 
 111 0117 839B4CBB 		.ascii	"\203\233L\273\330=m\266k\232\200\003G\377\264\012l\220"
 111      D83D6DB6 
 111      6B9A8003 
 111      47FFB40A 
 111      6C90
 112 0129 C6D12BC4 		.ascii	"\306\321+\304\337\213~\367\202\336\207\267\353\0365"
 112      DF8B7EF7 
 112      82DE87B7 
ARM GAS  C:\Users\JEFFSN~1\AppData\Local\Temp\ccg7nfNn.s 			page 8


 112      EB1E35
 113 0138 E7CCD874 		.ascii	"\347\314\330t\334\234\011\007\242\363\261\210\031\232"
 113      DC9C0907 
 113      A2F3B188 
 113      199A
 114 0146 08448707 		.ascii	"\010D\207\007B\376\205\370Xp*\354\037\357\215\320\017"
 114      42FE85F8 
 114      58702AEC 
 114      1FEF8DD0 
 114      0F
 115 0157 38A37C39 		.ascii	"8\243|9"
 116              		.text
 117              		.section	.gnu.lto_ExtMUX_EN_ReadDataReg.47c5628,"",%progbits
 118 0000 789C354F 		.ascii	"x\2345O\275KBQ\024?\277{\337S\261\217\177 \007!\032"
 118      BD4B4251 
 118      143FBF7B 
 118      DF53B18F 
 118      7F200721 
 119 0015 5C228886 		.ascii	"\\\"\210\206Z\243\232\212H\212\006A\302\336\232 \006"
 119      5AA39A8A 
 119      488A0641 
 119      C2DE9A20 
 119      06
 120 0026 6D3E7D5A 		.ascii	"m>}Z\020\015AX\020\204C\205\332\007\321\322\020\004"
 120      100D4158 
 120      10844385 
 120      DA07D1D2 
 120      1004
 121 0038 E654441F 		.ascii	"\346TD\037CCc\22488\251\024E\230vn\257\016\334s\356"
 121      43436394 
 121      3838A914 
 121      4598766E 
 121      AF0EDC73 
 122 004d 3DF7F771 		.ascii	"=\367\367q\216F \0253\\z\270v\361\201$\210\365;\242"
 122      8E462015 
 122      335C7AB8 
 122      76F18124 
 122      88F53BA2 
 123 0061 B84B00EA 		.ascii	"\270K\000\352b\272@1\201\030\336\305\267\300\315\307"
 123      62BA4031 
 123      8118DEC5 
 123      B7C0CDC7 
 124 0071 D59ADB97 		.ascii	"\325\232\333\2275\315\204\371\274\237\035\334\312\025"
 124      35CD84F9 
 124      BC9F1DDC 
 124      CA15
 125 007f 9092442D 		.ascii	"\220\222D-A\350\367\240\317\243$\262\360\021C_N\233"
 125      41E8F7A0 
 125      CFA324B2 
 125      F011435F 
 125      4E9B
 126 0091 E90E47D2 		.ascii	"\351\016G\322\344\360*\000\377\344\340P\226'S\005\263"
 126      E4F02A00 
 126      FFE4E050 
 126      96275305 
 126      B3
 127 00a2 D5B2CCC2 		.ascii	"\325\262\314\302\205\373\362\301\355\004\245$\373r\322"
ARM GAS  C:\Users\JEFFSN~1\AppData\Local\Temp\ccg7nfNn.s 			page 9


 127      85FBF2C1 
 127      ED04A524 
 127      FB72D2
 128 00b1 38095D25 		.ascii	"8\011]%\007)Y\2522M\015Q\023BUYF\361k\265\231\037RJ"
 128      072959AA 
 128      324D0D51 
 128      13425559 
 128      46F16BB5 
 129 00c9 9694ECB2 		.ascii	"\226\224\354\262\231*\336;\337DJJ(\323'+\363\331f?\253"
 129      992ADE3B 
 129      DF444A4A 
 129      28D3272B 
 129      F3D9663F 
 130 00de BB7153E3 		.ascii	"\273qS\343\326\306Y\272\242e\260\023O\362\250\032\016"
 130      D6C659BA 
 130      A265B013 
 130      4FF2A81A 
 130      0E
 131 00ef E0411E3C 		.ascii	"\340A\036<(\016\221\001\225a5F\311\222\260\345j\267"
 131      280E9101 
 131      95613546 
 131      C992B0E5 
 131      6AB7
 132 0101 DBAF9D8A 		.ascii	"\333\257\235\212\017xq\304\2602\022\365\225Gi\033j\214"
 132      0F7871C4 
 132      B03212F5 
 132      9547691B 
 132      6A8C
 133 0113 538CFA72 		.ascii	"S\214\372rI\267;:7\231v\275w\336hW4\001\035\307\377"
 133      49B73B3A 
 133      379976BD 
 133      77DE6857 
 133      34011DC7 
 134 0128 B4126C90 		.ascii	"\264\022l\220\302Q\005\342\357E\277\213A-\304\353u\217"
 134      C25105E2 
 134      EF45BF8B 
 134      412DC4EB 
 134      758F
 135 013a 190B4664 		.ascii	"\031\013Fd.j\314\007\375\341\305H\310\010L\372\303\303"
 135      2E6ACC07 
 135      FDE1C548 
 135      C8084CFA 
 135      C3C3
 136 014c 038191A5 		.ascii	"\003\201\221\245\350\370\364lpd\2427D?\217\377|\236"
 136      E8F8F46C 
 136      7064A237 
 136      443F8FFF 
 136      7C9E
 137              		.text
 138              		.section	.gnu.lto_.symbol_nodes.47c5628,"",%progbits
 139 0000 789C6361 		.ascii	"x\234ca`dpc\000\002&\206z\006\206\011\347\030@\324\256"
 139      60647063 
 139      00022686 
 139      7A068609 
 139      E71840D4 
 140 0015 0645A000 		.ascii	"\006E\240\000c=#\252\000S=\023\252\000s=3\212\000\003"
 140      633D23AA 
ARM GAS  C:\Users\JEFFSN~1\AppData\Local\Temp\ccg7nfNn.s 			page 10


 140      00533D13 
 140      AA00733D 
 140      338A0003 
 141 0029 0026B60F 		.ascii	"\000&\266\017<"
 141      3C
 142              		.text
 143              		.section	.gnu.lto_.refs.47c5628,"",%progbits
 144 0000 789C6361 		.ascii	"x\234ca`\004B \000\000\0009\000\007"
 144      60044220 
 144      00000039 
 144      0007
 145              		.text
 146              		.section	.gnu.lto_.decls.47c5628,"",%progbits
 147 0000 789C8D53 		.ascii	"x\234\215S]H\024Q\024\276gfv\225\361/\244Dh\0376{\221"
 147      5D481451 
 147      14BE6766 
 147      7695F12F 
 147      A444681F 
 148 0017 1E2489C0 		.ascii	"\036$\211\300\207\260@\315'5\024\315\007AV\035\314\027"
 148      87B040CD 
 148      273514CD 
 148      0741561D 
 148      CC17
 149 0029 8D6D8D7C 		.ascii	"\215m\215|\211\253k\240I\244\204\232&\250\005\251\371"
 149      89AB6BA0 
 149      49A4849A 
 149      26A805A9 
 149      F9
 150 003a 5BAEE66E 		.ascii	"[\256\346n\232&i\022Y\212 \204\202\202\011\212\006\212"
 150      9A266912 
 150      598A2084 
 150      8282098A 
 150      068A
 151 004c 52F860DB 		.ascii	"R\370`\333\271wf\234\3156\3500g\346\234{\317\367\235"
 151      B977669C 
 151      CD36E830 
 151      67E69C7B 
 151      CFF79D
 152 005f EF9E9991 		.ascii	"\357\236\231\221\010\020f\361\022!\035\370\264`\352"
 152      081066F1 
 152      12211DF8 
 152      B460EA
 153 006e 4533619C 		.ascii	"E3a\234E\014\303m2\210>\204>\202\356!\177\033\3337k"
 153      450CC36D 
 153      32883E84 
 153      3E82EE21 
 153      7F1BDB37 
 154 0083 B83EC685 		.ascii	"\270>\306\205>\216>\206\236\246\325\200Vw\334\206\374"
 154      3E8E3E86 
 154      9EA6D580 
 154      5677DC86 
 154      FC
 155 0094 60277DF0 		.ascii	"`'}\360:v\310\017\226\3511\371\340\322\374\340F\374"
 155      3A76C80F 
 155      96E931F9 
 155      E0D2FCE0 
 155      46FC
ARM GAS  C:\Users\JEFFSN~1\AppData\Local\Temp\ccg7nfNn.s 			page 11


 156 00a6 E03CFF81 		.ascii	"\340<\377\201\363w\316C\001\274\255\256\207\201K\360"
 156      F377CE43 
 156      01BCADAE 
 156      87814BF0 
 157 00b6 1544A20D 		.ascii	"\025D\242\015\220\000\250w\340NT\347)\006\002Q\003}"
 157      9000A877 
 157      E04E54E7 
 157      29060251 
 157      037D
 158 00c8 E9C88856 		.ascii	"\351\310\210V\"\350\241A\306/\015\017^\3358\211\301"
 158      22E8A141 
 158      C62F0D0F 
 158      5EDD3889 
 158      C1
 159 00d9 0E1A48CD 		.ascii	"\016\032H\315u\335\032\010\004\243\001\250\251\216\360"
 159      75DD1A08 
 159      04A301A8 
 159      A98EF0
 160 00e8 E13BA648 		.ascii	"\341;\246H\327\254\267!\202~h\272\2734%\213\002\260"
 160      D7ACB721 
 160      827E68BA 
 160      BB34258B 
 160      02B0
 161 00fa 78E5A0F3 		.ascii	"x\345\240\363jL\017E\253\245T8gL\246\377\336\267\256"
 161      6A4C0F45 
 161      ABA55438 
 161      674CA6FF 
 161      DEB7AE
 162 010d C07D012C 		.ascii	"\300}\001,2x\201\345\333\356\203\0205g\333Muk\277\202"
 162      327881E5 
 162      DBEE8310 
 162      3567DB4D 
 162      756BBF82 
 163 0121 C4D32C16 		.ascii	"\304\323,\026\026\326\2727%\210\226\2373\232\325G\353"
 163      16D6BA37 
 163      2588969F 
 163      339AD547 
 163      EB
 164 0132 F16E4A4F 		.ascii	"\361nJO@\037\310\320\003\"tA\014\323`\221\361^Ei\005"
 164      401FC8D0 
 164      03227441 
 164      0CD36091 
 164      F15E4569 
 165 0147 DD794ACD 		.ascii	"\335yJ\315\221\004.X\340\274\205@/D3NV\005\335`\201"
 165      91042E58 
 165      E0BC8540 
 165      2F44334E 
 165      5605DD60 
 166 015c 176061FC 		.ascii	"\027`a\374\353\215\255[f\011%s\236<\211\255\315W\016"
 166      EB8DAD5B 
 166      66092573 
 166      9E3C89AD 
 166      CD570E
 167 016f B4882821 		.ascii	"\264\210(!\\\006\011\323\335\331\346\265PLO\312`\305"
 167      5C0609D3 
 167      DDD9E6B5 
 167      504C4FCA 
ARM GAS  C:\Users\JEFFSN~1\AppData\Local\Temp\ccg7nfNn.s 			page 12


 167      60C5
 168 0181 B4C7B3BC 		.ascii	"\264\307\263\274m\216l\340GqR\253\004Y\021\360\022\011"
 168      6D8E6CE0 
 168      477152AB 
 168      045911F0 
 168      1209
 169 0193 079090C0 		.ascii	"\007\220\220\300+\210\304{?H\352\351\252~ldG\265\321"
 169      2B88C47B 
 169      3F48EAE9 
 169      AA7E6C64 
 169      47B5D1
 170 01a6 B601BADA 		.ascii	"\266\001\272\3328}\251\301Ig\020feU\320ih\356d\237\005"
 170      387DA9C1 
 170      49671066 
 170      6555D069 
 170      68EE649F 
 171 01bb 810E58C2 		.ascii	"\201\016X\302\021\016B\024\002W\273z\353B\304B>\003"
 171      110E4214 
 171      0257BB7A 
 171      EB42C442 
 171      3E03
 172 01cd 77C35EB5 		.ascii	"w\303^\265\250\262L\354O\007\323\332rJ\257p\016\227"
 172      A8B24CEC 
 172      4F07D3DA 
 172      724AAF70 
 172      0E97
 173 01df C1E1F2E5 		.ascii	"\301\341\362\345\030\342\034\033\316\317}A\342]\316"
 173      18E21C1B 
 173      CECF7D41 
 173      E25DCE
 174 01ee 315733E5 		.ascii	"1W3\345\014\363U\315\216k\310~\315e\347i\252\333k\312"
 174      0CF355CD 
 174      8E6BC87E 
 174      CD65E769 
 174      AADB6BCA 
 175 0202 BF485AC3 		.ascii	"\277HZ\303\205\017b\023\235\250D\234\300\252`\330h9"
 175      850F6213 
 175      9DA8449C 
 175      C0AA60D8 
 175      6839
 176 0214 ECDB7284 		.ascii	"\354\333r\204\267\234_Y\376\024 >\000\336\363\347\336"
 176      B79C5F59 
 176      FE14203E 
 176      00DEF3E7 
 176      DE
 177 0225 D67BB346 		.ascii	"\326{\263F\343\371\250\353f$n\203\304\355K\342\341$"
 177      E3F9A8EB 
 177      66246E83 
 177      C4ED4BE2 
 177      E124
 178 0237 FB957B8B 		.ascii	"\373\225{\213f\031\337\241\363\377\336\341\354f\273"
 178      6619DFA1 
 178      F3FFDEE1 
 178      EC66BB
 179 0246 37407CC6 		.ascii	"7@|\306\233\012\203\365M\365\001 G\373\201\277\365\003"
 179      9B0A83F5 
 179      4DF50120 
ARM GAS  C:\Users\JEFFSN~1\AppData\Local\Temp\ccg7nfNn.s 			page 13


 179      47FB81BF 
 179      F503
 180 0258 D7BEA5DE 		.ascii	"\327\276\245\336\314\272jv\3021\234\312\250!\356\015"
 180      CCBA6A76 
 180      C2319CCA 
 180      A821EE0D 
 181 0268 C8EA445C 		.ascii	"\310\352D\\s\337\373M\301\367\331g\205\343\013\237\011"
 181      73DFFB4D 
 181      C1F7D967 
 181      85E30B9F 
 181      09
 182 0279 E595C6FC 		.ascii	"\345\225\306\374\306!\230\377\001\370<\024\304\321\305"
 182      C62198FF 
 182      01F83C14 
 182      C4D1C5
 183 0288 272D22EE 		.ascii	"'-\"\356\261Kn\246(\205\316\003L\"\031Ov.\363\230-\323"
 183      B14B6EA6 
 183      2885CE03 
 183      4C22194F 
 183      762EF398 
 184 029e 9D0A6A7E 		.ascii	"\235\012j~\034\252K$|\203\300\004\"\337!1O\303\222\356"
 184      1CAA4B24 
 184      7C83C004 
 184      22DF2131 
 184      4FC392EE 
 185 02b2 385232B3 		.ascii	"8R2\263s\223Rs\257\333\213\034J`rj\2465!6\226\230J\213"
 185      73935273 
 185      AFDB8B1C 
 185      4A60726A 
 185      A6352136 
 186 02ca 8A1D7167 		.ascii	"\212\035qg\222\225b\305ns(\005\271\031%\245\366|%\347"
 186      929562C5 
 186      6E732805 
 186      B91925A5 
 186      F67C25E7 
 187 02de 5A4649C2 		.ascii	"ZFI\302\305\234\3742G\331M\345V\314\015r\366\037\025"
 187      C59CFC32 
 187      47D94DE5 
 187      56CC0D72 
 187      F61F15
 188 02f1 47BC31F9 		.ascii	"G\2741\371$\302h\222\2418\022\355E\267\225\224\222\002"
 188      24C26892 
 188      A13812ED 
 188      45B79594 
 188      9202
 189 0303 25D4584E 		.ascii	"%\324XNWl\005\247\376L\023m\016[\272R(\331\225\302\270"
 189      576C05A7 
 189      FE4C136D 
 189      0E5BBA52 
 189      28D995C2 
 190 0318 DF30BD67 		.ascii	"\3370\275g\211"
 190      89
 191              		.text
 192              		.section	.gnu.lto_.symtab.47c5628,"",%progbits
 193 0000 4578744D 		.ascii	"ExtMUX_EN_Write\000"
 193      55585F45 
 193      4E5F5772 
ARM GAS  C:\Users\JEFFSN~1\AppData\Local\Temp\ccg7nfNn.s 			page 14


 193      69746500 
 194 0010 00       		.ascii	"\000"
 195 0011 00       		.ascii	"\000"
 196 0012 00       		.ascii	"\000"
 197 0013 00000000 		.ascii	"\000\000\000\000\000\000\000\000"
 197      00000000 
 198 001b B3000000 		.ascii	"\263\000\000\000"
 199 001f 4578744D 		.ascii	"ExtMUX_EN_SetDriveMode\000"
 199      55585F45 
 199      4E5F5365 
 199      74447269 
 199      76654D6F 
 200 0036 00       		.ascii	"\000"
 201 0037 00       		.ascii	"\000"
 202 0038 00       		.ascii	"\000"
 203 0039 00000000 		.ascii	"\000\000\000\000\000\000\000\000"
 203      00000000 
 204 0041 B5000000 		.ascii	"\265\000\000\000"
 205 0045 4578744D 		.ascii	"ExtMUX_EN_Read\000"
 205      55585F45 
 205      4E5F5265 
 205      616400
 206 0054 00       		.ascii	"\000"
 207 0055 00       		.ascii	"\000"
 208 0056 00       		.ascii	"\000"
 209 0057 00000000 		.ascii	"\000\000\000\000\000\000\000\000"
 209      00000000 
 210 005f B8000000 		.ascii	"\270\000\000\000"
 211 0063 4578744D 		.ascii	"ExtMUX_EN_ReadDataReg\000"
 211      55585F45 
 211      4E5F5265 
 211      61644461 
 211      74615265 
 212 0079 00       		.ascii	"\000"
 213 007a 00       		.ascii	"\000"
 214 007b 00       		.ascii	"\000"
 215 007c 00000000 		.ascii	"\000\000\000\000\000\000\000\000"
 215      00000000 
 216 0084 BA000000 		.ascii	"\272\000\000\000"
 217              		.text
 218              		.section	.gnu.lto_.opts,"",%progbits
 219 0000 272D666D 		.ascii	"'-fmath-errno' '-fsigned-zeros' '-ftrapping-math' '"
 219      6174682D 
 219      6572726E 
 219      6F272027 
 219      2D667369 
 220 0033 2D666E6F 		.ascii	"-fno-trapv' '-fno-openmp' '-fno-openacc' '-mcpu=cor"
 220      2D747261 
 220      70762720 
 220      272D666E 
 220      6F2D6F70 
 221 0066 7465782D 		.ascii	"tex-m3' '-mthumb' '-g' '-O3' '-ffunction-sections' "
 221      6D332720 
 221      272D6D74 
 221      68756D62 
 221      2720272D 
 222 0099 272D6666 		.ascii	"'-ffat-lto-objects' '-finline-functions' '-flto'\000"
ARM GAS  C:\Users\JEFFSN~1\AppData\Local\Temp\ccg7nfNn.s 			page 15


 222      61742D6C 
 222      746F2D6F 
 222      626A6563 
 222      74732720 
 223              		.text
 224              		.cfi_sections	.debug_frame
 225              		.section	.text.ExtMUX_EN_Write,"ax",%progbits
 226              		.align	2
 227              		.global	ExtMUX_EN_Write
 228              		.thumb
 229              		.thumb_func
 230              		.type	ExtMUX_EN_Write, %function
 231              	ExtMUX_EN_Write:
 232              	.LFB0:
 233              		.file 1 "Generated_Source\\PSoC5\\ExtMUX_EN.c"
   1:Generated_Source\PSoC5/ExtMUX_EN.c **** /*******************************************************************************
   2:Generated_Source\PSoC5/ExtMUX_EN.c **** * File Name: ExtMUX_EN.c  
   3:Generated_Source\PSoC5/ExtMUX_EN.c **** * Version 2.20
   4:Generated_Source\PSoC5/ExtMUX_EN.c **** *
   5:Generated_Source\PSoC5/ExtMUX_EN.c **** * Description:
   6:Generated_Source\PSoC5/ExtMUX_EN.c **** *  This file contains API to enable firmware control of a Pins component.
   7:Generated_Source\PSoC5/ExtMUX_EN.c **** *
   8:Generated_Source\PSoC5/ExtMUX_EN.c **** * Note:
   9:Generated_Source\PSoC5/ExtMUX_EN.c **** *
  10:Generated_Source\PSoC5/ExtMUX_EN.c **** ********************************************************************************
  11:Generated_Source\PSoC5/ExtMUX_EN.c **** * Copyright 2008-2015, Cypress Semiconductor Corporation.  All rights reserved.
  12:Generated_Source\PSoC5/ExtMUX_EN.c **** * You may use this file only in accordance with the license, terms, conditions, 
  13:Generated_Source\PSoC5/ExtMUX_EN.c **** * disclaimers, and limitations in the end user license agreement accompanying 
  14:Generated_Source\PSoC5/ExtMUX_EN.c **** * the software package with which this file was provided.
  15:Generated_Source\PSoC5/ExtMUX_EN.c **** *******************************************************************************/
  16:Generated_Source\PSoC5/ExtMUX_EN.c **** 
  17:Generated_Source\PSoC5/ExtMUX_EN.c **** #include "cytypes.h"
  18:Generated_Source\PSoC5/ExtMUX_EN.c **** #include "ExtMUX_EN.h"
  19:Generated_Source\PSoC5/ExtMUX_EN.c **** 
  20:Generated_Source\PSoC5/ExtMUX_EN.c **** /* APIs are not generated for P15[7:6] on PSoC 5 */
  21:Generated_Source\PSoC5/ExtMUX_EN.c **** #if !(CY_PSOC5A &&\
  22:Generated_Source\PSoC5/ExtMUX_EN.c **** 	 ExtMUX_EN__PORT == 15 && ((ExtMUX_EN__MASK & 0xC0) != 0))
  23:Generated_Source\PSoC5/ExtMUX_EN.c **** 
  24:Generated_Source\PSoC5/ExtMUX_EN.c **** 
  25:Generated_Source\PSoC5/ExtMUX_EN.c **** /*******************************************************************************
  26:Generated_Source\PSoC5/ExtMUX_EN.c **** * Function Name: ExtMUX_EN_Write
  27:Generated_Source\PSoC5/ExtMUX_EN.c **** ****************************************************************************//**
  28:Generated_Source\PSoC5/ExtMUX_EN.c **** *
  29:Generated_Source\PSoC5/ExtMUX_EN.c **** * \brief Writes the value to the physical port (data output register), masking
  30:Generated_Source\PSoC5/ExtMUX_EN.c **** *  and shifting the bits appropriately. 
  31:Generated_Source\PSoC5/ExtMUX_EN.c **** *
  32:Generated_Source\PSoC5/ExtMUX_EN.c **** * The data output register controls the signal applied to the physical pin in 
  33:Generated_Source\PSoC5/ExtMUX_EN.c **** * conjunction with the drive mode parameter. This function avoids changing 
  34:Generated_Source\PSoC5/ExtMUX_EN.c **** * other bits in the port by using the appropriate method (read-modify-write or
  35:Generated_Source\PSoC5/ExtMUX_EN.c **** * bit banding).
  36:Generated_Source\PSoC5/ExtMUX_EN.c **** *
  37:Generated_Source\PSoC5/ExtMUX_EN.c **** * <b>Note</b> This function should not be used on a hardware digital output pin 
  38:Generated_Source\PSoC5/ExtMUX_EN.c **** * as it is driven by the hardware signal attached to it.
  39:Generated_Source\PSoC5/ExtMUX_EN.c **** *
  40:Generated_Source\PSoC5/ExtMUX_EN.c **** * \param value
  41:Generated_Source\PSoC5/ExtMUX_EN.c **** *  Value to write to the component instance.
  42:Generated_Source\PSoC5/ExtMUX_EN.c **** *
ARM GAS  C:\Users\JEFFSN~1\AppData\Local\Temp\ccg7nfNn.s 			page 16


  43:Generated_Source\PSoC5/ExtMUX_EN.c **** * \return 
  44:Generated_Source\PSoC5/ExtMUX_EN.c **** *  None 
  45:Generated_Source\PSoC5/ExtMUX_EN.c **** *
  46:Generated_Source\PSoC5/ExtMUX_EN.c **** * \sideeffect
  47:Generated_Source\PSoC5/ExtMUX_EN.c **** *  If you use read-modify-write operations that are not atomic; the Interrupt 
  48:Generated_Source\PSoC5/ExtMUX_EN.c **** *  Service Routines (ISR) can cause corruption of this function. An ISR that 
  49:Generated_Source\PSoC5/ExtMUX_EN.c **** *  interrupts this function and performs writes to the Pins component data 
  50:Generated_Source\PSoC5/ExtMUX_EN.c **** *  register can cause corrupted port data. To avoid this issue, you should 
  51:Generated_Source\PSoC5/ExtMUX_EN.c **** *  either use the Per-Pin APIs (primary method) or disable interrupts around 
  52:Generated_Source\PSoC5/ExtMUX_EN.c **** *  this function.
  53:Generated_Source\PSoC5/ExtMUX_EN.c **** *
  54:Generated_Source\PSoC5/ExtMUX_EN.c **** * \funcusage
  55:Generated_Source\PSoC5/ExtMUX_EN.c **** *  \snippet ExtMUX_EN_SUT.c usage_ExtMUX_EN_Write
  56:Generated_Source\PSoC5/ExtMUX_EN.c **** *******************************************************************************/
  57:Generated_Source\PSoC5/ExtMUX_EN.c **** void ExtMUX_EN_Write(uint8 value)
  58:Generated_Source\PSoC5/ExtMUX_EN.c **** {
 234              		.loc 1 58 0
 235              		.cfi_startproc
 236              		@ args = 0, pretend = 0, frame = 0
 237              		@ frame_needed = 0, uses_anonymous_args = 0
 238              		@ link register save eliminated.
 239              	.LVL0:
  59:Generated_Source\PSoC5/ExtMUX_EN.c ****     uint8 staticBits = (ExtMUX_EN_DR & (uint8)(~ExtMUX_EN_MASK));
 240              		.loc 1 59 0
 241 0000 044A     		ldr	r2, .L2
  60:Generated_Source\PSoC5/ExtMUX_EN.c ****     ExtMUX_EN_DR = staticBits | ((uint8)(value << ExtMUX_EN_SHIFT) & ExtMUX_EN_MASK);
 242              		.loc 1 60 0
 243 0002 4001     		lsls	r0, r0, #5
 244              	.LVL1:
  59:Generated_Source\PSoC5/ExtMUX_EN.c ****     uint8 staticBits = (ExtMUX_EN_DR & (uint8)(~ExtMUX_EN_MASK));
 245              		.loc 1 59 0
 246 0004 1378     		ldrb	r3, [r2]	@ zero_extendqisi2
 247              	.LVL2:
 248              		.loc 1 60 0
 249 0006 00F02000 		and	r0, r0, #32
 250 000a 03F0DF03 		and	r3, r3, #223
 251              	.LVL3:
 252 000e 1843     		orrs	r0, r0, r3
 253 0010 1070     		strb	r0, [r2]
 254 0012 7047     		bx	lr
 255              	.L3:
 256              		.align	2
 257              	.L2:
 258 0014 F0510040 		.word	1073762800
 259              		.cfi_endproc
 260              	.LFE0:
 261              		.size	ExtMUX_EN_Write, .-ExtMUX_EN_Write
 262              		.section	.text.ExtMUX_EN_SetDriveMode,"ax",%progbits
 263              		.align	2
 264              		.global	ExtMUX_EN_SetDriveMode
 265              		.thumb
 266              		.thumb_func
 267              		.type	ExtMUX_EN_SetDriveMode, %function
 268              	ExtMUX_EN_SetDriveMode:
 269              	.LFB1:
  61:Generated_Source\PSoC5/ExtMUX_EN.c **** }
  62:Generated_Source\PSoC5/ExtMUX_EN.c **** 
ARM GAS  C:\Users\JEFFSN~1\AppData\Local\Temp\ccg7nfNn.s 			page 17


  63:Generated_Source\PSoC5/ExtMUX_EN.c **** 
  64:Generated_Source\PSoC5/ExtMUX_EN.c **** /*******************************************************************************
  65:Generated_Source\PSoC5/ExtMUX_EN.c **** * Function Name: ExtMUX_EN_SetDriveMode
  66:Generated_Source\PSoC5/ExtMUX_EN.c **** ****************************************************************************//**
  67:Generated_Source\PSoC5/ExtMUX_EN.c **** *
  68:Generated_Source\PSoC5/ExtMUX_EN.c **** * \brief Sets the drive mode for each of the Pins component's pins.
  69:Generated_Source\PSoC5/ExtMUX_EN.c **** * 
  70:Generated_Source\PSoC5/ExtMUX_EN.c **** * <b>Note</b> This affects all pins in the Pins component instance. Use the
  71:Generated_Source\PSoC5/ExtMUX_EN.c **** * Per-Pin APIs if you wish to control individual pin's drive modes.
  72:Generated_Source\PSoC5/ExtMUX_EN.c **** *
  73:Generated_Source\PSoC5/ExtMUX_EN.c **** * \param mode
  74:Generated_Source\PSoC5/ExtMUX_EN.c **** *  Mode for the selected signals. Valid options are documented in 
  75:Generated_Source\PSoC5/ExtMUX_EN.c **** *  \ref driveMode.
  76:Generated_Source\PSoC5/ExtMUX_EN.c **** *
  77:Generated_Source\PSoC5/ExtMUX_EN.c **** * \return
  78:Generated_Source\PSoC5/ExtMUX_EN.c **** *  None
  79:Generated_Source\PSoC5/ExtMUX_EN.c **** *
  80:Generated_Source\PSoC5/ExtMUX_EN.c **** * \sideeffect
  81:Generated_Source\PSoC5/ExtMUX_EN.c **** *  If you use read-modify-write operations that are not atomic, the ISR can
  82:Generated_Source\PSoC5/ExtMUX_EN.c **** *  cause corruption of this function. An ISR that interrupts this function 
  83:Generated_Source\PSoC5/ExtMUX_EN.c **** *  and performs writes to the Pins component Drive Mode registers can cause 
  84:Generated_Source\PSoC5/ExtMUX_EN.c **** *  corrupted port data. To avoid this issue, you should either use the Per-Pin
  85:Generated_Source\PSoC5/ExtMUX_EN.c **** *  APIs (primary method) or disable interrupts around this function.
  86:Generated_Source\PSoC5/ExtMUX_EN.c **** *
  87:Generated_Source\PSoC5/ExtMUX_EN.c **** * \funcusage
  88:Generated_Source\PSoC5/ExtMUX_EN.c **** *  \snippet ExtMUX_EN_SUT.c usage_ExtMUX_EN_SetDriveMode
  89:Generated_Source\PSoC5/ExtMUX_EN.c **** *******************************************************************************/
  90:Generated_Source\PSoC5/ExtMUX_EN.c **** void ExtMUX_EN_SetDriveMode(uint8 mode)
  91:Generated_Source\PSoC5/ExtMUX_EN.c **** {
 270              		.loc 1 91 0
 271              		.cfi_startproc
 272              		@ args = 0, pretend = 0, frame = 0
 273              		@ frame_needed = 0, uses_anonymous_args = 0
 274              		@ link register save eliminated.
 275              	.LVL4:
  92:Generated_Source\PSoC5/ExtMUX_EN.c **** 	CyPins_SetPinDriveMode(ExtMUX_EN_0, mode);
 276              		.loc 1 92 0
 277 0000 044A     		ldr	r2, .L5
 278 0002 00F00E00 		and	r0, r0, #14
 279              	.LVL5:
 280 0006 1378     		ldrb	r3, [r2]	@ zero_extendqisi2
 281 0008 03F0F103 		and	r3, r3, #241
 282 000c 1843     		orrs	r0, r0, r3
 283 000e 1070     		strb	r0, [r2]
 284 0010 7047     		bx	lr
 285              	.L6:
 286 0012 00BF     		.align	2
 287              	.L5:
 288 0014 7D500040 		.word	1073762429
 289              		.cfi_endproc
 290              	.LFE1:
 291              		.size	ExtMUX_EN_SetDriveMode, .-ExtMUX_EN_SetDriveMode
 292              		.section	.text.ExtMUX_EN_Read,"ax",%progbits
 293              		.align	2
 294              		.global	ExtMUX_EN_Read
 295              		.thumb
 296              		.thumb_func
ARM GAS  C:\Users\JEFFSN~1\AppData\Local\Temp\ccg7nfNn.s 			page 18


 297              		.type	ExtMUX_EN_Read, %function
 298              	ExtMUX_EN_Read:
 299              	.LFB2:
  93:Generated_Source\PSoC5/ExtMUX_EN.c **** }
  94:Generated_Source\PSoC5/ExtMUX_EN.c **** 
  95:Generated_Source\PSoC5/ExtMUX_EN.c **** 
  96:Generated_Source\PSoC5/ExtMUX_EN.c **** /*******************************************************************************
  97:Generated_Source\PSoC5/ExtMUX_EN.c **** * Function Name: ExtMUX_EN_Read
  98:Generated_Source\PSoC5/ExtMUX_EN.c **** ****************************************************************************//**
  99:Generated_Source\PSoC5/ExtMUX_EN.c **** *
 100:Generated_Source\PSoC5/ExtMUX_EN.c **** * \brief Reads the associated physical port (pin status register) and masks 
 101:Generated_Source\PSoC5/ExtMUX_EN.c **** *  the required bits according to the width and bit position of the component
 102:Generated_Source\PSoC5/ExtMUX_EN.c **** *  instance. 
 103:Generated_Source\PSoC5/ExtMUX_EN.c **** *
 104:Generated_Source\PSoC5/ExtMUX_EN.c **** * The pin's status register returns the current logic level present on the 
 105:Generated_Source\PSoC5/ExtMUX_EN.c **** * physical pin.
 106:Generated_Source\PSoC5/ExtMUX_EN.c **** *
 107:Generated_Source\PSoC5/ExtMUX_EN.c **** * \return 
 108:Generated_Source\PSoC5/ExtMUX_EN.c **** *  The current value for the pins in the component as a right justified number.
 109:Generated_Source\PSoC5/ExtMUX_EN.c **** *
 110:Generated_Source\PSoC5/ExtMUX_EN.c **** * \funcusage
 111:Generated_Source\PSoC5/ExtMUX_EN.c **** *  \snippet ExtMUX_EN_SUT.c usage_ExtMUX_EN_Read  
 112:Generated_Source\PSoC5/ExtMUX_EN.c **** *******************************************************************************/
 113:Generated_Source\PSoC5/ExtMUX_EN.c **** uint8 ExtMUX_EN_Read(void)
 114:Generated_Source\PSoC5/ExtMUX_EN.c **** {
 300              		.loc 1 114 0
 301              		.cfi_startproc
 302              		@ args = 0, pretend = 0, frame = 0
 303              		@ frame_needed = 0, uses_anonymous_args = 0
 304              		@ link register save eliminated.
 115:Generated_Source\PSoC5/ExtMUX_EN.c ****     return (ExtMUX_EN_PS & ExtMUX_EN_MASK) >> ExtMUX_EN_SHIFT;
 305              		.loc 1 115 0
 306 0000 024B     		ldr	r3, .L8
 307 0002 1878     		ldrb	r0, [r3]	@ zero_extendqisi2
 116:Generated_Source\PSoC5/ExtMUX_EN.c **** }
 308              		.loc 1 116 0
 309 0004 C0F34010 		ubfx	r0, r0, #5, #1
 310 0008 7047     		bx	lr
 311              	.L9:
 312 000a 00BF     		.align	2
 313              	.L8:
 314 000c F1510040 		.word	1073762801
 315              		.cfi_endproc
 316              	.LFE2:
 317              		.size	ExtMUX_EN_Read, .-ExtMUX_EN_Read
 318              		.section	.text.ExtMUX_EN_ReadDataReg,"ax",%progbits
 319              		.align	2
 320              		.global	ExtMUX_EN_ReadDataReg
 321              		.thumb
 322              		.thumb_func
 323              		.type	ExtMUX_EN_ReadDataReg, %function
 324              	ExtMUX_EN_ReadDataReg:
 325              	.LFB3:
 117:Generated_Source\PSoC5/ExtMUX_EN.c **** 
 118:Generated_Source\PSoC5/ExtMUX_EN.c **** 
 119:Generated_Source\PSoC5/ExtMUX_EN.c **** /*******************************************************************************
 120:Generated_Source\PSoC5/ExtMUX_EN.c **** * Function Name: ExtMUX_EN_ReadDataReg
ARM GAS  C:\Users\JEFFSN~1\AppData\Local\Temp\ccg7nfNn.s 			page 19


 121:Generated_Source\PSoC5/ExtMUX_EN.c **** ****************************************************************************//**
 122:Generated_Source\PSoC5/ExtMUX_EN.c **** *
 123:Generated_Source\PSoC5/ExtMUX_EN.c **** * \brief Reads the associated physical port's data output register and masks 
 124:Generated_Source\PSoC5/ExtMUX_EN.c **** *  the correct bits according to the width and bit position of the component 
 125:Generated_Source\PSoC5/ExtMUX_EN.c **** *  instance. 
 126:Generated_Source\PSoC5/ExtMUX_EN.c **** *
 127:Generated_Source\PSoC5/ExtMUX_EN.c **** * The data output register controls the signal applied to the physical pin in 
 128:Generated_Source\PSoC5/ExtMUX_EN.c **** * conjunction with the drive mode parameter. This is not the same as the 
 129:Generated_Source\PSoC5/ExtMUX_EN.c **** * preferred ExtMUX_EN_Read() API because the 
 130:Generated_Source\PSoC5/ExtMUX_EN.c **** * ExtMUX_EN_ReadDataReg() reads the data register instead of the status 
 131:Generated_Source\PSoC5/ExtMUX_EN.c **** * register. For output pins this is a useful function to determine the value 
 132:Generated_Source\PSoC5/ExtMUX_EN.c **** * just written to the pin.
 133:Generated_Source\PSoC5/ExtMUX_EN.c **** *
 134:Generated_Source\PSoC5/ExtMUX_EN.c **** * \return 
 135:Generated_Source\PSoC5/ExtMUX_EN.c **** *  The current value of the data register masked and shifted into a right 
 136:Generated_Source\PSoC5/ExtMUX_EN.c **** *  justified number for the component instance.
 137:Generated_Source\PSoC5/ExtMUX_EN.c **** *
 138:Generated_Source\PSoC5/ExtMUX_EN.c **** * \funcusage
 139:Generated_Source\PSoC5/ExtMUX_EN.c **** *  \snippet ExtMUX_EN_SUT.c usage_ExtMUX_EN_ReadDataReg 
 140:Generated_Source\PSoC5/ExtMUX_EN.c **** *******************************************************************************/
 141:Generated_Source\PSoC5/ExtMUX_EN.c **** uint8 ExtMUX_EN_ReadDataReg(void)
 142:Generated_Source\PSoC5/ExtMUX_EN.c **** {
 326              		.loc 1 142 0
 327              		.cfi_startproc
 328              		@ args = 0, pretend = 0, frame = 0
 329              		@ frame_needed = 0, uses_anonymous_args = 0
 330              		@ link register save eliminated.
 143:Generated_Source\PSoC5/ExtMUX_EN.c ****     return (ExtMUX_EN_DR & ExtMUX_EN_MASK) >> ExtMUX_EN_SHIFT;
 331              		.loc 1 143 0
 332 0000 024B     		ldr	r3, .L11
 333 0002 1878     		ldrb	r0, [r3]	@ zero_extendqisi2
 144:Generated_Source\PSoC5/ExtMUX_EN.c **** }
 334              		.loc 1 144 0
 335 0004 C0F34010 		ubfx	r0, r0, #5, #1
 336 0008 7047     		bx	lr
 337              	.L12:
 338 000a 00BF     		.align	2
 339              	.L11:
 340 000c F0510040 		.word	1073762800
 341              		.cfi_endproc
 342              	.LFE3:
 343              		.size	ExtMUX_EN_ReadDataReg, .-ExtMUX_EN_ReadDataReg
 344              		.text
 345              	.Letext0:
 346              		.file 2 "Generated_Source\\PSoC5\\cytypes.h"