ARM GAS  C:\Users\JEFFSN~1\AppData\Local\Temp\cccBc41U.s 			page 1


   1              		.syntax unified
   2              		.cpu cortex-m3
   3              		.fpu softvfp
   4              		.eabi_attribute 20, 1
   5              		.eabi_attribute 21, 1
   6              		.eabi_attribute 23, 3
   7              		.eabi_attribute 24, 1
   8              		.eabi_attribute 25, 1
   9              		.eabi_attribute 26, 1
  10              		.eabi_attribute 30, 1
  11              		.eabi_attribute 34, 1
  12              		.eabi_attribute 18, 4
  13              		.thumb
  14              		.syntax unified
  15              		.file	"ExtMUXS0.c"
  16              		.text
  17              	.Ltext0:
  18              		.section	.gnu.lto_.profile.cdd0a396,"",%progbits
  19 0000 789C6361 		.ascii	"x\234ca`d`a`\000\222bB\000\000\250\0003"
  19      60646061 
  19      60009262 
  19      420000A8 
  19      0033
  20              		.text
  21              		.section	.gnu.lto_.inline.cdd0a396,"",%progbits
  22 0000 789C6361 		.ascii	"x\234ca`d\000\001?\006\004`a`\340`gd`\342\232\340\307"
  22      60640001 
  22      3F060460 
  22      6160E060 
  22      676460E2 
  23 0017 C0B6409E 		.ascii	"\300\266@\236\011$\306\210)\304\304\300\312\002\024"
  23      0924C688 
  23      29C4C4C0 
  23      CA0214
  24 0026 6259200F 		.ascii	"bY \017\027b\306\024b\000\000(2\007\014"
  24      1762C614 
  24      62000028 
  24      32070C
  25              		.text
  26              		.section	.gnu.lto_.jmpfuncs.cdd0a396,"",%progbits
  27 0000 789C6361 		.ascii	"x\234ca`d\000\001>\006\004`\001b\240(\023\003\0033\220"
  27      60640001 
  27      3E060460 
  27      0162A028 
  27      13030333 
  28 0015 05000292 		.ascii	"\005\000\002\222\000\036"
  28      001E
  29              		.text
  30              		.section	.gnu.lto_.pureconst.cdd0a396,"",%progbits
  31 0000 789C6361 		.ascii	"x\234ca`d\340d```a\220b\224b\222b\226\002\000\002\261"
  31      6064E064 
  31      60606061 
  31      90629462 
  31      92629602 
  32 0017 0081     		.ascii	"\000\201"
  33              		.text
  34              		.section	.gnu.lto_ExtMUXS0_Write.cdd0a396,"",%progbits
ARM GAS  C:\Users\JEFFSN~1\AppData\Local\Temp\cccBc41U.s 			page 2


  35 0000 789C5550 		.ascii	"x\234UP\317KTQ\024>\337\275\357\215\203\223\375\003"
  35      CF4B5451 
  35      143EDFBD 
  35      EF8D8393 
  35      FD03
  36 0012 CD428241 		.ascii	"\315B\202AD\020!\374\007\222h\025DC\320b \206\351-\004"
  36      441021FC 
  36      07926815 
  36      4443D062 
  36      2086E92D 
  37 0027 4DD067B4 		.ascii	"M\320g\264\363>\237\343@m\204\322Y\325@\"\332/m\002"
  37      F33E9FE3 
  37      406D84D2 
  37      59D54022 
  37      DA2F6D02 
  38 003b 83A0C5E3 		.ascii	"\203\240\305\343\255E7\022\241\021\341\342\005\256&"
  38      AD453712 
  38      A111E1E2 
  38      05AE26
  39 004a 7070E887 		.ascii	"pp\350\207\3239\357n\362\300\375u\356\367}\347;\307"
  39      D339EF6E 
  39      F2C0FD75 
  39      EEF77DE7 
  39      3BC7
  40 005c 21501A8A 		.ascii	"!P\032\212h\224\217K\274\240\011ji\227(\310*@.&\013"
  40      68948F4B 
  40      BCA0096A 
  40      699728C8 
  40      2A402E26 
  41 0071 9A539843 		.ascii	"\232S\230C[\375U\210k\311G5\270n8\276\257=\327f#BU\023"
  41      5BFD5588 
  41      6BC94735 
  41      B86E38BE 
  41      AF3DD766 
  42 0089 759555C2 		.ascii	"u\225U\302:\006\031\365\343Sm\037\272\000\342\373b\334"
  42      3A0619F5 
  42      E3536D1F 
  42      BA00E2FB 
  42      62DC
  43 009b 6EE506D6 		.ascii	"n\345\006\326\214\2317\346\264dtU\003\033\320\314\300"
  43      8C9937E6 
  43      B4647455 
  43      031BD0CC 
  43      C0
  44 00ac 953C46F2 		.ascii	"\225<F\362\304\011\302K\014\010\270s\260\277yQ\017\245"
  44      C409C24B 
  44      0C08B873 
  44      B0BF7951 
  44      0FA5
  45 00be C42593BC 		.ascii	"\304%\223\274\270PX\025bt:Y7Q\320/\334W\377s%\030z\324"
  45      B8505815 
  45      62743A59 
  45      3751D02F 
  45      DC57FF73 
  46 00d6 3C5BEECB 		.ascii	"<[\356\313,\210\253~\274F\301\372\301\033d\270CHf\353"
  46      2C88AB7E 
  46      BC46C1FA 
ARM GAS  C:\Users\JEFFSN~1\AppData\Local\Temp\cccBc41U.s 			page 3


  46      C11B64B8 
  46      434866EB 
  47 00ea 5664BADD 		.ascii	"Vd\272\335\320Dm\267\255\263\212\213*\356\224?\034H"
  47      D0446DB7 
  47      ADB38A8B 
  47      2AEE943F 
  47      1C48
  48 00fc 6D571219 		.ascii	"mW\022\031\331\210Z\274\244\361\237J\311\251\023\304"
  48      D9885ABC 
  48      A4F19F4A 
  48      C9A913C4 
  49 010c BF1E7DAB 		.ascii	"\277\036}\253\367\210\\\250e\010+\325x\257\347DU\265"
  49      F7885CA8 
  49      65082BD5 
  49      78AFE744 
  49      55B5
  50 011e 4E8D7E09 		.ascii	"N\215~\011\033\235\234}\266V\003\343p\352\311\207\345"
  50      1B9D9C7D 
  50      B65603E3 
  50      70EAC987 
  50      E5
  51 012f 63A78167 		.ascii	"c\247\201g\301\002\217\307\301&\362x\013\266\213-4@"
  51      C1028FC7 
  51      C126F278 
  51      0BB68B2D 
  51      3440
  52 0141 09C23F8B 		.ascii	"\011\302?\213_a\005\265\325<|\374\371i\237\210\000g"
  52      5F6105B5 
  52      D53C7CFC 
  52      F9699F88 
  52      0067
  53 0153 C03B061F 		.ascii	"\300;\006\037A\245\035\260IFYRRw-\313\015\265\324\331"
  53      41A51DB0 
  53      49465952 
  53      52772DCB 
  53      0DB5D4D9 
  54 0167 AEED347B 		.ascii	"\256\3554{\205\305m\240\311$Fu2\026b\265]N\305+i\255"
  54      85C56DA0 
  54      C9244675 
  54      321662B5 
  54      5D4EC52B 
  55 017d 73BE0263 		.ascii	"s\276\002cr\347\255\275gk\314\242c\314G\277\3232\351"
  55      72E7ADBD 
  55      676BCCA2 
  55      63CC47BF 
  55      D332E9
  56 0190 785B0A32 		.ascii	"x[\0122\006\036\312\345\353\336}o\272\354{\367\356\026"
  56      061ECAE5 
  56      EBDE7D6F 
  56      BAEC7BF7 
  56      EE16
  57 01a2 A766A72B 		.ascii	"\247f\247+^\351fqjl\264t\355\241\177\343\366\235\342"
  57      5EE96671 
  57      6A6CB474 
  57      EDA17FE3 
  57      F69DE2
  58 01b5 C87085DC 		.ascii	"\310p\205\334\007\345\211Y\257w\306/\373\343\225\253"
ARM GAS  C:\Users\JEFFSN~1\AppData\Local\Temp\cccBc41U.s 			page 4


  58      07E58959 
  58      AF77C62F 
  58      FBE395AB 
  59 01c5 E3FECC3F 		.ascii	"\343\376\314?\001\025\266\031"
  59      0115B619 
  60              		.text
  61              		.section	.gnu.lto_ExtMUXS0_SetDriveMode.cdd0a396,"",%progbits
  62 0000 789C7D51 		.ascii	"x\234}Q=K#Q\024\275\347\275\311L\202\253\177\300\024"
  62      3D4B2351 
  62      14BDE7BD 
  62      C94C82AB 
  62      7FC014
  63 0013 CB82489A 		.ascii	"\313\202H\232% \373\013D\255\0041\010[\270\210\350\224"
  63      2520FB0B 
  63      44AD0431 
  63      085BB888 
  63      E894
  64 0025 1A5614EC 		.ascii	"\032V\024\354\362\2228\010\332,HlD\264\221\370\375\201"
  64      F2923808 
  64      DA2C486C 
  64      44B491F8 
  64      FD81
  65 0037 955D0C68 		.ascii	"\225]\014h\031;\213-DV\210\260\260\022\315.\206\370"
  65      193B8B2D 
  65      445688B0 
  65      B012CD2E 
  65      86F8
  66 0049 11EF9DB1 		.ascii	"\021\357\235\261H\265\217y\367\343p\316\341\3367\026"
  66      48B58F79 
  66      F7E370CE 
  66      E1DE3716 
  67 0059 81E4DC72 		.ascii	"\201\344\334r\212qn\347\013MP?JD\351\260\002\2440aP"
  67      8A716EE7 
  67      0B4D503F 
  67      4A44E9B0 
  67      02A43061 
  68 006e 4A21857F 		.ascii	"J!\205\177\352E\2418_>Q\261\274\341s}v\0277\233\005"
  68      EA45A138 
  68      5F3E51B1 
  68      BCE1737D 
  68      7617379B 
  69 0083 789AA8A1 		.ascii	"x\232\250\241|'B\0361fU\2177\226Zt\007\210\353\373R"
  69      7C27421E 
  69      3166558F 
  69      37965A74 
  69      0788EBFB 
  70 0098 E5AAAD73 		.ascii	"\345\252\255s\303\230\2141\271oF{\032\330\204f\005\272"
  70      C3988C31 
  70      B96F467B 
  70      1AD88466 
  70      05BA
  71 00aa A2884789 		.ascii	"\242\210G\211\001\302\026:\205\374\353\3505\327j\317"
  71      01C2163A 
  71      85FCEBE8 
  71      35D76ACF 
  72 00ba 89FDC7C0 		.ascii	"\211\375\307\300\024\333\260e\314\203\301\202i4\262"
  72      14DBB065 
ARM GAS  C:\Users\JEFFSN~1\AppData\Local\Temp\cccBc41U.s 			page 5


  72      CC83C182 
  72      6934B2
  73 00c9 A6F0689F 		.ascii	"\246\360h\237\326\355\026\3052\2459hKB\010\342`K\351"
  73      D6ED16C5 
  73      32A53968 
  73      4B4208E2 
  73      604BE9
  74 00dc 48084B88 		.ascii	"H\010K\210\010\207\250\302W\026\271WJ\262.\243X_(\257"
  74      0887A8C2 
  74      5716B957 
  74      4AB22EA3 
  74      585F28AF 
  75 00f0 58E29CD5 		.ascii	"X\342\234\325\262\324\262W\274p\376*O[\376\304\271R"
  75      B2D4B257 
  75      BC70FE2A 
  75      4F5BFEC4 
  75      B952
  76 0102 7526E86A 		.ascii	"u&\350j\353ic\011\222\277\361>\254a5=\307\333\206\260"
  76      EB696309 
  76      92BFF13E 
  76      AC61353D 
  76      C7DB86B0 
  77 0116 8B287610 		.ascii	"\213(v\020\345\341\366\260\006*#\363\340\004n\232\015"
  77      E5E1F6B0 
  77      062A23F3 
  77      E0046E9A 
  77      0D
  78 0127 B9CF3EDB 		.ascii	"\271\317>\333Ao1\304\372\237\347\213/\021\261\324\370"
  78      416F31C4 
  78      FA9FE78B 
  78      2F11B1D4 
  78      F8
  79 0138 8E7D5636 		.ascii	"\216}V6I\370\0135K\034\206X\362\347rgW\007\2226\034"
  79      49F80B35 
  79      4B1C8658 
  79      F2E77267 
  79      57079236 
  80 014d F8926CED 		.ascii	"\370\222l\355\235\022\366\215\235f\227\010\243\334\027"
  80      9D12F68D 
  80      9D669708 
  80      A3DC17
  81 015c 9721FDFF 		.ascii	"\227!\375\377F>\344\221\231O\277\221)<\365\012\333\377"
  81      463EE491 
  81      994FBF91 
  81      293CF50A 
  81      DBFF
  82 016e 73150579 		.ascii	"s\025\005y\035~\253O}\356\244;5:\355\216\217$\2223S"
  82      1D7EAB4F 
  82      7DEEA43B 
  82      353AED8E 
  82      8F249233 
  83 0183 63EEF040 		.ascii	"c\356\360@\"\331\375e\270gv\272\177\350k\"\376y\214"
  83      22D9FD65 
  83      B86776BA 
  83      7FE86B22 
  83      FE798C
  84 0196 AC89E4B8 		.ascii	"\254\211\344\270\373\006\356\361\245\265"
ARM GAS  C:\Users\JEFFSN~1\AppData\Local\Temp\cccBc41U.s 			page 6


  84      FB06EEF1 
  84      A5B5
  85              		.text
  86              		.section	.gnu.lto_ExtMUXS0_Read.cdd0a396,"",%progbits
  87 0000 789C6361 		.ascii	"x\234ca`d\000\001& \245\002\244\245\201\230\221\231"
  87      60640001 
  87      2620A502 
  87      A4A58198 
  87      9199
  88 0012 819169C2 		.ascii	"\201\221i\3029\006\206F\016&FF\020\243\201\203\221\241"
  88      39068646 
  88      0E264646 
  88      10A38183 
  88      91A1
  89 0024 9E89B19E 		.ascii	"\236\211\261\236\361+\323_&\306\323\337O\364pi.ohhj"
  89      F12BD35F 
  89      26C6D3DF 
  89      4FF47069 
  89      2E6F6868 
  90 0039 78B0F497 		.ascii	"x\260\364\227\305\364\025\007\030[\231\031\030\3763"
  90      C5F41507 
  90      185B9919 
  90      18FE33
  91 0048 31301ACB 		.ascii	"10\032\3130\032\310\200\214X\316\250\311\000T\372h\343"
  91      301AC880 
  91      8C58CEA8 
  91      C90054FA 
  91      68E3
  92 005a BFA9BC6C 		.ascii	"\277\251\274l-\015@\240\000R\000\224Y\301\310\006\262"
  92      2D0D40A0 
  92      00520094 
  92      59C1C806 
  92      B2
  93 006b 727DD081 		.ascii	"r}\320\201\206\377\377\233\033\016\\e?x\203\235\205"
  93      86FFFF9B 
  93      1B0E5C65 
  93      3F78839D 
  93      85
  94 007c 89A19519 		.ascii	"\211\241\225\031h/\310\034\206\017@u [?21\201h\346g"
  94      682FC81C 
  94      860F4075 
  94      205B3F32 
  94      318168E6 
  95 0091 8C877E75 		.ascii	"\214\207~u\335\233g\005\322\332\314\014r\301\264\326"
  95      DD9B6705 
  95      D2DACC0C 
  95      72C1B4D6 
  96 00a1 43E7D9BF 		.ascii	"C\347\331\2770\2652\003\235\015\344\376\351\235\372"
  96      30B53203 
  96      9D0DE4FE 
  96      E99DFA
  97 00b0 9C11C2FD 		.ascii	"\234\021\302\375\270\270\261\201\005(\264tBc\372|\306"
  97      B8B8B181 
  97      0528B474 
  97      4263FA7C 
  97      C6
  98 00c1 B98D2D40 		.ascii	"\271\215-@\24713\256b\224a\\\311\010t\030\343j\306\371"
ARM GAS  C:\Users\JEFFSN~1\AppData\Local\Temp\cccBc41U.s 			page 7


  98      A73133AE 
  98      6294615C 
  98      C9087418 
  98      E36AC6F9 
  99 00d5 8C0CCF18 		.ascii	"\214\014\317\030\233\377\264=a\204\230\307\0141rk\373"
  99      9BFFB43D 
  99      618498C7 
  99      0C31726B 
  99      FB
 100 00e6 998D5C20 		.ascii	"\231\215\\ 3\030\030\031\031\327\000\325\276bd\202*"
 100      33181819 
 100      19D700D5 
 100      BE626482 
 100      2A
 101 00f7 6000BB89 		.ascii	"`\000\273\211\021\344\026\240\313\224\334S\363R\213"
 101      11E416A0 
 101      CB94DC53 
 101      F3528B
 102 0106 124B5253 		.ascii	"\022KRS\342\203\363K\213\222Sc\002\202\363\235Mc\\+"
 102      E283F34B 
 102      8B925363 
 102      0282F39D 
 102      4D635C2B 
 103 011a 4A7C4323 		.ascii	"J|C#\202\015\364\222\031\000\253\267c\330"
 103      820DF492 
 103      1900ABB7 
 103      63D8
 104              		.text
 105              		.section	.gnu.lto_ExtMUXS0_ReadDataReg.cdd0a396,"",%progbits
 106 0000 789C6361 		.ascii	"x\234ca`d\000\001f \245\002\244\245\201\230\221\231"
 106      60640001 
 106      6620A502 
 106      A4A58198 
 106      9199
 107 0012 819169C2 		.ascii	"\201\221i\3029\006\206F\016&FF\020\243\201\203\221\241"
 107      39068646 
 107      0E264646 
 107      10A38183 
 107      91A1
 108 0024 9E89B19E 		.ascii	"\236\211\261\236\361+\323_&\306\323\337O\364pi.ohhj"
 108      F12BD35F 
 108      26C6D3DF 
 108      4FF47069 
 108      2E6F6868 
 109 0039 78B074B9 		.ascii	"x\260t\271\345\364\025\007\030[\231\031\030\376310\032"
 109      E5F41507 
 109      185B9919 
 109      18FE3331 
 109      301A
 110 004b CB301AC8 		.ascii	"\3130\032\310\200\214X\316\250\311\000T\372h\343\277"
 110      808C58CE 
 110      A8C90054 
 110      FA68E3BF 
 111 005b A9BC6C2D 		.ascii	"\251\274l-\015@\240\000R\000\224Y\301\310\006\262r}"
 111      0D40A000 
 111      52009459 
 111      C1C806B2 
ARM GAS  C:\Users\JEFFSN~1\AppData\Local\Temp\cccBc41U.s 			page 8


 111      727D
 112 006d D08186FF 		.ascii	"\320\201\206\377\377\233\033\016\354\345:x\201\213\205"
 112      FF9B1B0E 
 112      ECE53A78 
 112      818B85
 113 007c 89A19519 		.ascii	"\211\241\225\031h/\310\034\206\017@u [?21\201h\346g"
 113      682FC81C 
 113      860F4075 
 113      205B3F32 
 113      318168E6 
 114 0091 8C877E75 		.ascii	"\214\207~u\375[i\005\322\332\314\014r\301\264\326C\347"
 114      FD5B6905 
 114      D2DACC0C 
 114      72C1B4D6 
 114      43E7
 115 00a3 D9BF30B5 		.ascii	"\331\2770\265231\202l\271\321<\377\0077\204\373aqc\003"
 115      32333182 
 115      6CB9D13C 
 115      FF073784 
 115      FB617163 
 116 00b8 0B5068F2 		.ascii	"\013Ph\362\266\251\257X\3463\316ml\001\272\215\231q"
 116      B6A9AF58 
 116      E633CE6D 
 116      6C01BA8D 
 116      9971
 117 00ca 15A30CE3 		.ascii	"\025\243\014\343JF\240\313\030W3\316gdx\306\330\374"
 117      4A46A0CB 
 117      185733CE 
 117      676478C6 
 117      D8FC
 118 00dc A7ED0923 		.ascii	"\247\355\011#\304@f\210\231[\333\317l\344\002\031\302"
 118      C4406688 
 118      995BDBCF 
 118      6CE40219 
 118      C2
 119 00ed C0C8C8B8 		.ascii	"\300\310\310\270\006\250\366\025#\023T\001\003\330Q"
 119      06A8F615 
 119      23135401 
 119      03D851
 120 00fc 8C20C700 		.ascii	"\214 \307\000\235\246\344\236\232\227Z\224X\222\232"
 120      9DA6E49E 
 120      9A975A94 
 120      58929A
 121 010b 121F9C5F 		.ascii	"\022\037\234_Z\224\234\032\023\020\234\357l\032\343"
 121      5A949C1A 
 121      13109CEF 
 121      6C1AE3
 122 011a 5A51E21B 		.ascii	"ZQ\342\033\032\021l\240\227\314\000\000\354\032d="
 122      1A116CA0 
 122      97CC0000 
 122      EC1A643D 
 123              		.text
 124              		.section	.gnu.lto_.symbol_nodes.cdd0a396,"",%progbits
 125 0000 789C6361 		.ascii	"x\234ca`dpc\000\002&\206z\006\206\011\347\030@\324\252"
 125      60647063 
 125      00022686 
 125      7A068609 
ARM GAS  C:\Users\JEFFSN~1\AppData\Local\Temp\cccBc41U.s 			page 9


 125      E71840D4 
 126 0015 0645A000 		.ascii	"\006E\240\000c=#\252\000S=\023\252\000s=3\212\000\003"
 126      633D23AA 
 126      00533D13 
 126      AA00733D 
 126      338A0003 
 127 0029 001ED60E 		.ascii	"\000\036\326\016\374"
 127      FC
 128              		.text
 129              		.section	.gnu.lto_.refs.cdd0a396,"",%progbits
 130 0000 789C6361 		.ascii	"x\234ca`\004B \000\000\0009\000\007"
 130      60044220 
 130      00000039 
 130      0007
 131              		.text
 132              		.section	.gnu.lto_.decls.cdd0a396,"",%progbits
 133 0000 789C8D92 		.ascii	"x\234\215\222]HTA\024\307\347\334{]\345\252\233\210"
 133      5D485441 
 133      14C7E7DC 
 133      7B5DE5AA 
 133      9B88
 134 0012 85C47D30 		.ascii	"\205\304}0\237\354E\224\010|\350\013\264\354\305\010"
 134      9FEC4594 
 134      087CE80B 
 134      B4ECC508 
 135 0022 45EB4190 		.ascii	"E\353A\220U/\346\213\306\266F\322\313\344\032\250\275"
 135      552FE68B 
 135      C6B646D2 
 135      CBE41AA8 
 135      BD
 136 0033 B80F1A8A 		.ascii	"\270\017\032\212\250\031\225\346g\351\332~d\273jYD\202"
 136      A81995E6 
 136      67E9DA7E 
 136      64BB6A59 
 136      4482
 137 0045 22F48141 		.ascii	"\"\364\201A\202\031H\022F\006I\350vf\366\336\275\253"
 137      82194812 
 137      460649E8 
 137      7666F6DE 
 137      BDAB
 138 0057 ADD481B9 		.ascii	"\255\324\201\2713g\346\234\337\377\314\271#\021 \314"
 138      3367E69C 
 138      DFFFCCB9 
 138      231120CC 
 139 0067 8E4B84F4 		.ascii	"\216K\204\364\340\234\200n\000-\012\327E\3040<&\243"
 139      E09C806E 
 139      002D0AD7 
 139      45C4303C 
 139      26A3
 140 0079 389C385C 		.ascii	"8\2348\\8<\344oc\347z\336\020\016\005\207\017\307\204"
 140      383CE46F 
 140      63E77ADE 
 140      100E0587 
 140      0FC784
 141 008c 760E5ACC 		.ascii	"v\016Z\314ncL\323\256<\177\204\\g\204\\\227V\333^z\256"
 141      6E634CD3 
 141      AE3C7F84 
ARM GAS  C:\Users\JEFFSN~1\AppData\Local\Temp\cccBc41U.s 			page 10


 141      5C67845C 
 141      9756DB5E 
 142 00a2 08399E7F 		.ascii	"\0109\236\177\344D\272\333\226\000\035\223\235\323Q"
 142      E444BADB 
 142      96001D93 
 142      9DD351
 143 00b1 8BF00180 		.ascii	"\213\360\001\200\0007\242\365\216\260\035mf\013\010"
 143      0037A2F5 
 143      8EB01D6D 
 143      660B08
 144 00c0 3A82CE03 		.ascii	":\202\316\003=H\227\340\341@\004\036\037\332\327\343"
 144      3D4897E0 
 144      E140041E 
 144      1FDAD7E3 
 145 00d0 429A01DD 		.ascii	"B\232\001\335\214-\010\231\036\011;\241\214j\270\350"
 145      8C2D0899 
 145      1E093BA1 
 145      8C6AB8E8 
 146 00e0 0B464218 		.ascii	"\013FB\030O\253^\323\207pY\216\026\365KO\274\361:L\""
 146      4FAB5ED3 
 146      8770598E 
 146      16F54B4F 
 146      BCF13A4C 
 147 00f5 3271FD69 		.ascii	"2q\375i\263\367L\372\000Ek\246T8ltf\370\346\347\276"
 147      B3F74CFA 
 147      00456BA6 
 147      54386C74 
 147      66F8E6E7 
 148 010a 980D0114 		.ascii	"\230\015\001\024\031\002\300\3745\367f|\320g\307m\216"
 148      1902C0FC 
 148      35F7667C 
 148      D067C76D 
 148      8E
 149 011b E5ED58F1 		.ascii	"\345\355X\361 [\013\013\313\375\253\022\244\311\367"
 149      205B0B0B 
 149      CBFDAB12 
 149      A4C9F7
 150 012a 1966C9B1 		.ascii	"\031f\311\261r\302Mi\002\014\201\014\003 B\037\244\263"
 150      72C24D69 
 150      020C810C 
 150      0320421F 
 150      A4B3
 151 013c 0A1419BF 		.ascii	"\012\024\031\277\015\224\326\321\365\036jJ&pD\201\014"
 151      0D94D6D1 
 151      F51E6A4A 
 151      26704481 
 151      0C
 152 014d 85C020A4 		.ascii	"\205\300 \2441&\213\202~P\340!(\214\277r\273\353\253"
 152      31268B82 
 152      7E50E021 
 152      288CBF72 
 152      BBEBAB
 153 0160 49C27673 		.ascii	"I\302vsN\251\304\366\346\353G:D,!Q\006\011\335\357\263"
 153      4EA9C4F6 
 153      E6EB473A 
 153      442C2151 
 153      0609DDEF 
ARM GAS  C:\Users\JEFFSN~1\AppData\Local\Temp\cccBc41U.s 			page 11


 154 0175 EDCB6674 		.ascii	"\355\313ft\223dHAw\300\363q\315\224\334\312\257b\247"
 154      93644841 
 154      77C0F371 
 154      CD94DCCA 
 154      AF62A7
 155 0188 2912141D 		.ascii	")\022\024\035\200G\010\034A \201\307\220\214\337a\220"
 155      8047081C 
 155      412081C7 
 155      908CDF61 
 155      90
 156 0199 82B79BF3 		.ascii	"\202\267\233\363\265\337\025S\273i\367\010]j\2319\326"
 156      B5DF1553 
 156      BB69F708 
 156      5D6A9939 
 156      D6
 157 01aa 6AA7AF30 		.ascii	"j\247\2570/\205\205A\257Q4.\331\364\000\026\261\241"
 157      2F858541 
 157      AF51342E 
 157      D9F40016 
 157      B1A1
 158 01bc A390CAFA 		.ascii	"\243\220\312\372\320\344\3517\213*o\302\275\261\256"
 158      D0E4E937 
 158      8B2A6FC2 
 158      BDB1AE
 159 01cb 617390E2 		.ascii	"as\220\342\337\230\211\243\3157(=\305\031c\006c,\234"
 159      DF9889A3 
 159      CD37283D 
 159      C5196306 
 159      632C9C
 160 01de E1E40CEF 		.ascii	"\341\344\014\357O_\263 ^\347\214\271[/\354\373\302\313"
 160      4F5FB320 
 160      5EE78CB9 
 160      5B2FECFB 
 160      C2CB
 161 01f0 66F735EA 		.ascii	"f\3675\352~\302\353.\325\312v\316x\177\313\232\340\302"
 161      7EC2EB2E 
 161      D5CA76CE 
 161      787FCB9A 
 161      E0C2
 162 0202 4BB18DFA 		.ascii	"K\261\215\372\3531O`Q0nH\216\207K\272\270\344\344\324"
 162      EB314F60 
 162      51306E48 
 162      8E874BBA 
 162      B8E4E4D4 
 163 0216 BB2F3162 		.ascii	"\273/1b#p\315\246_\357\267c5\214\347\265^7\203\270\015"
 163      2370CDA6 
 163      5FEFB763 
 163      358CE7B5 
 163      5E3783B8 
 164 022b 883B1CE2 		.ascii	"\210;\034\342\341\220\215\372\037oM2\376D\373\377\375"
 164      E1908DFA 
 164      1F6F4D32 
 164      FE44FBFF 
 164      FD
 165 023c C4D9D53B 		.ascii	"\304\331\325;\201h\261\223\213\012\243-m-\321 \247E"
 165      8168B193 
 165      8B0AA32D 
ARM GAS  C:\Users\JEFFSN~1\AppData\Local\Temp\cccBc41U.s 			page 12


 165      6D2DD120 
 165      A745
 166 024e 487F1621 		.ascii	"H\177\026!]{L\203\205\216Fv\303\011\354\312S\2438/\310"
 166      5D7B4C83 
 166      858E4676 
 166      C309ECCA 
 166      53A3382F 
 167 0263 C18EF47D 		.ascii	"\301\216\364}\233\366C\\\023{W\330\276\304\263<\320"
 167      9BF6435C 
 167      137B57D8 
 167      BEC4B33C 
 167      D0
 168 0274 689F0FE2 		.ascii	"h\237\017\342\370\373\307yK\020\237/\014\373d\220\025"
 168      F8FBC779 
 168      4B109F2F 
 168      0CFB6490 
 168      15
 169 0285 C0736860 		.ascii	"\300sh`\002\353uau\020\3603,L\342\361\024\246\267S\026"
 169      02EB7561 
 169      7510F033 
 169      2C4CE2F1 
 169      14A6B753 
 170 029a 330F7C9B 		.ascii	"3\017|\233;\353'\371\232\177\314\247\257\331\362\012"
 170      3BEB27F9 
 170      9A7FCCA7 
 170      AFD9F20A 
 171 02aa 2F166494 		.ascii	"/\026d\224\\\260V\332\324\230\334s\205)\331\231\231"
 171      5CB056DA 
 171      D498DC73 
 171      8529D999 
 171      99
 172 02bb 24AAA6B2 		.ascii	"$\252\246\262\312\226u(W\255R\255\026\233Z^RP]c-S\213"
 172      CA967528 
 172      57AD52AD 
 172      169B5A5E 
 172      52505D63 
 173 02d2 CF175467 		.ascii	"\317\027Tg\037-.\253\265\325^V\257\244_\"\251{D\350"
 173      1F2D2EAB 
 173      B5D55E56 
 173      AFA45F22 
 173      A97B44E8 
 174 02e6 D8F432B2 		.ascii	"\330\3642\262?$Q\240\332r\254\225W\325\274\352r5>\264"
 174      3F2451A0 
 174      DA72AC95 
 174      57D5BCEA 
 174      72353EB4 
 175 02fa 9BAF5ACA 		.ascii	"\233\257Z\312\223vx9\026\233%_\255\220\254jE\326\037"
 175      93767839 
 175      169B255F 
 175      AD90AC6A 
 175      45D61F
 176 030d A9DB6307 		.ascii	"\251\333c\007"
 177              		.text
 178              		.section	.gnu.lto_.symtab.cdd0a396,"",%progbits
 179 0000 4578744D 		.ascii	"ExtMUXS0_Write\000"
 179      55585330 
 179      5F577269 
ARM GAS  C:\Users\JEFFSN~1\AppData\Local\Temp\cccBc41U.s 			page 13


 179      746500
 180 000f 00       		.ascii	"\000"
 181 0010 00       		.ascii	"\000"
 182 0011 00       		.ascii	"\000"
 183 0012 00000000 		.ascii	"\000\000\000\000\000\000\000\000"
 183      00000000 
 184 001a B3000000 		.ascii	"\263\000\000\000"
 185 001e 4578744D 		.ascii	"ExtMUXS0_SetDriveMode\000"
 185      55585330 
 185      5F536574 
 185      44726976 
 185      654D6F64 
 186 0034 00       		.ascii	"\000"
 187 0035 00       		.ascii	"\000"
 188 0036 00       		.ascii	"\000"
 189 0037 00000000 		.ascii	"\000\000\000\000\000\000\000\000"
 189      00000000 
 190 003f B5000000 		.ascii	"\265\000\000\000"
 191 0043 4578744D 		.ascii	"ExtMUXS0_Read\000"
 191      55585330 
 191      5F526561 
 191      6400
 192 0051 00       		.ascii	"\000"
 193 0052 00       		.ascii	"\000"
 194 0053 00       		.ascii	"\000"
 195 0054 00000000 		.ascii	"\000\000\000\000\000\000\000\000"
 195      00000000 
 196 005c B8000000 		.ascii	"\270\000\000\000"
 197 0060 4578744D 		.ascii	"ExtMUXS0_ReadDataReg\000"
 197      55585330 
 197      5F526561 
 197      64446174 
 197      61526567 
 198 0075 00       		.ascii	"\000"
 199 0076 00       		.ascii	"\000"
 200 0077 00       		.ascii	"\000"
 201 0078 00000000 		.ascii	"\000\000\000\000\000\000\000\000"
 201      00000000 
 202 0080 BA000000 		.ascii	"\272\000\000\000"
 203              		.text
 204              		.section	.gnu.lto_.opts,"",%progbits
 205 0000 272D666D 		.ascii	"'-fmath-errno' '-fsigned-zeros' '-ftrapping-math' '"
 205      6174682D 
 205      6572726E 
 205      6F272027 
 205      2D667369 
 206 0033 2D666E6F 		.ascii	"-fno-trapv' '-fno-strict-overflow' '-fno-openmp' '-"
 206      2D747261 
 206      70762720 
 206      272D666E 
 206      6F2D7374 
 207 0066 666E6F2D 		.ascii	"fno-openacc' '-mcpu=cortex-m3' '-mthumb' '-g' '-Og'"
 207      6F70656E 
 207      61636327 
 207      20272D6D 
 207      6370753D 
 208 0099 20272D66 		.ascii	" '-ffunction-sections' '-ffat-lto-objects' '-finlin"
ARM GAS  C:\Users\JEFFSN~1\AppData\Local\Temp\cccBc41U.s 			page 14


 208      66756E63 
 208      74696F6E 
 208      2D736563 
 208      74696F6E 
 209 00cc 652D6675 		.ascii	"e-functions' '-flto'\000"
 209      6E637469 
 209      6F6E7327 
 209      20272D66 
 209      6C746F27 
 210              		.text
 211              		.cfi_sections	.debug_frame
 212              		.section	.text.ExtMUXS0_Write,"ax",%progbits
 213              		.align	2
 214              		.global	ExtMUXS0_Write
 215              		.thumb
 216              		.thumb_func
 217              		.type	ExtMUXS0_Write, %function
 218              	ExtMUXS0_Write:
 219              	.LFB0:
 220              		.file 1 "Generated_Source\\PSoC5\\ExtMUXS0.c"
   1:Generated_Source\PSoC5/ExtMUXS0.c **** /*******************************************************************************
   2:Generated_Source\PSoC5/ExtMUXS0.c **** * File Name: ExtMUXS0.c  
   3:Generated_Source\PSoC5/ExtMUXS0.c **** * Version 2.20
   4:Generated_Source\PSoC5/ExtMUXS0.c **** *
   5:Generated_Source\PSoC5/ExtMUXS0.c **** * Description:
   6:Generated_Source\PSoC5/ExtMUXS0.c **** *  This file contains API to enable firmware control of a Pins component.
   7:Generated_Source\PSoC5/ExtMUXS0.c **** *
   8:Generated_Source\PSoC5/ExtMUXS0.c **** * Note:
   9:Generated_Source\PSoC5/ExtMUXS0.c **** *
  10:Generated_Source\PSoC5/ExtMUXS0.c **** ********************************************************************************
  11:Generated_Source\PSoC5/ExtMUXS0.c **** * Copyright 2008-2015, Cypress Semiconductor Corporation.  All rights reserved.
  12:Generated_Source\PSoC5/ExtMUXS0.c **** * You may use this file only in accordance with the license, terms, conditions, 
  13:Generated_Source\PSoC5/ExtMUXS0.c **** * disclaimers, and limitations in the end user license agreement accompanying 
  14:Generated_Source\PSoC5/ExtMUXS0.c **** * the software package with which this file was provided.
  15:Generated_Source\PSoC5/ExtMUXS0.c **** *******************************************************************************/
  16:Generated_Source\PSoC5/ExtMUXS0.c **** 
  17:Generated_Source\PSoC5/ExtMUXS0.c **** #include "cytypes.h"
  18:Generated_Source\PSoC5/ExtMUXS0.c **** #include "ExtMUXS0.h"
  19:Generated_Source\PSoC5/ExtMUXS0.c **** 
  20:Generated_Source\PSoC5/ExtMUXS0.c **** /* APIs are not generated for P15[7:6] on PSoC 5 */
  21:Generated_Source\PSoC5/ExtMUXS0.c **** #if !(CY_PSOC5A &&\
  22:Generated_Source\PSoC5/ExtMUXS0.c **** 	 ExtMUXS0__PORT == 15 && ((ExtMUXS0__MASK & 0xC0) != 0))
  23:Generated_Source\PSoC5/ExtMUXS0.c **** 
  24:Generated_Source\PSoC5/ExtMUXS0.c **** 
  25:Generated_Source\PSoC5/ExtMUXS0.c **** /*******************************************************************************
  26:Generated_Source\PSoC5/ExtMUXS0.c **** * Function Name: ExtMUXS0_Write
  27:Generated_Source\PSoC5/ExtMUXS0.c **** ****************************************************************************//**
  28:Generated_Source\PSoC5/ExtMUXS0.c **** *
  29:Generated_Source\PSoC5/ExtMUXS0.c **** * \brief Writes the value to the physical port (data output register), masking
  30:Generated_Source\PSoC5/ExtMUXS0.c **** *  and shifting the bits appropriately. 
  31:Generated_Source\PSoC5/ExtMUXS0.c **** *
  32:Generated_Source\PSoC5/ExtMUXS0.c **** * The data output register controls the signal applied to the physical pin in 
  33:Generated_Source\PSoC5/ExtMUXS0.c **** * conjunction with the drive mode parameter. This function avoids changing 
  34:Generated_Source\PSoC5/ExtMUXS0.c **** * other bits in the port by using the appropriate method (read-modify-write or
  35:Generated_Source\PSoC5/ExtMUXS0.c **** * bit banding).
  36:Generated_Source\PSoC5/ExtMUXS0.c **** *
  37:Generated_Source\PSoC5/ExtMUXS0.c **** * <b>Note</b> This function should not be used on a hardware digital output pin 
ARM GAS  C:\Users\JEFFSN~1\AppData\Local\Temp\cccBc41U.s 			page 15


  38:Generated_Source\PSoC5/ExtMUXS0.c **** * as it is driven by the hardware signal attached to it.
  39:Generated_Source\PSoC5/ExtMUXS0.c **** *
  40:Generated_Source\PSoC5/ExtMUXS0.c **** * \param value
  41:Generated_Source\PSoC5/ExtMUXS0.c **** *  Value to write to the component instance.
  42:Generated_Source\PSoC5/ExtMUXS0.c **** *
  43:Generated_Source\PSoC5/ExtMUXS0.c **** * \return 
  44:Generated_Source\PSoC5/ExtMUXS0.c **** *  None 
  45:Generated_Source\PSoC5/ExtMUXS0.c **** *
  46:Generated_Source\PSoC5/ExtMUXS0.c **** * \sideeffect
  47:Generated_Source\PSoC5/ExtMUXS0.c **** *  If you use read-modify-write operations that are not atomic; the Interrupt 
  48:Generated_Source\PSoC5/ExtMUXS0.c **** *  Service Routines (ISR) can cause corruption of this function. An ISR that 
  49:Generated_Source\PSoC5/ExtMUXS0.c **** *  interrupts this function and performs writes to the Pins component data 
  50:Generated_Source\PSoC5/ExtMUXS0.c **** *  register can cause corrupted port data. To avoid this issue, you should 
  51:Generated_Source\PSoC5/ExtMUXS0.c **** *  either use the Per-Pin APIs (primary method) or disable interrupts around 
  52:Generated_Source\PSoC5/ExtMUXS0.c **** *  this function.
  53:Generated_Source\PSoC5/ExtMUXS0.c **** *
  54:Generated_Source\PSoC5/ExtMUXS0.c **** * \funcusage
  55:Generated_Source\PSoC5/ExtMUXS0.c **** *  \snippet ExtMUXS0_SUT.c usage_ExtMUXS0_Write
  56:Generated_Source\PSoC5/ExtMUXS0.c **** *******************************************************************************/
  57:Generated_Source\PSoC5/ExtMUXS0.c **** void ExtMUXS0_Write(uint8 value)
  58:Generated_Source\PSoC5/ExtMUXS0.c **** {
 221              		.loc 1 58 0
 222              		.cfi_startproc
 223              		@ args = 0, pretend = 0, frame = 0
 224              		@ frame_needed = 0, uses_anonymous_args = 0
 225              		@ link register save eliminated.
 226              	.LVL0:
  59:Generated_Source\PSoC5/ExtMUXS0.c ****     uint8 staticBits = (ExtMUXS0_DR & (uint8)(~ExtMUXS0_MASK));
 227              		.loc 1 59 0
 228 0000 044A     		ldr	r2, .L2
 229 0002 1378     		ldrb	r3, [r2]	@ zero_extendqisi2
 230 0004 03F0FE03 		and	r3, r3, #254
 231              	.LVL1:
  60:Generated_Source\PSoC5/ExtMUXS0.c ****     ExtMUXS0_DR = staticBits | ((uint8)(value << ExtMUXS0_SHIFT) & ExtMUXS0_MASK);
 232              		.loc 1 60 0
 233 0008 00F00100 		and	r0, r0, #1
 234              	.LVL2:
 235 000c 1843     		orrs	r0, r0, r3
 236 000e 1070     		strb	r0, [r2]
 237 0010 7047     		bx	lr
 238              	.L3:
 239 0012 00BF     		.align	2
 240              	.L2:
 241 0014 F0510040 		.word	1073762800
 242              		.cfi_endproc
 243              	.LFE0:
 244              		.size	ExtMUXS0_Write, .-ExtMUXS0_Write
 245              		.section	.text.ExtMUXS0_SetDriveMode,"ax",%progbits
 246              		.align	2
 247              		.global	ExtMUXS0_SetDriveMode
 248              		.thumb
 249              		.thumb_func
 250              		.type	ExtMUXS0_SetDriveMode, %function
 251              	ExtMUXS0_SetDriveMode:
 252              	.LFB1:
  61:Generated_Source\PSoC5/ExtMUXS0.c **** }
  62:Generated_Source\PSoC5/ExtMUXS0.c **** 
ARM GAS  C:\Users\JEFFSN~1\AppData\Local\Temp\cccBc41U.s 			page 16


  63:Generated_Source\PSoC5/ExtMUXS0.c **** 
  64:Generated_Source\PSoC5/ExtMUXS0.c **** /*******************************************************************************
  65:Generated_Source\PSoC5/ExtMUXS0.c **** * Function Name: ExtMUXS0_SetDriveMode
  66:Generated_Source\PSoC5/ExtMUXS0.c **** ****************************************************************************//**
  67:Generated_Source\PSoC5/ExtMUXS0.c **** *
  68:Generated_Source\PSoC5/ExtMUXS0.c **** * \brief Sets the drive mode for each of the Pins component's pins.
  69:Generated_Source\PSoC5/ExtMUXS0.c **** * 
  70:Generated_Source\PSoC5/ExtMUXS0.c **** * <b>Note</b> This affects all pins in the Pins component instance. Use the
  71:Generated_Source\PSoC5/ExtMUXS0.c **** * Per-Pin APIs if you wish to control individual pin's drive modes.
  72:Generated_Source\PSoC5/ExtMUXS0.c **** *
  73:Generated_Source\PSoC5/ExtMUXS0.c **** * \param mode
  74:Generated_Source\PSoC5/ExtMUXS0.c **** *  Mode for the selected signals. Valid options are documented in 
  75:Generated_Source\PSoC5/ExtMUXS0.c **** *  \ref driveMode.
  76:Generated_Source\PSoC5/ExtMUXS0.c **** *
  77:Generated_Source\PSoC5/ExtMUXS0.c **** * \return
  78:Generated_Source\PSoC5/ExtMUXS0.c **** *  None
  79:Generated_Source\PSoC5/ExtMUXS0.c **** *
  80:Generated_Source\PSoC5/ExtMUXS0.c **** * \sideeffect
  81:Generated_Source\PSoC5/ExtMUXS0.c **** *  If you use read-modify-write operations that are not atomic, the ISR can
  82:Generated_Source\PSoC5/ExtMUXS0.c **** *  cause corruption of this function. An ISR that interrupts this function 
  83:Generated_Source\PSoC5/ExtMUXS0.c **** *  and performs writes to the Pins component Drive Mode registers can cause 
  84:Generated_Source\PSoC5/ExtMUXS0.c **** *  corrupted port data. To avoid this issue, you should either use the Per-Pin
  85:Generated_Source\PSoC5/ExtMUXS0.c **** *  APIs (primary method) or disable interrupts around this function.
  86:Generated_Source\PSoC5/ExtMUXS0.c **** *
  87:Generated_Source\PSoC5/ExtMUXS0.c **** * \funcusage
  88:Generated_Source\PSoC5/ExtMUXS0.c **** *  \snippet ExtMUXS0_SUT.c usage_ExtMUXS0_SetDriveMode
  89:Generated_Source\PSoC5/ExtMUXS0.c **** *******************************************************************************/
  90:Generated_Source\PSoC5/ExtMUXS0.c **** void ExtMUXS0_SetDriveMode(uint8 mode)
  91:Generated_Source\PSoC5/ExtMUXS0.c **** {
 253              		.loc 1 91 0
 254              		.cfi_startproc
 255              		@ args = 0, pretend = 0, frame = 0
 256              		@ frame_needed = 0, uses_anonymous_args = 0
 257              		@ link register save eliminated.
 258              	.LVL3:
  92:Generated_Source\PSoC5/ExtMUXS0.c **** 	CyPins_SetPinDriveMode(ExtMUXS0_0, mode);
 259              		.loc 1 92 0
 260 0000 044A     		ldr	r2, .L5
 261 0002 1378     		ldrb	r3, [r2]	@ zero_extendqisi2
 262 0004 03F0F103 		and	r3, r3, #241
 263 0008 00F00E00 		and	r0, r0, #14
 264              	.LVL4:
 265 000c 1843     		orrs	r0, r0, r3
 266 000e 1070     		strb	r0, [r2]
 267 0010 7047     		bx	lr
 268              	.L6:
 269 0012 00BF     		.align	2
 270              	.L5:
 271 0014 78500040 		.word	1073762424
 272              		.cfi_endproc
 273              	.LFE1:
 274              		.size	ExtMUXS0_SetDriveMode, .-ExtMUXS0_SetDriveMode
 275              		.section	.text.ExtMUXS0_Read,"ax",%progbits
 276              		.align	2
 277              		.global	ExtMUXS0_Read
 278              		.thumb
 279              		.thumb_func
ARM GAS  C:\Users\JEFFSN~1\AppData\Local\Temp\cccBc41U.s 			page 17


 280              		.type	ExtMUXS0_Read, %function
 281              	ExtMUXS0_Read:
 282              	.LFB2:
  93:Generated_Source\PSoC5/ExtMUXS0.c **** }
  94:Generated_Source\PSoC5/ExtMUXS0.c **** 
  95:Generated_Source\PSoC5/ExtMUXS0.c **** 
  96:Generated_Source\PSoC5/ExtMUXS0.c **** /*******************************************************************************
  97:Generated_Source\PSoC5/ExtMUXS0.c **** * Function Name: ExtMUXS0_Read
  98:Generated_Source\PSoC5/ExtMUXS0.c **** ****************************************************************************//**
  99:Generated_Source\PSoC5/ExtMUXS0.c **** *
 100:Generated_Source\PSoC5/ExtMUXS0.c **** * \brief Reads the associated physical port (pin status register) and masks 
 101:Generated_Source\PSoC5/ExtMUXS0.c **** *  the required bits according to the width and bit position of the component
 102:Generated_Source\PSoC5/ExtMUXS0.c **** *  instance. 
 103:Generated_Source\PSoC5/ExtMUXS0.c **** *
 104:Generated_Source\PSoC5/ExtMUXS0.c **** * The pin's status register returns the current logic level present on the 
 105:Generated_Source\PSoC5/ExtMUXS0.c **** * physical pin.
 106:Generated_Source\PSoC5/ExtMUXS0.c **** *
 107:Generated_Source\PSoC5/ExtMUXS0.c **** * \return 
 108:Generated_Source\PSoC5/ExtMUXS0.c **** *  The current value for the pins in the component as a right justified number.
 109:Generated_Source\PSoC5/ExtMUXS0.c **** *
 110:Generated_Source\PSoC5/ExtMUXS0.c **** * \funcusage
 111:Generated_Source\PSoC5/ExtMUXS0.c **** *  \snippet ExtMUXS0_SUT.c usage_ExtMUXS0_Read  
 112:Generated_Source\PSoC5/ExtMUXS0.c **** *******************************************************************************/
 113:Generated_Source\PSoC5/ExtMUXS0.c **** uint8 ExtMUXS0_Read(void)
 114:Generated_Source\PSoC5/ExtMUXS0.c **** {
 283              		.loc 1 114 0
 284              		.cfi_startproc
 285              		@ args = 0, pretend = 0, frame = 0
 286              		@ frame_needed = 0, uses_anonymous_args = 0
 287              		@ link register save eliminated.
 115:Generated_Source\PSoC5/ExtMUXS0.c ****     return (ExtMUXS0_PS & ExtMUXS0_MASK) >> ExtMUXS0_SHIFT;
 288              		.loc 1 115 0
 289 0000 024B     		ldr	r3, .L8
 290 0002 1878     		ldrb	r0, [r3]	@ zero_extendqisi2
 116:Generated_Source\PSoC5/ExtMUXS0.c **** }
 291              		.loc 1 116 0
 292 0004 00F00100 		and	r0, r0, #1
 293 0008 7047     		bx	lr
 294              	.L9:
 295 000a 00BF     		.align	2
 296              	.L8:
 297 000c F1510040 		.word	1073762801
 298              		.cfi_endproc
 299              	.LFE2:
 300              		.size	ExtMUXS0_Read, .-ExtMUXS0_Read
 301              		.section	.text.ExtMUXS0_ReadDataReg,"ax",%progbits
 302              		.align	2
 303              		.global	ExtMUXS0_ReadDataReg
 304              		.thumb
 305              		.thumb_func
 306              		.type	ExtMUXS0_ReadDataReg, %function
 307              	ExtMUXS0_ReadDataReg:
 308              	.LFB3:
 117:Generated_Source\PSoC5/ExtMUXS0.c **** 
 118:Generated_Source\PSoC5/ExtMUXS0.c **** 
 119:Generated_Source\PSoC5/ExtMUXS0.c **** /*******************************************************************************
 120:Generated_Source\PSoC5/ExtMUXS0.c **** * Function Name: ExtMUXS0_ReadDataReg
ARM GAS  C:\Users\JEFFSN~1\AppData\Local\Temp\cccBc41U.s 			page 18


 121:Generated_Source\PSoC5/ExtMUXS0.c **** ****************************************************************************//**
 122:Generated_Source\PSoC5/ExtMUXS0.c **** *
 123:Generated_Source\PSoC5/ExtMUXS0.c **** * \brief Reads the associated physical port's data output register and masks 
 124:Generated_Source\PSoC5/ExtMUXS0.c **** *  the correct bits according to the width and bit position of the component 
 125:Generated_Source\PSoC5/ExtMUXS0.c **** *  instance. 
 126:Generated_Source\PSoC5/ExtMUXS0.c **** *
 127:Generated_Source\PSoC5/ExtMUXS0.c **** * The data output register controls the signal applied to the physical pin in 
 128:Generated_Source\PSoC5/ExtMUXS0.c **** * conjunction with the drive mode parameter. This is not the same as the 
 129:Generated_Source\PSoC5/ExtMUXS0.c **** * preferred ExtMUXS0_Read() API because the 
 130:Generated_Source\PSoC5/ExtMUXS0.c **** * ExtMUXS0_ReadDataReg() reads the data register instead of the status 
 131:Generated_Source\PSoC5/ExtMUXS0.c **** * register. For output pins this is a useful function to determine the value 
 132:Generated_Source\PSoC5/ExtMUXS0.c **** * just written to the pin.
 133:Generated_Source\PSoC5/ExtMUXS0.c **** *
 134:Generated_Source\PSoC5/ExtMUXS0.c **** * \return 
 135:Generated_Source\PSoC5/ExtMUXS0.c **** *  The current value of the data register masked and shifted into a right 
 136:Generated_Source\PSoC5/ExtMUXS0.c **** *  justified number for the component instance.
 137:Generated_Source\PSoC5/ExtMUXS0.c **** *
 138:Generated_Source\PSoC5/ExtMUXS0.c **** * \funcusage
 139:Generated_Source\PSoC5/ExtMUXS0.c **** *  \snippet ExtMUXS0_SUT.c usage_ExtMUXS0_ReadDataReg 
 140:Generated_Source\PSoC5/ExtMUXS0.c **** *******************************************************************************/
 141:Generated_Source\PSoC5/ExtMUXS0.c **** uint8 ExtMUXS0_ReadDataReg(void)
 142:Generated_Source\PSoC5/ExtMUXS0.c **** {
 309              		.loc 1 142 0
 310              		.cfi_startproc
 311              		@ args = 0, pretend = 0, frame = 0
 312              		@ frame_needed = 0, uses_anonymous_args = 0
 313              		@ link register save eliminated.
 143:Generated_Source\PSoC5/ExtMUXS0.c ****     return (ExtMUXS0_DR & ExtMUXS0_MASK) >> ExtMUXS0_SHIFT;
 314              		.loc 1 143 0
 315 0000 024B     		ldr	r3, .L11
 316 0002 1878     		ldrb	r0, [r3]	@ zero_extendqisi2
 144:Generated_Source\PSoC5/ExtMUXS0.c **** }
 317              		.loc 1 144 0
 318 0004 00F00100 		and	r0, r0, #1
 319 0008 7047     		bx	lr
 320              	.L12:
 321 000a 00BF     		.align	2
 322              	.L11:
 323 000c F0510040 		.word	1073762800
 324              		.cfi_endproc
 325              	.LFE3:
 326              		.size	ExtMUXS0_ReadDataReg, .-ExtMUXS0_ReadDataReg
 327              		.text
 328              	.Letext0:
 329              		.file 2 "Generated_Source\\PSoC5\\cytypes.h"