ARM GAS  C:\Users\JEFFSN~1\AppData\Local\Temp\ccn0YLLS.s 			page 1


   1              		.syntax unified
   2              		.cpu cortex-m3
   3              		.fpu softvfp
   4              		.eabi_attribute 20, 1
   5              		.eabi_attribute 21, 1
   6              		.eabi_attribute 23, 3
   7              		.eabi_attribute 24, 1
   8              		.eabi_attribute 25, 1
   9              		.eabi_attribute 26, 1
  10              		.eabi_attribute 30, 2
  11              		.eabi_attribute 34, 1
  12              		.eabi_attribute 18, 4
  13              		.thumb
  14              		.syntax unified
  15              		.file	"fretted_latching.c"
  16              		.text
  17              	.Ltext0:
  18              		.section	.gnu.lto_.profile.47c32bf,"",%progbits
  19 0000 789C6361 		.ascii	"x\234ca`d`a`\000\222\222\242\000\000\261\0009"
  19      60646061 
  19      60009292 
  19      A20000B1 
  19      0039
  20              		.text
  21              		.section	.gnu.lto_.icf.47c32bf,"",%progbits
  22 0000 789C6361 		.ascii	"x\234ca`d\000\001I\006\004`a8\324\324\257\305x\370S"
  22      60640001 
  22      49060460 
  22      6138D4D4 
  22      AFC578F8 
  23 0015 5B330BD3 		.ascii	"[3\013\323\307\205\357~\3633\177\2303\3778\023\003\000"
  23      C785EF7E 
  23      F3337F98 
  23      33FF3813 
  23      0300
  24 0027 91480B66 		.ascii	"\221H\013f"
  25              		.text
  26              		.section	.gnu.lto_.jmpfuncs.47c32bf,"",%progbits
  27 0000 789C6361 		.ascii	"x\234ca`d\000\001!\006\004`a`dd\254g\004\021L\014\014"
  27      60640001 
  27      21060460 
  27      61606464 
  27      AC670411 
  28 0017 CC401100 		.ascii	"\314@\021\000\016\"\001&"
  28      0E220126 
  29              		.text
  30              		.section	.gnu.lto_.inline.47c32bf,"",%progbits
  31 0000 789C6361 		.ascii	"x\234ca`d\000\201$\006\004`a`\340\344`dd\340\000J1s"
  31      60640081 
  31      24060460 
  31      6160E0E4 
  31      606464E0 
  32 0018 1CB06360 		.ascii	"\034\260c`[ \317\304\300\262@\236\005$\013\024g\307"
  32      5B20CFC4 
  32      C0B2409E 
  32      05240B14 
  32      67C7
ARM GAS  C:\Users\JEFFSN~1\AppData\Local\Temp\ccn0YLLS.s 			page 2


  33 002a 9064BAC0 		.ascii	"\220d\272\300\017\226db`ced`b\373\240\007\021\007\002"
  33      0F966462 
  33      60636564 
  33      6062FBA0 
  33      07110702 
  34 003e 664C2106 		.ascii	"fL!\006\000\346\332\011\346"
  34      00E6DA09 
  34      E6
  35              		.text
  36              		.section	.gnu.lto_.pureconst.47c32bf,"",%progbits
  37 0000 789C6361 		.ascii	"x\234ca`d\340d```a\220b\224b\222b\226\002\000\002\261"
  37      6064E064 
  37      60606061 
  37      90629462 
  37      92629602 
  38 0017 0081     		.ascii	"\000\201"
  39              		.text
  40              		.section	.gnu.lto_fretted_latching_Write.47c32bf,"",%progbits
  41 0000 789C5551 		.ascii	"x\234UQ=k\024Q\024\275\347\275\231\331\350F\375\001"
  41      3D6B1451 
  41      14BDE7BD 
  41      99D9E846 
  41      FD01
  42 0012 6E912684 		.ascii	"n\221&\204\004\024!X\332ha+\246\215\310\262\216\272"
  42      04142158 
  42      DA68612B 
  42      A68DC8B2 
  42      8EBA
  43 0024 1013D84C 		.ascii	"\020\023\330Ll\363&\233\335\240U\032w\252\0300\204\254"
  43      6CF3269B 
  43      DDA0551A 
  43      77AA1830 
  43      84AC
  44 0036 5F1B1341 		.ascii	"_\033\023A\020,\306\201t\242\010\301BT\226\024#Xm\300"
  44      102CC681 
  44      74A208C1 
  44      42549614 
  44      23586DC0 
  45 004a 25C1A8EB 		.ascii	"%\301\250\353\275oR\230\013\357c\356\234s\356\271\367"
  45      BD6F5298 
  45      0BEF63EE 
  45      9C73EEB9 
  45      F7
  46 005b 39049218 		.ascii	"9\004\222\030QD\027\370<\315\013\232\240\026\337\023"
  46      514417F8 
  46      3CCD0B9A 
  46      A016DF13 
  47 006b 857D0A90 		.ascii	"\205}\012\220\213\351\003\315*\314\242\253\376($\013"
  47      8BE903CD 
  47      2ACCA2AB 
  47      FE28240B 
  48 007b E96B35BC 		.ascii	"\351k5\274f8\332\253\017\265i\306\250i\242\236\262J"
  48      6638DAAB 
  48      0FB569C6 
  48      A869A29E 
  48      B24A
  49 008d 84350C33 		.ascii	"\2045\0143\352\373\233\205m\3503 \276\327\223n'?\264"
ARM GAS  C:\Users\JEFFSN~1\AppData\Local\Temp\ccn0YLLS.s 			page 3


  49      EAFB9B85 
  49      6DE83320 
  49      BED7936E 
  49      273FB4
  50 00a0 6ACC9C31 		.ascii	"j\314\2341\3215\243k\032hB3\003\243\005\234+\020'\010"
  50      D135A36B 
  50      1A684233 
  50      03A3059C 
  50      2B102708 
  51 00b4 8F3124E0 		.ascii	"\2171$\340\375\317\333\255\223z\324\022\027M\372\250"
  51      FDCFDBAD 
  51      937AD412 
  51      174DFAA8 
  52 00c4 7F704588 		.ascii	"\177pE\210\361\336\235\310\304\341\200p\237\374\317"
  52      F1DE9DC8 
  52      C4E18070 
  52      9FFCCF
  53 00d3 9560E8CE 		.ascii	"\225`\350\316\306\337\007'\274yq5\200\247\030\314\374"
  53      C6DF0727 
  53      BC797135 
  53      80A718CC 
  53      FC
  54 00e4 E0193CEE 		.ascii	"\340\031<\356\020\222Y\277\032\233^\257j\342\256\333"
  54      109259BF 
  54      1A9B5EAF 
  54      6AE2AEDB 
  55 00f4 D5C71417 		.ascii	"\325\307\024\027U\334)\377p \265]Ix\262\345d#\352\360"
  55      55DC29FF 
  55      7020B55D 
  55      4978B2E5 
  55      6423EAF0 
  56 0108 92EE7795 		.ascii	"\222\356w\225\222S\247H~\335\377\026\345D\263\252e\022"
  56      9253A748 
  56      7EDDFF16 
  56      E544B3AA 
  56      6512
  57 011a 8D5AF221 		.ascii	"\215Z\362!\367S\325\264\266n?6\277F\207\237\361Jh\034"
  57      F753D5B4 
  57      B66E3F36 
  57      BF46879F 
  57      F14A681C 
  58 012e 4EB55EB5 		.ascii	"N\265^\265\357\365/c)\234\347\0319h\241\200\347`\317"
  58      EFF52F63 
  58      299CE719 
  58      3968A180 
  58      E760CF
  59 0141 58C73228 		.ascii	"X\3072(E\365w\375\0132A\235i~Z\332j\344E\0048\000^0"
  59      45F577FD 
  59      0B32419D 
  59      697E5ADA 
  59      6AE44504 
  60 0159 7807CAB6 		.ascii	"x\007\312\266\301N\031%\244N=\215\362\031\313\255j\251"
  60      C14E1925 
  60      A44E3D8D 
  60      F219CBAD 
  60      6AA9
  61 016b B3D5DB8B 		.ascii	"\263\325\333\213O\011\313e\360\006\223\254\364;\235"
ARM GAS  C:\Users\JEFFSN~1\AppData\Local\Temp\ccn0YLLS.s 			page 4


  61      4F09CB65 
  61      F00693AC 
  61      F43B9D
  62 017a 8104C7A0 		.ascii	"\201\004\307\240\267\355\315]+\355\300\301f\006\332"
  62      B7EDCD5D 
  62      2BEDC0C1 
  62      6606DA
  63 0189 F73248CE 		.ascii	"\3672H\316\032\3608\2254\254\241#\346Cc\362G\375\277"
  63      1AF03895 
  63      34ACA123 
  63      E64363F2 
  63      47FDBF
  64 019c 64FFCCA2 		.ascii	"d\377\314\242\037\230\213\017\\!\330\207\350(\310\254"
  64      1F988B0F 
  64      5C21D887 
  64      E828C8AC 
  65 01ac 78722397 		.ascii	"xr#\227\375I\277R\014\374\033\327\307\246f*%\177\374"
  65      FD49BF52 
  65      0CFC1BD7 
  65      C7A6662A 
  65      257FFC
  66 01bf CAD8D4A5 		.ascii	"\312\330\324\245\363\3437+~ \311\211bP\272]\236\274"
  66      F3E3372B 
  66      7E20C989 
  66      6250BA5D 
  66      9EBC
  67 01d1 75B644EE 		.ascii	"u\266D\356\335\342\304\214\177|:(\006\345\322\305r0"
  67      DDE2C48C 
  67      7F7C3A28 
  67      06E5D2C5 
  67      7230
  68 01e3 FD0FBC88 		.ascii	"\375\017\274\210\307L"
  68      C74C
  69              		.text
  70              		.section	.gnu.lto_fretted_latching_SetDriveMode.47c32bf,"",%progbits
  71 0000 789C7D51 		.ascii	"x\234}Q\273J\003A\024\2353\263\331M\020\363\003\246"
  71      BB4A0341 
  71      149D33B3 
  71      D94D10F3 
  71      03A6
  72 0012 B0130545 		.ascii	"\260\023\005E\021\277@\320V\264\215\210\304\365\001"
  72      11BF40D0 
  72      56B48D88 
  72      C4F501
  73 0021 6A30C4DA 		.ascii	"j0\304\332Ib\024\024A\020mD\264\021\337/T\304..h\031"
  73      49621414 
  73      41106D44 
  73      B411DF2F 
  73      54C42E2E 
  74 0037 3B0B0B11 		.ascii	";\013\013\021\213\024\202\022_\3706\336\273k\221\312"
  74      8B148212 
  74      5FF836DE 
  74      BB6B91CA 
  75 0047 61E73E0E 		.ascii	"a\347>\016\347\034\356\3345\004\004\237\034\245:\312"
  75      E71CEEDC 
  75      3504049F 
  75      1CA53ACA 
ARM GAS  C:\Users\JEFFSN~1\AppData\Local\Temp\ccn0YLLS.s 			page 5


  76 0057 6574A104 		.ascii	"et\241\004\344tV\210\204_\002\\h?\304\210\304\010^\344"
  76      E4745688 
  76      845F025C 
  76      683FC488 
  76      C4085EE4 
  77 006b B784339E 		.ascii	"\267\2043\236;\226\225+\232\316\365\351}\255^\315 \255"
  77      3B96952B 
  77      9ACEF5E9 
  77      7DAD5ECD 
  77      20AD
  78 007d 842848D7 		.ascii	"\204(H\327I`\005\225\304z\332_\236)Q\325\020T?d\363"
  78      49600595 
  78      C47ADA5F 
  78      9E2951D5 
  78      10543F64 
  79 0092 57C18A65 		.ascii	"W\301\212e\255\223Z\037\266k\225V\300*\024)P\037BmH"
  79      AD935A1F 
  79      B66B9556 
  79      C02A1429 
  79      501F426D 
  80 00a7 1020B086 		.ascii	"\020 \260\206\012&\337\354\375\314\226\232\243l_\356"
  80      0A26DFEC 
  80      FDCC969A 
  80      A36C5FEE 
  81 00b7 99621D26 		.ascii	"\231b\035&\217\271\323\232\321\205BJg^\315\223\017\263"
  81      8FB9D39A 
  81      D185424A 
  81      675ECD93 
  81      0FB3
  82 00c9 44924C2A 		.ascii	"D\222L*\012\312\340\340\003;\230\\Z\034\374\034\002"
  82      0ACAE0E0 
  82      033B985C 
  82      5A1CFC1C 
  82      02
  83 00da CC11224F 		.ascii	"\314\021\"O\227\037\362 %g\225\203\3631\221\2337\330"
  83      971FF220 
  83      25679583 
  83      F331919B 
  83      37D8
  84 00ec 39A5F851 		.ascii	"9\245\370Qsi\347\334z\226ie\270\023\277g\217\246\202"
  84      7369E7DC 
  84      7A966965 
  84      B813BF67 
  84      8FA682
  85 00ff 5E7BB394 		.ascii	"^{\263\224\320\006A\007cN\303\"\026\022\243\364Z\037"
  85      D0064107 
  85      634EC322 
  85      1612A3F4 
  85      5A1F
  86 0111 3611C206 		.ascii	"6\021\302\006B4\334\026\026A\373K>Z\236\233\"C\352S"
  86      4234DC16 
  86      1641FB4B 
  86      3E5A9E9B 
  86      2243EA53 
  87 0125 5FA6D71B 		.ascii	"_\246\327\033\004\221\374\362l\362;\300\216\012C\330"
  87      0491FCF2 
  87      6CF23BC0 
ARM GAS  C:\Users\JEFFSN~1\AppData\Local\Temp\ccn0YLLS.s 			page 6


  87      8E0A43D8 
  88 0135 26659184 		.ascii	"&e\221\204>_\261\304\"\210$w\027\033\233\312\223\004"
  88      3E5FB1C4 
  88      22882477 
  88      171B9BCA 
  88      9304
  89 0147 B1E34A52 		.ascii	"\261\343JRo\177\024\277kl\025\273\004\010\245\336\231"
  89      6F7F14BF 
  89      6B6C15BB 
  89      0408A5DE 
  89      99
  90 0158 03F7FF4C 		.ascii	"\003\367\377L\274K\023\023]\334\"\231\371lb\262\373"
  90      BC4B1313 
  90      5DDC2299 
  90      F96C62B2 
  90      FB
  91 0169 E3F212BC 		.ascii	"\343\362\022\274\034ZUU\263=h\307:\343vWG[t8\026\261"
  91      1C5A5555 
  91      B33D68C7 
  91      3AE37657 
  91      475B7438 
  92 017f C32D6DD1 		.ascii	"\303-m\321\306\206pw\314\2163\330\337\031\217\364\366"
  92      C6867077 
  92      CC8E33D8 
  92      DF198FF4 
  92      F6
  93 0190 0DF6D444 		.ascii	"\015\366\324D\2041\020\355\262\177\001\215~\251\017"
  93      843110ED 
  93      B27F018D 
  93      7EA90F
  94              		.text
  95              		.section	.gnu.lto_fretted_latching_Read.47c32bf,"",%progbits
  96 0000 789C354F 		.ascii	"x\2345OMKBQ\020\235s\357\323'A\364\003r\321\326\210"
  96      4D4B4251 
  96      109D73EF 
  96      D32741F4 
  96      0372D1D6 
  97 0015 082288B6 		.ascii	"\010\"\210\266Am#\241\225\020b\257\017\010\005\261\265"
  97      416D23A1 
  97      951062AF 
  97      0F0805B1 
  97      B5
  98 0026 CFAF8268 		.ascii	"\317\257\202hQ\213jS\271\210P+\251VnU\210\202\242\010"
  98      518B6A53 
  98      B988502B 
  98      A9566E55 
  98      8882A208 
  99 003a 0A5A4544 		.ascii	"\012ZED\270hUR\010R\331L\257\006\356\314\235\231s\346"
  99      B8685552 
  99      0852D94C 
  99      AF06EECC 
  99      9D9973E6 
 100 004e CC180412 		.ascii	"\314\030\004\022\233\340\320\303\261\223\0374A\255^"
 100      9BE0D0C3 
 100      B1931F34 
 100      41AD5E
 101 005d 11253C0A 		.ascii	"\021%<\012\220\217\355\001\305\025\342\370P_\012\027"
ARM GAS  C:\Users\JEFFSN~1\AppData\Local\Temp\ccn0YLLS.s 			page 7


 101      908FED01 
 101      C515E2F8 
 101      505F0A17 
 102 006d 8DF39536 		.ascii	"\215\363\2256_\316\266\223\366\343^sp3_FF\023\265\024"
 102      5FCEB693 
 102      F6E35E73 
 102      70335F46 
 102      4613B514 
 103 0081 A1DF8B3E 		.ascii	"\241\337\213>\257\214\310\301G\014}:\371^ow\247m\266"
 103      AF8CC8C1 
 103      470C7D3A 
 103      F95E6F77 
 103      A76DB6
 104 0094 2E017027 		.ascii	".\001p'\017\267H\036\215\227\355V+e\227\357\314\312"
 104      0FB7481E 
 104      8D97ED56 
 104      2B6597EF 
 104      CCCA
 105 00a6 BD698232 		.ascii	"\275i\2022\232u\331\031\354\224K\234\233d,\2752M\226"
 105      9A75D919 
 105      EC944B9C 
 105      9B642CBD 
 105      324D96
 106 00b9 78534AA2 		.ascii	"xSJ\242\256\241\332\\~\330\031\222I)\255Ye#S\2756\337"
 106      AEA1DA5C 
 106      7ED81992 
 106      4929AD59 
 106      652353BD 
 107 00cf 55466B88 		.ascii	"UFk\210ha\255T\377K+\273\011\333\340R\242T<3\263\330"
 107      6861AD54 
 107      FF4B2BBB 
 107      09DBE052 
 107      A2543C33 
 108 00e5 4EA47955 		.ascii	"N\244yU\003\373\360\242\000^\024\007\310\202jH}\216"
 108      03FBF0A2 
 108      005E1407 
 108      C8826A48 
 108      7D8E
 109 00f7 504AC319 		.ascii	"PJ\303\031w\223>\336\322\302\007\014\0342\254\206d}"
 109      77933EDE 
 109      D2C2070C 
 109      1C32AC86 
 109      647D
 110 0109 E9D27004 		.ascii	"\351\322p\004\015\306\011\243\276xk:\025\027\027\231"
 110      0DC609A3 
 110      BE786B3A 
 110      15171799 
 111 0119 76DA6A94 		.ascii	"v\332j\224;\204\246\240P\374\247=\303\001\011\216^\270"
 111      3B84A6A0 
 111      50FCA73D 
 111      C301098E 
 111      5EB8
 112 012b E364F47B 		.ascii	"\343d\364{\030\344 >\257{\324\012[\321`\314\232\232"
 112      18E4203E 
 112      AF7BD40A 
 112      5BD160CC 
 112      9A9A
ARM GAS  C:\Users\JEFFSN~1\AppData\Local\Temp\ccn0YLLS.s 			page 8


 113 013d F44716A2 		.ascii	"\364G\026\242!+0\346\217\014\017\004\246\243VL\212\363"
 113      212B30E6 
 113      8F0C0F04 
 113      A6A3564C 
 113      8AF3
 114 014f C1586876 		.ascii	"\301Xhv.<\323\033\242\037\343\025\177\216"
 114      2E3CD31B 
 114      A21FE315 
 114      7F8E
 115              		.text
 116              		.section	.gnu.lto_fretted_latching_ReadDataReg.47c32bf,"",%progbits
 117 0000 789C354F 		.ascii	"x\2345O;KCQ\014\316w\316\355\203\242\370\003\354\340"
 117      3B4B4351 
 117      0CCE77CE 
 117      ED83A2F8 
 117      03ECE0
 118 0013 5A1111C4 		.ascii	"Z\021\021\304AWAWQp*H\251\327\007H\013\245\316\275}"
 118      41574157 
 118      51702A48 
 118      A9D70748 
 118      0BA5CEBD 
 119 0028 298A838B 		.ascii	")\212\203\213vQ:\210\264\365\355\342&\\\013\202\240"
 119      76513A88 
 119      B4F5EDE2 
 119      265C0B82 
 119      A0
 120 0039 A80557A1 		.ascii	"\250\005W\241\210tp\322\242\024D[\023\257\006Nr\222"
 120      887470D2 
 120      A214445B 
 120      13AF064E 
 120      7292
 121 004b 7C5FBEC4 		.ascii	"|_\276\304 \220\330$\207\036\216\235\374\240\011j\375"
 121      2090D824 
 121      871E8E9D 
 121      FCA0096A 
 121      FD
 122 005c 9628E955 		.ascii	"\226(\351U\200|,/(\241\220\300\207\372V\270n\\\255\371"
 122      807C2C2F 
 122      28A190C0 
 122      87FA56B8 
 122      6E5CADF9 
 123 0070 0205CB4A 		.ascii	"\002\005\313JY\325\335\302`\256h#\253\211Z\212\320\357"
 123      59D5DDC2 
 123      60AE6823 
 123      AB895A8A 
 123      D0EF
 124 0082 479F5F46 		.ascii	"G\237_F\024\020 \206>\23567\332\335\031\213\255K\000"
 124      14102086 
 124      3E9D3637 
 124      DADD198B 
 124      AD4B00
 125 0095 DC29C22D 		.ascii	"\334)\302-\222\307\343\266\325j\245-\373\334wq\357\363"
 125      92C7E3B6 
 125      D56AA52D 
 125      FBDC7771 
 125      EFF3
 126 00a7 80B29A75 		.ascii	"\200\262\232u\331\031\354\224K\234\233d,\2752M\226x"
ARM GAS  C:\Users\JEFFSN~1\AppData\Local\Temp\ccn0YLLS.s 			page 9


 126      D919EC94 
 126      4B9C9B64 
 126      2CBD324D 
 126      9678
 127 00b9 534AA2AE 		.ascii	"SJ\242\256\241\374\271\332,\015\311\244\264\326\254"
 127      A1FCB9DA 
 127      2C0DC9A4 
 127      B4D6AC
 128 00c8 B2992DDF 		.ascii	"\262\231-\337y\336UVk\210h\245\370\230\373K\355\235"
 128      79DE5556 
 128      6B8868A5 
 128      F898FB4B 
 128      ED9D
 129 00da A46570E9 		.ascii	"\244ep\351\350\254\272\322\226\307v2\303\253\032\330"
 129      E8ACBAD2 
 129      96C77632 
 129      C3AB1AD8 
 130 00ea 831F25F0 		.ascii	"\203\037%\360\242\330G\036TC\372k\204\322\032\316\270"
 130      A2D8471E 
 130      5443FA6B 
 130      84D21ACE 
 130      B8
 131 00fb 4AE6644B 		.ascii	"J\346dK\013\0370p\300\260\032R\365\345\033\303\0214"
 131      0B1F3070 
 131      C0B01A52 
 131      F5E51BC3 
 131      1134
 132 010d 18278CFA 		.ascii	"\030'\214\372\322\203\307\251\270\270\310\264\313V\303"
 132      D283C7A9 
 132      B8B8C8B4 
 132      CB56C3
 133 011c EE109A82 		.ascii	"\356\020\232\202\302\341?\355\031\016Hp\364\302\035"
 133      C2E13FED 
 133      190E4870 
 133      F4C21D
 134 012b 27A3DFC3 		.ascii	"'\243\337\303 \007\361y\335\243f\304\214\205\342\346"
 134      2007F179 
 134      DDA366C4 
 134      8C85E2E6 
 135 013b F4D44474 		.ascii	"\364\324Dt1\0266\203c\023\321\341\201\340L\314\214K"
 135      31163683 
 135      6313D1E1 
 135      81E04CCC 
 135      8C4B
 136 014d 7121140F 		.ascii	"q!\024\017\317\315Gf{\303\364\003\236\372\177|"
 136      CFCD4766 
 136      7BC3F403 
 136      9EFA7F7C 
 137              		.text
 138              		.section	.gnu.lto_.symbol_nodes.47c32bf,"",%progbits
 139 0000 789C6361 		.ascii	"x\234ca`dpc\000\002&\206z\006\206\011\347\030@\324\256"
 139      60647063 
 139      00022686 
 139      7A068609 
 139      E71840D4 
 140 0015 0645A000 		.ascii	"\006E\240\000c=#\252\000S=\023\252\000s=3\212\000\003"
 140      633D23AA 
ARM GAS  C:\Users\JEFFSN~1\AppData\Local\Temp\ccn0YLLS.s 			page 10


 140      00533D13 
 140      AA00733D 
 140      338A0003 
 141 0029 0026B60F 		.ascii	"\000&\266\017<"
 141      3C
 142              		.text
 143              		.section	.gnu.lto_.refs.47c32bf,"",%progbits
 144 0000 789C6361 		.ascii	"x\234ca`\004B \000\000\0009\000\007"
 144      60044220 
 144      00000039 
 144      0007
 145              		.text
 146              		.section	.gnu.lto_.decls.47c32bf,"",%progbits
 147 0000 789C8D53 		.ascii	"x\234\215S]H\024Q\024\276gfv\265\311\237\220\022\037"
 147      5D481451 
 147      14BE6766 
 147      76B5C99F 
 147      90121F
 148 0013 36D87C92 		.ascii	"6\330|\222\036$\211\300 JP\362\251\014E{\021d]']\010"
 148      1E2489C0 
 148      204A50F2 
 148      A90C457B 
 148      11645D27 
 149 0029 8D6D0D7C 		.ascii	"\215m\015|\273\271\366c\277Jii\206?\017\265\233\377"
 149      BBB9F663 
 149      BF4A6969 
 149      863F0FB5 
 149      9BFF
 150 003b B96BBA69 		.ascii	"\271k\272i\232\220\211 (\206\020FY\346\203d\240d\201"
 150      9A908920 
 150      28861046 
 150      59E68364 
 150      A06481
 151 004e 906DE7DE 		.ascii	"\220m\347\336\231i\026\335\300\303\234\231s\356=\337"
 151      996916DD 
 151      C0C39C99 
 151      73EE3DDF 
 152 005e 77BE7B66 		.ascii	"w\276{fF\"@\230\245I\204L\342\323\202i\020\315\204q"
 152      46224098 
 152      A549844C 
 152      E2D38269 
 152      10CD8471 
 153 0072 1E310CB7 		.ascii	"\0361\014\267I\037\272\037}\000=@\266\033\3337k\270"
 153      491FBA1F 
 153      7D003D40 
 153      B61BDB37 
 153      6BB8
 154 0084 2EC6853E 		.ascii	".\306\205>\202>\214\236\245\325\200V\267\325\374a\260"
 154      823E8C9E 
 154      A5D58056 
 154      B7D5FC61 
 154      B0
 155 0095 6321781D 		.ascii	"c!x\035\353\017\203ezL!\270\2540\270\2010\270\300\016"
 155      EB0F8365 
 155      7A4C21B8 
 155      AC30B881 
 155      30B8C00E 
ARM GAS  C:\Users\JEFFSN~1\AppData\Local\Temp\ccn0YLLS.s 			page 11


 156 00a9 70E1CEB9 		.ascii	"p\341\316\271)@\260\331w7r\036\336\203H\264\001\022"
 156      2940B0D9 
 156      7737721E 
 156      DE8348B4 
 156      0112
 157 00bb 00F50EDC 		.ascii	"\000\365\016\334\211\352<\305@ j\240/\3753\242\225\010"
 157      89EA3CC5 
 157      40206AA0 
 157      2FFD33A2 
 157      9508
 158 00cd 7A6890F1 		.ascii	"zh\220\361K\303CP7Nb\260\203\006Rs]\267\006\002\301"
 158      4BC34350 
 158      374E62B0 
 158      83065273 
 158      5DB70602 
 159 00e2 68006AAA 		.ascii	"h\000j\252#B\370\266(\3225\353m\210\240\037\372\327"
 159      2342F8B6 
 159      28D235EB 
 159      6D88A01F 
 159      FAD7
 160 00f4 E7DBEBD1 		.ascii	"\347\333\353\321\242\000,\376\264\3419\231\334A\321"
 160      A2002CFE 
 160      B4E13999 
 160      DC41D1
 161 0103 6A28158E 		.ascii	"j(\025\216\032\223\351\276\362\325\033\271.\200E\206"
 161      1A93E9BE 
 161      F2D51BB9 
 161      2E804586 
 162 0113 20B07C65 		.ascii	" \260|ep#Z\315\331vC\355\342\237\335b\"\213\205\331"
 162      70235ACD 
 162      D97643ED 
 162      E29FDD62 
 162      228B85D9 
 163 0127 C5F66509 		.ascii	"\305\366e\011\222\344'\214f\241w\351\370 \245{\240\013"
 163      92E4278C 
 163      66A177E9 
 163      F820A57B 
 163      A00B
 164 0139 64E80011 		.ascii	"d\350\000\021\274\220\3144Xd\274_\247\264\222\256\266"
 164      BC90CC34 
 164      5864BC5F 
 164      A7B492AE 
 164      B6
 165 014a 51730281 		.ascii	"Qs\002\201\303\0268d!\320\011I\214\223UA;X\340\031X"
 165      C3163864 
 165      21D00949 
 165      8C935541 
 165      3B58E019 
 166 015f 18FFD283 		.ascii	"\030\377\322\203\346of\011%s\236B\211\255\315T\3654"
 166      E66F6609 
 166      25739E42 
 166      89ADCD54 
 166      F534
 167 0171 8928214E 		.ascii	"\211(!N\006\011\323\265\251\306\305\030L\367\312`\305"
 167      0609D3B5 
 167      A9C6C518 
 167      4CF7CA60 
ARM GAS  C:\Users\JEFFSN~1\AppData\Local\Temp\ccn0YLLS.s 			page 12


 167      C5
 168 0182 B423F061 		.ascii	"\264#\360a\305\234P\317\217\342\246V\011\362\342\241"
 168      C59C50CF 
 168      8FE2A656 
 168      09F2E2A1 
 169 0192 17097B90 		.ascii	"\027\011{\220\220\300sH\300{7H\352\351\256\335\371\362"
 169      90C07348 
 169      C07B3748 
 169      EAE9AEDD 
 169      F9F2
 170 01a4 D19CD842 		.ascii	"\321\234\330B[z\350\202\177\374X\275\233N \316\312\312"
 170      5B7AE882 
 170      7FFC58BD 
 170      9B4E20CE 
 170      CACA
 171 01b6 C06388F6 		.ascii	"\300c\210\366\260\357\202\300S\230\307\031\366A\"\""
 171      B0EF82C0 
 171      5398C719 
 171      F6412222 
 172 01c6 EB1F7B5B 		.ascii	"\353\037{[c\304r>\204[\357\256\376\024U\226\321\365"
 172      63C4723E 
 172      845BEFAE 
 172      FE145596 
 172      D1F5
 173 01d8 F1285A73 		.ascii	"\361(Zs\231\3224\316\34138|\241\034~\3161w\177lb\227"
 173      99D234CE 
 173      E133387C 
 173      A11C7ECE 
 173      31777F6C 
 174 01ee 780F38C9 		.ascii	"x\0178\311\364\3157\356\330P\335\354\300\206\360\027"
 174      F4CD37EE 
 174      D850DDEC 
 174      C086F017 
 175 01fe 5C78A1A6 		.ascii	"\\x\241\246\333\363\233N\304j\035g\337\212\015t\264"
 175      DBF39B4E 
 175      C46A1D67 
 175      DF8A0D74 
 175      B4
 176 020f 0A7102AB 		.ascii	"\012q\002\253\202~\243g\177h\317\001\336\263\272i\255"
 176      827EA367 
 176      7F68CF01 
 176      DEB3BA69 
 176      AD
 177 0220 4D14BD6A 		.ascii	"M\024\275j\317\345\326\272F\235&0\251\013g$\203\006"
 177      CFE5D6BA 
 177      469D2630 
 177      A90B6724 
 177      8306
 178 0232 C9602849 		.ascii	"\311`(I\200\223\254W\375\2303\313\370\026\335;{\213"
 178      8093AC57 
 178      FD9833CB 
 178      F816DD3B 
 178      7B8B
 179 0244 53CBADC1 		.ascii	"S\313\255\301\010q\2347\025\372\352\032\352\"@N\012"
 179      08719C37 
 179      15FAEA1A 
 179      EA22404E 
ARM GAS  C:\Users\JEFFSN~1\AppData\Local\Temp\ccn0YLLS.s 			page 13


 179      0A
 180 0255 037F1506 		.ascii	"\003\177\025\006\256}M\235\271\265\325\354\204\3038"
 180      AE7D4D9D 
 180      B9B5D5EC 
 180      84C338
 181 0264 952143DC 		.ascii	"\225!C\334K\220\325\211\370\246\277w\233\242n\260\017"
 181      4B90D589 
 181      F8A6BF77 
 181      9BA26EB0 
 181      0F
 182 0275 0BC71737 		.ascii	"\013\307\0277\021\303+\215\371\215@\024\377\007\360"
 182      11C32B8D 
 182      F98D4014 
 182      FF07F0
 183 0284 B9298843 		.ascii	"\271)\210Cs\217\232D\334c\227\334HQ\012\235\001\030"
 183      738F9A44 
 183      DC6397DC 
 183      48510A9D 
 183      0118
 184 0296 43329EAC 		.ascii	"C2\236\254\236\3401[\246\253\225\324\3740F\227H\370"
 184      9EE0315B 
 184      A6AB95D4 
 184      FC304697 
 184      48F8
 185 02a8 06815144 		.ascii	"\006\201QD\276Fb\236\306\237s*.\227RTp\336\346\262\227"
 185      BE46629E 
 185      C69F732A 
 185      2E975254 
 185      70DEE6B2 
 186 02bd 384A8B0B 		.ascii	"8J\213\013\316:\035.%2\363t\2565=%\205\230\312\035\245"
 186      CE3A1D2E 
 186      2532F374 
 186      AE353D25 
 186      8598CA1D 
 187 02d2 AED40399 		.ascii	"\256\324\003\231J\251\342\264\261\272\234\262r\247]"
 187      4AA9E2B4 
 187      B1BA9CB2 
 187      72A75D
 188 02e1 C93F9353 		.ascii	"\311?\223S\226~$\337^\341\252\270\240\\L.!\007\377S"
 188      967E24DF 
 188      5EE1AAB8 
 188      A05C4C2E 
 188      2107FF53 
 189 02f5 B1953ED9 		.ascii	"\261\225>\331N\366ok\231\243\2702\234\216K\312\251\262"
 189      4EF66F6B 
 189      99A3B832 
 189      9C8E4BCA 
 189      A9B2
 190 0307 2265DFB6 		.ascii	"\"e\337\266\335l\305Vd\011\273\232as\331\262\225b\311"
 190      DD6CC556 
 190      6409BB9A 
 190      6173D9B2 
 190      9562C9
 191 031a A914A7FE 		.ascii	"\251\024\247\376\005Sey?"
 191      05536579 
 191      3F
 192              		.text
ARM GAS  C:\Users\JEFFSN~1\AppData\Local\Temp\ccn0YLLS.s 			page 14


 193              		.section	.gnu.lto_.symtab.47c32bf,"",%progbits
 194 0000 66726574 		.ascii	"fretted_latching_Write\000"
 194      7465645F 
 194      6C617463 
 194      68696E67 
 194      5F577269 
 195 0017 00       		.ascii	"\000"
 196 0018 00       		.ascii	"\000"
 197 0019 00       		.ascii	"\000"
 198 001a 00000000 		.ascii	"\000\000\000\000\000\000\000\000"
 198      00000000 
 199 0022 B3000000 		.ascii	"\263\000\000\000"
 200 0026 66726574 		.ascii	"fretted_latching_SetDriveMode\000"
 200      7465645F 
 200      6C617463 
 200      68696E67 
 200      5F536574 
 201 0044 00       		.ascii	"\000"
 202 0045 00       		.ascii	"\000"
 203 0046 00       		.ascii	"\000"
 204 0047 00000000 		.ascii	"\000\000\000\000\000\000\000\000"
 204      00000000 
 205 004f B5000000 		.ascii	"\265\000\000\000"
 206 0053 66726574 		.ascii	"fretted_latching_Read\000"
 206      7465645F 
 206      6C617463 
 206      68696E67 
 206      5F526561 
 207 0069 00       		.ascii	"\000"
 208 006a 00       		.ascii	"\000"
 209 006b 00       		.ascii	"\000"
 210 006c 00000000 		.ascii	"\000\000\000\000\000\000\000\000"
 210      00000000 
 211 0074 B8000000 		.ascii	"\270\000\000\000"
 212 0078 66726574 		.ascii	"fretted_latching_ReadDataReg\000"
 212      7465645F 
 212      6C617463 
 212      68696E67 
 212      5F526561 
 213 0095 00       		.ascii	"\000"
 214 0096 00       		.ascii	"\000"
 215 0097 00       		.ascii	"\000"
 216 0098 00000000 		.ascii	"\000\000\000\000\000\000\000\000"
 216      00000000 
 217 00a0 BA000000 		.ascii	"\272\000\000\000"
 218              		.text
 219              		.section	.gnu.lto_.opts,"",%progbits
 220 0000 272D666D 		.ascii	"'-fmath-errno' '-fsigned-zeros' '-ftrapping-math' '"
 220      6174682D 
 220      6572726E 
 220      6F272027 
 220      2D667369 
 221 0033 2D666E6F 		.ascii	"-fno-trapv' '-fno-openmp' '-fno-openacc' '-mcpu=cor"
 221      2D747261 
 221      70762720 
 221      272D666E 
 221      6F2D6F70 
ARM GAS  C:\Users\JEFFSN~1\AppData\Local\Temp\ccn0YLLS.s 			page 15


 222 0066 7465782D 		.ascii	"tex-m3' '-mthumb' '-g' '-O3' '-ffunction-sections' "
 222      6D332720 
 222      272D6D74 
 222      68756D62 
 222      2720272D 
 223 0099 272D6666 		.ascii	"'-ffat-lto-objects' '-finline-functions' '-flto'\000"
 223      61742D6C 
 223      746F2D6F 
 223      626A6563 
 223      74732720 
 224              		.text
 225              		.cfi_sections	.debug_frame
 226              		.section	.text.fretted_latching_Write,"ax",%progbits
 227              		.align	2
 228              		.global	fretted_latching_Write
 229              		.thumb
 230              		.thumb_func
 231              		.type	fretted_latching_Write, %function
 232              	fretted_latching_Write:
 233              	.LFB0:
 234              		.file 1 "Generated_Source\\PSoC5\\fretted_latching.c"
   1:Generated_Source\PSoC5/fretted_latching.c **** /*******************************************************************************
   2:Generated_Source\PSoC5/fretted_latching.c **** * File Name: fretted_latching.c  
   3:Generated_Source\PSoC5/fretted_latching.c **** * Version 2.20
   4:Generated_Source\PSoC5/fretted_latching.c **** *
   5:Generated_Source\PSoC5/fretted_latching.c **** * Description:
   6:Generated_Source\PSoC5/fretted_latching.c **** *  This file contains API to enable firmware control of a Pins component.
   7:Generated_Source\PSoC5/fretted_latching.c **** *
   8:Generated_Source\PSoC5/fretted_latching.c **** * Note:
   9:Generated_Source\PSoC5/fretted_latching.c **** *
  10:Generated_Source\PSoC5/fretted_latching.c **** ********************************************************************************
  11:Generated_Source\PSoC5/fretted_latching.c **** * Copyright 2008-2015, Cypress Semiconductor Corporation.  All rights reserved.
  12:Generated_Source\PSoC5/fretted_latching.c **** * You may use this file only in accordance with the license, terms, conditions, 
  13:Generated_Source\PSoC5/fretted_latching.c **** * disclaimers, and limitations in the end user license agreement accompanying 
  14:Generated_Source\PSoC5/fretted_latching.c **** * the software package with which this file was provided.
  15:Generated_Source\PSoC5/fretted_latching.c **** *******************************************************************************/
  16:Generated_Source\PSoC5/fretted_latching.c **** 
  17:Generated_Source\PSoC5/fretted_latching.c **** #include "cytypes.h"
  18:Generated_Source\PSoC5/fretted_latching.c **** #include "fretted_latching.h"
  19:Generated_Source\PSoC5/fretted_latching.c **** 
  20:Generated_Source\PSoC5/fretted_latching.c **** /* APIs are not generated for P15[7:6] on PSoC 5 */
  21:Generated_Source\PSoC5/fretted_latching.c **** #if !(CY_PSOC5A &&\
  22:Generated_Source\PSoC5/fretted_latching.c **** 	 fretted_latching__PORT == 15 && ((fretted_latching__MASK & 0xC0) != 0))
  23:Generated_Source\PSoC5/fretted_latching.c **** 
  24:Generated_Source\PSoC5/fretted_latching.c **** 
  25:Generated_Source\PSoC5/fretted_latching.c **** /*******************************************************************************
  26:Generated_Source\PSoC5/fretted_latching.c **** * Function Name: fretted_latching_Write
  27:Generated_Source\PSoC5/fretted_latching.c **** ****************************************************************************//**
  28:Generated_Source\PSoC5/fretted_latching.c **** *
  29:Generated_Source\PSoC5/fretted_latching.c **** * \brief Writes the value to the physical port (data output register), masking
  30:Generated_Source\PSoC5/fretted_latching.c **** *  and shifting the bits appropriately. 
  31:Generated_Source\PSoC5/fretted_latching.c **** *
  32:Generated_Source\PSoC5/fretted_latching.c **** * The data output register controls the signal applied to the physical pin in 
  33:Generated_Source\PSoC5/fretted_latching.c **** * conjunction with the drive mode parameter. This function avoids changing 
  34:Generated_Source\PSoC5/fretted_latching.c **** * other bits in the port by using the appropriate method (read-modify-write or
  35:Generated_Source\PSoC5/fretted_latching.c **** * bit banding).
  36:Generated_Source\PSoC5/fretted_latching.c **** *
ARM GAS  C:\Users\JEFFSN~1\AppData\Local\Temp\ccn0YLLS.s 			page 16


  37:Generated_Source\PSoC5/fretted_latching.c **** * <b>Note</b> This function should not be used on a hardware digital output pin 
  38:Generated_Source\PSoC5/fretted_latching.c **** * as it is driven by the hardware signal attached to it.
  39:Generated_Source\PSoC5/fretted_latching.c **** *
  40:Generated_Source\PSoC5/fretted_latching.c **** * \param value
  41:Generated_Source\PSoC5/fretted_latching.c **** *  Value to write to the component instance.
  42:Generated_Source\PSoC5/fretted_latching.c **** *
  43:Generated_Source\PSoC5/fretted_latching.c **** * \return 
  44:Generated_Source\PSoC5/fretted_latching.c **** *  None 
  45:Generated_Source\PSoC5/fretted_latching.c **** *
  46:Generated_Source\PSoC5/fretted_latching.c **** * \sideeffect
  47:Generated_Source\PSoC5/fretted_latching.c **** *  If you use read-modify-write operations that are not atomic; the Interrupt 
  48:Generated_Source\PSoC5/fretted_latching.c **** *  Service Routines (ISR) can cause corruption of this function. An ISR that 
  49:Generated_Source\PSoC5/fretted_latching.c **** *  interrupts this function and performs writes to the Pins component data 
  50:Generated_Source\PSoC5/fretted_latching.c **** *  register can cause corrupted port data. To avoid this issue, you should 
  51:Generated_Source\PSoC5/fretted_latching.c **** *  either use the Per-Pin APIs (primary method) or disable interrupts around 
  52:Generated_Source\PSoC5/fretted_latching.c **** *  this function.
  53:Generated_Source\PSoC5/fretted_latching.c **** *
  54:Generated_Source\PSoC5/fretted_latching.c **** * \funcusage
  55:Generated_Source\PSoC5/fretted_latching.c **** *  \snippet fretted_latching_SUT.c usage_fretted_latching_Write
  56:Generated_Source\PSoC5/fretted_latching.c **** *******************************************************************************/
  57:Generated_Source\PSoC5/fretted_latching.c **** void fretted_latching_Write(uint8 value)
  58:Generated_Source\PSoC5/fretted_latching.c **** {
 235              		.loc 1 58 0
 236              		.cfi_startproc
 237              		@ args = 0, pretend = 0, frame = 0
 238              		@ frame_needed = 0, uses_anonymous_args = 0
 239              		@ link register save eliminated.
 240              	.LVL0:
  59:Generated_Source\PSoC5/fretted_latching.c ****     uint8 staticBits = (fretted_latching_DR & (uint8)(~fretted_latching_MASK));
 241              		.loc 1 59 0
 242 0000 044A     		ldr	r2, .L2
  60:Generated_Source\PSoC5/fretted_latching.c ****     fretted_latching_DR = staticBits | ((uint8)(value << fretted_latching_SHIFT) & fretted_latching
 243              		.loc 1 60 0
 244 0002 8000     		lsls	r0, r0, #2
 245              	.LVL1:
  59:Generated_Source\PSoC5/fretted_latching.c ****     uint8 staticBits = (fretted_latching_DR & (uint8)(~fretted_latching_MASK));
 246              		.loc 1 59 0
 247 0004 1378     		ldrb	r3, [r2]	@ zero_extendqisi2
 248              	.LVL2:
 249              		.loc 1 60 0
 250 0006 00F00400 		and	r0, r0, #4
 251 000a 03F0FB03 		and	r3, r3, #251
 252              	.LVL3:
 253 000e 1843     		orrs	r0, r0, r3
 254 0010 1070     		strb	r0, [r2]
 255 0012 7047     		bx	lr
 256              	.L3:
 257              		.align	2
 258              	.L2:
 259 0014 C0510040 		.word	1073762752
 260              		.cfi_endproc
 261              	.LFE0:
 262              		.size	fretted_latching_Write, .-fretted_latching_Write
 263              		.section	.text.fretted_latching_SetDriveMode,"ax",%progbits
 264              		.align	2
 265              		.global	fretted_latching_SetDriveMode
 266              		.thumb
ARM GAS  C:\Users\JEFFSN~1\AppData\Local\Temp\ccn0YLLS.s 			page 17


 267              		.thumb_func
 268              		.type	fretted_latching_SetDriveMode, %function
 269              	fretted_latching_SetDriveMode:
 270              	.LFB1:
  61:Generated_Source\PSoC5/fretted_latching.c **** }
  62:Generated_Source\PSoC5/fretted_latching.c **** 
  63:Generated_Source\PSoC5/fretted_latching.c **** 
  64:Generated_Source\PSoC5/fretted_latching.c **** /*******************************************************************************
  65:Generated_Source\PSoC5/fretted_latching.c **** * Function Name: fretted_latching_SetDriveMode
  66:Generated_Source\PSoC5/fretted_latching.c **** ****************************************************************************//**
  67:Generated_Source\PSoC5/fretted_latching.c **** *
  68:Generated_Source\PSoC5/fretted_latching.c **** * \brief Sets the drive mode for each of the Pins component's pins.
  69:Generated_Source\PSoC5/fretted_latching.c **** * 
  70:Generated_Source\PSoC5/fretted_latching.c **** * <b>Note</b> This affects all pins in the Pins component instance. Use the
  71:Generated_Source\PSoC5/fretted_latching.c **** * Per-Pin APIs if you wish to control individual pin's drive modes.
  72:Generated_Source\PSoC5/fretted_latching.c **** *
  73:Generated_Source\PSoC5/fretted_latching.c **** * \param mode
  74:Generated_Source\PSoC5/fretted_latching.c **** *  Mode for the selected signals. Valid options are documented in 
  75:Generated_Source\PSoC5/fretted_latching.c **** *  \ref driveMode.
  76:Generated_Source\PSoC5/fretted_latching.c **** *
  77:Generated_Source\PSoC5/fretted_latching.c **** * \return
  78:Generated_Source\PSoC5/fretted_latching.c **** *  None
  79:Generated_Source\PSoC5/fretted_latching.c **** *
  80:Generated_Source\PSoC5/fretted_latching.c **** * \sideeffect
  81:Generated_Source\PSoC5/fretted_latching.c **** *  If you use read-modify-write operations that are not atomic, the ISR can
  82:Generated_Source\PSoC5/fretted_latching.c **** *  cause corruption of this function. An ISR that interrupts this function 
  83:Generated_Source\PSoC5/fretted_latching.c **** *  and performs writes to the Pins component Drive Mode registers can cause 
  84:Generated_Source\PSoC5/fretted_latching.c **** *  corrupted port data. To avoid this issue, you should either use the Per-Pin
  85:Generated_Source\PSoC5/fretted_latching.c **** *  APIs (primary method) or disable interrupts around this function.
  86:Generated_Source\PSoC5/fretted_latching.c **** *
  87:Generated_Source\PSoC5/fretted_latching.c **** * \funcusage
  88:Generated_Source\PSoC5/fretted_latching.c **** *  \snippet fretted_latching_SUT.c usage_fretted_latching_SetDriveMode
  89:Generated_Source\PSoC5/fretted_latching.c **** *******************************************************************************/
  90:Generated_Source\PSoC5/fretted_latching.c **** void fretted_latching_SetDriveMode(uint8 mode)
  91:Generated_Source\PSoC5/fretted_latching.c **** {
 271              		.loc 1 91 0
 272              		.cfi_startproc
 273              		@ args = 0, pretend = 0, frame = 0
 274              		@ frame_needed = 0, uses_anonymous_args = 0
 275              		@ link register save eliminated.
 276              	.LVL4:
  92:Generated_Source\PSoC5/fretted_latching.c **** 	CyPins_SetPinDriveMode(fretted_latching_0, mode);
 277              		.loc 1 92 0
 278 0000 044A     		ldr	r2, .L5
 279 0002 00F00E00 		and	r0, r0, #14
 280              	.LVL5:
 281 0006 1378     		ldrb	r3, [r2]	@ zero_extendqisi2
 282 0008 03F0F103 		and	r3, r3, #241
 283 000c 1843     		orrs	r0, r0, r3
 284 000e 1070     		strb	r0, [r2]
 285 0010 7047     		bx	lr
 286              	.L6:
 287 0012 00BF     		.align	2
 288              	.L5:
 289 0014 62500040 		.word	1073762402
 290              		.cfi_endproc
 291              	.LFE1:
ARM GAS  C:\Users\JEFFSN~1\AppData\Local\Temp\ccn0YLLS.s 			page 18


 292              		.size	fretted_latching_SetDriveMode, .-fretted_latching_SetDriveMode
 293              		.section	.text.fretted_latching_Read,"ax",%progbits
 294              		.align	2
 295              		.global	fretted_latching_Read
 296              		.thumb
 297              		.thumb_func
 298              		.type	fretted_latching_Read, %function
 299              	fretted_latching_Read:
 300              	.LFB2:
  93:Generated_Source\PSoC5/fretted_latching.c **** }
  94:Generated_Source\PSoC5/fretted_latching.c **** 
  95:Generated_Source\PSoC5/fretted_latching.c **** 
  96:Generated_Source\PSoC5/fretted_latching.c **** /*******************************************************************************
  97:Generated_Source\PSoC5/fretted_latching.c **** * Function Name: fretted_latching_Read
  98:Generated_Source\PSoC5/fretted_latching.c **** ****************************************************************************//**
  99:Generated_Source\PSoC5/fretted_latching.c **** *
 100:Generated_Source\PSoC5/fretted_latching.c **** * \brief Reads the associated physical port (pin status register) and masks 
 101:Generated_Source\PSoC5/fretted_latching.c **** *  the required bits according to the width and bit position of the component
 102:Generated_Source\PSoC5/fretted_latching.c **** *  instance. 
 103:Generated_Source\PSoC5/fretted_latching.c **** *
 104:Generated_Source\PSoC5/fretted_latching.c **** * The pin's status register returns the current logic level present on the 
 105:Generated_Source\PSoC5/fretted_latching.c **** * physical pin.
 106:Generated_Source\PSoC5/fretted_latching.c **** *
 107:Generated_Source\PSoC5/fretted_latching.c **** * \return 
 108:Generated_Source\PSoC5/fretted_latching.c **** *  The current value for the pins in the component as a right justified number.
 109:Generated_Source\PSoC5/fretted_latching.c **** *
 110:Generated_Source\PSoC5/fretted_latching.c **** * \funcusage
 111:Generated_Source\PSoC5/fretted_latching.c **** *  \snippet fretted_latching_SUT.c usage_fretted_latching_Read  
 112:Generated_Source\PSoC5/fretted_latching.c **** *******************************************************************************/
 113:Generated_Source\PSoC5/fretted_latching.c **** uint8 fretted_latching_Read(void)
 114:Generated_Source\PSoC5/fretted_latching.c **** {
 301              		.loc 1 114 0
 302              		.cfi_startproc
 303              		@ args = 0, pretend = 0, frame = 0
 304              		@ frame_needed = 0, uses_anonymous_args = 0
 305              		@ link register save eliminated.
 115:Generated_Source\PSoC5/fretted_latching.c ****     return (fretted_latching_PS & fretted_latching_MASK) >> fretted_latching_SHIFT;
 306              		.loc 1 115 0
 307 0000 024B     		ldr	r3, .L8
 308 0002 1878     		ldrb	r0, [r3]	@ zero_extendqisi2
 116:Generated_Source\PSoC5/fretted_latching.c **** }
 309              		.loc 1 116 0
 310 0004 C0F38000 		ubfx	r0, r0, #2, #1
 311 0008 7047     		bx	lr
 312              	.L9:
 313 000a 00BF     		.align	2
 314              	.L8:
 315 000c C1510040 		.word	1073762753
 316              		.cfi_endproc
 317              	.LFE2:
 318              		.size	fretted_latching_Read, .-fretted_latching_Read
 319              		.section	.text.fretted_latching_ReadDataReg,"ax",%progbits
 320              		.align	2
 321              		.global	fretted_latching_ReadDataReg
 322              		.thumb
 323              		.thumb_func
 324              		.type	fretted_latching_ReadDataReg, %function
ARM GAS  C:\Users\JEFFSN~1\AppData\Local\Temp\ccn0YLLS.s 			page 19


 325              	fretted_latching_ReadDataReg:
 326              	.LFB3:
 117:Generated_Source\PSoC5/fretted_latching.c **** 
 118:Generated_Source\PSoC5/fretted_latching.c **** 
 119:Generated_Source\PSoC5/fretted_latching.c **** /*******************************************************************************
 120:Generated_Source\PSoC5/fretted_latching.c **** * Function Name: fretted_latching_ReadDataReg
 121:Generated_Source\PSoC5/fretted_latching.c **** ****************************************************************************//**
 122:Generated_Source\PSoC5/fretted_latching.c **** *
 123:Generated_Source\PSoC5/fretted_latching.c **** * \brief Reads the associated physical port's data output register and masks 
 124:Generated_Source\PSoC5/fretted_latching.c **** *  the correct bits according to the width and bit position of the component 
 125:Generated_Source\PSoC5/fretted_latching.c **** *  instance. 
 126:Generated_Source\PSoC5/fretted_latching.c **** *
 127:Generated_Source\PSoC5/fretted_latching.c **** * The data output register controls the signal applied to the physical pin in 
 128:Generated_Source\PSoC5/fretted_latching.c **** * conjunction with the drive mode parameter. This is not the same as the 
 129:Generated_Source\PSoC5/fretted_latching.c **** * preferred fretted_latching_Read() API because the 
 130:Generated_Source\PSoC5/fretted_latching.c **** * fretted_latching_ReadDataReg() reads the data register instead of the status 
 131:Generated_Source\PSoC5/fretted_latching.c **** * register. For output pins this is a useful function to determine the value 
 132:Generated_Source\PSoC5/fretted_latching.c **** * just written to the pin.
 133:Generated_Source\PSoC5/fretted_latching.c **** *
 134:Generated_Source\PSoC5/fretted_latching.c **** * \return 
 135:Generated_Source\PSoC5/fretted_latching.c **** *  The current value of the data register masked and shifted into a right 
 136:Generated_Source\PSoC5/fretted_latching.c **** *  justified number for the component instance.
 137:Generated_Source\PSoC5/fretted_latching.c **** *
 138:Generated_Source\PSoC5/fretted_latching.c **** * \funcusage
 139:Generated_Source\PSoC5/fretted_latching.c **** *  \snippet fretted_latching_SUT.c usage_fretted_latching_ReadDataReg 
 140:Generated_Source\PSoC5/fretted_latching.c **** *******************************************************************************/
 141:Generated_Source\PSoC5/fretted_latching.c **** uint8 fretted_latching_ReadDataReg(void)
 142:Generated_Source\PSoC5/fretted_latching.c **** {
 327              		.loc 1 142 0
 328              		.cfi_startproc
 329              		@ args = 0, pretend = 0, frame = 0
 330              		@ frame_needed = 0, uses_anonymous_args = 0
 331              		@ link register save eliminated.
 143:Generated_Source\PSoC5/fretted_latching.c ****     return (fretted_latching_DR & fretted_latching_MASK) >> fretted_latching_SHIFT;
 332              		.loc 1 143 0
 333 0000 024B     		ldr	r3, .L11
 334 0002 1878     		ldrb	r0, [r3]	@ zero_extendqisi2
 144:Generated_Source\PSoC5/fretted_latching.c **** }
 335              		.loc 1 144 0
 336 0004 C0F38000 		ubfx	r0, r0, #2, #1
 337 0008 7047     		bx	lr
 338              	.L12:
 339 000a 00BF     		.align	2
 340              	.L11:
 341 000c C0510040 		.word	1073762752
 342              		.cfi_endproc
 343              	.LFE3:
 344              		.size	fretted_latching_ReadDataReg, .-fretted_latching_ReadDataReg
 345              		.text
 346              	.Letext0:
 347              		.file 2 "Generated_Source\\PSoC5\\cytypes.h"