ARM GAS  C:\Users\JEFFSN~1\AppData\Local\Temp\ccIKMgFb.s 			page 1


   1              		.syntax unified
   2              		.cpu cortex-m3
   3              		.fpu softvfp
   4              		.eabi_attribute 20, 1
   5              		.eabi_attribute 21, 1
   6              		.eabi_attribute 23, 3
   7              		.eabi_attribute 24, 1
   8              		.eabi_attribute 25, 1
   9              		.eabi_attribute 26, 1
  10              		.eabi_attribute 30, 2
  11              		.eabi_attribute 34, 1
  12              		.eabi_attribute 18, 4
  13              		.thumb
  14              		.syntax unified
  15              		.file	"fretted_momentary.c"
  16              		.text
  17              	.Ltext0:
  18              		.section	.gnu.lto_.profile.a80ca9ad,"",%progbits
  19 0000 789C6361 		.ascii	"x\234ca`d`a`\000\222\222\242\000\000\261\0009"
  19      60646061 
  19      60009292 
  19      A20000B1 
  19      0039
  20              		.text
  21              		.section	.gnu.lto_.icf.a80ca9ad,"",%progbits
  22 0000 789C6361 		.ascii	"x\234ca`d\000\001I\006\004`a8\324\324\257\305x\370S"
  22      60640001 
  22      49060460 
  22      6138D4D4 
  22      AFC578F8 
  23 0015 5B330BD3 		.ascii	"[3\013\323\307\205\357~\3633\177\2303\3778\023\003\000"
  23      C785EF7E 
  23      F3337F98 
  23      33FF3813 
  23      0300
  24 0027 91480B66 		.ascii	"\221H\013f"
  25              		.text
  26              		.section	.gnu.lto_.jmpfuncs.a80ca9ad,"",%progbits
  27 0000 789C6361 		.ascii	"x\234ca`d\000\001!\006\004`a`dd\254g\004\021L\014\014"
  27      60640001 
  27      21060460 
  27      61606464 
  27      AC670411 
  28 0017 CC401100 		.ascii	"\314@\021\000\016\"\001&"
  28      0E220126 
  29              		.text
  30              		.section	.gnu.lto_.inline.a80ca9ad,"",%progbits
  31 0000 789C6361 		.ascii	"x\234ca`d\000\201$\006\004`a`\340\344`dd\340\000J1s"
  31      60640081 
  31      24060460 
  31      6160E0E4 
  31      606464E0 
  32 0018 1CB06360 		.ascii	"\034\260c`[ \317\304\300\262@\236\005$\013\024g\307"
  32      5B20CFC4 
  32      C0B2409E 
  32      05240B14 
  32      67C7
ARM GAS  C:\Users\JEFFSN~1\AppData\Local\Temp\ccIKMgFb.s 			page 2


  33 002a 9064BAC0 		.ascii	"\220d\272\300\017\226db`ced`b\373\240\007\021\007\002"
  33      0F966462 
  33      60636564 
  33      6062FBA0 
  33      07110702 
  34 003e 664C2106 		.ascii	"fL!\006\000\346\332\011\346"
  34      00E6DA09 
  34      E6
  35              		.text
  36              		.section	.gnu.lto_.pureconst.a80ca9ad,"",%progbits
  37 0000 789C6361 		.ascii	"x\234ca`d\340d```a\220b\224b\222b\226\002\000\002\261"
  37      6064E064 
  37      60606061 
  37      90629462 
  37      92629602 
  38 0017 0081     		.ascii	"\000\201"
  39              		.text
  40              		.section	.gnu.lto_fretted_momentary_Write.a80ca9ad,"",%progbits
  41 0000 789C5551 		.ascii	"x\234UQMk\023Q\024\275\347\275\231I5U\177\200YtSJ\025"
  41      4D6B1351 
  41      14BDE7BD 
  41      99493555 
  41      7F805974 
  42 0017 8AA06E5D 		.ascii	"\212\240n]\350\302\255\330mEB\034\241`\032H\247\202"
  42      E8C2ADD8 
  42      6D45421C 
  42      A1601A48 
  42      A782
  43 0029 ABBE699A 		.ascii	"\253\276i\232\024]uc\202\213Z\260\224\304\257\324V\020"
  43      145D7563 
  43      828B5AB0 
  43      94C4AFD4 
  43      5610
  44 003b 0417E340 		.ascii	"\004\027\343@\267\212\020\\\210J\350b\004W)\030Z\254"
  44      B78A105C 
  44      884AE862 
  44      04572918 
  44      5AAC
  45 004d 1AEF7DE3 		.ascii	"\032\357}\343\302^x\037s\347\234s\317\275\317!\220\304"
  45      C25E781F 
  45      73E79C73 
  45      CFBDCF21 
  45      90C4
  46 005f 29457481 		.ascii	")Et\201\317\223\274\240\011j\371\035Q8\244\000\271\230"
  46      CF93BCA0 
  46      096AF91D 
  46      5138A400 
  46      B998
  47 0071 21D0BCC2 		.ascii	"!\320\274\302<\372\352\267B\274\224\274V\343M\303\321"
  47      3CFAEAB7 
  47      42BC94BC 
  47      56E34DC3 
  47      D1
  48 0082 5D7FA84D 		.ascii	"]\177\250M+BU\023\015\224U\"41\316\250oo\226:\320\023"
  48      2B425513 
  48      0D945522 
  48      3431CEA8 
ARM GAS  C:\Users\JEFFSN~1\AppData\Local\Temp\ccIKMgFb.s 			page 3


  48      6F6F963A 
  49 0098 20BED7E2 		.ascii	" \276\327\342~/;\266n\314\2021\017\256\031]\325@\013"
  49      7E2F3BB6 
  49      6ECC8231 
  49      0FAE195D 
  49      D5400B
  50 00ab 9A19389B 		.ascii	"\232\0318\233\303\231\034q\202\360\030c\002\336\377"
  50      C3991C71 
  50      82F01863 
  50      02DEFF
  51 00ba D4691FD7 		.ascii	"\324i\037\327\347,q\331$\217\206G\327\204\030\355\025"
  51      E72C71D9 
  51      248F8647 
  51      D78418ED 
  51      15
  52 00cb 1B260A47 		.ascii	"\033&\012G\204\373\344\177\256\004Cw6\377\334?\346-"
  52      84FBE47F 
  52      AE044377 
  52      36FFDC3F 
  52      E62D
  53 00dd 8AAB113C 		.ascii	"\212\253\021<\305h\352\007\317\340q\207\220\314\306"
  53      C568EA07 
  53      CFE07187 
  53      90CCC6
  54 00ec D5C80C06 		.ascii	"\325\310\014\006\025\023\365\335\276>\242\270\250\342"
  54      1513F5DD 
  54      BE3EA2B8 
  54      A8E2
  55 00fa 4EF98703 		.ascii	"N\371\207\003\251\355J\302\223-#\033Q\217\227t\277\253"
  55      A9ED4AC2 
  55      932D231B 
  55      518F9774 
  55      BFAB
  56 010c 949C3A41 		.ascii	"\224\234:A\374\363\336\327FF4+Z&Q\257\306\3573?TUk\353"
  56      FCF3DED7 
  56      4646342B 
  56      5A2651AF 
  56      C6EF333F 
  57 0124 F643EB4B 		.ascii	"\366C\353K\343\337g\264\026\032\207S\355W\335\273\303"
  57      E3DF67B4 
  57      161A8753 
  57      ED57DDBB 
  57      C3
  58 0135 AB580917 		.ascii	"\253X\011\027yF\016\332\310\3419\33036\260\012JP\371"
  58      79460EDA 
  58      C8E139D8 
  58      3336B00A 
  58      4A50F9
  59 0148 55FB8C54 		.ascii	"U\373\214TP\247\232\037W\266\353Y\021\001\016\200\027"
  59      50A79A1F 
  59      57B6EB59 
  59      11010E80 
  59      17
  60 0159 0CDE81B2 		.ascii	"\014\336\201\262m\260SF\011\251WK\232\331\224\345V\264"
  60      6DB05346 
  60      09A9574B 
  60      9AD994E5 
ARM GAS  C:\Users\JEFFSN~1\AppData\Local\Temp\ccIKMgFb.s 			page 4


  60      56B4
  61 016b D4D91EEC 		.ascii	"\324\331\036\354E'\204\3452x\223IV\272\243S\220\340"
  61      452784E5 
  61      32789349 
  61      56BAA353 
  61      90E0
  62 017d 18F4B6BB 		.ascii	"\030\364\266\273\265k\245\0358\330JA\373^\012\311X\003"
  62      B56BA51D 
  62      38D84A41 
  62      FB5E0AC9 
  62      5803
  63 018f 1EA7E2BA 		.ascii	"\036\247\342\2725t\310|hL\366\260\377\227\354\237Y\364"
  63      3574C87C 
  63      684CF6B0 
  63      FF97EC9F 
  63      59F4
  64 01a1 1D0BD181 		.ascii	"\035\013\321\201+\004\373\020=\005\231\025O\356\364"
  64      2B04FB10 
  64      3D059915 
  64      4FEEF4
  65 01b0 657FC62F 		.ascii	"e\177\306/\347\003\377\306\365\311\322\\\271\340O]\231"
  65      E703FFC6 
  65      F5C9D25C 
  65      B9E04F5D 
  65      99
  66 01c1 2C5D3A3F 		.ascii	",]:?u\263\354\007\222,\226\212\376L\220/\337\231(\220"
  66      75B3EC07 
  66      922C968A 
  66      FE4C902F 
  66      DF992890 
  67 01d5 7B3B7F6B 		.ascii	"{;\177k\316?:\033\344\203\351\302\305\351`\366/\250"
  67      CE3F3A1B 
  67      E483E9C2 
  67      C5E960F6 
  67      2FA8
  68 01e7 69C7FC   		.ascii	"i\307\374"
  69              		.text
  70              		.section	.gnu.lto_fretted_momentary_SetDriveMode.a80ca9ad,"",%progbits
  71 0000 789C7D51 		.ascii	"x\234}Q\273J\003A\024\2353\263\331M\010\346\007La'\""
  71      BB4A0341 
  71      149D33B3 
  71      D94D08E6 
  71      074C6127 
  72 0015 8828F902 		.ascii	"\210(\371\002A[\321V\021\321\265\213\301\020\013\253"
  72      415BD156 
  72      11D1B58B 
  72      C1100BAB 
  73 0025 4C12A3A0 		.ascii	"L\022\243\240\010\202h#\242\215$\276\025\005\261\213"
  73      08826823 
  73      A28D24BE 
  73      1505B18B 
  74 0035 0B5AC6CE 		.ascii	"\013Z\306\316\302B$E\012A\211/|\033\357\335\265H\345"
  74      C2422445 
  74      0A41892F 
  74      7C1BEFDD 
  74      B548E5
  75 0048 B0731F87 		.ascii	"\260s\037\207s\016w\356\032\002\202O\231R\033\345z\272"
ARM GAS  C:\Users\JEFFSN~1\AppData\Local\Temp\ccIKMgFb.s 			page 5


  75      730E77EE 
  75      1A02824F 
  75      99521BE5 
  75      7ABA
  76 005a 500272BE 		.ascii	"P\002r\276(D\312/\001.\264\037\")\221\304\213\374\226"
  76      2844CA2F 
  76      012EB41F 
  76      222991C4 
  76      8BFC96
  77 006d 70A6CB27 		.ascii	"p\246\313'\262)\247\351\334\234\335\267\352|\001Y%D"
  77      B229A7E9 
  77      DC9CDDB7 
  77      EA7C0159 
  77      2544
  78 007f 55BA4E02 		.ascii	"U\272N\00294\021\353\351p}!\250Z \250~(V\256C\215\353"
  78      393411EB 
  78      E9707D21 
  78      A85A20A8 
  78      7E2856AE 
  79 0096 5AA7B53E 		.ascii	"Z\247\265>\356\327*\253\200<\024)\320\036FkX\020 \260"
  79      EED72AAB 
  79      803C1429 
  79      D01E466B 
  79      581020B0 
  80 00aa 81462697 		.ascii	"\201F&\227\016~\026\353\314I\266o\360L\261\011\223\307"
  80      0E7E16EB 
  80      CC49B66F 
  80      F04CB109 
  80      93C7
  81 00bc DCEB29E8 		.ascii	"\334\353)\350j5\243\013\257\346\351\207\031\224$\223"
  81      6A35A30B 
  81      AFE6E987 
  81      19942493 
  82 00cc 8A823238 		.ascii	"\212\20228\370\300\016&\227\026\007?\207\000s\204\250"
  82      F8C00E26 
  82      9716073F 
  82      87007384 
  82      A8
  83 00dd D0E5873C 		.ascii	"\320\345\207<H\311Y\225\341|\314\224\227\015v\316(~"
  83      48C95995 
  83      E17CCC94 
  83      970D76CE 
  83      287E
  84 00ef D452D6B9 		.ascii	"\324R\326\271\260\236eV\031\356\304\357\305\343\271"
  84      B09E6556 
  84      19EEC4EF 
  84      C5E3B9
  85 00fe 90D796D6 		.ascii	"\220\327\226\326R\332 \350h\312\211\254b%5I\257\365"
  85      52DA20E8 
  85      68CA89AC 
  85      62253549 
  85      AFF5
  86 0110 611B616C 		.ascii	"a\033al!L\303\355`\025\264\277\364\243\345\271)2\244"
  86      214CC3ED 
  86      6015B4BF 
  86      F4A3E5B9 
  86      2932A4
ARM GAS  C:\Users\JEFFSN~1\AppData\Local\Temp\ccIKMgFb.s 			page 6


  87 0123 3EF3657A 		.ascii	">\363ez\275A\020\311\257\316g\277\003\354\2500\206]"
  87      BD4110C9 
  87      AFCE67BF 
  87      03ECA830 
  87      865D
  88 0135 52D648E8 		.ascii	"R\326H\350\363\325J,\202Hrw\271\265\255<I\010{\256$"
  88      F3D54A2C 
  88      82487277 
  88      B9B5AD3C 
  88      49087BAE 
  89 014a F3F647F1 		.ascii	"\363\366G\361\273\306V\255K\200P\352\235%p\377\317\304"
  89      BBC656AD 
  89      4B8050EA 
  89      9D2570FF 
  89      CFC4
  90 015c FB3431D1 		.ascii	"\37341\321\305-\322\205\317N&\273?\256\"\301\313\241"
  90      C52DD285 
  90      CF4E26BB 
  90      3FAE22C1 
  90      CBA1
  91 016e 553577D9 		.ascii	"U5w\331\243v|0a\017\017\364\306\306\343Cv_wo\254#\322"
  91      A3767C30 
  91      610F0FF4 
  91      C6C6E343 
  91      765F776F 
  92 0185 3712B713 		.ascii	"7\022\267\023\014FcQ{41\030\237h\031\022F46l\377\002"
  92      0C466351 
  92      7B343118 
  92      9F681912 
  92      4634366C 
  93 019b 41F5A9A6 		.ascii	"A\365\251\246"
  94              		.text
  95              		.section	.gnu.lto_fretted_momentary_Read.a80ca9ad,"",%progbits
  96 0000 789C354F 		.ascii	"x\2345O\277K\202a\020\276\347}?\375$\210\376\200\034"
  96      BF4B8261 
  96      10BEE77D 
  96      3FFD2488 
  96      FE801C
  97 0013 5A258A20 		.ascii	"Z%\212 \202h\015j\215\202&!\304\2766\025>lh\362\363"
  97      82680D6A 
  97      8D822621 
  97      C4BE3615 
  97      3E6C68F2 
  98 0028 574134D4 		.ascii	"WA4\324P-\225C\204ZI5\271\252\020\005A\021\0244E\204"
  98      502D9543 
  98      845A4935 
  98      B9AA1005 
  98      41111434 
  99 003e 38349514 		.ascii	"84\225\024\202Tv\327W\007\357\335{w\317s\317\235A \261"
  99      825476D7 
  99      5707EFDD 
  99      7B77CF73 
  99      CF9D4120 
 100 0053 590E031C 		.ascii	"Y\016\003\034{\371A\023\324\3725Q\322\247\000\3718>"
 100      7BF94113 
 100      D4FA3551 
 100      D2A700F9 
ARM GAS  C:\Users\JEFFSN~1\AppData\Local\Temp\ccIKMgFb.s 			page 7


 100      383E
 101 0065 50422181 		.ascii	"PB!\201\017\365\245p\325\272\\\353\012\344\035'\345"
 101      0FF5A570 
 101      D5BA5CEB 
 101      0AE41D27 
 101      E5
 102 0076 3C1DB447 		.ascii	"<\035\264G\267\013\025d5QG\021\206\375\030\362\313\210"
 102      B70B1564 
 102      35514711 
 102      86FD18F2 
 102      CB88
 103 0088 3C02C4D0 		.ascii	"<\002\304\320\347\263\357\315no\306a\353\023\000w\012"
 103      E7B3EFCD 
 103      6E6FC661 
 103      EB130077 
 103      0A
 104 0099 F08AE4C9 		.ascii	"\360\212\344\311t\305\351t\322N\345\336\254>\230&(\253"
 104      74C5E974 
 104      D24EE5DE 
 104      AC3E9826 
 104      28AB
 105 00ab 59979DC1 		.ascii	"Y\227\235\301Ny\304yI\306\322+\323d\2117\245$\352\006"
 105      4E79C479 
 105      49C6D22B 
 105      D3648937 
 105      A524EA06 
 106 00bf 6AEDD5C7 		.ascii	"j\355\325\307\2751\231\224\326\232U\266\262\265\033"
 106      BD319994 
 106      D69A55B6 
 106      B2B51B
 107 00ce F35D65B5 		.ascii	"\363]e\265\206\210\0267\312\315\277\264\272\237t\014"
 107      86881637 
 107      CACDBFB4 
 107      BA9F740C 
 108 00de 2E25CBA5 		.ascii	".%\313\245\0133\207\335d\206W5p\010?\212\340Eq\204\034"
 108      0B3387DD 
 108      64865735 
 108      70083F8A 
 108      E0457184 
 109 00f3 A881F4E7 		.ascii	"\250\201\364\347\004\2455\334q\267\231\323\035-|\300"
 109      04A535DC 
 109      71B799D3 
 109      1D2D7CC0 
 110 0103 C031C31A 		.ascii	"\3001\303\032H5W\356\014W\320`\2340\232\313u\323\255"
 110      483557EE 
 110      0C57D060 
 110      9C309ACB 
 110      75D3AD
 111 0116 78B8C8B4 		.ascii	"x\270\310\264\363N\253\322#4\005\205\322?\255\016\027"
 111      F34EABD2 
 111      23340585 
 111      D23FAD0E 
 111      17
 112 0127 24387AE1 		.ascii	"$8z\341\216\233\321\357a\220\203\370\274\376I+j\331"
 112      8E9BD1EF 
 112      619083F8 
 112      BCFE492B 
ARM GAS  C:\Users\JEFFSN~1\AppData\Local\Temp\ccIKMgFb.s 			page 8


 112      6AD9
 113 0139 A1B8353F 		.ascii	"\241\2705?7\023[\264\303Vpj&6>\022\\\260\255\270\024"
 113      37135BB4 
 113      C356706A 
 113      26363E12 
 113      5CB0ADB8 
 114 014e 23B18815 		.ascii	"#\261\210\025\215\207\354\245\3010\375\000rO\200:"
 114      8D87ECA5 
 114      C130FD00 
 114      724F803A 
 115              		.text
 116              		.section	.gnu.lto_fretted_momentary_ReadDataReg.a80ca9ad,"",%progbits
 117 0000 789C354F 		.ascii	"x\2345O=KCQ\014\315\271\367\365\203\242\370\003\354"
 117      3D4B4351 
 117      0CCDB9F7 
 117      F583A2F8 
 117      03EC
 118 0012 E05A4411 		.ascii	"\340ZD\021\304AWAW\261\340T\220R\237[[(up\352\353\227"
 118      C4415741 
 118      57B1E054 
 118      90529F5B 
 118      5B287570 
 119 0029 A238B868 		.ascii	"\2428\270h\027\245\203H[\277]\334\204gA\020\004\265"
 119      17A58348 
 119      5BBF5DDC 
 119      84674110 
 119      04B5
 120 003b E02A1429 		.ascii	"\340*\024)\035\234\264(\005\321\326\304\247\201\233"
 120      1D9CB428 
 120      05D1D6C4 
 120      A7819B
 121 004a DC24E7E4 		.ascii	"\334$\347\344$\006\201\304\3468\014q\354\347\007MP\233"
 121      240681C4 
 121      E6380C71 
 121      ECE7074D 
 121      509B
 122 005c 774469AF 		.ascii	"wDi\257\002\344cyA)\205\024>\324\267\302m\373f\303\027"
 122      02E46379 
 122      41298514 
 122      3ED4B7C2 
 122      6DFB66C3 
 123 0071 285956C6 		.ascii	"(YV\306\252\357\227\306\013e\033yM\324U\204Q?F\3742"
 123      AAEF97C6 
 123      0B651B79 
 123      4DD45584 
 123      513F46FC 
 124 0086 A2840031 		.ascii	"\242\204\0001\364\371\274\263\325\353\316Yl\003\002"
 124      F4F9BCB3 
 124      D5EBCE59 
 124      6C0302
 125 0095 E04E196E 		.ascii	"\340N\031n\221<\235\265\255n7k\331\227\276\253\007\237"
 125      913C9DB5 
 125      AD6E376B 
 125      D997BEAB 
 125      079F
 126 00a7 0794D7AC 		.ascii	"\007\224\327\254\313\316`\247\\\342\334$c\351\225i\262"
 126      CBCE60A7 
ARM GAS  C:\Users\JEFFSN~1\AppData\Local\Temp\ccIKMgFb.s 			page 9


 126      5CE2DC24 
 126      63E99569 
 126      B2
 127 00b8 C49B5212 		.ascii	"\304\233R\022u\023\325\317\365NeB&e\265f\225\355|\365"
 127      7513D5CF 
 127      F54E6542 
 127      2665B566 
 127      95ED7CF5 
 128 00cc DEF3AEF2 		.ascii	"\336\363\256\362ZCDk\345\247\302_j\357\245-\203K'\027"
 128      5A43446B 
 128      E5A7C25F 
 128      6AEFA52D 
 128      834B2717 
 129 00e0 F5B59E22 		.ascii	"\365\265\236\"v\3239^\325\300\001\374\250\200\027\305"
 129      76D3395E 
 129      D5C001FC 
 129      A88017C5 
 130 00f0 218AA026 		.ascii	"!\212\240&\262_S\224\325p\306\325rg;Z\370\200\201#\206"
 130      B25F5394 
 130      D570C6D5 
 130      72673B5A 
 130      F8808123 
 131 0105 359169AD 		.ascii	"5\221i\255>\032\216\240\3018a\264V\032\036\247\342\342"
 131      3E1A8EA0 
 131      C13861B4 
 131      561A1EA7 
 131      E2E2
 132 0117 22D3AEBB 		.ascii	"\"\323\256\273m\273Oh\012\012\307\377\264\006\034\220"
 132      6DBB4F68 
 132      0A0AC7FF 
 132      B4061C90 
 133 0127 E0E8853B 		.ascii	"\340\350\205;NF\277\207A\016\342\363\006\247\315\230"
 133      4E46BF87 
 133      410EE2F3 
 133      06A7CD98 
 134 0137 990827CD 		.ascii	"\231\010'\315\205\371`|)\0211C3\301\370\344Xh1a&\245"
 134      85F9607C 
 134      29113143 
 134      33C1F8E4 
 134      58683161 
 135 014d 188D47CD 		.ascii	"\030\215G\315X2\234X\036\216\320\017.\"\200("
 135      58329C58 
 135      1E8ED00F 
 135      2E228028 
 136              		.text
 137              		.section	.gnu.lto_.symbol_nodes.a80ca9ad,"",%progbits
 138 0000 789C6361 		.ascii	"x\234ca`dpc\000\002&\206z\006\206\011\347\030@\324\256"
 138      60647063 
 138      00022686 
 138      7A068609 
 138      E71840D4 
 139 0015 0645A000 		.ascii	"\006E\240\000c=#\252\000S=\023\252\000s=3\212\000\003"
 139      633D23AA 
 139      00533D13 
 139      AA00733D 
 139      338A0003 
 140 0029 0026B60F 		.ascii	"\000&\266\017<"
ARM GAS  C:\Users\JEFFSN~1\AppData\Local\Temp\ccIKMgFb.s 			page 10


 140      3C
 141              		.text
 142              		.section	.gnu.lto_.refs.a80ca9ad,"",%progbits
 143 0000 789C6361 		.ascii	"x\234ca`\004B \000\000\0009\000\007"
 143      60044220 
 143      00000039 
 143      0007
 144              		.text
 145              		.section	.gnu.lto_.decls.a80ca9ad,"",%progbits
 146 0000 789C8D53 		.ascii	"x\234\215S]H\024Q\024\276gfv\265\321,$\314\207-6{\021"
 146      5D481451 
 146      14BE6766 
 146      76B5D12C 
 146      24CC872D 
 147 0017 02492290 		.ascii	"\002I\"\220\210\014\224|*C\321^\004Yu2\037tc[\013\237"
 147      880C947C 
 147      2A43D15E 
 147      04597532 
 147      1F74635B 
 148 002d BAE906FD 		.ascii	"\272\351\006\375P)\244\245\031Z\017\272\346o\355\256"
 148      5029A4A5 
 148      195A0FBA 
 148      E66FEDAE 
 149 003d E9B6A609 		.ascii	"\351\266\246\011\231T\242b\030a\224`>H\026\033\371\342"
 149      9954A262 
 149      18619460 
 149      3E48161B 
 149      F9E2
 150 004f 836DE7DE 		.ascii	"\203m\347\336\231i\026w\003\017sf\316\271\367|\337\371"
 150      99691677 
 150      030F7366 
 150      CEB9F77C 
 150      DFF9
 151 0061 EE991989 		.ascii	"\356\231\031\211\000a\226)\0212\215O\013\246!4\023\306"
 151      00619629 
 151      11328D4F 
 151      0BA62134 
 151      13C6
 152 0073 85C430DC 		.ascii	"\205\3040\334&\036t\037\372\020\272\237D\032\3337k\270"
 152      261E741F 
 152      FA10BA9F 
 152      441ADB37 
 152      6BB8
 153 0085 3EC6853E 		.ascii	">\306\205>\212>\202\236\253\325\200V\267\331|Q\260\343"
 153      8A3E829E 
 153      ABD58056 
 153      B7D97C51 
 153      B0E3
 154 0097 61781DEB 		.ascii	"ax\035\353\213\202ezLa\270\334(\270\241(8\377\026p\321"
 154      8B82657A 
 154      4C61B8DC 
 154      28B8A128 
 154      38FF1670 
 155 00ac CEB92140 		.ascii	"\316\271!@\250\315{'v\001>\201H\264\001\022\000\365"
 155      A8CD7B27 
 155      76013E81 
 155      48B40112 
ARM GAS  C:\Users\JEFFSN~1\AppData\Local\Temp\ccIKMgFb.s 			page 11


 155      00F5
 156 00be 0EDC89EA 		.ascii	"\016\334\211\352<\305@ j\240/\3753\242\225\010zh\220"
 156      3CC54020 
 156      6AA02FFD 
 156      33A29508 
 156      7A6890
 157 00d1 F14BC343 		.ascii	"\361K\303CH7Nb\260\203\006Rs]\267\006\002\301h\000j"
 157      48374E62 
 157      B0830652 
 157      735DB706 
 157      02C16800 
 158 00e6 AA23C2F8 		.ascii	"\252#\302\3706)\3225\353m\210\240\037z\331\335rw\233"
 158      3629D235 
 158      EB6D88A0 
 158      1F7AD9DD 
 158      72779B
 159 00f9 28008BBF 		.ascii	"(\000\213\277\256\273O\244\365P\264zJ\205#\306d\372"
 159      AEBB4FA4 
 159      F550B47A 
 159      4A8523C6 
 159      64FA
 160 010b AF7EEB8A 		.ascii	"\257~\353\212]\023\300\"C\010X\276:\274\276]\315\331"
 160      5D13C022 
 160      430858BE 
 160      3ABCBE5D 
 160      CDD9
 161 011d 7673C3D2 		.ascii	"vs\303\322\2378q?\213\205\271\245\356\025\011R\345\016"
 161      9F38713F 
 161      8B85B9A5 
 161      EE150952 
 161      E50E
 162 012f 46B3E859 		.ascii	"F\263\350Y>6L\351N\350\003\031z@\204.Hc\032,2\336\257"
 162      3E364CE9 
 162      4EE80319 
 162      7A40842E 
 162      48631A2C 
 163 0146 515A4B83 		.ascii	"QZK\203\217\2519\231\300!\013\034\264\020\350\205T\306"
 163      8FA93999 
 163      C0210B1C 
 163      B410E885 
 163      54C6
 164 0158 C9AAA01B 		.ascii	"\311\252\240\033,\360\004,\\\343\275\266\357f\011%s"
 164      2CF0042C 
 164      5CE3BDB6 
 164      EF660925 
 164      73
 165 0169 9E1289AD 		.ascii	"\236\022\211\255\315\272\006ZE\224\220(\203\204\351"
 165      CDBA065A 
 165      45949028 
 165      8384E9
 166 0178 AFA996A5 		.ascii	"\257\251\226\245\004Lw\311`\305\264\307\377y\325\234"
 166      044C77C9 
 166      60C5B4C7 
 166      FF79D59C 
 167 0188 DCC48F52 		.ascii	"\334\304\217RG\255\022\024&\301S$\034@B\002\317 \031"
 167      47AD1214 
 167      26C15324 
ARM GAS  C:\Users\JEFFSN~1\AppData\Local\Temp\ccIKMgFb.s 			page 12


 167      1C404202 
 167      CF2019
 168 019b EFFD20A9 		.ascii	"\357\375 \251\247\353\274\355\035IHi\247\355\003t\361"
 168      A7EBBCED 
 168      1D494869 
 168      A7ED0374 
 168      F1
 169 01ac F9C4D1A6 		.ascii	"\371\304\321\246::\2118++\003\267!\332\315\276\013\002"
 169      3A3A8938 
 169      2B2B03B7 
 169      21DACDBE 
 169      0B02
 170 01be 9DB08033 		.ascii	"\235\260\2003\364@\012\";\\\375\2018\361\022\037\302"
 170      F4400A22 
 170      3B5CFD81 
 170      38F1121F 
 170      C2
 171 01cf F49787B7 		.ascii	"\364\227\207\267bU\226\261\265\211xZ\177\205\322\343"
 171      625596B1 
 171      B589785A 
 171      7F85D2E3 
 172 01df 9CC36B70 		.ascii	"\234\303kpx\3039|\234c5\360\363\275 6\001'\231\271\371"
 172      78C3397C 
 172      9C6335F0 
 172      F3BD2036 
 172      012799B9 
 173 01f4 BA6E47B8 		.ascii	"\272nG\270nv`C\370s.\274D\323=\035Z\3551k\035\347\336"
 173      6E766043 
 173      F8732EBC 
 173      44D33D1D 
 173      5AED316B 
 174 020b 88CD74CC 		.ascii	"\210\315t\314\2058\201U\301\240\321s0\274\347\020\357"
 174      85388155 
 174      C1A0D173 
 174      30BCE710 
 174      EF
 175 021c 39F93174 		.ascii	"9\3711tY\354U[N}\010v\200\306\342\177\253\353f\034\303"
 175      59EC555B 
 175      4E7D0876 
 175      80C6E27F 
 175      ABEB661C 
 176 0231 06C77038 		.ascii	"\006\307p8\207\237s\254\271~\317\233e|\211u[{\211S+"
 176      879F73AC 
 176      B97ECF9B 
 176      657C8975 
 176      5B7B8953 
 177 0246 8F4231E2 		.ascii	"\217B1\342;\336T\360467\306\200\234\032\005\3762\012"
 177      3BDE54F0 
 177      343637C6 
 177      809C1A05 
 177      FE320A
 178 0259 5CFB987A 		.ascii	"\\\373\230z\013\032\256\263\003\216\340P\002\206\270"
 178      0B1AAEB3 
 178      038EE050 
 178      0286B8
 179 0268 1720AB03 		.ascii	"\027 \253\003\361\316\374\3507\305\337`\337\025N/q2"
 179      F1CEFCE8 
ARM GAS  C:\Users\JEFFSN~1\AppData\Local\Temp\ccIKMgFb.s 			page 13


 179      37C5DF60 
 179      DF154E2F 
 179      7132
 180 027a 81571AE3 		.ascii	"\201W\032\343\033\205x\376\013\340sC\020\003\363\017"
 180      1B8578FE 
 180      0BE07343 
 180      1003F30F 
 181 028a 5A45DC63 		.ascii	"ZE\334c\227\334BQ\012\235\005\030G2\236\0043y\314\226"
 181      97DC4251 
 181      0A9D0518 
 181      47329E04 
 181      3379CC96 
 182 029e 69B0969A 		.ascii	"i\260\226\232\357'\350\022\011\337 0\206\310WH\314\323"
 182      EF27E812 
 182      09DF2030 
 182      86C85748 
 182      CCD3
 183 02b0 DD671D8A 		.ascii	"\335g\035\212\323\251\224\025W\332+\225*\247\315QS|"
 183      D3A99415 
 183      57DA2B95 
 183      2AA7CD51 
 183      537C
 184 02c2 C651E154 		.ascii	"\306Q\341TbsN\025X\263\322\323\211\251\272\242\312\231"
 184      62734E15 
 184      58B3D2D3 
 184      89A9BAA2 
 184      CA99
 185 02d4 B12F47A9 		.ascii	"\261/G\251R\0346V\230o\257v\224*E\247\363\355Y\207\213"
 185      521C3656 
 185      986FAF76 
 185      942A45A7 
 185      F3ED5987 
 186 02e9 4A6B9C35 		.ascii	"Jk\2345\347\225\013i\347\310\201\377TD\360\247\225\222"
 186      E7950B69 
 186      E7C881FF 
 186      5444F0A7 
 186      9592
 187 02fb BD914DF3 		.ascii	"\275\221M\363\025g\266\243\342\242r\322^\246$En\347"
 187      1567B6A3 
 187      E2A272D2 
 187      5EA62445 
 187      6EE7
 188 030d 29B6B23D 		.ascii	")\266\262=\321\227\263mN[\236R.9\224\362\214\277\221"
 188      D197B36D 
 188      4E5B9E52 
 188      2E3994F2 
 188      8CBF91
 189 0320 257D30   		.ascii	"%}0"
 190              		.text
 191              		.section	.gnu.lto_.symtab.a80ca9ad,"",%progbits
 192 0000 66726574 		.ascii	"fretted_momentary_Write\000"
 192      7465645F 
 192      6D6F6D65 
 192      6E746172 
 192      795F5772 
 193 0018 00       		.ascii	"\000"
 194 0019 00       		.ascii	"\000"
ARM GAS  C:\Users\JEFFSN~1\AppData\Local\Temp\ccIKMgFb.s 			page 14


 195 001a 00       		.ascii	"\000"
 196 001b 00000000 		.ascii	"\000\000\000\000\000\000\000\000"
 196      00000000 
 197 0023 B3000000 		.ascii	"\263\000\000\000"
 198 0027 66726574 		.ascii	"fretted_momentary_SetDriveMode\000"
 198      7465645F 
 198      6D6F6D65 
 198      6E746172 
 198      795F5365 
 199 0046 00       		.ascii	"\000"
 200 0047 00       		.ascii	"\000"
 201 0048 00       		.ascii	"\000"
 202 0049 00000000 		.ascii	"\000\000\000\000\000\000\000\000"
 202      00000000 
 203 0051 B5000000 		.ascii	"\265\000\000\000"
 204 0055 66726574 		.ascii	"fretted_momentary_Read\000"
 204      7465645F 
 204      6D6F6D65 
 204      6E746172 
 204      795F5265 
 205 006c 00       		.ascii	"\000"
 206 006d 00       		.ascii	"\000"
 207 006e 00       		.ascii	"\000"
 208 006f 00000000 		.ascii	"\000\000\000\000\000\000\000\000"
 208      00000000 
 209 0077 B8000000 		.ascii	"\270\000\000\000"
 210 007b 66726574 		.ascii	"fretted_momentary_ReadDataReg\000"
 210      7465645F 
 210      6D6F6D65 
 210      6E746172 
 210      795F5265 
 211 0099 00       		.ascii	"\000"
 212 009a 00       		.ascii	"\000"
 213 009b 00       		.ascii	"\000"
 214 009c 00000000 		.ascii	"\000\000\000\000\000\000\000\000"
 214      00000000 
 215 00a4 BA000000 		.ascii	"\272\000\000\000"
 216              		.text
 217              		.section	.gnu.lto_.opts,"",%progbits
 218 0000 272D666D 		.ascii	"'-fmath-errno' '-fsigned-zeros' '-ftrapping-math' '"
 218      6174682D 
 218      6572726E 
 218      6F272027 
 218      2D667369 
 219 0033 2D666E6F 		.ascii	"-fno-trapv' '-fno-openmp' '-fno-openacc' '-mcpu=cor"
 219      2D747261 
 219      70762720 
 219      272D666E 
 219      6F2D6F70 
 220 0066 7465782D 		.ascii	"tex-m3' '-mthumb' '-g' '-O3' '-ffunction-sections' "
 220      6D332720 
 220      272D6D74 
 220      68756D62 
 220      2720272D 
 221 0099 272D6666 		.ascii	"'-ffat-lto-objects' '-finline-functions' '-flto'\000"
 221      61742D6C 
 221      746F2D6F 
ARM GAS  C:\Users\JEFFSN~1\AppData\Local\Temp\ccIKMgFb.s 			page 15


 221      626A6563 
 221      74732720 
 222              		.text
 223              		.cfi_sections	.debug_frame
 224              		.section	.text.fretted_momentary_Write,"ax",%progbits
 225              		.align	2
 226              		.global	fretted_momentary_Write
 227              		.thumb
 228              		.thumb_func
 229              		.type	fretted_momentary_Write, %function
 230              	fretted_momentary_Write:
 231              	.LFB0:
 232              		.file 1 "Generated_Source\\PSoC5\\fretted_momentary.c"
   1:Generated_Source\PSoC5/fretted_momentary.c **** /*******************************************************************************
   2:Generated_Source\PSoC5/fretted_momentary.c **** * File Name: fretted_momentary.c  
   3:Generated_Source\PSoC5/fretted_momentary.c **** * Version 2.20
   4:Generated_Source\PSoC5/fretted_momentary.c **** *
   5:Generated_Source\PSoC5/fretted_momentary.c **** * Description:
   6:Generated_Source\PSoC5/fretted_momentary.c **** *  This file contains API to enable firmware control of a Pins component.
   7:Generated_Source\PSoC5/fretted_momentary.c **** *
   8:Generated_Source\PSoC5/fretted_momentary.c **** * Note:
   9:Generated_Source\PSoC5/fretted_momentary.c **** *
  10:Generated_Source\PSoC5/fretted_momentary.c **** ********************************************************************************
  11:Generated_Source\PSoC5/fretted_momentary.c **** * Copyright 2008-2015, Cypress Semiconductor Corporation.  All rights reserved.
  12:Generated_Source\PSoC5/fretted_momentary.c **** * You may use this file only in accordance with the license, terms, conditions, 
  13:Generated_Source\PSoC5/fretted_momentary.c **** * disclaimers, and limitations in the end user license agreement accompanying 
  14:Generated_Source\PSoC5/fretted_momentary.c **** * the software package with which this file was provided.
  15:Generated_Source\PSoC5/fretted_momentary.c **** *******************************************************************************/
  16:Generated_Source\PSoC5/fretted_momentary.c **** 
  17:Generated_Source\PSoC5/fretted_momentary.c **** #include "cytypes.h"
  18:Generated_Source\PSoC5/fretted_momentary.c **** #include "fretted_momentary.h"
  19:Generated_Source\PSoC5/fretted_momentary.c **** 
  20:Generated_Source\PSoC5/fretted_momentary.c **** /* APIs are not generated for P15[7:6] on PSoC 5 */
  21:Generated_Source\PSoC5/fretted_momentary.c **** #if !(CY_PSOC5A &&\
  22:Generated_Source\PSoC5/fretted_momentary.c **** 	 fretted_momentary__PORT == 15 && ((fretted_momentary__MASK & 0xC0) != 0))
  23:Generated_Source\PSoC5/fretted_momentary.c **** 
  24:Generated_Source\PSoC5/fretted_momentary.c **** 
  25:Generated_Source\PSoC5/fretted_momentary.c **** /*******************************************************************************
  26:Generated_Source\PSoC5/fretted_momentary.c **** * Function Name: fretted_momentary_Write
  27:Generated_Source\PSoC5/fretted_momentary.c **** ****************************************************************************//**
  28:Generated_Source\PSoC5/fretted_momentary.c **** *
  29:Generated_Source\PSoC5/fretted_momentary.c **** * \brief Writes the value to the physical port (data output register), masking
  30:Generated_Source\PSoC5/fretted_momentary.c **** *  and shifting the bits appropriately. 
  31:Generated_Source\PSoC5/fretted_momentary.c **** *
  32:Generated_Source\PSoC5/fretted_momentary.c **** * The data output register controls the signal applied to the physical pin in 
  33:Generated_Source\PSoC5/fretted_momentary.c **** * conjunction with the drive mode parameter. This function avoids changing 
  34:Generated_Source\PSoC5/fretted_momentary.c **** * other bits in the port by using the appropriate method (read-modify-write or
  35:Generated_Source\PSoC5/fretted_momentary.c **** * bit banding).
  36:Generated_Source\PSoC5/fretted_momentary.c **** *
  37:Generated_Source\PSoC5/fretted_momentary.c **** * <b>Note</b> This function should not be used on a hardware digital output pin 
  38:Generated_Source\PSoC5/fretted_momentary.c **** * as it is driven by the hardware signal attached to it.
  39:Generated_Source\PSoC5/fretted_momentary.c **** *
  40:Generated_Source\PSoC5/fretted_momentary.c **** * \param value
  41:Generated_Source\PSoC5/fretted_momentary.c **** *  Value to write to the component instance.
  42:Generated_Source\PSoC5/fretted_momentary.c **** *
  43:Generated_Source\PSoC5/fretted_momentary.c **** * \return 
  44:Generated_Source\PSoC5/fretted_momentary.c **** *  None 
ARM GAS  C:\Users\JEFFSN~1\AppData\Local\Temp\ccIKMgFb.s 			page 16


  45:Generated_Source\PSoC5/fretted_momentary.c **** *
  46:Generated_Source\PSoC5/fretted_momentary.c **** * \sideeffect
  47:Generated_Source\PSoC5/fretted_momentary.c **** *  If you use read-modify-write operations that are not atomic; the Interrupt 
  48:Generated_Source\PSoC5/fretted_momentary.c **** *  Service Routines (ISR) can cause corruption of this function. An ISR that 
  49:Generated_Source\PSoC5/fretted_momentary.c **** *  interrupts this function and performs writes to the Pins component data 
  50:Generated_Source\PSoC5/fretted_momentary.c **** *  register can cause corrupted port data. To avoid this issue, you should 
  51:Generated_Source\PSoC5/fretted_momentary.c **** *  either use the Per-Pin APIs (primary method) or disable interrupts around 
  52:Generated_Source\PSoC5/fretted_momentary.c **** *  this function.
  53:Generated_Source\PSoC5/fretted_momentary.c **** *
  54:Generated_Source\PSoC5/fretted_momentary.c **** * \funcusage
  55:Generated_Source\PSoC5/fretted_momentary.c **** *  \snippet fretted_momentary_SUT.c usage_fretted_momentary_Write
  56:Generated_Source\PSoC5/fretted_momentary.c **** *******************************************************************************/
  57:Generated_Source\PSoC5/fretted_momentary.c **** void fretted_momentary_Write(uint8 value)
  58:Generated_Source\PSoC5/fretted_momentary.c **** {
 233              		.loc 1 58 0
 234              		.cfi_startproc
 235              		@ args = 0, pretend = 0, frame = 0
 236              		@ frame_needed = 0, uses_anonymous_args = 0
 237              		@ link register save eliminated.
 238              	.LVL0:
  59:Generated_Source\PSoC5/fretted_momentary.c ****     uint8 staticBits = (fretted_momentary_DR & (uint8)(~fretted_momentary_MASK));
 239              		.loc 1 59 0
 240 0000 044A     		ldr	r2, .L2
  60:Generated_Source\PSoC5/fretted_momentary.c ****     fretted_momentary_DR = staticBits | ((uint8)(value << fretted_momentary_SHIFT) & fretted_moment
 241              		.loc 1 60 0
 242 0002 8000     		lsls	r0, r0, #2
 243              	.LVL1:
  59:Generated_Source\PSoC5/fretted_momentary.c ****     uint8 staticBits = (fretted_momentary_DR & (uint8)(~fretted_momentary_MASK));
 244              		.loc 1 59 0
 245 0004 1378     		ldrb	r3, [r2]	@ zero_extendqisi2
 246              	.LVL2:
 247              		.loc 1 60 0
 248 0006 00F00400 		and	r0, r0, #4
 249 000a 03F0FB03 		and	r3, r3, #251
 250              	.LVL3:
 251 000e 1843     		orrs	r0, r0, r3
 252 0010 1070     		strb	r0, [r2]
 253 0012 7047     		bx	lr
 254              	.L3:
 255              		.align	2
 256              	.L2:
 257 0014 C0510040 		.word	1073762752
 258              		.cfi_endproc
 259              	.LFE0:
 260              		.size	fretted_momentary_Write, .-fretted_momentary_Write
 261              		.section	.text.fretted_momentary_SetDriveMode,"ax",%progbits
 262              		.align	2
 263              		.global	fretted_momentary_SetDriveMode
 264              		.thumb
 265              		.thumb_func
 266              		.type	fretted_momentary_SetDriveMode, %function
 267              	fretted_momentary_SetDriveMode:
 268              	.LFB1:
  61:Generated_Source\PSoC5/fretted_momentary.c **** }
  62:Generated_Source\PSoC5/fretted_momentary.c **** 
  63:Generated_Source\PSoC5/fretted_momentary.c **** 
  64:Generated_Source\PSoC5/fretted_momentary.c **** /*******************************************************************************
ARM GAS  C:\Users\JEFFSN~1\AppData\Local\Temp\ccIKMgFb.s 			page 17


  65:Generated_Source\PSoC5/fretted_momentary.c **** * Function Name: fretted_momentary_SetDriveMode
  66:Generated_Source\PSoC5/fretted_momentary.c **** ****************************************************************************//**
  67:Generated_Source\PSoC5/fretted_momentary.c **** *
  68:Generated_Source\PSoC5/fretted_momentary.c **** * \brief Sets the drive mode for each of the Pins component's pins.
  69:Generated_Source\PSoC5/fretted_momentary.c **** * 
  70:Generated_Source\PSoC5/fretted_momentary.c **** * <b>Note</b> This affects all pins in the Pins component instance. Use the
  71:Generated_Source\PSoC5/fretted_momentary.c **** * Per-Pin APIs if you wish to control individual pin's drive modes.
  72:Generated_Source\PSoC5/fretted_momentary.c **** *
  73:Generated_Source\PSoC5/fretted_momentary.c **** * \param mode
  74:Generated_Source\PSoC5/fretted_momentary.c **** *  Mode for the selected signals. Valid options are documented in 
  75:Generated_Source\PSoC5/fretted_momentary.c **** *  \ref driveMode.
  76:Generated_Source\PSoC5/fretted_momentary.c **** *
  77:Generated_Source\PSoC5/fretted_momentary.c **** * \return
  78:Generated_Source\PSoC5/fretted_momentary.c **** *  None
  79:Generated_Source\PSoC5/fretted_momentary.c **** *
  80:Generated_Source\PSoC5/fretted_momentary.c **** * \sideeffect
  81:Generated_Source\PSoC5/fretted_momentary.c **** *  If you use read-modify-write operations that are not atomic, the ISR can
  82:Generated_Source\PSoC5/fretted_momentary.c **** *  cause corruption of this function. An ISR that interrupts this function 
  83:Generated_Source\PSoC5/fretted_momentary.c **** *  and performs writes to the Pins component Drive Mode registers can cause 
  84:Generated_Source\PSoC5/fretted_momentary.c **** *  corrupted port data. To avoid this issue, you should either use the Per-Pin
  85:Generated_Source\PSoC5/fretted_momentary.c **** *  APIs (primary method) or disable interrupts around this function.
  86:Generated_Source\PSoC5/fretted_momentary.c **** *
  87:Generated_Source\PSoC5/fretted_momentary.c **** * \funcusage
  88:Generated_Source\PSoC5/fretted_momentary.c **** *  \snippet fretted_momentary_SUT.c usage_fretted_momentary_SetDriveMode
  89:Generated_Source\PSoC5/fretted_momentary.c **** *******************************************************************************/
  90:Generated_Source\PSoC5/fretted_momentary.c **** void fretted_momentary_SetDriveMode(uint8 mode)
  91:Generated_Source\PSoC5/fretted_momentary.c **** {
 269              		.loc 1 91 0
 270              		.cfi_startproc
 271              		@ args = 0, pretend = 0, frame = 0
 272              		@ frame_needed = 0, uses_anonymous_args = 0
 273              		@ link register save eliminated.
 274              	.LVL4:
  92:Generated_Source\PSoC5/fretted_momentary.c **** 	CyPins_SetPinDriveMode(fretted_momentary_0, mode);
 275              		.loc 1 92 0
 276 0000 044A     		ldr	r2, .L5
 277 0002 00F00E00 		and	r0, r0, #14
 278              	.LVL5:
 279 0006 1378     		ldrb	r3, [r2]	@ zero_extendqisi2
 280 0008 03F0F103 		and	r3, r3, #241
 281 000c 1843     		orrs	r0, r0, r3
 282 000e 1070     		strb	r0, [r2]
 283 0010 7047     		bx	lr
 284              	.L6:
 285 0012 00BF     		.align	2
 286              	.L5:
 287 0014 62500040 		.word	1073762402
 288              		.cfi_endproc
 289              	.LFE1:
 290              		.size	fretted_momentary_SetDriveMode, .-fretted_momentary_SetDriveMode
 291              		.section	.text.fretted_momentary_Read,"ax",%progbits
 292              		.align	2
 293              		.global	fretted_momentary_Read
 294              		.thumb
 295              		.thumb_func
 296              		.type	fretted_momentary_Read, %function
 297              	fretted_momentary_Read:
ARM GAS  C:\Users\JEFFSN~1\AppData\Local\Temp\ccIKMgFb.s 			page 18


 298              	.LFB2:
  93:Generated_Source\PSoC5/fretted_momentary.c **** }
  94:Generated_Source\PSoC5/fretted_momentary.c **** 
  95:Generated_Source\PSoC5/fretted_momentary.c **** 
  96:Generated_Source\PSoC5/fretted_momentary.c **** /*******************************************************************************
  97:Generated_Source\PSoC5/fretted_momentary.c **** * Function Name: fretted_momentary_Read
  98:Generated_Source\PSoC5/fretted_momentary.c **** ****************************************************************************//**
  99:Generated_Source\PSoC5/fretted_momentary.c **** *
 100:Generated_Source\PSoC5/fretted_momentary.c **** * \brief Reads the associated physical port (pin status register) and masks 
 101:Generated_Source\PSoC5/fretted_momentary.c **** *  the required bits according to the width and bit position of the component
 102:Generated_Source\PSoC5/fretted_momentary.c **** *  instance. 
 103:Generated_Source\PSoC5/fretted_momentary.c **** *
 104:Generated_Source\PSoC5/fretted_momentary.c **** * The pin's status register returns the current logic level present on the 
 105:Generated_Source\PSoC5/fretted_momentary.c **** * physical pin.
 106:Generated_Source\PSoC5/fretted_momentary.c **** *
 107:Generated_Source\PSoC5/fretted_momentary.c **** * \return 
 108:Generated_Source\PSoC5/fretted_momentary.c **** *  The current value for the pins in the component as a right justified number.
 109:Generated_Source\PSoC5/fretted_momentary.c **** *
 110:Generated_Source\PSoC5/fretted_momentary.c **** * \funcusage
 111:Generated_Source\PSoC5/fretted_momentary.c **** *  \snippet fretted_momentary_SUT.c usage_fretted_momentary_Read  
 112:Generated_Source\PSoC5/fretted_momentary.c **** *******************************************************************************/
 113:Generated_Source\PSoC5/fretted_momentary.c **** uint8 fretted_momentary_Read(void)
 114:Generated_Source\PSoC5/fretted_momentary.c **** {
 299              		.loc 1 114 0
 300              		.cfi_startproc
 301              		@ args = 0, pretend = 0, frame = 0
 302              		@ frame_needed = 0, uses_anonymous_args = 0
 303              		@ link register save eliminated.
 115:Generated_Source\PSoC5/fretted_momentary.c ****     return (fretted_momentary_PS & fretted_momentary_MASK) >> fretted_momentary_SHIFT;
 304              		.loc 1 115 0
 305 0000 024B     		ldr	r3, .L8
 306 0002 1878     		ldrb	r0, [r3]	@ zero_extendqisi2
 116:Generated_Source\PSoC5/fretted_momentary.c **** }
 307              		.loc 1 116 0
 308 0004 C0F38000 		ubfx	r0, r0, #2, #1
 309 0008 7047     		bx	lr
 310              	.L9:
 311 000a 00BF     		.align	2
 312              	.L8:
 313 000c C1510040 		.word	1073762753
 314              		.cfi_endproc
 315              	.LFE2:
 316              		.size	fretted_momentary_Read, .-fretted_momentary_Read
 317              		.section	.text.fretted_momentary_ReadDataReg,"ax",%progbits
 318              		.align	2
 319              		.global	fretted_momentary_ReadDataReg
 320              		.thumb
 321              		.thumb_func
 322              		.type	fretted_momentary_ReadDataReg, %function
 323              	fretted_momentary_ReadDataReg:
 324              	.LFB3:
 117:Generated_Source\PSoC5/fretted_momentary.c **** 
 118:Generated_Source\PSoC5/fretted_momentary.c **** 
 119:Generated_Source\PSoC5/fretted_momentary.c **** /*******************************************************************************
 120:Generated_Source\PSoC5/fretted_momentary.c **** * Function Name: fretted_momentary_ReadDataReg
 121:Generated_Source\PSoC5/fretted_momentary.c **** ****************************************************************************//**
 122:Generated_Source\PSoC5/fretted_momentary.c **** *
ARM GAS  C:\Users\JEFFSN~1\AppData\Local\Temp\ccIKMgFb.s 			page 19


 123:Generated_Source\PSoC5/fretted_momentary.c **** * \brief Reads the associated physical port's data output register and masks 
 124:Generated_Source\PSoC5/fretted_momentary.c **** *  the correct bits according to the width and bit position of the component 
 125:Generated_Source\PSoC5/fretted_momentary.c **** *  instance. 
 126:Generated_Source\PSoC5/fretted_momentary.c **** *
 127:Generated_Source\PSoC5/fretted_momentary.c **** * The data output register controls the signal applied to the physical pin in 
 128:Generated_Source\PSoC5/fretted_momentary.c **** * conjunction with the drive mode parameter. This is not the same as the 
 129:Generated_Source\PSoC5/fretted_momentary.c **** * preferred fretted_momentary_Read() API because the 
 130:Generated_Source\PSoC5/fretted_momentary.c **** * fretted_momentary_ReadDataReg() reads the data register instead of the status 
 131:Generated_Source\PSoC5/fretted_momentary.c **** * register. For output pins this is a useful function to determine the value 
 132:Generated_Source\PSoC5/fretted_momentary.c **** * just written to the pin.
 133:Generated_Source\PSoC5/fretted_momentary.c **** *
 134:Generated_Source\PSoC5/fretted_momentary.c **** * \return 
 135:Generated_Source\PSoC5/fretted_momentary.c **** *  The current value of the data register masked and shifted into a right 
 136:Generated_Source\PSoC5/fretted_momentary.c **** *  justified number for the component instance.
 137:Generated_Source\PSoC5/fretted_momentary.c **** *
 138:Generated_Source\PSoC5/fretted_momentary.c **** * \funcusage
 139:Generated_Source\PSoC5/fretted_momentary.c **** *  \snippet fretted_momentary_SUT.c usage_fretted_momentary_ReadDataReg 
 140:Generated_Source\PSoC5/fretted_momentary.c **** *******************************************************************************/
 141:Generated_Source\PSoC5/fretted_momentary.c **** uint8 fretted_momentary_ReadDataReg(void)
 142:Generated_Source\PSoC5/fretted_momentary.c **** {
 325              		.loc 1 142 0
 326              		.cfi_startproc
 327              		@ args = 0, pretend = 0, frame = 0
 328              		@ frame_needed = 0, uses_anonymous_args = 0
 329              		@ link register save eliminated.
 143:Generated_Source\PSoC5/fretted_momentary.c ****     return (fretted_momentary_DR & fretted_momentary_MASK) >> fretted_momentary_SHIFT;
 330              		.loc 1 143 0
 331 0000 024B     		ldr	r3, .L11
 332 0002 1878     		ldrb	r0, [r3]	@ zero_extendqisi2
 144:Generated_Source\PSoC5/fretted_momentary.c **** }
 333              		.loc 1 144 0
 334 0004 C0F38000 		ubfx	r0, r0, #2, #1
 335 0008 7047     		bx	lr
 336              	.L12:
 337 000a 00BF     		.align	2
 338              	.L11:
 339 000c C0510040 		.word	1073762752
 340              		.cfi_endproc
 341              	.LFE3:
 342              		.size	fretted_momentary_ReadDataReg, .-fretted_momentary_ReadDataReg
 343              		.text
 344              	.Letext0:
 345              		.file 2 "Generated_Source\\PSoC5\\cytypes.h"