ARM GAS  C:\Users\JEFFSN~1\AppData\Local\Temp\cc1C2DMI.s 			page 1


   1              		.syntax unified
   2              		.cpu cortex-m3
   3              		.fpu softvfp
   4              		.eabi_attribute 20, 1
   5              		.eabi_attribute 21, 1
   6              		.eabi_attribute 23, 3
   7              		.eabi_attribute 24, 1
   8              		.eabi_attribute 25, 1
   9              		.eabi_attribute 26, 1
  10              		.eabi_attribute 30, 1
  11              		.eabi_attribute 34, 1
  12              		.eabi_attribute 18, 4
  13              		.thumb
  14              		.syntax unified
  15              		.file	"I2C_1_INT.c"
  16              		.text
  17              	.Ltext0:
  18              		.section	.gnu.lto_.profile.ed0de5b3,"",%progbits
  19 0000 789C6361 		.ascii	"x\234ca`d`c`\000\222;\030W3\002\000\004\316\001r"
  19      60646063 
  19      6000923B 
  19      18573302 
  19      0004CE01 
  20              		.text
  21              		.section	.gnu.lto_.inline.ed0de5b3,"",%progbits
  22 0000 789C6361 		.ascii	"x\234ca`d\000\001\025\006\004\000\212\254e\024ed`:\303"
  22      60640001 
  22      15060400 
  22      8AAC6514 
  22      6564603A 
  23 0015 F4651213 		.ascii	"\364e\022\023\003\333\002y&\2200\0237H\012B2\000\000"
  23      03DB0279 
  23      26903013 
  23      37480A42 
  23      320000
  24 0028 6D53042A 		.ascii	"mS\004*"
  25              		.text
  26              		.section	.gnu.lto_.jmpfuncs.ed0de5b3,"",%progbits
  27 0000 789C6361 		.ascii	"x\234ca`d\000\001v\006\004\200\2100\000\000\001,\000"
  27      60640001 
  27      76060480 
  27      88300000 
  27      012C00
  28 0013 0E       		.ascii	"\016"
  29              		.text
  30              		.section	.gnu.lto_.pureconst.ed0de5b3,"",%progbits
  31 0000 789C6361 		.ascii	"x\234ca`d`f`\000\222R\000\000r\000$"
  31      60646066 
  31      60009252 
  31      00007200 
  31      24
  32              		.text
  33              		.section	.gnu.lto_I2C_1_ISR.ed0de5b3,"",%progbits
  34 0000 789C9D59 		.ascii	"x\234\235Yyp\224E\026\377^\177\223\271'\031r\000I&!"
  34      79709445 
  34      16FF5E7F 
  34      93B92719 
ARM GAS  C:\Users\JEFFSN~1\AppData\Local\Temp\cc1C2DMI.s 			page 2


  34      72004926 
  35 0015 0492905D 		.ascii	"\004\222\220]\205uuk\021qk-KV<\266V\334\362\240\274"
  35      8575756B 
  35      11716B2D 
  35      4B563CB6 
  35      56DCF2A0 
  36 002a 012D2F74 		.ascii	"\001-/t\203[\245b\231\311\014!\230E\210\200\001\025"
  36      835BA562 
  36      99C90C21 
  36      98458880 
  36      0115
  37 003c E4F0200A 		.ascii	"\344\360 \012\222D\020\010\227cH\202b\010G\016n\010"
  37      92441008 
  37      97634882 
  37      6208470E 
  37      6E08
  38 004e 03040412 		.ascii	"\003\004\004\0223!\200\"!\333\257\273\277\316d\234\020"
  38      33218022 
  38      21DBAFBB 
  38      BFCE649C 
  38      10
  39 005f BEE48F97 		.ascii	"\276\344\217\227\356\376\372\375^\367{\277\367\272\277"
  39      EEFEFAFD 
  39      5EF77BBF 
  39      F7BABF
  40 006e 6F0C0A28 		.ascii	"o\014\012(\370\267v\260\242\334@\377\333\211\242\300"
  40      F8B776B0 
  40      A2DC40FF 
  40      DB89A2C0 
  41 007e 1F142005 		.ascii	"\037\024 \0055\212\222c&D\235\221\241\270\255\031(\355"
  41      358A9263 
  41      26449D91 
  41      A1B8AD19 
  41      28ED
  42 0090 2A31B0DE 		.ascii	"*1\260\336\020\3263\030R+b\024\2679\202\311X&\223\370"
  42      10D63318 
  42      522B6214 
  42      B73982C9 
  42      582693F8 
  43 00a4 0831B6C6 		.ascii	"\0101\266\306\321y\216%#\351<#1\261\236\235\365L\304"
  43      D1798E25 
  43      23E93C23 
  43      31B19E9D 
  43      F54CC4
  44 00b7 CC302C0C 		.ascii	"\3140,\014\303\014C\270!\013\261\262a\033\033\266j\303"
  44      C30C43B8 
  44      210BB1B2 
  44      611B1BB6 
  44      6AC3
  45 00c9 36AD61D7 		.ascii	"6\255a\327\032\016\022\371n:\235\030\343\035F'F\222"
  45      1A0E12F9 
  45      6E3A9D18 
  45      E31D4627 
  45      4692
  46 00db 28A616CD 		.ascii	"(\246\026\315\324\242H?\326s\262\236\023\372q\225~\232"
  46      D4A2483F 
  46      D673B29E 
ARM GAS  C:\Users\JEFFSN~1\AppData\Local\Temp\cc1C2DMI.s 			page 3


  46      13FA7195 
  46      7E9A
  47 00ed 6EB4D688 		.ascii	"n\264\326\210\321\032\261$\216i$0\2158\322\237\365\006"
  47      D11AB124 
  47      8E692430 
  47      8D38D29F 
  47      F506
  48 00ff B05E7F6D 		.ascii	"\260^\177m\322\0002\220\015\307\263\341\201\332p\274"
  48      D2003290 
  48      0DC7B3E1 
  48      81DA70BC 
  49 010f D6482089 		.ascii	"\326H \211\354\271\213=O\324\206]Z#\211$\263\347\203"
  49      ECB98B3D 
  49      4FD4865D 
  49      5A238924 
  49      B3E783
  50 0122 D8F3646D 		.ascii	"\330\363dmx\020Ia\303\203\331p\2126<Xk\244j\215!dh\335"
  50      78104961 
  50      C383D970 
  50      8A363C58 
  50      6BA46A8D 
  51 013a 083A3173 		.ascii	"\010:1sS2\2358\224\244\343\177k\032\216\331\323 \235"
  51      53329D38 
  51      94A4E37F 
  51      6B1A8ED9 
  51      D3209D
  52 014d 4F4A874C 		.ascii	"OJ\207L\336\310 l\236u\030{>L\033\316\004\300\206\333"
  52      DEC8206C 
  52      9E75187B 
  52      3E4C1BCE 
  52      04C086DB 
  53 0161 0C4A3651 		.ascii	"\014J6Q\015\021F\223\331b\265\331\035\221Q\316~\321"
  53      0D114693 
  53      D962B5D9 
  53      1D9151CE 
  53      7ED1
  54 0173 31B171FD 		.ascii	"1\261q\375\007\014\214OHt%%\017J\031\234:dhZz\306\260"
  54      070C8C4F 
  54      48742525 
  54      0F4A199C 
  54      3A64685A 
  55 018a 4CC8860B 		.ascii	"L\310\206\013\244\203@y^S\031\311\\\356\246\177\215"
  55      A4834079 
  55      5E5319C9 
  55      5CEEA67F 
  55      8D
  56 019b 950FBB8B 		.ascii	"\225\017\273\213|\220\253*J'a\314Q`9d*tVs\331\214V\213"
  56      7C90AB2A 
  56      4A2761CC 
  56      51603964 
  56      2A745673 
  57 01b3 9A0ED83E 		.ascii	"\232\016\330>6\323\267\337\222\366\211\333\355q\373"
  57      36D3B7DF 
  57      92F689DB 
  57      ED71FB
  58 01c2 F6FF67BE 		.ascii	"\366\377g\276\333\227\223\222\253\002\024\201J\265\340"
  58      DB979392 
ARM GAS  C:\Users\JEFFSN~1\AppData\Local\Temp\cc1C2DMI.s 			page 4


  58      AB021481 
  58      4AB5E0
  59 01d1 6617FCC9 		.ascii	"f\027\374\311\305t\351T\177\351\325\367\035\306i\010"
  59      C574E954 
  59      7FE9D5F7 
  59      1DC66908 
  60 01e1 9E025F40 		.ascii	"\236\002_@\032\307\205/\301H\231\0118R<\316\347\356"
  60      1AC7852F 
  60      C1489909 
  60      38523CCE 
  60      E7EE
  61 01f3 ECF4BA7D 		.ascii	"\354\364\272}\337F\004* \027@\301Q\242\344\252DEa\244"
  61      DF46042A 
  61      201740C1 
  61      51A2E4AA 
  61      444561A4 
  62 0207 02CC6CD0 		.ascii	"\002\314l\320B\233\252\025\205\015\205\035\205\203="
  62      429BAA15 
  62      850D851D 
  62      85833D
  63 0216 89C46614 		.ascii	"\211\304f\024\012'\212h\0241\250\030\213\2558\024\361"
  63      0A278A68 
  63      1431A818 
  63      8BAD3814 
  63      F1
  64 0227 28125024 		.ascii	"(\022P$\242p\241HB\221\212\"\015E:\025\206\014l\335"
  64      A270A148 
  64      42918A22 
  64      0D453A15 
  64      860C6CDD 
  65 023b 80E24614 		.ascii	"\200\342F\024\303Q\214@q3\212[P\214Dq+\212Q(nC1\032"
  65      C3518C40 
  65      71338A5B 
  65      508C4471 
  65      2B8A5128 
  66 0253 C5DF51DC 		.ascii	"\305\337Q\334\201\342.\024cP\334\215b,\212{P\334\213"
  66      81E22E14 
  66      6350DC8D 
  66      622C8A7B 
  66      50DC8B
  67 0266 ABBA0F5B 		.ascii	"\253\272\017[\367\243x\000\3058\024\017\241\361\207"
  67      F7A37800 
  67      C538140F 
  67      A1F187
  68 0275 B1F50815 		.ascii	"\261\365\010\025\021\217bw<v\037G\361\004\212\247p\354"
  68      118F6277 
  68      3C761F47 
  68      F1048AA7 
  68      70EC
  69 0287 696C3D83 		.ascii	"il=\203S&`w\"v\237E\361\034\212\347Q\274\200\342E\024"
  69      53266077 
  69      22769F45 
  69      F11C8AE7 
  69      51BC80E2 
  70 029d 2FA17819 		.ascii	"/\241x\031\305d\024Y(\246\240x\035\305\033(\336D1\025"
  70      C5641459 
  70      28A6A078 
ARM GAS  C:\Users\JEFFSN~1\AppData\Local\Temp\cc1C2DMI.s 			page 5


  70      1DC51B28 
  70      DE443115 
  71 02b1 C55B28DE 		.ascii	"\305[(\336F\221\215\302\003(\275L*J+\215\033R,@\010"
  71      46918DC2 
  71      0328BD4C 
  71      2A4A2B8D 
  71      1B522C40 
  72 02c6 FE579BA0 		.ascii	"\376W\233\240\374r~\313\202\221\030J\257j\246\241.\314"
  72      FC727ECB 
  72      8291184A 
  72      AF6AA6A1 
  72      2ECC
  73 02d8 2DDF696A 		.ascii	"-\337ij'\271\252\221\221dI\375\202\263\006\336\335;"
  73      27B9AA91 
  73      916449FD 
  73      82B306DE 
  73      DD3B
  74 02ea 37C76D40 		.ascii	"7\307m@\336\344|\232oY\014\213r\246\345\270\335\267"
  74      DEE47C9A 
  74      6F590C8B 
  74      72A6E5B8 
  74      DDB7
  75 02fc 535C13AC 		.ascii	"S\\\023\254\004\027\254\000J\027\370\012\026\203\342"
  75      0417AC00 
  75      4A17F80A 
  75      1683E2
  76 030b 078FFB56 		.ascii	"\007\217\373V\306\016\032T\012\253P3\205\245\227rTn"
  76      C60E1A54 
  76      0AAB5033 
  76      85A59772 
  76      546E
  77 031d C6126CC6 		.ascii	"\306\022l\306\300\314\224\225\235;h\312\356p\317p\273"
  77      C0CC9495 
  77      9D3B68CA 
  77      EE70CF70 
  77      BB
  78 032e 9D74EC1D 		.ascii	"\235t\354\035\225\363\356\3344\177\215\015M\271sp\334"
  78      95F3EEDC 
  78      347F8D0D 
  78      4DB97370 
  78      DC
  79 033f 0CC594EE 		.ascii	"\014\305\224\356\253\230\241\0224\324\004\336+F\016"
  79      AB98A112 
  79      34D404DE 
  79      2B460E
  80 034e 6AE5B8EB 		.ascii	"j\345\270\353ZV\254s \256\012>\005J\351\324c0\355\240"
  80      5A56AC73 
  80      20AE0A3E 
  80      054AE9D4 
  80      6330EDA0 
  81 0362 37594CA2 		.ascii	"7YL\2423\212\317\225\375*f(\3605p\216\007(Kgd\250\210"
  81      338ACF95 
  81      FD2A6628 
  81      F035708E 
  81      07284B67 
  82 0379 3746F1AA 		.ascii	"7F\361\252\302\027\337\344U\227Zq*\320\277\325\032\326"
  82      C217DFE4 
ARM GAS  C:\Users\JEFFSN~1\AppData\Local\Temp\cc1C2DMI.s 			page 6


  82      55975A71 
  82      2AD0BFD5 
  82      1AD6
  83 038b A9D9891C 		.ascii	"\251\331\211\034\315\030\274\017d\374\032\211fP*b\320"
  83      CD18BC0F 
  83      64FC1A89 
  83      66502A62 
  83      D0
  84 039c B985818E 		.ascii	"\271\205\201\216\335b\327v\035\333\374Fns-n\363$\030"
  84      DD62D776 
  84      1DDBFC46 
  84      6E732D6E 
  84      F32418
  85 03af BB300AF7 		.ascii	"\2730\012\367\177z:\342=\230\235C\323\321w1\032\263"
  85      7F7A3AE2 
  85      3D989D43 
  85      D3D17731 
  85      1AB3
  86 03c1 5C71AB78 		.ascii	"\\q\253xB\300:x\017\350\214\213\325\305uv\276\303J\204"
  86      42C03A78 
  86      0FE88C8B 
  86      D5C57576 
  86      BEC34A84 
  87 03d5 7FD7B3FE 		.ascii	"\177\327\263\376\230M\323\270l\242\032\260\236\202\273"
  87      984DD3B8 
  87      6CA21AB0 
  87      9E82BB
  88 03e4 5596C465 		.ascii	"U\226\304e\\\251\361\324\352\343&\256T\205J\2637\227"
  88      5CA9F1D4 
  88      EAE326AE 
  88      54854AB3 
  88      3797
  89 03f6 555934A5 		.ascii	"UY4\245\365\221\250\264\201)\241=\330\310\225\232\217"
  89      F591A8B4 
  89      8129A13D 
  89      D8C8959A 
  89      8F
  90 0407 5EEA88E2 		.ascii	"^\352\210\342J?\240RU\316O\027\314\232\322\025fiS\227"
  90      4A3FA052 
  90      55CE4F17 
  90      CC9AD215 
  90      66695397 
  91 041b A5CD5C69 		.ascii	"\245\315\\ie\376\254\335Bi;*5]\230\265\334\244)\025"
  91      65FEACDD 
  91      42693B2A 
  91      355D98B5 
  91      DCA42915 
  92 042f E086600B 		.ascii	"\340\206`\013S2\240\322\267T\211\2714B\011\030\324\023"
  92      5332A0D2 
  92      B75489B9 
  92      34420918 
  92      D413
  93 0441 90E34457 		.ascii	"\220\343DW \"\006kzU\321\253\3345\016\036\262\263{\374"
  93      2022066B 
  93      7A55D1AB 
  93      DC350E1E 
  93      B2B37BFC 
ARM GAS  C:\Users\JEFFSN~1\AppData\Local\Temp\cc1C2DMI.s 			page 7


  94 0455 3E1B8FC7 		.ascii	">\033\217\307Q\000\037\305\361\003\351\242\242\203k"
  94      51001FC5 
  94      F103E9A2 
  94      A2836B
  95 0464 35143DC2 		.ascii	"5\024=\302\265\"\271\326\216\245+k\214\\\313\012\337"
  95      B522B9D6 
  95      8EA52B6B 
  95      8C5CCB0A 
  95      DF
  96 0475 F1401FF0 		.ascii	"\361@\037\360\256\0021\211\316\370pc\373\366\010\276"
  96      AE023189 
  96      CEF87063 
  96      FBF608BE 
  97 0485 683394CB 		.ascii	"h3\224\3138\033\225b\340q\256*\267\360\331\251:\342"
  97      381B9562 
  97      E071AE2A 
  97      B7F0D9A9 
  97      3AE2
  98 0497 BC55C6B9 		.ascii	"\274U\306\271\002\343\314\254n\021VSY\220\270\031\223"
  98      02E3CCAC 
  98      6E115653 
  98      5990B819 
  98      93
  99 04a8 7213B352 		.ascii	"r\023\263RZ\355q\360\247i\341\254D\204\267R)\255T\011"
  99      5AED71F0 
  99      A769E1AC 
  99      4484B752 
  99      29AD5409 
 100 04bc 2B07BD2D 		.ascii	"+\007\275-\302JZP\012\230\225xj\305S\030\330\341\271"
 100      C24A5A50 
 100      0A989578 
 100      6AC55318 
 100      D8E1B9
 101 04cf 893F4D0F 		.ascii	"\211?M\017f\270%L\246Z\336Q\215\314\350\231\352\372"
 101      66B8254C 
 101      A65ADE51 
 101      8DCCE899 
 101      EAFA
 102 04e1 0A2B33CA 		.ascii	"\012+3\312\027\003\337S\243\333\230\321\037x\246\226"
 102      1703DF53 
 102      A3DB98D1 
 102      1F78A696 
 103 04f1 5FB672D0 		.ascii	"_\266r\320\014:}i\340\203\331*\253!\364\2302SCb\201"
 103      0C3A7D69 
 103      E083D92A 
 103      AB21F498 
 103      32534362 
 104 0506 DBC5DCC2 		.ascii	"\333\305\334\302\245\303q2\235Y9\253d\203\221\027\240"
 104      A5C37132 
 104      9D5939AB 
 104      64839117 
 104      A0
 105 0517 7DA20015 		.ascii	"}\242\000\025\345V\373A+@SY\001\372Q\026\240j\372\204"
 105      E556FB41 
 105      2B405359 
 105      01FA5116 
 105      A06AFA84 
ARM GAS  C:\Users\JEFFSN~1\AppData\Local\Temp\cc1C2DMI.s 			page 8


 106 052b DA4090F6 		.ascii	"\332@\220\366\202\032\"P\272j\026t\257W;\350t\372\374"
 106      821A2250 
 106      BA6A1674 
 106      AF573BE8 
 106      74FAFC
 107 053e BBC6AF03 		.ascii	"\273\306\257\003\2146&0@\015}\202\352\2555\313\034B"
 107      8C362630 
 107      400D7D82 
 107      EAAD35CB 
 107      1C42
 108 0550 FF77AE36 		.ascii	"\377w\2566\205w\365N\351\352]\034X\226\0203-!\273\005"
 108      8577F54E 
 108      E9EA5D1C 
 108      58961033 
 108      2D21BB05 
 109 0564 7049DD1C 		.ascii	"pI\335\034[O\300=0e\217\004\256\345\300\253;\313\002"
 109      5B4FC03D 
 109      30658F04 
 109      AEE5C0AB 
 109      3BCB02
 110 0577 760E5CA5 		.ascii	"v\016\\\245@\035\013b\200XX\010)\035\353\347\010:\336"
 110      401D0B62 
 110      80585808 
 110      291DEBE7 
 110      083ADE
 111 058a 10CE8839 		.ascii	"\020\316\2109\274\221zi\244A\253\256X\015_\342(\225"
 111      BC917A69 
 111      A441ABAE 
 111      580D5FE2 
 111      2895
 112 059c 9D977C22 		.ascii	"\235\227|\"o\011\354\325\252\3412\302\355\274\024D$"
 112      6F09ECD5 
 112      AAE132C2 
 112      EDBC1444 
 112      24
 113 05ad AB62E774 		.ascii	"\253b\347t\335\353\267\361\2477\207[\205%\374*\366\311"
 113      DDEBB7F1 
 113      A737875B 
 113      8525FC2A 
 113      F6C9
 114 05bf 55EC17AB 		.ascii	"U\354\027\253\370E\224\277[8PG\353\256\016Q\337\254"
 114      F84594BF 
 114      5B385047 
 114      EBAE0E51 
 114      DFAC
 115 05d1 7080FBB4 		.ascii	"p\200\373\264\020zrh\017V\016J+\207\030cn\341!?\244"
 115      107A7268 
 115      0F560E4A 
 115      2B871863 
 115      6EE1213F 
 116 05e6 3B328725 		.ascii	";2\207%\320\021\036\231U'?\370\322\300#\323\250\320"
 116      D0111E99 
 116      55273FF8 
 116      D2C023D3 
 116      A8D0
 117 05f8 2A24627E 		.ascii	"*$b~x\217I \313\214\262\262\214\232\276i\313l\302\273"
 117      788F4920 
ARM GAS  C:\Users\JEFFSN~1\AppData\Local\Temp\cc1C2DMI.s 			page 9


 117      CB8CB2B2 
 117      8C9ABE69 
 117      CB6CC2BB 
 118 060c EEAD5E37 		.ascii	"\356\255^7V\233\262\271\015W#4\272\332\340\030\245k"
 118      569BB2B9 
 118      0D572334 
 118      BADAE018 
 118      A56B
 119 061e 2333E1E7 		.ascii	"#3\341\347&:\226\034\350`\325\310\016n7\201\343\"\372"
 119      263A961C 
 119      E860D5C8 
 119      0E6E3781 
 119      E322FA
 120 0631 36EEF7CB 		.ascii	"6\356\367\313\371m\177\344\016\033N\347\326\237\231"
 120      F96D7FE4 
 120      0E1B4EE7 
 120      D69F99
 121 0640 B54FE509 		.ascii	"\265O\345\011\324 \022\350\363\302Uy\326\256l8!\263"
 121      D42012E8 
 121      F3C25579 
 121      D6AE6C38 
 121      21B3
 122 0652 E16488C3 		.ascii	"\341d\210\303Gp\210=\255\325\213l\334\341Nh\012qx\217"
 122      4770883D 
 122      ADD58B6C 
 122      DCE14E68 
 122      0A71788F 
 123 0666 60A7985F 		.ascii	"`\247\230_G\260\335\357:\252eb~]\313\276(\276\234\375"
 123      47B0DDEF 
 123      3AAA6562 
 123      7E5DCBBE 
 123      28BE9CFD 
 124 067a 6239A74B 		.ascii	"b9\247K\233W\330\272\020NK\204\237\370n7\236\277\362"
 124      9B57D8BA 
 124      104E4B84 
 124      9FF86E37 
 124      9EBFF2
 125 068d 23E1C9E9 		.ascii	"#\341\311\351\2043\334\374k\275%\366Y\252\3132\031\035"
 125      8433DCFC 
 125      6BBD25F6 
 125      59AACB32 
 125      191D
 126 069f 6357AEB2 		.ascii	"cW\256\262\273N{I\323\034So\232\347\270U\031%\023=\331"
 126      BB4E7B49 
 126      D31C536F 
 126      9AE7B855 
 126      1925133D 
 127 06b4 9BB5289E 		.ascii	"\233\265(\236\362[t\362\243E\362\343g\016\334p\344\227"
 127      F25B74F2 
 127      A345F2E3 
 127      670EDC70 
 127      E497
 128 06c6 B916CE8F 		.ascii	"\271\026\316\217\355\012\264\212%:\224rUe\007\300\331"
 128      ED0AB48A 
 128      253A9472 
 128      556507C0 
 128      D9
ARM GAS  C:\Users\JEFFSN~1\AppData\Local\Temp\cc1C2DMI.s 			page 10


 129 06d7 42711D8B 		.ascii	"Bq\035\213d\344\346)\025\251\034\024\007M\213_dv\224"
 129      64E4E629 
 129      15A91C14 
 129      074D8B5F 
 129      647694
 130 06ea 0EB607E4 		.ascii	"\016\266\007\344\"\332BB\354\344@\035G\013\012\304\361"
 130      22DA4242 
 130      ECE4401D 
 130      470B0AC4 
 130      F1
 131 06fb BF04E07C 		.ascii	"\277\004\340|\037\223\252]\232\271\300\202\357\3447"
 131      1F93AA5D 
 131      9AB9C082 
 131      EFE437
 132 070a BF768F89 		.ascii	"\277v\217\211\033\213\326Q\214.J\254K\301\305\310FQ"
 132      1B8BD651 
 132      8C2E4AAC 
 132      4BC1C5C8 
 132      4651
 133 071c BAAA8F76 		.ascii	"\272\252\217vX\332\202\252O\224\322\242pW]\230\023\305"
 133      58DA82AA 
 133      4F94D2A2 
 133      70575D98 
 133      13C5
 134 072e 1FC7EB88 		.ascii	"\037\307\353\210\327/\322\356\257\301vo\244(\354\340"
 134      D72FD2EE 
 134      AFC1766F 
 134      A428ECE0 
 135 073e 677657CC 		.ascii	"gvW\314\237)\256u7J\313\255\304\251\374U\015\220~\334"
 135      9F29AE75 
 135      374ACBAD 
 135      C4A9FC55 
 135      0D907EDC 
 136 0752 BEA72DAF 		.ascii	"\276\247-\257.\202\317I\364\262\353\212\360\247Wu\351"
 136      2E82CF49 
 136      F4B2EB8A 
 136      F0A75775 
 136      E9
 137 0763 70E965B9 		.ascii	"p\351e\271\234\337B\"\227\304\200\373\026\250+\022\265"
 137      9CDF4222 
 137      97C480FB 
 137      16A82B12 
 137      B5
 138 0774 83052A89 		.ascii	"\203\005*\211W\277\213{\364\262\373\252\004\352\304"
 138      57BF8B7B 
 138      F4B2FBAA 
 138      04EAC4
 139 0783 8493D5EE 		.ascii	"\204\223\325\356\222\314\263\036k\231\233P\005V\272"
 139      92CCB31E 
 139      6B999B50 
 139      0556BA
 140 0792 DA00DF60 		.ascii	"\332\000\337`W\254\375l\003 \005\011X \207\270\242V"
 140      57ACFD6C 
 140      03200509 
 140      582087B8 
 140      A256
 141 07a4 1E2EB107 		.ascii	"\036.\261\007\227{B\313\275\207\270\234\030\344h\021"
ARM GAS  C:\Users\JEFFSN~1\AppData\Local\Temp\cc1C2DMI.s 			page 11


 141      977B42CB 
 141      BD87B89C 
 141      18E46811 
 142 07b4 E4CBF90D 		.ascii	"\344\313\371\015\305Y\334\037\261\327*F^\322\335yqt"
 142      C559DC1F 
 142      B1D72A46 
 142      5ED2DD79 
 142      7174
 143 07c6 FEF597B2 		.ascii	"\376\365\227\262i\004\235\024\307K"
 143      69049D14 
 143      C74B
 144 07d0 598756CA 		.ascii	"Y\207V\312z\254[\271\270\263\353-T\323IP\241\212QN\201"
 144      7AAC5BB9 
 144      B8B3EB2D 
 144      54D34950 
 144      A18A514E 
 145 07e5 7A1AA6F9 		.ascii	"z\032\246\371>\216D\275\337_\270\034\235\004_\271\363"
 145      3E8E44BD 
 145      DF5FB81C 
 145      9D045FB9 
 145      F3
 146 07f6 48367B79 		.ascii	"H6{y\311U#\231^l\367\313\261*i\033\303/\270\233\026"
 146      C9552399 
 146      5E6CF7CB 
 146      B12A691B 
 146      C32FB89B 
 147 080b CFFC42BC 		.ascii	"\317\374B\274\311\020\230A\304\005\367\267\205\342\234"
 147      C9109841 
 147      C405F7B7 
 147      85E29C
 148 081a 88097A75 		.ascii	"\210\011zu\211S\312\010O\237\272\343\342\364\276[\307"
 148      8953CA08 
 148      4F9FBAE3 
 148      E2F4BE5B 
 148      C7
 149 082b 0DE81DA2 		.ascii	"\015\350\035\242\021\"\237\210\273\234`\375X\035W\326"
 149      11229F88 
 149      BB9C60FD 
 149      581D57D6 
 150 083b FF499499 		.ascii	"\377I\224\231\204_Ykd\256\337M\241\304Z\373+\013\201"
 150      845F596B 
 150      64AEDF4D 
 150      A1C45AFB 
 150      2B0B81
 151 084e 5D594B1B 		.ascii	"]YK\033\266\212+\353C:\356\250\357\022\355\216:+d\255"
 151      B68A2BEB 
 151      433AEEA8 
 151      EF12ED8E 
 151      3A2B64AD 
 152 0862 0FEBD8F1 		.ascii	"\017\353\330\361l\271\326\002\216\342i\023\345\356\021"
 152      6CB9D602 
 152      8EE26913 
 152      E5EE11
 153 0871 0A849158 		.ascii	"\012\204\221X(H\367(]\036\035\015\276\014\217\017s\031"
 153      2848F728 
 153      5D1E1D0D 
 153      BE0C8F0F 
ARM GAS  C:\Users\JEFFSN~1\AppData\Local\Temp\cc1C2DMI.s 			page 12


 153      7319
 154 0883 7E54C0BD 		.ascii	"~T\300\275\247-*P\357\325n%\335\356\276SB\356\276s\030"
 154      A72D2A50 
 154      EFD56E25 
 154      DDEEBE53 
 154      42EEBE73 
 155 0898 4DC7739A 		.ascii	"M\307s\2326\250\2751o\256\306<~W\253\025\321~\\\307"
 155      36A8BD31 
 155      6FAEC63C 
 155      7E57AB15 
 155      D17E5CC7 
 156 08ac DEE7C9BD 		.ascii	"\336\347\311\275\277/\022\254P\354\365\011\012\244]"
 156      BF2F12AC 
 156      50ECF509 
 156      0AA45D
 157 08bb 787B2E4F 		.ascii	"x{.O=\300\026J\330\371lKO\260h\017\340\321\246\3768"
 157      3DC0164A 
 157      D8F96C4B 
 157      4FB0680F 
 157      E0D1A6FE 
 158 08d0 542B3C7C 		.ascii	"T+<|\217\216\003e\201\004\375\200\004\025\366\004\212"
 158      8F8E0365 
 158      8104FD80 
 158      0415F604 
 158      8A
 159 08e1 D275A0B4 		.ascii	"\322u\240\264\011\002$\004\035(\003\025\376\245\244"
 159      09022404 
 159      1D280315 
 159      FEA5A4
 160 08f0 B0F4C827 		.ascii	"\260\364\310'\302G\367\351\250\265\037J\273\037\205"
 160      C247F7E9 
 160      A8B51F4A 
 160      BB1F85
 161 08ff 14A1FB29 		.ascii	"\024\241\373)P\237/\260\013%\354\"\346\243\373y\011"
 161      509F2FB0 
 161      0B25EC22 
 161      E6A3FB79 
 161      09
 162 0910 3F5AABB7 		.ascii	"?Z\253\267\204\177,\201\026\223\340\022~bn\257%|\211"
 162      847F2C81 
 162      1693E012 
 162      7E626EAF 
 162      257C89
 163 0923 2CE1D44D 		.ascii	",\341\324M\361\212\366A\311?\232\357\357\201k\325\324"
 163      F18AF641 
 163      C93F9AEF 
 163      EF816BD5 
 163      D4
 164 0934 A521CE18 		.ascii	"\245!\316\030G\347_\177E^\306\366<\216S\275I\355\255"
 164      47E75F7F 
 164      455EC6F6 
 164      3C8E53BD 
 164      49EDAD
 165 0947 227FA2A7 		.ascii	"\"\177\242\247\"\177\032\\\221\023\264r\270\373\234"
 165      227F1A5C 
 165      9113B472 
 165      B8FB9C
ARM GAS  C:\Users\JEFFSN~1\AppData\Local\Temp\cc1C2DMI.s 			page 13


 166 0956 38F16FD5 		.ascii	"8\361o\325\301\271\317\244o?\017\346\334H\212\322\305"
 166      C1B9CFA4 
 166      6F3F0FE6 
 166      DC488AD2 
 166      C5
 167 0967 39BFE0DC 		.ascii	"9\277\340\334\310 \316%j\\/m9.\356{\267\351 \307ri\267"
 167      C820CE25 
 167      6A5C2F6D 
 167      392EEE7B 
 167      B7E920C7 
 168 097e 28C4CDA3 		.ascii	"(\304\315\2439P\363\232\365\315\342+\330\207\000_\220"
 168      3950F39A 
 168      F5CDE22B 
 168      D887005F 
 168      90
 169 098f BE71F04B 		.ascii	"\276q\360Kif\005\213\307h\316\301\366\271z9\270R\002"
 169      6966058B 
 169      C768CEC1 
 169      F6B97A39 
 169      B85202
 170 09a2 7DD58D83 		.ascii	"}\325\215\203\027j#z\343\340\252`\016\272\204\333\350"
 170      176A237A 
 170      E3E0AA60 
 170      0EBA84DB 
 170      E8
 171 09b3 2BD0DFF8 		.ascii	"+\320\337\370~\377~-\026\025\2078\347\016:\377\3729"
 171      7EFF7E2D 
 171      16158738 
 171      E70E3AFF 
 171      FA39
 172 09c5 58C2F67C 		.ascii	"X\302\366|\007\347\340\245^9X\252\207\203_w\253\315"
 172      07E7E0A5 
 172      5E3958AA 
 172      87835F77 
 172      ABCD
 173 09d7 1D1A07EE 		.ascii	"\035\032\007\356\322\021\234\325\322\247kB\2669\206"
 173      D2119CD5 
 173      D2A76B42 
 173      B63986
 174 09e6 039DAF28 		.ascii	"\003\235\257(:/^\350\013\000\276\351#\007\326J3\353"
 174      3A2F5EE8 
 174      0B00BEE9 
 174      2307D64A 
 174      33EB
 175 09f8 983FC6B0 		.ascii	"\230?\306\260@$u\277\220\030\024vJW\256\021\373x*\334"
 175      402475BF 
 175      90181476 
 175      4A57AE11 
 175      FB782ADC 
 176 0a0c 296D0D7F 		.ascii	")m\015\177J\257\227\247tY\310)\375t\270e\332\302/s\203"
 176      4AAF97A7 
 176      7459C829 
 176      FD74B865 
 176      DAC22F73 
 177 0a21 5CE6C690 		.ascii	"\\\346\306\220S\372\031\012\024|JO\240\313\243\243\354"
 177      53FA190A 
 177      147C4A4F 
ARM GAS  C:\Users\JEFFSN~1\AppData\Local\Temp\cc1C2DMI.s 			page 14


 177      A0CBA3A3 
 177      EC
 178 0a32 94CE3F21 		.ascii	"\224\316?!&M\354v\366B\367sw\223\266\256\245\267\013"
 178      264DEC76 
 178      F642F773 
 178      7793B6AE 
 178      A5B70B
 179 0a45 E7751DE9 		.ascii	"\347u\035\351t\033\363\361\343;=\327'\210\005lf~\232"
 179      741BF3F1 
 179      E33B3DD7 
 179      2788056C 
 179      667E9A
 180 0a58 C88FF6CA 		.ascii	"\310\217\366\312:\341\222gulf\213\334\314\267!\307\356"
 180      3AE19267 
 180      756C668B 
 180      DCCCB721 
 180      C7EE
 181 0a6a 7314A8F7 		.ascii	"s\024\250\367c\267\007X\237\204\375\216-\3619\316\276"
 181      63B70758 
 181      9F84FD8E 
 181      2DF139CE 
 181      BE
 182 0a7b 6DF3C4A9 		.ascii	"m\363\304\251\367\274\016\254r\211\2655$j/\204C\261"
 182      F7BC0EAC 
 182      7289B535 
 182      246A2F84 
 182      43B1
 183 0a8d 8747A990 		.ascii	"\207G\251\220(\225\362\036\250}\226}\236B\211j\231,"
 183      2895F21E 
 183      A87D967D 
 183      9E42896A 
 183      992C
 184 0a9f 8A747B49 		.ascii	"\212t{Iu]Do\251U\245\345!j\016\222\267\335\035\363D"
 184      755D446F 
 184      A955A5E5 
 184      216A0E92 
 184      B7DD1DF3 
 185 0ab4 A85FD451 		.ascii	"\250_\324Q\337\267\311\365}\037\\\337GQ\224\337\327"
 185      DFB7C9F5 
 185      7D1F5CDF 
 185      475194DF 
 185      D7
 186 0ac5 F75141F5 		.ascii	"\367QA\365=E\326\367\235'\004\001^\326\221t?H\273\333"
 186      3D45D6F7 
 186      9D270401 
 186      5ED69174 
 186      3F48BBDB 
 187 0ad9 43727B32 		.ascii	"Cr{2\007\222/S*}\231\372\261\217\251]-\255\354`|\230"
 187      07922F53 
 187      2A7D99FA 
 187      B18FA95D 
 187      2DADEC60 
 188 0aef CCCB7BDD 		.ascii	"\314\313{\335<\275\345\275F\002\355\354V\336\353\353"
 188      3CBDE5BD 
 188      4602EDEC 
 188      56DEEBEB 
 189 0aff 7A2DEFBB 		.ascii	"z-\357\273\202\313\373\340\256\362~\017\337n\326\265"
ARM GAS  C:\Users\JEFFSN~1\AppData\Local\Temp\cc1C2DMI.s 			page 15


 189      82CBFBE0 
 189      AEF27E0F 
 189      DF6ED6B5 
 190 0b0f 0AF4EE10 		.ascii	"\012\364\356\020\337L\241\363\257\277\274\357a{\236"
 190      DF4CA1F3 
 190      AFBFBCEF 
 190      617B9E
 191 0b1e C2CBFB5E 		.ascii	"\302\313\373^Co\264\252\305\2056\213\205\246j\345\217"
 191      436FB4AA 
 191      C585368B 
 191      85A66AE5 
 191      8F
 192 0b2f FD34832F 		.ascii	"\3754\203/t\363kc\257\371FW\027\362F7\004\177\217\362"
 192      74F36B63 
 192      AFF94657 
 192      17F24637 
 192      047F8FF2 
 193 0b43 83C7A9F0 		.ascii	"\203\307\251\360_.\272\310u/\355P\224\274\237\334\233"
 193      5F2EBAC8 
 193      752FED50 
 193      94BC9FDC 
 193      9B
 194 0b54 0DFC952E 		.ascii	"\015\374\225.\005\352\211\340\332\317\237\213\037\247"
 194      05EA89E0 
 194      DACF9F8B 
 194      1FA7
 195 0b62 EED55EE9 		.ascii	"\356\325^\351\350\215\226\276\003\252\207J_\365\252"
 195      E88D96BE 
 195      03AA874A 
 195      5FF5AA
 196 0b71 8EE899BB 		.ascii	"\216\350\231\273\033\261\233\310\272\346\024\012gN\245"
 196      1BB19BC8 
 196      BAE6140A 
 196      674EA5
 197 0b80 C261E70F 		.ascii	"\302a\347\017\034f\354\330PXQ\304\240\350\207\263\006"
 197      1C66ECD8 
 197      505851C4 
 197      A0E887B3 
 197      06
 198 0b91 728D786C 		.ascii	"r\215xl\367G\341B\221\214b0\256w\250rf\200\370@5O\020"
 198      F747E142 
 198      918C6230 
 198      AE77A872 
 198      6680F840 
 199 0ba8 FA0D1D0C 		.ascii	"\372\015\035\014i\220\014\331\033\234H\257S\024\371"
 199      69900CD9 
 199      1B9C48AF 
 199      5314F9
 200 0bb7 D545DCBF 		.ascii	"\325E\334\277^\017\372\342\222\246TD\252\001\222\316"
 200      5E0FFAE2 
 200      92A65444 
 200      AA0192CE 
 201 0bc7 8D7BDAF2 		.ascii	"\215{\332\362\332\305\2447\275\354%X\026\235\251:h\277"
 201      DAC5A437 
 201      BDEC2558 
 201      169DA93A 
 201      68BF
ARM GAS  C:\Users\JEFFSN~1\AppData\Local\Temp\cc1C2DMI.s 			page 16


 202 0bd9 4FAE657F 		.ascii	"O\256e\177\010\201\336b\300S\373\224L\007$\352AF\254"
 202      0881DE62 
 202      C053FB94 
 202      4C0724EA 
 202      4146AC
 203 0bec B7F80173 		.ascii	"\267\370\001su\307(\216\375\366\265\270xHs\212XH6\237"
 203      75C7288E 
 203      FDF6B5B8 
 203      7848738A 
 203      5848369F 
 204 0c00 BF6CFBA2 		.ascii	"\277l\373\242r+\377F\3713\300ar\235\314>\302\026\220"
 204      722BFF46 
 204      F933C061 
 204      729DCC3E 
 204      C21690
 205 0c13 CD73B07D 		.ascii	"\315s\260}\236Ig6\037\225;i$\335?\320\232\301\011\307"
 205      9E496736 
 205      1F953B69 
 205      24DD3FD0 
 205      9AC109C7 
 206 0c27 08FBA2A3 		.ascii	"\010\373\242\243\322\3615\025\333\246\233\371\227\033"
 206      D2F13515 
 206      DBA69BF9 
 206      971B
 207 0c35 003F710D 		.ascii	"\000?q\015=\364\321g\370\245G\376\222@\200\300q\342"
 207      3DF4D167 
 207      F8A547FE 
 207      924080C0 
 207      71E2
 208 0c47 4A430265 		.ascii	"JC\002e\360\037`iE\274X'\202\350\001\035\253:!Wu2\304"
 208      F01F6069 
 208      45BC5827 
 208      82E8011D 
 208      AB3A2157 
 209 0c5e 595E4028 		.ascii	"Y^@(\226\370,G\262\264\341\240z<L\320\267\275d\333\202"
 209      96F82C47 
 209      B2B4E1A0 
 209      7A3C4CD0 
 209      B7BD64DB 
 210 0c73 F13AFDD1 		.ascii	"\361:\375\321$-\237\302\032\300\034@!3\331/\354g\300"
 210      242D9FC2 
 210      1AC01C40 
 210      2133D92F 
 210      EC67C0
 211 0c86 E32BF39B 		.ascii	"\343+\363\233Y\356s\316\002\216\023E\031\362\217I\223"
 211      59EE73CE 
 211      028E1345 
 211      19F28F49 
 211      93
 212 0c97 27653DFD 		.ascii	"'e=\375\332\244\211O>\370\312\177\263&Lz\354_\017\276"
 212      DAA4894F 
 212      3EF8CA7F 
 212      B3264C7A 
 212      EC5F0FBE 
 213 0cab 72E75F1E 		.ascii	"r\347_\036\033\373\347;\237\274\351\311\261\377\374"
 213      1BFBE73B 
 213      9FBCE9C9 
ARM GAS  C:\Users\JEFFSN~1\AppData\Local\Temp\cc1C2DMI.s 			page 17


 213      B1FFFC
 214 0cba F7F0098A 		.ascii	"\367\360\011\212\361\265\227_\275sJ\326\377\001\262"
 214      F1B5975F 
 214      BD734AD6 
 214      FF01B2
 215 0cc9 086B55   		.ascii	"\010kU"
 216              		.text
 217              		.section	.gnu.lto_.symbol_nodes.ed0de5b3,"",%progbits
 218 0000 789C1DCC 		.ascii	"x\234\035\314\261\021\200 \020D\321\177\300\001\322"
 218      B1118020 
 218      1044D17F 
 218      C001D2
 219 000f 80A99668 		.ascii	"\200\251\226h\005P\202=\230Y\207\261-\230\330\200\035"
 219      0550823D 
 219      985987B1 
 219      2D98D880 
 219      1D
 220 0020 08B7C99B 		.ascii	"\010\267\311\233\371\301\006\204\215>G\205\375fp\266"
 220      F9C10684 
 220      8D3E4785 
 220      FD6670B6 
 221 0030 1554587A 		.ascii	"\025TXzW'\206wF\360\206\006#\252\221\2431%\243\344\201"
 221      57278677 
 221      46F08606 
 221      23AA91A3 
 221      3125A3E4 
 222 0045 A42AF607 		.ascii	"\244*\366\007\255\365\340)\\\317<x\217/\361\003\202"
 222      ADF5E029 
 222      5CCF3C78 
 222      8F2FF103 
 222      82
 223 0056 890D1A   		.ascii	"\211\015\032"
 224              		.text
 225              		.section	.gnu.lto_.refs.ed0de5b3,"",%progbits
 226 0000 789C0D8E 		.ascii	"x\234\015\216\261\012\201a\030\205\237\343\377\376\027"
 226      B10A8161 
 226      18859FE3 
 226      FFFE17
 227 000f 93644089 		.ascii	"\223d@\211Q\242\014\304\355\271\000\213\014\224[1\021"
 227      51A20CC4 
 227      EDB9008B 
 227      0C945B31 
 227      11
 228 0020 9328B129 		.ascii	"\223(\261)\261I,B)\361\016\247s\236z\206\023\020S\240"
 228      B1492C42 
 228      29F10EA7 
 228      739E7A86 
 228      131053A0 
 229 0034 058A500A 		.ascii	"\005\212P\012eHd\211r\012y\251@\\\304J\262\262T\221"
 229      65486489 
 229      720A79A9 
 229      405CC44A 
 229      B2B25491 
 230 0048 AA584D56 		.ascii	"\252XMV'n\240&\326\226u\244.a\006\2119D\013\010K\317"
 230      276EA026 
 230      D69675A4 
 230      2E610689 
ARM GAS  C:\Users\JEFFSN~1\AppData\Local\Temp\cc1C2DMI.s 			page 18


 230      39440B08 
 231 005e 0A8535C4 		.ascii	"\012\2055\304\033\260-\262\035\322\336\371\340|t>9\237"
 231      1BB02DB2 
 231      1DD2DEF9 
 231      E07C743E 
 231      399F
 232 0070 7D5F7C5F 		.ascii	"}_|_!y\203\324\335\363\360\003O\357\027\244\337\356"
 232      217983D4 
 232      DDF3F003 
 232      4FEF17A4 
 232      DFEE
 233 0082 7FDCF9BA 		.ascii	"\177\334\371\272\363s\277'\324\0276\220l(i\344<\366"
 233      F373BF27 
 233      D4173690 
 233      6C2869E4 
 233      3CF6
 234 0094 9E883F2F 		.ascii	"\236\210?/\375\036\""
 234      FD1E22
 235              		.text
 236              		.section	.gnu.lto_.decls.ed0de5b3,"",%progbits
 237 0000 789C9555 		.ascii	"x\234\225UmLSW\030\276\357\275\245\266\245\202C\263"
 237      6D4C5357 
 237      18BEEFBD 
 237      A5B6A582 
 237      43B3
 238 0012 F8A3C998 		.ascii	"\370\243\311\230\204\340/25.\356\337\262&S\223\305\031"
 238      84E02F32 
 238      352EEEDF 
 238      B2265393 
 238      C519
 239 0024 51F7C7C5 		.ascii	"Q\367\307\305(t\233\211\203\255\224d\354\317.R\235\260"
 239      28749B89 
 239      83AD9464 
 239      ECCF2E52 
 239      9DB0
 240 0036 B1B02508 		.ascii	"\261\260%\010\355\252\3239\234|\010\370\201\245E\245"
 240      EDAAD339 
 240      9C7C08F8 
 240      81A545A5 
 241 0046 8022B02A 		.ascii	"\200\"\260*(\210@\251-:3\253\350t\303\0057\225\275\347"
 241      288840A9 
 241      2D3A33AB 
 241      E874C305 
 241      3795BDE7 
 242 005a A3BD6D81 		.ascii	"\243\275m\201\305\035x\356\275\347\364y\236\367\243"
 242      C51D78EE 
 242      BDE7F479 
 242      9EF7A3
 243 0069 E79EAA04 		.ascii	"\347\236\252\004\020\310\230\236'\0109\370x\207<\343"
 243      10C8989E 
 243      270839F8 
 243      78873CE3 
 244 0079 10F1BE59 		.ascii	"\020\361\276YP\006\231\037C\234Fh\021.D+\342\034\302"
 244      5006991F 
 244      439C4668 
 244      112E442B 
 244      E21CC2
ARM GAS  C:\Users\JEFFSN~1\AppData\Local\Temp\cc1C2DMI.s 			page 19


 245 008c 83E8409C 		.ascii	"\203\350@\234Gt!\272\021\275B\354 \332d\356y\022\361"
 245      477421BA 
 245      11BD42EC 
 245      20DA64EE 
 245      7912F1
 246 009f 2EC28038 		.ascii	".\302\2008\213HA\\Fx\021-\210>\304\010b\030\221\201"
 246      8B48415C 
 246      4678112D 
 246      883EC408 
 246      62189181 
 247 00b3 184534CF 		.ascii	"\030E4\317\222\307|\236\207\0171\206\360#n\374\317\274"
 247      92C77C9E 
 247      870F3186 
 247      F0236EFC 
 247      CFBC
 248 00c5 9E89E068 		.ascii	"\236\211\340h?\320\231\340\203\021\000\001\350\020x"
 248      3FD099E0 
 248      83110001 
 248      E81078
 249 00d4 4F04B2C2 		.ascii	"O\004\262\302\357\344\001\330D\244W!\314\002N\026\200"
 249      EFE401D8 
 249      44A45721 
 249      CC024E16 
 249      80
 250 00e5 FEE1BF48 		.ascii	"\376\341\277H\371\221\3650/\022s:<\224%\210\2140\023"
 250      F991F530 
 250      2F12733A 
 250      3C942588 
 250      8C3013
 251 00f8 624D89AB 		.ascii	"bM\211\2532\305\271\250\010\242\374x\366<>D\207\245"
 251      32C5B9A8 
 251      08A2FC78 
 251      F63C3E44 
 251      87A5
 252 010a D652B8E8 		.ascii	"\326R\270\350\273m\207\247T\022z\342s\340\311\321\267"
 252      BB6D87A7 
 252      54127AE2 
 252      73E0C9D1 
 252      B7
 253 011b 33EB651C 		.ascii	"3\353e\034\345\262,\032\224\316\\\26169\244I\021Rt\240"
 253      E5B22C1A 
 253      94CE5CB1 
 253      3639A449 
 253      115274A0 
 254 012f C2E9A34B 		.ascii	"\302\351\243K\366[I8]\244\203T\234>\353\371\336..\336"
 254      F65B4938 
 254      5DA48354 
 254      9C3EEBF9 
 254      DE2E2EDE 
 255 0143 4775C572 		.ascii	"Gu\305r\252\0126\277\014u`\200Z@\013\250\207\305x\335"
 255      AA0A36BF 
 255      0C756080 
 255      5A400BA8 
 255      87C578DD 
 256 0157 AE624E83 		.ascii	"\256bN\203!\317\353K\016\312\007\233\344\240oJg\223"
 256      21CFEB4B 
 256      0ECA079B 
ARM GAS  C:\Users\JEFFSN~1\AppData\Local\Temp\cc1C2DMI.s 			page 20


 256      E4A06F4A 
 256      6793
 257 0169 3D565489 		.ascii	"=VT\211\204\004GA\202\032\310$\031\342#\271\375\014"
 257      84044741 
 257      821AC824 
 257      19E223B9 
 257      FD0C
 258 017b 3ECCFD18 		.ascii	">\314\375\030,Aa\223\273l\217Vz\203\346\331\270\373"
 258      2C416193 
 258      BB6C8F56 
 258      7A83E6D9 
 258      B8FB
 259 018d D71A0DC6 		.ascii	"\327\032\015\3067\350`\032\310|\302\365d>\233\223\217"
 259      37E8601A 
 259      C87CC2F5 
 259      643E9B93 
 259      8F
 260 019e 6DDFDE7A 		.ascii	"m\337\336z\236(\275I\236\305\201[u!\025,\325\035!\331"
 260      9E28BD49 
 260      9EC5815B 
 260      7521152C 
 260      D51D21D9 
 261 01b2 05F777ED 		.ascii	"\005\367w\355\254\374\222\304;\011:8\256\3043\350\360"
 261      ACFC92C4 
 261      3B093A38 
 261      AEC433E8 
 261      F0
 262 01c3 BA579677 		.ascii	"\272W\226w\311\017\177\224\325\213\005Xa\200\327\014"
 262      C90F7F94 
 262      D58B0558 
 262      6180D70C 
 263 01d3 029C80A5 		.ascii	"\002\234\200\245\304\224\260\240\011+j\304\2120\300"
 263      C494B0A0 
 263      092B6AC4 
 263      8A30C0
 264 01e2 EDCA1FEE 		.ascii	"\355\312\037\356\251U\370\365S\037,\015\327\352\335"
 264      A955F8F5 
 264      531F2C0D 
 264      D7EADD
 265 01f1 6313EA39 		.ascii	"c\023\3529\233\320L\233p\012x\027N\037\013\016%c\033"
 265      9BD04C9B 
 265      700A7817 
 265      4E1F0B0E 
 265      25631B
 266 0204 8298D3F1 		.ascii	"\202\230\323\361\213_\214\237\220\255Z\302\201\006%"
 266      8B5F8C9F 
 266      90AD5AC2 
 266      810625
 267 0213 A70660DF 		.ascii	"\247\006`\337\021\234\246\3657\007\377y\222(\355\005"
 267      119CA6F5 
 267      3707FF79 
 267      9228ED05 
 268 0223 5AE1A4F5 		.ascii	"Z\341\244\365\317!\265\016\023.~\261\204\355\336\275"
 268      CF21B50E 
 268      132E7EB1 
 268      84EDDEBD 
 269 0233 4E6DFA61 		.ascii	"Nm\372a\371\247b98\322\233\336\330 [\2135\320\202\311"
ARM GAS  C:\Users\JEFFSN~1\AppData\Local\Temp\cc1C2DMI.s 			page 21


 269      F9A76239 
 269      38D29BDE 
 269      D8205B8B 
 269      35D082C9 
 270 0247 3B5940AE 		.ascii	";Y@\256\027\310\034\257.HGU\3657w\352\364R\013\013y"
 270      17C81CAF 
 270      2E484755 
 270      F53777EA 
 270      F4520B0B 
 271 025c D3EF2C57 		.ascii	"\323\357,W1\013\317\300c\250\224;\212T\324\301\035\347"
 271      310BCFC0 
 271      63A8943B 
 271      8A54D4C1 
 271      1DE7
 272 026e E0A60EAD 		.ascii	"\340\246\016\255\324\301\3568\344\323I^\346PUq\344\357"
 272      D4C1EE38 
 272      E4D3495E 
 272      E6505571 
 272      E4EF
 273 0280 247D29E9 		.ascii	"$})\3512v(e\015U+-:\013z\276\333\316\372\275\023\032"
 273      32762865 
 273      0D552B2D 
 273      3A0B7ABE 
 273      DBCEFABD 
 274 0296 0C757097 		.ascii	"\014up\227\354\3517YK4\34438\303\343(\21234\3229\032"
 274      ECE93759 
 274      4B34E433 
 274      38C3E328 
 274      8A3334D2 
 275 02ac A9A6B2FA 		.ascii	"\251\246\262\372\201F\012\260H\255!\307J\236\352\340"
 275      81460AB0 
 275      48AD21C7 
 275      4A9EEAE0 
 276 02bc FBE14ADB 		.ascii	"\373\341J\333\342\362l\243j\017U\377\376\334q\023\244"
 276      E2F26CA3 
 276      6A0F55FF 
 276      FEDC7113 
 276      A4
 277 02cd 49A6AEBE 		.ascii	"I\246\256\276}\2426\221\313\217\337\217\252\264=\316"
 277      7DA23691 
 277      CB8FDF8F 
 277      AAB43DCE 
 278 02dd A19D3A74 		.ascii	"\241\235:tP\207\216\272\242\262$i\017{\217\356=*i\222"
 278      50878EBA 
 278      A2B22469 
 278      0F7B8FEE 
 278      3D2A6992 
 279 02f1 B8C38148 		.ascii	"\270\303\201H\002\235q\362N*?O\345w\357\273\312D\251"
 279      029D71F2 
 279      4E2A3F4F 
 279      E577EFBB 
 279      CA44A9
 280 0304 92C9FD83 		.ascii	"\222\311\375\203O\265\274|\347c\260\311\035V\025\355"
 280      4FB5BC7C 
 280      E763B0C9 
 280      1D5615ED 
 281 0314 C085191D 		.ascii	"\300\205\031\035\270@-\272\230\305\356\353v\275T\313"
ARM GAS  C:\Users\JEFFSN~1\AppData\Local\Temp\cc1C2DMI.s 			page 22


 281      B8402DBA 
 281      98C5EEEB 
 281      76BD54CB 
 282 0324 2CC61BBB 		.ascii	",\306\033\273>\345\011\270#\011\\\214K\340\"Uw3\365"
 282      3EE509B8 
 282      23095C8C 
 282      4BE02255 
 282      7733F5
 283 0337 F86F2EBD 		.ascii	"\370o.\275\324\306\324\347\\\245Ez.o\211\310{\342\344"
 283      D4C6D4E7 
 283      5CA5457A 
 283      2E6F89C8 
 283      7BE2E4
 284 034a 3D54DE4B 		.ascii	"=T\336K\345\227B\207\246\347I\003T.\236\254\260U\314"
 284      E5974287 
 284      A6E74903 
 284      542E9EAC 
 284      B055CC
 285 035d 03DDD259 		.ascii	"\003\335\322Y\366\347\245Y\366g\370\325\334d\377\256"
 285      F6E7A559 
 285      F667F8D5 
 285      DC64FFAE 
 286 036d 484E052F 		.ascii	"HN\005/\206\372Ey\01502\333\0255\017:=\020\275}\274"
 286      86FA4579 
 286      0D3032DB 
 286      15350F3A 
 286      3D10BD7D 
 287 0382 31DBE732 		.ascii	"1\333\3472\333>\344N6^\250\304.E\223I\377\024r\037'"
 287      DB3EE44E 
 287      365EA8C4 
 287      2E459349 
 287      FF14721F 
 288 0397 F751B2BF 		.ascii	"\367Q\262\277\273\246\216\234n\031x\234\340H\216:Q2"
 288      BBA68E9C 
 288      6E19789C 
 288      E0488E3A 
 288      5132
 289 03a9 D889D21B 		.ascii	"\330\211\322\033\270\375\207V\032f\345]\265M\004\324"
 289      B8FD8756 
 289      1A66E55D 
 289      B54D04D4 
 290 03b9 AC3CEE2E 		.ascii	"\254<\356.D\254a\020\013\314\340\005^\301\305\376p\201"
 290      44AC6110 
 290      0BCCE005 
 290      5EC1C5FE 
 290      7081
 291 03cb 1E67C020 		.ascii	"\036g\300 \313\032\030\300\254\257*\345e\360\352J\306"
 291      CB1A18C0 
 291      ACAF2AE5 
 291      65F0EA4A 
 291      C6
 292 03dc 2B4613D8 		.ascii	"+F\023\330\033\375\"\226\250p\337\220\035\011R\200\345"
 292      1BFD2296 
 292      A870DF90 
 292      1D095280 
 292      E5
 293 03ed 74ED2B67 		.ascii	"t\355+g\225\024>\346<\276\273k\360X\005\030\306XCJ\254"
ARM GAS  C:\Users\JEFFSN~1\AppData\Local\Temp\cc1C2DMI.s 			page 23


 293      95143EE6 
 293      3CBEBB6B 
 293      F0580518 
 293      C658434A 
 294 0402 6BC08FB9 		.ascii	"k\300\217\271\2311\256\317\036\343\257\251\236\257\365"
 294      9931AECF 
 294      1EE3AFA9 
 294      9EAFF5
 295 0411 D16D1C8E 		.ascii	"\321m\034\216\351\371\010o\343\010m\343\303\366\356"
 295      E9F9086F 
 295      E3086DE3 
 295      C3F6EE
 296 0420 CEE46832 		.ascii	"\316\344h29\320\024\362('\217Rrh\260\341|R\332!\366"
 296      39D014F2 
 296      28278F52 
 296      7268B0E1 
 296      7C52DA21 
 297 0435 5B532A0A 		.ascii	"[S*\012x\\\322\223\236\035y>H#/\342Qo\225\206q\202\276"
 297      785CD293 
 297      9E1D793E 
 297      48232FE2 
 297      516F9586 
 298 044c C9E4FD72 		.ascii	"\311\344\375r\377\202X\332\030\245\215>m\266\001\243"
 298      FF8258DA 
 298      18A58D3E 
 298      6DB601A3 
 299 045c 795A924A 		.ascii	"yZ\222J\305X\216\237rZ\367\355vj9\247<%\236s\003\322"
 299      C5588E9F 
 299      725AF7ED 
 299      766A39A7 
 299      3C259E73 
 300 0472 04EDDAE5 		.ascii	"\004\355\332\345\306\255\313\266\256\315\332\240Y\275"
 300      C6ADCBB6 
 300      AECDDAA0 
 300      59BD
 301 0480 6E53AA71 		.ascii	"nS\252q\3312!m\265)\327d\336f1\345l\315\312+0g\233\266"
 301      D932216D 
 301      B529D764 
 301      DE6631E5 
 301      6CCDCA2B 
 302 0498 ACCFCA33 		.ascii	"\254\317\3123\256\334\302\231\3536ff\013jc\341\232m"
 302      AEDCC299 
 302      EB366666 
 302      0B6A63E1 
 302      9A6D
 303 04aa 3B2D0905 		.ascii	";-\011\005;r-\253^\235C\220]h)\374\304\224\237\371\221"
 303      3B722DAB 
 303      5E9D4390 
 303      5D6829FC 
 303      C4949FF9 
 304 04bf F0CA1C0C 		.ascii	"\360\312\034\014c\341;;\266\343\347\211\314;\337\202"
 304      63E13B3B 
 304      B6E3E789 
 304      CC3BDF82 
 305 04cf 94FF0EBF 		.ascii	"\224\377\016\277~\363F\344/d\223\217\363-\346\367\314"
 305      7EF346E4 
 305      2F64938F 
ARM GAS  C:\Users\JEFFSN~1\AppData\Local\Temp\cc1C2DMI.s 			page 24


 305      F32DE6F7 
 305      CC
 306 04e0 6F157C90 		.ascii	"o\025|\220\265\343sSJ\334\332z\213yQ\334\322\332\334"
 306      B5E37353 
 306      4ADCDA7A 
 306      8B7951DC 
 306      D2DADC
 307 04f3 1CD3672F 		.ascii	"\034\323g/)\213\306\274\\\2139o\347\002e%\0133(\310"
 307      298BC6BC 
 307      5C8B396F 
 307      E7026525 
 307      0B3328C8 
 308 0507 8FB2DA90 		.ascii	"\217\262\332\2203\303\212.Q\253\205q\213$\015\225\331"
 308      33C38A2E 
 308      51AB8571 
 308      8B240D95 
 308      D9
 309 0518 F4E12A35 		.ascii	"\364\341*5\351\313\212\345\011\370\274b\371\277\210"
 309      E9CB8AE5 
 309      09F8BC62 
 309      F9BF88
 310 0527 F7D8A9   		.ascii	"\367\330\251"
 311              		.text
 312              		.section	.gnu.lto_.symtab.ed0de5b3,"",%progbits
 313 0000 4932435F 		.ascii	"I2C_1_ISR\000"
 313      315F4953 
 313      5200
 314 000a 00       		.ascii	"\000"
 315 000b 00       		.ascii	"\000"
 316 000c 00       		.ascii	"\000"
 317 000d 00000000 		.ascii	"\000\000\000\000\000\000\000\000"
 317      00000000 
 318 0015 AD000000 		.ascii	"\255\000\000\000"
 319 0019 4932435F 		.ascii	"I2C_1_state\000"
 319      315F7374 
 319      61746500 
 320 0025 00       		.ascii	"\000"
 321 0026 02       		.ascii	"\002"
 322 0027 00       		.ascii	"\000"
 323 0028 00000000 		.ascii	"\000\000\000\000\000\000\000\000"
 323      00000000 
 324 0030 B9000000 		.ascii	"\271\000\000\000"
 325 0034 4932435F 		.ascii	"I2C_1_mstrWrBufSize\000"
 325      315F6D73 
 325      74725772 
 325      42756653 
 325      697A6500 
 326 0048 00       		.ascii	"\000"
 327 0049 02       		.ascii	"\002"
 328 004a 00       		.ascii	"\000"
 329 004b 00000000 		.ascii	"\000\000\000\000\000\000\000\000"
 329      00000000 
 330 0053 BB000000 		.ascii	"\273\000\000\000"
 331 0057 4932435F 		.ascii	"I2C_1_mstrWrBufPtr\000"
 331      315F6D73 
 331      74725772 
 331      42756650 
ARM GAS  C:\Users\JEFFSN~1\AppData\Local\Temp\cc1C2DMI.s 			page 25


 331      747200
 332 006a 00       		.ascii	"\000"
 333 006b 02       		.ascii	"\002"
 334 006c 00       		.ascii	"\000"
 335 006d 00000000 		.ascii	"\000\000\000\000\000\000\000\000"
 335      00000000 
 336 0075 BE000000 		.ascii	"\276\000\000\000"
 337 0079 4932435F 		.ascii	"I2C_1_mstrWrBufIndex\000"
 337      315F6D73 
 337      74725772 
 337      42756649 
 337      6E646578 
 338 008e 00       		.ascii	"\000"
 339 008f 02       		.ascii	"\002"
 340 0090 00       		.ascii	"\000"
 341 0091 00000000 		.ascii	"\000\000\000\000\000\000\000\000"
 341      00000000 
 342 0099 C0000000 		.ascii	"\300\000\000\000"
 343 009d 4932435F 		.ascii	"I2C_1_mstrControl\000"
 343      315F6D73 
 343      7472436F 
 343      6E74726F 
 343      6C00
 344 00af 00       		.ascii	"\000"
 345 00b0 02       		.ascii	"\002"
 346 00b1 00       		.ascii	"\000"
 347 00b2 00000000 		.ascii	"\000\000\000\000\000\000\000\000"
 347      00000000 
 348 00ba C2000000 		.ascii	"\302\000\000\000"
 349 00be 4932435F 		.ascii	"I2C_1_mstrStatus\000"
 349      315F6D73 
 349      74725374 
 349      61747573 
 349      00
 350 00cf 00       		.ascii	"\000"
 351 00d0 02       		.ascii	"\002"
 352 00d1 00       		.ascii	"\000"
 353 00d2 00000000 		.ascii	"\000\000\000\000\000\000\000\000"
 353      00000000 
 354 00da C4000000 		.ascii	"\304\000\000\000"
 355 00de 4932435F 		.ascii	"I2C_1_mstrRdBufPtr\000"
 355      315F6D73 
 355      74725264 
 355      42756650 
 355      747200
 356 00f1 00       		.ascii	"\000"
 357 00f2 02       		.ascii	"\002"
 358 00f3 00       		.ascii	"\000"
 359 00f4 00000000 		.ascii	"\000\000\000\000\000\000\000\000"
 359      00000000 
 360 00fc C6000000 		.ascii	"\306\000\000\000"
 361 0100 4932435F 		.ascii	"I2C_1_mstrRdBufIndex\000"
 361      315F6D73 
 361      74725264 
 361      42756649 
 361      6E646578 
 362 0115 00       		.ascii	"\000"
ARM GAS  C:\Users\JEFFSN~1\AppData\Local\Temp\cc1C2DMI.s 			page 26


 363 0116 02       		.ascii	"\002"
 364 0117 00       		.ascii	"\000"
 365 0118 00000000 		.ascii	"\000\000\000\000\000\000\000\000"
 365      00000000 
 366 0120 C8000000 		.ascii	"\310\000\000\000"
 367 0124 4932435F 		.ascii	"I2C_1_mstrRdBufSize\000"
 367      315F6D73 
 367      74725264 
 367      42756653 
 367      697A6500 
 368 0138 00       		.ascii	"\000"
 369 0139 02       		.ascii	"\002"
 370 013a 00       		.ascii	"\000"
 371 013b 00000000 		.ascii	"\000\000\000\000\000\000\000\000"
 371      00000000 
 372 0143 CA000000 		.ascii	"\312\000\000\000"
 373 0147 43794861 		.ascii	"CyHalt\000"
 373      6C7400
 374 014e 00       		.ascii	"\000"
 375 014f 02       		.ascii	"\002"
 376 0150 00       		.ascii	"\000"
 377 0151 00000000 		.ascii	"\000\000\000\000\000\000\000\000"
 377      00000000 
 378 0159 B6000000 		.ascii	"\266\000\000\000"
 379              		.text
 380              		.section	.gnu.lto_.opts,"",%progbits
 381 0000 272D666D 		.ascii	"'-fmath-errno' '-fsigned-zeros' '-ftrapping-math' '"
 381      6174682D 
 381      6572726E 
 381      6F272027 
 381      2D667369 
 382 0033 2D666E6F 		.ascii	"-fno-trapv' '-fno-strict-overflow' '-fno-openmp' '-"
 382      2D747261 
 382      70762720 
 382      272D666E 
 382      6F2D7374 
 383 0066 666E6F2D 		.ascii	"fno-openacc' '-mcpu=cortex-m3' '-mthumb' '-g' '-Og'"
 383      6F70656E 
 383      61636327 
 383      20272D6D 
 383      6370753D 
 384 0099 20272D66 		.ascii	" '-ffunction-sections' '-ffat-lto-objects' '-finlin"
 384      66756E63 
 384      74696F6E 
 384      2D736563 
 384      74696F6E 
 385 00cc 652D6675 		.ascii	"e-functions' '-flto'\000"
 385      6E637469 
 385      6F6E7327 
 385      20272D66 
 385      6C746F27 
 386              		.text
 387              		.cfi_sections	.debug_frame
 388              		.section	.text.I2C_1_ISR,"ax",%progbits
 389              		.align	2
 390              		.global	I2C_1_ISR
 391              		.thumb
ARM GAS  C:\Users\JEFFSN~1\AppData\Local\Temp\cc1C2DMI.s 			page 27


 392              		.thumb_func
 393              		.type	I2C_1_ISR, %function
 394              	I2C_1_ISR:
 395              	.LFB0:
 396              		.file 1 "Generated_Source\\PSoC5\\I2C_1_INT.c"
   1:Generated_Source\PSoC5/I2C_1_INT.c **** /*******************************************************************************
   2:Generated_Source\PSoC5/I2C_1_INT.c **** * File Name: I2C_1_INT.c
   3:Generated_Source\PSoC5/I2C_1_INT.c **** * Version 3.50
   4:Generated_Source\PSoC5/I2C_1_INT.c **** *
   5:Generated_Source\PSoC5/I2C_1_INT.c **** * Description:
   6:Generated_Source\PSoC5/I2C_1_INT.c **** *  This file provides the source code of Interrupt Service Routine (ISR)
   7:Generated_Source\PSoC5/I2C_1_INT.c **** *  for the I2C component.
   8:Generated_Source\PSoC5/I2C_1_INT.c **** *
   9:Generated_Source\PSoC5/I2C_1_INT.c **** ********************************************************************************
  10:Generated_Source\PSoC5/I2C_1_INT.c **** * Copyright 2008-2015, Cypress Semiconductor Corporation. All rights reserved.
  11:Generated_Source\PSoC5/I2C_1_INT.c **** * You may use this file only in accordance with the license, terms, conditions,
  12:Generated_Source\PSoC5/I2C_1_INT.c **** * disclaimers, and limitations in the end user license agreement accompanying
  13:Generated_Source\PSoC5/I2C_1_INT.c **** * the software package with which this file was provided.
  14:Generated_Source\PSoC5/I2C_1_INT.c **** *******************************************************************************/
  15:Generated_Source\PSoC5/I2C_1_INT.c **** 
  16:Generated_Source\PSoC5/I2C_1_INT.c **** #include "I2C_1_PVT.h"
  17:Generated_Source\PSoC5/I2C_1_INT.c **** 
  18:Generated_Source\PSoC5/I2C_1_INT.c **** 
  19:Generated_Source\PSoC5/I2C_1_INT.c **** 
  20:Generated_Source\PSoC5/I2C_1_INT.c **** /*******************************************************************************
  21:Generated_Source\PSoC5/I2C_1_INT.c **** *  Place your includes, defines and code here.
  22:Generated_Source\PSoC5/I2C_1_INT.c **** ********************************************************************************/
  23:Generated_Source\PSoC5/I2C_1_INT.c **** /* `#START I2C_1_ISR_intc` */
  24:Generated_Source\PSoC5/I2C_1_INT.c **** 
  25:Generated_Source\PSoC5/I2C_1_INT.c **** /* `#END` */
  26:Generated_Source\PSoC5/I2C_1_INT.c **** 
  27:Generated_Source\PSoC5/I2C_1_INT.c **** 
  28:Generated_Source\PSoC5/I2C_1_INT.c **** /*******************************************************************************
  29:Generated_Source\PSoC5/I2C_1_INT.c **** * Function Name: I2C_1_ISR
  30:Generated_Source\PSoC5/I2C_1_INT.c **** ********************************************************************************
  31:Generated_Source\PSoC5/I2C_1_INT.c **** *
  32:Generated_Source\PSoC5/I2C_1_INT.c **** * Summary:
  33:Generated_Source\PSoC5/I2C_1_INT.c **** *  The handler for the I2C interrupt. The slave and master operations are
  34:Generated_Source\PSoC5/I2C_1_INT.c **** *  handled here.
  35:Generated_Source\PSoC5/I2C_1_INT.c **** *
  36:Generated_Source\PSoC5/I2C_1_INT.c **** * Parameters:
  37:Generated_Source\PSoC5/I2C_1_INT.c **** *  None.
  38:Generated_Source\PSoC5/I2C_1_INT.c **** *
  39:Generated_Source\PSoC5/I2C_1_INT.c **** * Return:
  40:Generated_Source\PSoC5/I2C_1_INT.c **** *  None.
  41:Generated_Source\PSoC5/I2C_1_INT.c **** *
  42:Generated_Source\PSoC5/I2C_1_INT.c **** * Reentrant:
  43:Generated_Source\PSoC5/I2C_1_INT.c **** *  No.
  44:Generated_Source\PSoC5/I2C_1_INT.c **** *
  45:Generated_Source\PSoC5/I2C_1_INT.c **** *******************************************************************************/
  46:Generated_Source\PSoC5/I2C_1_INT.c **** CY_ISR(I2C_1_ISR)
  47:Generated_Source\PSoC5/I2C_1_INT.c **** {
 397              		.loc 1 47 0
 398              		.cfi_startproc
 399              		@ args = 0, pretend = 0, frame = 0
 400              		@ frame_needed = 0, uses_anonymous_args = 0
 401 0000 38B5     		push	{r3, r4, r5, lr}
ARM GAS  C:\Users\JEFFSN~1\AppData\Local\Temp\cc1C2DMI.s 			page 28


 402              		.cfi_def_cfa_offset 16
 403              		.cfi_offset 3, -16
 404              		.cfi_offset 4, -12
 405              		.cfi_offset 5, -8
 406              		.cfi_offset 14, -4
  48:Generated_Source\PSoC5/I2C_1_INT.c **** #if (I2C_1_MODE_SLAVE_ENABLED)
  49:Generated_Source\PSoC5/I2C_1_INT.c ****    uint8  tmp8;
  50:Generated_Source\PSoC5/I2C_1_INT.c **** #endif  /* (I2C_1_MODE_SLAVE_ENABLED) */
  51:Generated_Source\PSoC5/I2C_1_INT.c **** 
  52:Generated_Source\PSoC5/I2C_1_INT.c ****     uint8  tmpCsr;
  53:Generated_Source\PSoC5/I2C_1_INT.c ****     
  54:Generated_Source\PSoC5/I2C_1_INT.c **** #ifdef I2C_1_ISR_ENTRY_CALLBACK
  55:Generated_Source\PSoC5/I2C_1_INT.c ****     I2C_1_ISR_EntryCallback();
  56:Generated_Source\PSoC5/I2C_1_INT.c **** #endif /* I2C_1_ISR_ENTRY_CALLBACK */
  57:Generated_Source\PSoC5/I2C_1_INT.c ****     
  58:Generated_Source\PSoC5/I2C_1_INT.c **** 
  59:Generated_Source\PSoC5/I2C_1_INT.c **** #if(I2C_1_TIMEOUT_FF_ENABLED)
  60:Generated_Source\PSoC5/I2C_1_INT.c ****     if(0u != I2C_1_TimeoutGetStatus())
  61:Generated_Source\PSoC5/I2C_1_INT.c ****     {
  62:Generated_Source\PSoC5/I2C_1_INT.c ****         I2C_1_TimeoutReset();
  63:Generated_Source\PSoC5/I2C_1_INT.c ****         I2C_1_state = I2C_1_SM_EXIT_IDLE;
  64:Generated_Source\PSoC5/I2C_1_INT.c ****         /* I2C_1_CSR_REG should be cleared after reset */
  65:Generated_Source\PSoC5/I2C_1_INT.c ****     }
  66:Generated_Source\PSoC5/I2C_1_INT.c **** #endif /* (I2C_1_TIMEOUT_FF_ENABLED) */
  67:Generated_Source\PSoC5/I2C_1_INT.c **** 
  68:Generated_Source\PSoC5/I2C_1_INT.c **** 
  69:Generated_Source\PSoC5/I2C_1_INT.c ****     tmpCsr = I2C_1_CSR_REG;      /* Make copy as interrupts clear */
 407              		.loc 1 69 0
 408 0002 A54B     		ldr	r3, .L27
 409 0004 1C78     		ldrb	r4, [r3]	@ zero_extendqisi2
 410              	.LVL0:
  70:Generated_Source\PSoC5/I2C_1_INT.c **** 
  71:Generated_Source\PSoC5/I2C_1_INT.c **** #if(I2C_1_MODE_MULTI_MASTER_SLAVE_ENABLED)
  72:Generated_Source\PSoC5/I2C_1_INT.c ****     if(I2C_1_CHECK_START_GEN(I2C_1_MCSR_REG))
  73:Generated_Source\PSoC5/I2C_1_INT.c ****     {
  74:Generated_Source\PSoC5/I2C_1_INT.c ****         I2C_1_CLEAR_START_GEN;
  75:Generated_Source\PSoC5/I2C_1_INT.c **** 
  76:Generated_Source\PSoC5/I2C_1_INT.c ****         /* Set transfer complete and error flags */
  77:Generated_Source\PSoC5/I2C_1_INT.c ****         I2C_1_mstrStatus |= (I2C_1_MSTAT_ERR_XFER |
  78:Generated_Source\PSoC5/I2C_1_INT.c ****                                         I2C_1_GET_MSTAT_CMPLT);
  79:Generated_Source\PSoC5/I2C_1_INT.c **** 
  80:Generated_Source\PSoC5/I2C_1_INT.c ****         /* Slave was addressed */
  81:Generated_Source\PSoC5/I2C_1_INT.c ****         I2C_1_state = I2C_1_SM_SLAVE;
  82:Generated_Source\PSoC5/I2C_1_INT.c ****     }
  83:Generated_Source\PSoC5/I2C_1_INT.c **** #endif /* (I2C_1_MODE_MULTI_MASTER_SLAVE_ENABLED) */
  84:Generated_Source\PSoC5/I2C_1_INT.c **** 
  85:Generated_Source\PSoC5/I2C_1_INT.c **** 
  86:Generated_Source\PSoC5/I2C_1_INT.c **** #if(I2C_1_MODE_MULTI_MASTER_ENABLED)
  87:Generated_Source\PSoC5/I2C_1_INT.c ****     if(I2C_1_CHECK_LOST_ARB(tmpCsr))
  88:Generated_Source\PSoC5/I2C_1_INT.c ****     {
  89:Generated_Source\PSoC5/I2C_1_INT.c ****         /* Set errors */
  90:Generated_Source\PSoC5/I2C_1_INT.c ****         I2C_1_mstrStatus |= (I2C_1_MSTAT_ERR_XFER     |
  91:Generated_Source\PSoC5/I2C_1_INT.c ****                                         I2C_1_MSTAT_ERR_ARB_LOST |
  92:Generated_Source\PSoC5/I2C_1_INT.c ****                                         I2C_1_GET_MSTAT_CMPLT);
  93:Generated_Source\PSoC5/I2C_1_INT.c **** 
  94:Generated_Source\PSoC5/I2C_1_INT.c ****         I2C_1_DISABLE_INT_ON_STOP; /* Interrupt on Stop is enabled by write */
  95:Generated_Source\PSoC5/I2C_1_INT.c **** 
ARM GAS  C:\Users\JEFFSN~1\AppData\Local\Temp\cc1C2DMI.s 			page 29


  96:Generated_Source\PSoC5/I2C_1_INT.c ****         #if(I2C_1_MODE_MULTI_MASTER_SLAVE_ENABLED)
  97:Generated_Source\PSoC5/I2C_1_INT.c ****             if(I2C_1_CHECK_ADDRESS_STS(tmpCsr))
  98:Generated_Source\PSoC5/I2C_1_INT.c ****             {
  99:Generated_Source\PSoC5/I2C_1_INT.c ****                 /* Slave was addressed */
 100:Generated_Source\PSoC5/I2C_1_INT.c ****                 I2C_1_state = I2C_1_SM_SLAVE;
 101:Generated_Source\PSoC5/I2C_1_INT.c ****             }
 102:Generated_Source\PSoC5/I2C_1_INT.c ****             else
 103:Generated_Source\PSoC5/I2C_1_INT.c ****             {
 104:Generated_Source\PSoC5/I2C_1_INT.c ****                 I2C_1_BUS_RELEASE;
 105:Generated_Source\PSoC5/I2C_1_INT.c **** 
 106:Generated_Source\PSoC5/I2C_1_INT.c ****                 I2C_1_state = I2C_1_SM_EXIT_IDLE;
 107:Generated_Source\PSoC5/I2C_1_INT.c ****             }
 108:Generated_Source\PSoC5/I2C_1_INT.c ****         #else
 109:Generated_Source\PSoC5/I2C_1_INT.c ****             I2C_1_BUS_RELEASE;
 110:Generated_Source\PSoC5/I2C_1_INT.c **** 
 111:Generated_Source\PSoC5/I2C_1_INT.c ****             I2C_1_state = I2C_1_SM_EXIT_IDLE;
 112:Generated_Source\PSoC5/I2C_1_INT.c **** 
 113:Generated_Source\PSoC5/I2C_1_INT.c ****         #endif /* (I2C_1_MODE_MULTI_MASTER_SLAVE_ENABLED) */
 114:Generated_Source\PSoC5/I2C_1_INT.c ****     }
 115:Generated_Source\PSoC5/I2C_1_INT.c **** #endif /* (I2C_1_MODE_MULTI_MASTER_ENABLED) */
 116:Generated_Source\PSoC5/I2C_1_INT.c **** 
 117:Generated_Source\PSoC5/I2C_1_INT.c ****     /* Check for master operation mode */
 118:Generated_Source\PSoC5/I2C_1_INT.c ****     if(I2C_1_CHECK_SM_MASTER)
 411              		.loc 1 118 0
 412 0006 A54B     		ldr	r3, .L27+4
 413 0008 1B78     		ldrb	r3, [r3]	@ zero_extendqisi2
 414 000a 13F0400F 		tst	r3, #64
 415 000e 00F03A81 		beq	.L2
 416 0012 E4B2     		uxtb	r4, r4
 119:Generated_Source\PSoC5/I2C_1_INT.c ****     {
 120:Generated_Source\PSoC5/I2C_1_INT.c ****     #if(I2C_1_MODE_MASTER_ENABLED)
 121:Generated_Source\PSoC5/I2C_1_INT.c ****         if(I2C_1_CHECK_BYTE_COMPLETE(tmpCsr))
 417              		.loc 1 121 0
 418 0014 14F0010F 		tst	r4, #1
 419 0018 00F01D81 		beq	.L3
 122:Generated_Source\PSoC5/I2C_1_INT.c ****         {
 123:Generated_Source\PSoC5/I2C_1_INT.c ****             switch (I2C_1_state)
 420              		.loc 1 123 0
 421 001c 9F4B     		ldr	r3, .L27+4
 422 001e 1B78     		ldrb	r3, [r3]	@ zero_extendqisi2
 423 0020 453B     		subs	r3, r3, #69
 424 0022 052B     		cmp	r3, #5
 425 0024 00F21481 		bhi	.L4
 426 0028 DFE813F0 		tbh	[pc, r3, lsl #1]
 427              	.L6:
 428 002c 0600     		.2byte	(.L5-.L6)/2
 429 002e 8200     		.2byte	(.L7-.L6)/2
 430 0030 1201     		.2byte	(.L4-.L6)/2
 431 0032 1201     		.2byte	(.L4-.L6)/2
 432 0034 0600     		.2byte	(.L5-.L6)/2
 433 0036 DF00     		.2byte	(.L8-.L6)/2
 434              		.p2align 1
 435              	.L5:
 124:Generated_Source\PSoC5/I2C_1_INT.c ****             {
 125:Generated_Source\PSoC5/I2C_1_INT.c ****             case I2C_1_SM_MSTR_WR_ADDR:  /* After address is sent, write data */
 126:Generated_Source\PSoC5/I2C_1_INT.c ****             case I2C_1_SM_MSTR_RD_ADDR:  /* After address is sent, read data */
 127:Generated_Source\PSoC5/I2C_1_INT.c **** 
ARM GAS  C:\Users\JEFFSN~1\AppData\Local\Temp\cc1C2DMI.s 			page 30


 128:Generated_Source\PSoC5/I2C_1_INT.c ****                 tmpCsr &= ((uint8) ~I2C_1_CSR_STOP_STATUS); /* Clear Stop bit history on address ph
 436              		.loc 1 128 0
 437 0038 04F0DF05 		and	r5, r4, #223
 438              	.LVL1:
 129:Generated_Source\PSoC5/I2C_1_INT.c **** 
 130:Generated_Source\PSoC5/I2C_1_INT.c ****                 if(I2C_1_CHECK_ADDR_ACK(tmpCsr))
 439              		.loc 1 130 0
 440 003c 04F00A04 		and	r4, r4, #10
 441 0040 082C     		cmp	r4, #8
 442 0042 42D1     		bne	.L9
 131:Generated_Source\PSoC5/I2C_1_INT.c ****                 {
 132:Generated_Source\PSoC5/I2C_1_INT.c ****                     /* Setup for transmit or receive of data */
 133:Generated_Source\PSoC5/I2C_1_INT.c ****                     if(I2C_1_state == I2C_1_SM_MSTR_WR_ADDR)   /* TRANSMIT data */
 443              		.loc 1 133 0
 444 0044 954B     		ldr	r3, .L27+4
 445 0046 1B78     		ldrb	r3, [r3]	@ zero_extendqisi2
 446 0048 DBB2     		uxtb	r3, r3
 447 004a 452B     		cmp	r3, #69
 448 004c 35D1     		bne	.L10
 134:Generated_Source\PSoC5/I2C_1_INT.c ****                     {
 135:Generated_Source\PSoC5/I2C_1_INT.c ****                         /* Check if at least one byte to transfer */
 136:Generated_Source\PSoC5/I2C_1_INT.c ****                         if(I2C_1_mstrWrBufSize > 0u)
 449              		.loc 1 136 0
 450 004e 944B     		ldr	r3, .L27+8
 451 0050 1B78     		ldrb	r3, [r3]	@ zero_extendqisi2
 452 0052 13F0FF0F 		tst	r3, #255
 453 0056 10D0     		beq	.L11
 137:Generated_Source\PSoC5/I2C_1_INT.c ****                         {
 138:Generated_Source\PSoC5/I2C_1_INT.c ****                             /* Load the 1st data byte */
 139:Generated_Source\PSoC5/I2C_1_INT.c ****                             I2C_1_DATA_REG = I2C_1_mstrWrBufPtr[0u];
 454              		.loc 1 139 0
 455 0058 924B     		ldr	r3, .L27+12
 456 005a 1B68     		ldr	r3, [r3]
 457 005c 1B78     		ldrb	r3, [r3]	@ zero_extendqisi2
 458 005e DBB2     		uxtb	r3, r3
 459 0060 914A     		ldr	r2, .L27+16
 460 0062 1370     		strb	r3, [r2]
 140:Generated_Source\PSoC5/I2C_1_INT.c ****                             I2C_1_TRANSMIT_DATA;
 461              		.loc 1 140 0
 462 0064 0422     		movs	r2, #4
 463 0066 8C4B     		ldr	r3, .L27
 464 0068 1A70     		strb	r2, [r3]
 141:Generated_Source\PSoC5/I2C_1_INT.c ****                             I2C_1_mstrWrBufIndex = 1u;   /* Set index to 2nd element */
 465              		.loc 1 141 0
 466 006a 0122     		movs	r2, #1
 467 006c 8F4B     		ldr	r3, .L27+20
 468 006e 1A70     		strb	r2, [r3]
 142:Generated_Source\PSoC5/I2C_1_INT.c **** 
 143:Generated_Source\PSoC5/I2C_1_INT.c ****                             /* Set transmit state until done */
 144:Generated_Source\PSoC5/I2C_1_INT.c ****                             I2C_1_state = I2C_1_SM_MSTR_WR_DATA;
 469              		.loc 1 144 0
 470 0070 4622     		movs	r2, #70
 471 0072 8A4B     		ldr	r3, .L27+4
 472 0074 1A70     		strb	r2, [r3]
 128:Generated_Source\PSoC5/I2C_1_INT.c **** 
 473              		.loc 1 128 0
 474 0076 2C46     		mov	r4, r5
ARM GAS  C:\Users\JEFFSN~1\AppData\Local\Temp\cc1C2DMI.s 			page 31


 475 0078 EDE0     		b	.L3
 476              	.L11:
 145:Generated_Source\PSoC5/I2C_1_INT.c ****                         }
 146:Generated_Source\PSoC5/I2C_1_INT.c ****                         /* End of buffer: complete writing */
 147:Generated_Source\PSoC5/I2C_1_INT.c ****                         else if(I2C_1_CHECK_NO_STOP(I2C_1_mstrControl))
 477              		.loc 1 147 0
 478 007a 8D4B     		ldr	r3, .L27+24
 479 007c 1B78     		ldrb	r3, [r3]	@ zero_extendqisi2
 480 007e 13F0020F 		tst	r3, #2
 481 0082 0DD0     		beq	.L12
 148:Generated_Source\PSoC5/I2C_1_INT.c ****                         {
 149:Generated_Source\PSoC5/I2C_1_INT.c ****                             /* Set write complete and master halted */
 150:Generated_Source\PSoC5/I2C_1_INT.c ****                             I2C_1_mstrStatus |= (I2C_1_MSTAT_XFER_HALT |
 482              		.loc 1 150 0
 483 0084 8B4A     		ldr	r2, .L27+28
 484 0086 1378     		ldrb	r3, [r2]	@ zero_extendqisi2
 485 0088 43F00A03 		orr	r3, r3, #10
 486 008c 1370     		strb	r3, [r2]
 151:Generated_Source\PSoC5/I2C_1_INT.c ****                                                             I2C_1_MSTAT_WR_CMPLT);
 152:Generated_Source\PSoC5/I2C_1_INT.c **** 
 153:Generated_Source\PSoC5/I2C_1_INT.c ****                             I2C_1_state = I2C_1_SM_MSTR_HALT; /* Expect ReStart */
 487              		.loc 1 153 0
 488 008e 6022     		movs	r2, #96
 489 0090 824B     		ldr	r3, .L27+4
 490 0092 1A70     		strb	r2, [r3]
 154:Generated_Source\PSoC5/I2C_1_INT.c ****                             I2C_1_DisableInt();
 491              		.loc 1 154 0
 492 0094 4FF40042 		mov	r2, #32768
 493 0098 874B     		ldr	r3, .L27+32
 494 009a 1A60     		str	r2, [r3]
 128:Generated_Source\PSoC5/I2C_1_INT.c **** 
 495              		.loc 1 128 0
 496 009c 2C46     		mov	r4, r5
 497 009e DAE0     		b	.L3
 498              	.L12:
 155:Generated_Source\PSoC5/I2C_1_INT.c ****                         }
 156:Generated_Source\PSoC5/I2C_1_INT.c ****                         else
 157:Generated_Source\PSoC5/I2C_1_INT.c ****                         {
 158:Generated_Source\PSoC5/I2C_1_INT.c ****                             I2C_1_ENABLE_INT_ON_STOP; /* Enable interrupt on Stop, to catch it */
 499              		.loc 1 158 0
 500 00a0 864A     		ldr	r2, .L27+36
 501 00a2 1378     		ldrb	r3, [r2]	@ zero_extendqisi2
 502 00a4 43F01003 		orr	r3, r3, #16
 503 00a8 1370     		strb	r3, [r2]
 159:Generated_Source\PSoC5/I2C_1_INT.c ****                             I2C_1_GENERATE_STOP;
 504              		.loc 1 159 0
 505 00aa 1022     		movs	r2, #16
 506 00ac 844B     		ldr	r3, .L27+40
 507 00ae 1A70     		strb	r2, [r3]
 508 00b0 0422     		movs	r2, #4
 509 00b2 023B     		subs	r3, r3, #2
 510 00b4 1A70     		strb	r2, [r3]
 128:Generated_Source\PSoC5/I2C_1_INT.c **** 
 511              		.loc 1 128 0
 512 00b6 2C46     		mov	r4, r5
 513 00b8 CDE0     		b	.L3
 514              	.L10:
ARM GAS  C:\Users\JEFFSN~1\AppData\Local\Temp\cc1C2DMI.s 			page 32


 160:Generated_Source\PSoC5/I2C_1_INT.c ****                         }
 161:Generated_Source\PSoC5/I2C_1_INT.c ****                     }
 162:Generated_Source\PSoC5/I2C_1_INT.c ****                     else  /* Master receive data */
 163:Generated_Source\PSoC5/I2C_1_INT.c ****                     {
 164:Generated_Source\PSoC5/I2C_1_INT.c ****                         I2C_1_READY_TO_READ; /* Release bus to read data */
 515              		.loc 1 164 0
 516 00ba 0022     		movs	r2, #0
 517 00bc 764B     		ldr	r3, .L27
 518 00be 1A70     		strb	r2, [r3]
 165:Generated_Source\PSoC5/I2C_1_INT.c **** 
 166:Generated_Source\PSoC5/I2C_1_INT.c ****                         I2C_1_state  = I2C_1_SM_MSTR_RD_DATA;
 519              		.loc 1 166 0
 520 00c0 4A22     		movs	r2, #74
 521 00c2 764B     		ldr	r3, .L27+4
 522 00c4 1A70     		strb	r2, [r3]
 128:Generated_Source\PSoC5/I2C_1_INT.c **** 
 523              		.loc 1 128 0
 524 00c6 2C46     		mov	r4, r5
 525 00c8 C5E0     		b	.L3
 526              	.L9:
 167:Generated_Source\PSoC5/I2C_1_INT.c ****                     }
 168:Generated_Source\PSoC5/I2C_1_INT.c ****                 }
 169:Generated_Source\PSoC5/I2C_1_INT.c ****                 /* Address is NACKed */
 170:Generated_Source\PSoC5/I2C_1_INT.c ****                 else if(I2C_1_CHECK_ADDR_NAK(tmpCsr))
 527              		.loc 1 170 0
 528 00ca 0A2C     		cmp	r4, #10
 529 00cc 2BD1     		bne	.L13
 171:Generated_Source\PSoC5/I2C_1_INT.c ****                 {
 172:Generated_Source\PSoC5/I2C_1_INT.c ****                     /* Set Address NAK error */
 173:Generated_Source\PSoC5/I2C_1_INT.c ****                     I2C_1_mstrStatus |= (I2C_1_MSTAT_ERR_XFER |
 530              		.loc 1 173 0
 531 00ce 794A     		ldr	r2, .L27+28
 532 00d0 1378     		ldrb	r3, [r2]	@ zero_extendqisi2
 533 00d2 43F0A003 		orr	r3, r3, #160
 534 00d6 1370     		strb	r3, [r2]
 174:Generated_Source\PSoC5/I2C_1_INT.c ****                                                     I2C_1_MSTAT_ERR_ADDR_NAK);
 175:Generated_Source\PSoC5/I2C_1_INT.c **** 
 176:Generated_Source\PSoC5/I2C_1_INT.c ****                     if(I2C_1_CHECK_NO_STOP(I2C_1_mstrControl))
 535              		.loc 1 176 0
 536 00d8 754B     		ldr	r3, .L27+24
 537 00da 1B78     		ldrb	r3, [r3]	@ zero_extendqisi2
 538 00dc 13F0020F 		tst	r3, #2
 539 00e0 14D0     		beq	.L14
 177:Generated_Source\PSoC5/I2C_1_INT.c ****                     {
 178:Generated_Source\PSoC5/I2C_1_INT.c ****                         I2C_1_mstrStatus |= (I2C_1_MSTAT_XFER_HALT |
 179:Generated_Source\PSoC5/I2C_1_INT.c ****                                                         I2C_1_GET_MSTAT_CMPLT);
 540              		.loc 1 179 0
 541 00e2 6E4B     		ldr	r3, .L27+4
 542 00e4 1B78     		ldrb	r3, [r3]	@ zero_extendqisi2
 178:Generated_Source\PSoC5/I2C_1_INT.c ****                                                         I2C_1_GET_MSTAT_CMPLT);
 543              		.loc 1 178 0
 544 00e6 13F0080F 		tst	r3, #8
 545 00ea 01D0     		beq	.L24
 546 00ec 0923     		movs	r3, #9
 547 00ee 00E0     		b	.L15
 548              	.L24:
 549 00f0 0A23     		movs	r3, #10
ARM GAS  C:\Users\JEFFSN~1\AppData\Local\Temp\cc1C2DMI.s 			page 33


 550              	.L15:
 178:Generated_Source\PSoC5/I2C_1_INT.c ****                                                         I2C_1_GET_MSTAT_CMPLT);
 551              		.loc 1 178 0 is_stmt 0 discriminator 4
 552 00f2 704A     		ldr	r2, .L27+28
 553 00f4 1178     		ldrb	r1, [r2]	@ zero_extendqisi2
 554 00f6 0B43     		orrs	r3, r3, r1
 555 00f8 1370     		strb	r3, [r2]
 180:Generated_Source\PSoC5/I2C_1_INT.c **** 
 181:Generated_Source\PSoC5/I2C_1_INT.c ****                         I2C_1_state = I2C_1_SM_MSTR_HALT; /* Expect RESTART */
 556              		.loc 1 181 0 is_stmt 1 discriminator 4
 557 00fa 6022     		movs	r2, #96
 558 00fc 674B     		ldr	r3, .L27+4
 559 00fe 1A70     		strb	r2, [r3]
 182:Generated_Source\PSoC5/I2C_1_INT.c ****                         I2C_1_DisableInt();
 560              		.loc 1 182 0 discriminator 4
 561 0100 4FF40042 		mov	r2, #32768
 562 0104 6C4B     		ldr	r3, .L27+32
 563 0106 1A60     		str	r2, [r3]
 128:Generated_Source\PSoC5/I2C_1_INT.c **** 
 564              		.loc 1 128 0 discriminator 4
 565 0108 2C46     		mov	r4, r5
 566 010a A4E0     		b	.L3
 567              	.L14:
 183:Generated_Source\PSoC5/I2C_1_INT.c ****                     }
 184:Generated_Source\PSoC5/I2C_1_INT.c ****                     else  /* Do normal Stop */
 185:Generated_Source\PSoC5/I2C_1_INT.c ****                     {
 186:Generated_Source\PSoC5/I2C_1_INT.c ****                         I2C_1_ENABLE_INT_ON_STOP; /* Enable interrupt on Stop, to catch it */
 568              		.loc 1 186 0
 569 010c 6B4A     		ldr	r2, .L27+36
 570 010e 1378     		ldrb	r3, [r2]	@ zero_extendqisi2
 571 0110 43F01003 		orr	r3, r3, #16
 572 0114 1370     		strb	r3, [r2]
 187:Generated_Source\PSoC5/I2C_1_INT.c ****                         I2C_1_GENERATE_STOP;
 573              		.loc 1 187 0
 574 0116 1022     		movs	r2, #16
 575 0118 694B     		ldr	r3, .L27+40
 576 011a 1A70     		strb	r2, [r3]
 577 011c 0422     		movs	r2, #4
 578 011e 023B     		subs	r3, r3, #2
 579 0120 1A70     		strb	r2, [r3]
 128:Generated_Source\PSoC5/I2C_1_INT.c **** 
 580              		.loc 1 128 0
 581 0122 2C46     		mov	r4, r5
 582 0124 97E0     		b	.L3
 583              	.L13:
 188:Generated_Source\PSoC5/I2C_1_INT.c ****                     }
 189:Generated_Source\PSoC5/I2C_1_INT.c ****                 }
 190:Generated_Source\PSoC5/I2C_1_INT.c ****                 else
 191:Generated_Source\PSoC5/I2C_1_INT.c ****                 {
 192:Generated_Source\PSoC5/I2C_1_INT.c ****                     /* Address phase is not set for some reason: error */
 193:Generated_Source\PSoC5/I2C_1_INT.c ****                     #if(I2C_1_TIMEOUT_ENABLED)
 194:Generated_Source\PSoC5/I2C_1_INT.c ****                         /* Exit interrupt to take chance for timeout timer to handle this case */
 195:Generated_Source\PSoC5/I2C_1_INT.c ****                         I2C_1_DisableInt();
 196:Generated_Source\PSoC5/I2C_1_INT.c ****                         I2C_1_ClearPendingInt();
 197:Generated_Source\PSoC5/I2C_1_INT.c ****                     #else
 198:Generated_Source\PSoC5/I2C_1_INT.c ****                         /* Block execution flow: unexpected condition */
 199:Generated_Source\PSoC5/I2C_1_INT.c ****                         CYASSERT(0u != 0u);
ARM GAS  C:\Users\JEFFSN~1\AppData\Local\Temp\cc1C2DMI.s 			page 34


 584              		.loc 1 199 0 discriminator 1
 585 0126 0020     		movs	r0, #0
 586 0128 FFF7FEFF 		bl	CyHalt
 587              	.LVL2:
 128:Generated_Source\PSoC5/I2C_1_INT.c **** 
 588              		.loc 1 128 0 discriminator 1
 589 012c 2C46     		mov	r4, r5
 590 012e 92E0     		b	.L3
 591              	.LVL3:
 592              	.L7:
 200:Generated_Source\PSoC5/I2C_1_INT.c ****                     #endif /* (I2C_1_TIMEOUT_ENABLED) */
 201:Generated_Source\PSoC5/I2C_1_INT.c ****                 }
 202:Generated_Source\PSoC5/I2C_1_INT.c ****                 break;
 203:Generated_Source\PSoC5/I2C_1_INT.c **** 
 204:Generated_Source\PSoC5/I2C_1_INT.c ****             case I2C_1_SM_MSTR_WR_DATA:
 205:Generated_Source\PSoC5/I2C_1_INT.c **** 
 206:Generated_Source\PSoC5/I2C_1_INT.c ****                 if(I2C_1_CHECK_DATA_ACK(tmpCsr))
 593              		.loc 1 206 0
 594 0130 14F0020F 		tst	r4, #2
 595 0134 36D1     		bne	.L16
 207:Generated_Source\PSoC5/I2C_1_INT.c ****                 {
 208:Generated_Source\PSoC5/I2C_1_INT.c ****                     /* Check if end of buffer */
 209:Generated_Source\PSoC5/I2C_1_INT.c ****                     if(I2C_1_mstrWrBufIndex  < I2C_1_mstrWrBufSize)
 596              		.loc 1 209 0
 597 0136 5D4B     		ldr	r3, .L27+20
 598 0138 1A78     		ldrb	r2, [r3]	@ zero_extendqisi2
 599 013a D2B2     		uxtb	r2, r2
 600 013c 584B     		ldr	r3, .L27+8
 601 013e 1B78     		ldrb	r3, [r3]	@ zero_extendqisi2
 602 0140 DBB2     		uxtb	r3, r3
 603 0142 9A42     		cmp	r2, r3
 604 0144 10D2     		bcs	.L17
 210:Generated_Source\PSoC5/I2C_1_INT.c ****                     {
 211:Generated_Source\PSoC5/I2C_1_INT.c ****                         I2C_1_DATA_REG =
 212:Generated_Source\PSoC5/I2C_1_INT.c ****                                                  I2C_1_mstrWrBufPtr[I2C_1_mstrWrBufIndex];
 605              		.loc 1 212 0
 606 0146 594A     		ldr	r2, .L27+20
 607 0148 1378     		ldrb	r3, [r2]	@ zero_extendqisi2
 608 014a DBB2     		uxtb	r3, r3
 609 014c 5549     		ldr	r1, .L27+12
 610 014e 0968     		ldr	r1, [r1]
 611 0150 CB5C     		ldrb	r3, [r1, r3]	@ zero_extendqisi2
 612 0152 DBB2     		uxtb	r3, r3
 211:Generated_Source\PSoC5/I2C_1_INT.c ****                                                  I2C_1_mstrWrBufPtr[I2C_1_mstrWrBufIndex];
 613              		.loc 1 211 0
 614 0154 5449     		ldr	r1, .L27+16
 615 0156 0B70     		strb	r3, [r1]
 213:Generated_Source\PSoC5/I2C_1_INT.c ****                         I2C_1_TRANSMIT_DATA;
 616              		.loc 1 213 0
 617 0158 0421     		movs	r1, #4
 618 015a 4F4B     		ldr	r3, .L27
 619 015c 1970     		strb	r1, [r3]
 214:Generated_Source\PSoC5/I2C_1_INT.c ****                         I2C_1_mstrWrBufIndex++;
 620              		.loc 1 214 0
 621 015e 1378     		ldrb	r3, [r2]	@ zero_extendqisi2
 622 0160 0133     		adds	r3, r3, #1
 623 0162 DBB2     		uxtb	r3, r3
ARM GAS  C:\Users\JEFFSN~1\AppData\Local\Temp\cc1C2DMI.s 			page 35


 624 0164 1370     		strb	r3, [r2]
 625 0166 76E0     		b	.L3
 626              	.L17:
 215:Generated_Source\PSoC5/I2C_1_INT.c ****                     }
 216:Generated_Source\PSoC5/I2C_1_INT.c ****                     /* End of buffer: complete writing */
 217:Generated_Source\PSoC5/I2C_1_INT.c ****                     else if(I2C_1_CHECK_NO_STOP(I2C_1_mstrControl))
 627              		.loc 1 217 0
 628 0168 514B     		ldr	r3, .L27+24
 629 016a 1B78     		ldrb	r3, [r3]	@ zero_extendqisi2
 630 016c 13F0020F 		tst	r3, #2
 631 0170 0CD0     		beq	.L18
 218:Generated_Source\PSoC5/I2C_1_INT.c ****                     {
 219:Generated_Source\PSoC5/I2C_1_INT.c ****                         /* Set write complete and master halted */
 220:Generated_Source\PSoC5/I2C_1_INT.c ****                         I2C_1_mstrStatus |= (I2C_1_MSTAT_XFER_HALT |
 632              		.loc 1 220 0
 633 0172 504A     		ldr	r2, .L27+28
 634 0174 1378     		ldrb	r3, [r2]	@ zero_extendqisi2
 635 0176 43F00A03 		orr	r3, r3, #10
 636 017a 1370     		strb	r3, [r2]
 221:Generated_Source\PSoC5/I2C_1_INT.c ****                                                         I2C_1_MSTAT_WR_CMPLT);
 222:Generated_Source\PSoC5/I2C_1_INT.c **** 
 223:Generated_Source\PSoC5/I2C_1_INT.c ****                         I2C_1_state = I2C_1_SM_MSTR_HALT;    /* Expect restart */
 637              		.loc 1 223 0
 638 017c 6022     		movs	r2, #96
 639 017e 474B     		ldr	r3, .L27+4
 640 0180 1A70     		strb	r2, [r3]
 224:Generated_Source\PSoC5/I2C_1_INT.c ****                         I2C_1_DisableInt();
 641              		.loc 1 224 0
 642 0182 4FF40042 		mov	r2, #32768
 643 0186 4C4B     		ldr	r3, .L27+32
 644 0188 1A60     		str	r2, [r3]
 645 018a 64E0     		b	.L3
 646              	.L18:
 225:Generated_Source\PSoC5/I2C_1_INT.c ****                     }
 226:Generated_Source\PSoC5/I2C_1_INT.c ****                     else  /* Do normal Stop */
 227:Generated_Source\PSoC5/I2C_1_INT.c ****                     {
 228:Generated_Source\PSoC5/I2C_1_INT.c ****                         I2C_1_ENABLE_INT_ON_STOP;    /* Enable interrupt on Stop, to catch it */
 647              		.loc 1 228 0
 648 018c 4B4A     		ldr	r2, .L27+36
 649 018e 1378     		ldrb	r3, [r2]	@ zero_extendqisi2
 650 0190 43F01003 		orr	r3, r3, #16
 651 0194 1370     		strb	r3, [r2]
 229:Generated_Source\PSoC5/I2C_1_INT.c ****                         I2C_1_GENERATE_STOP;
 652              		.loc 1 229 0
 653 0196 1022     		movs	r2, #16
 654 0198 494B     		ldr	r3, .L27+40
 655 019a 1A70     		strb	r2, [r3]
 656 019c 0422     		movs	r2, #4
 657 019e 023B     		subs	r3, r3, #2
 658 01a0 1A70     		strb	r2, [r3]
 659 01a2 58E0     		b	.L3
 660              	.L16:
 230:Generated_Source\PSoC5/I2C_1_INT.c ****                     }
 231:Generated_Source\PSoC5/I2C_1_INT.c ****                 }
 232:Generated_Source\PSoC5/I2C_1_INT.c ****                 /* Last byte NAKed: end writing */
 233:Generated_Source\PSoC5/I2C_1_INT.c ****                 else if(I2C_1_CHECK_NO_STOP(I2C_1_mstrControl))
 661              		.loc 1 233 0
ARM GAS  C:\Users\JEFFSN~1\AppData\Local\Temp\cc1C2DMI.s 			page 36


 662 01a4 424B     		ldr	r3, .L27+24
 663 01a6 1B78     		ldrb	r3, [r3]	@ zero_extendqisi2
 664 01a8 13F0020F 		tst	r3, #2
 665 01ac 0CD0     		beq	.L19
 234:Generated_Source\PSoC5/I2C_1_INT.c ****                 {
 235:Generated_Source\PSoC5/I2C_1_INT.c ****                     /* Set write complete, short transfer and master halted */
 236:Generated_Source\PSoC5/I2C_1_INT.c ****                     I2C_1_mstrStatus |= (I2C_1_MSTAT_ERR_XFER       |
 666              		.loc 1 236 0
 667 01ae 414A     		ldr	r2, .L27+28
 668 01b0 1378     		ldrb	r3, [r2]	@ zero_extendqisi2
 669 01b2 43F09A03 		orr	r3, r3, #154
 670 01b6 1370     		strb	r3, [r2]
 237:Generated_Source\PSoC5/I2C_1_INT.c ****                                                     I2C_1_MSTAT_ERR_SHORT_XFER |
 238:Generated_Source\PSoC5/I2C_1_INT.c ****                                                     I2C_1_MSTAT_XFER_HALT      |
 239:Generated_Source\PSoC5/I2C_1_INT.c ****                                                     I2C_1_MSTAT_WR_CMPLT);
 240:Generated_Source\PSoC5/I2C_1_INT.c **** 
 241:Generated_Source\PSoC5/I2C_1_INT.c ****                     I2C_1_state = I2C_1_SM_MSTR_HALT;    /* Expect ReStart */
 671              		.loc 1 241 0
 672 01b8 6022     		movs	r2, #96
 673 01ba 384B     		ldr	r3, .L27+4
 674 01bc 1A70     		strb	r2, [r3]
 242:Generated_Source\PSoC5/I2C_1_INT.c ****                     I2C_1_DisableInt();
 675              		.loc 1 242 0
 676 01be 4FF40042 		mov	r2, #32768
 677 01c2 3D4B     		ldr	r3, .L27+32
 678 01c4 1A60     		str	r2, [r3]
 679 01c6 46E0     		b	.L3
 680              	.L19:
 243:Generated_Source\PSoC5/I2C_1_INT.c ****                 }
 244:Generated_Source\PSoC5/I2C_1_INT.c ****                 else  /* Do normal Stop */
 245:Generated_Source\PSoC5/I2C_1_INT.c ****                 {
 246:Generated_Source\PSoC5/I2C_1_INT.c ****                     I2C_1_ENABLE_INT_ON_STOP;    /* Enable interrupt on Stop, to catch it */
 681              		.loc 1 246 0
 682 01c8 3C4A     		ldr	r2, .L27+36
 683 01ca 1378     		ldrb	r3, [r2]	@ zero_extendqisi2
 684 01cc 43F01003 		orr	r3, r3, #16
 685 01d0 1370     		strb	r3, [r2]
 247:Generated_Source\PSoC5/I2C_1_INT.c ****                     I2C_1_GENERATE_STOP;
 686              		.loc 1 247 0
 687 01d2 1022     		movs	r2, #16
 688 01d4 3A4B     		ldr	r3, .L27+40
 689 01d6 1A70     		strb	r2, [r3]
 690 01d8 0422     		movs	r2, #4
 691 01da 023B     		subs	r3, r3, #2
 692 01dc 1A70     		strb	r2, [r3]
 248:Generated_Source\PSoC5/I2C_1_INT.c **** 
 249:Generated_Source\PSoC5/I2C_1_INT.c ****                     /* Set short transfer and error flag */
 250:Generated_Source\PSoC5/I2C_1_INT.c ****                     I2C_1_mstrStatus |= (I2C_1_MSTAT_ERR_SHORT_XFER |
 693              		.loc 1 250 0
 694 01de 354A     		ldr	r2, .L27+28
 695 01e0 1378     		ldrb	r3, [r2]	@ zero_extendqisi2
 696 01e2 43F09003 		orr	r3, r3, #144
 697 01e6 1370     		strb	r3, [r2]
 698 01e8 35E0     		b	.L3
 699              	.L8:
 251:Generated_Source\PSoC5/I2C_1_INT.c ****                                                     I2C_1_MSTAT_ERR_XFER);
 252:Generated_Source\PSoC5/I2C_1_INT.c ****                 }
ARM GAS  C:\Users\JEFFSN~1\AppData\Local\Temp\cc1C2DMI.s 			page 37


 253:Generated_Source\PSoC5/I2C_1_INT.c **** 
 254:Generated_Source\PSoC5/I2C_1_INT.c ****                 break;
 255:Generated_Source\PSoC5/I2C_1_INT.c **** 
 256:Generated_Source\PSoC5/I2C_1_INT.c ****             case I2C_1_SM_MSTR_RD_DATA:
 257:Generated_Source\PSoC5/I2C_1_INT.c **** 
 258:Generated_Source\PSoC5/I2C_1_INT.c ****                 I2C_1_mstrRdBufPtr[I2C_1_mstrRdBufIndex] = I2C_1_DATA_REG;
 700              		.loc 1 258 0
 701 01ea 364A     		ldr	r2, .L27+44
 702 01ec 1378     		ldrb	r3, [r2]	@ zero_extendqisi2
 703 01ee DBB2     		uxtb	r3, r3
 704 01f0 3549     		ldr	r1, .L27+48
 705 01f2 0868     		ldr	r0, [r1]
 706 01f4 2C49     		ldr	r1, .L27+16
 707 01f6 0978     		ldrb	r1, [r1]	@ zero_extendqisi2
 708 01f8 C9B2     		uxtb	r1, r1
 709 01fa C154     		strb	r1, [r0, r3]
 259:Generated_Source\PSoC5/I2C_1_INT.c ****                 I2C_1_mstrRdBufIndex++;
 710              		.loc 1 259 0
 711 01fc 1378     		ldrb	r3, [r2]	@ zero_extendqisi2
 712 01fe 0133     		adds	r3, r3, #1
 713 0200 DBB2     		uxtb	r3, r3
 714 0202 1370     		strb	r3, [r2]
 260:Generated_Source\PSoC5/I2C_1_INT.c **** 
 261:Generated_Source\PSoC5/I2C_1_INT.c ****                 /* Check if end of buffer */
 262:Generated_Source\PSoC5/I2C_1_INT.c ****                 if(I2C_1_mstrRdBufIndex < I2C_1_mstrRdBufSize)
 715              		.loc 1 262 0
 716 0204 1278     		ldrb	r2, [r2]	@ zero_extendqisi2
 717 0206 D2B2     		uxtb	r2, r2
 718 0208 304B     		ldr	r3, .L27+52
 719 020a 1B78     		ldrb	r3, [r3]	@ zero_extendqisi2
 720 020c DBB2     		uxtb	r3, r3
 721 020e 9A42     		cmp	r2, r3
 722 0210 03D2     		bcs	.L20
 263:Generated_Source\PSoC5/I2C_1_INT.c ****                 {
 264:Generated_Source\PSoC5/I2C_1_INT.c ****                     I2C_1_ACK_AND_RECEIVE;       /* ACK and receive byte */
 723              		.loc 1 264 0
 724 0212 1022     		movs	r2, #16
 725 0214 204B     		ldr	r3, .L27
 726 0216 1A70     		strb	r2, [r3]
 727 0218 1DE0     		b	.L3
 728              	.L20:
 265:Generated_Source\PSoC5/I2C_1_INT.c ****                 }
 266:Generated_Source\PSoC5/I2C_1_INT.c ****                 /* End of buffer: complete reading */
 267:Generated_Source\PSoC5/I2C_1_INT.c ****                 else if(I2C_1_CHECK_NO_STOP(I2C_1_mstrControl))
 729              		.loc 1 267 0
 730 021a 254B     		ldr	r3, .L27+24
 731 021c 1B78     		ldrb	r3, [r3]	@ zero_extendqisi2
 732 021e 13F0020F 		tst	r3, #2
 733 0222 0CD0     		beq	.L21
 268:Generated_Source\PSoC5/I2C_1_INT.c ****                 {
 269:Generated_Source\PSoC5/I2C_1_INT.c ****                     /* Set read complete and master halted */
 270:Generated_Source\PSoC5/I2C_1_INT.c ****                     I2C_1_mstrStatus |= (I2C_1_MSTAT_XFER_HALT |
 734              		.loc 1 270 0
 735 0224 234A     		ldr	r2, .L27+28
 736 0226 1378     		ldrb	r3, [r2]	@ zero_extendqisi2
 737 0228 43F00903 		orr	r3, r3, #9
 738 022c 1370     		strb	r3, [r2]
ARM GAS  C:\Users\JEFFSN~1\AppData\Local\Temp\cc1C2DMI.s 			page 38


 271:Generated_Source\PSoC5/I2C_1_INT.c ****                                                     I2C_1_MSTAT_RD_CMPLT);
 272:Generated_Source\PSoC5/I2C_1_INT.c **** 
 273:Generated_Source\PSoC5/I2C_1_INT.c ****                     I2C_1_state = I2C_1_SM_MSTR_HALT;    /* Expect ReStart */
 739              		.loc 1 273 0
 740 022e 6022     		movs	r2, #96
 741 0230 1A4B     		ldr	r3, .L27+4
 742 0232 1A70     		strb	r2, [r3]
 274:Generated_Source\PSoC5/I2C_1_INT.c ****                     I2C_1_DisableInt();
 743              		.loc 1 274 0
 744 0234 4FF40042 		mov	r2, #32768
 745 0238 1F4B     		ldr	r3, .L27+32
 746 023a 1A60     		str	r2, [r3]
 747 023c 0BE0     		b	.L3
 748              	.L21:
 275:Generated_Source\PSoC5/I2C_1_INT.c ****                 }
 276:Generated_Source\PSoC5/I2C_1_INT.c ****                 else
 277:Generated_Source\PSoC5/I2C_1_INT.c ****                 {
 278:Generated_Source\PSoC5/I2C_1_INT.c ****                     I2C_1_ENABLE_INT_ON_STOP;
 749              		.loc 1 278 0
 750 023e 1F4A     		ldr	r2, .L27+36
 751 0240 1378     		ldrb	r3, [r2]	@ zero_extendqisi2
 752 0242 43F01003 		orr	r3, r3, #16
 753 0246 1370     		strb	r3, [r2]
 279:Generated_Source\PSoC5/I2C_1_INT.c ****                     I2C_1_NAK_AND_RECEIVE;       /* NACK and TRY to generate Stop */
 754              		.loc 1 279 0
 755 0248 0022     		movs	r2, #0
 756 024a 134B     		ldr	r3, .L27
 757 024c 1A70     		strb	r2, [r3]
 758 024e 02E0     		b	.L3
 759              	.L4:
 280:Generated_Source\PSoC5/I2C_1_INT.c ****                 }
 281:Generated_Source\PSoC5/I2C_1_INT.c ****                 break;
 282:Generated_Source\PSoC5/I2C_1_INT.c **** 
 283:Generated_Source\PSoC5/I2C_1_INT.c ****             default: /* This is an invalid state and should not occur */
 284:Generated_Source\PSoC5/I2C_1_INT.c **** 
 285:Generated_Source\PSoC5/I2C_1_INT.c ****             #if(I2C_1_TIMEOUT_ENABLED)
 286:Generated_Source\PSoC5/I2C_1_INT.c ****                 /* Exit interrupt to take chance for timeout timer to handles this case */
 287:Generated_Source\PSoC5/I2C_1_INT.c ****                 I2C_1_DisableInt();
 288:Generated_Source\PSoC5/I2C_1_INT.c ****                 I2C_1_ClearPendingInt();
 289:Generated_Source\PSoC5/I2C_1_INT.c ****             #else
 290:Generated_Source\PSoC5/I2C_1_INT.c ****                 /* Block execution flow: unexpected condition */
 291:Generated_Source\PSoC5/I2C_1_INT.c ****                 CYASSERT(0u != 0u);
 760              		.loc 1 291 0 discriminator 1
 761 0250 0020     		movs	r0, #0
 762 0252 FFF7FEFF 		bl	CyHalt
 763              	.LVL4:
 764              	.L3:
 292:Generated_Source\PSoC5/I2C_1_INT.c ****             #endif /* (I2C_1_TIMEOUT_ENABLED) */
 293:Generated_Source\PSoC5/I2C_1_INT.c **** 
 294:Generated_Source\PSoC5/I2C_1_INT.c ****                 break;
 295:Generated_Source\PSoC5/I2C_1_INT.c ****             }
 296:Generated_Source\PSoC5/I2C_1_INT.c ****         }
 297:Generated_Source\PSoC5/I2C_1_INT.c **** 
 298:Generated_Source\PSoC5/I2C_1_INT.c ****         /* Catches Stop: end of transaction */
 299:Generated_Source\PSoC5/I2C_1_INT.c ****         if(I2C_1_CHECK_STOP_STS(tmpCsr))
 765              		.loc 1 299 0
 766 0256 14F0200F 		tst	r4, #32
ARM GAS  C:\Users\JEFFSN~1\AppData\Local\Temp\cc1C2DMI.s 			page 39


 767 025a 1CD0     		beq	.L1
 300:Generated_Source\PSoC5/I2C_1_INT.c ****         {
 301:Generated_Source\PSoC5/I2C_1_INT.c ****             I2C_1_mstrStatus |= I2C_1_GET_MSTAT_CMPLT;
 768              		.loc 1 301 0
 769 025c 0F4B     		ldr	r3, .L27+4
 770 025e 1B78     		ldrb	r3, [r3]	@ zero_extendqisi2
 771 0260 13F0080F 		tst	r3, #8
 772 0264 01D0     		beq	.L25
 773 0266 0123     		movs	r3, #1
 774 0268 00E0     		b	.L23
 775              	.L25:
 776 026a 0223     		movs	r3, #2
 777              	.L23:
 778              		.loc 1 301 0 is_stmt 0 discriminator 4
 779 026c 114A     		ldr	r2, .L27+28
 780 026e 1178     		ldrb	r1, [r2]	@ zero_extendqisi2
 781 0270 0B43     		orrs	r3, r3, r1
 782 0272 1370     		strb	r3, [r2]
 302:Generated_Source\PSoC5/I2C_1_INT.c **** 
 303:Generated_Source\PSoC5/I2C_1_INT.c ****             I2C_1_DISABLE_INT_ON_STOP;
 783              		.loc 1 303 0 is_stmt 1 discriminator 4
 784 0274 114A     		ldr	r2, .L27+36
 785 0276 1378     		ldrb	r3, [r2]	@ zero_extendqisi2
 786 0278 03F0EF03 		and	r3, r3, #239
 787 027c 1370     		strb	r3, [r2]
 304:Generated_Source\PSoC5/I2C_1_INT.c ****             I2C_1_state = I2C_1_SM_IDLE;
 788              		.loc 1 304 0 discriminator 4
 789 027e 1022     		movs	r2, #16
 790 0280 064B     		ldr	r3, .L27+4
 791 0282 1A70     		strb	r2, [r3]
 792 0284 38BD     		pop	{r3, r4, r5, pc}
 793              	.LVL5:
 794              	.L2:
 305:Generated_Source\PSoC5/I2C_1_INT.c ****         }
 306:Generated_Source\PSoC5/I2C_1_INT.c ****     #endif /* (I2C_1_MODE_MASTER_ENABLED) */
 307:Generated_Source\PSoC5/I2C_1_INT.c ****     }
 308:Generated_Source\PSoC5/I2C_1_INT.c ****     else if(I2C_1_CHECK_SM_SLAVE)
 795              		.loc 1 308 0
 796 0286 054B     		ldr	r3, .L27+4
 797 0288 1B78     		ldrb	r3, [r3]	@ zero_extendqisi2
 798 028a 13F0100F 		tst	r3, #16
 799 028e 02D1     		bne	.L1
 309:Generated_Source\PSoC5/I2C_1_INT.c ****     {
 310:Generated_Source\PSoC5/I2C_1_INT.c ****     #if(I2C_1_MODE_SLAVE_ENABLED)
 311:Generated_Source\PSoC5/I2C_1_INT.c **** 
 312:Generated_Source\PSoC5/I2C_1_INT.c ****         if((I2C_1_CHECK_STOP_STS(tmpCsr)) || /* Stop || Restart */
 313:Generated_Source\PSoC5/I2C_1_INT.c ****            (I2C_1_CHECK_BYTE_COMPLETE(tmpCsr) && I2C_1_CHECK_ADDRESS_STS(tmpCsr)))
 314:Generated_Source\PSoC5/I2C_1_INT.c ****         {
 315:Generated_Source\PSoC5/I2C_1_INT.c ****             /* Catch end of master write transaction: use interrupt on Stop */
 316:Generated_Source\PSoC5/I2C_1_INT.c ****             /* The Stop bit history on address phase does not have correct state */
 317:Generated_Source\PSoC5/I2C_1_INT.c ****             if(I2C_1_SM_SL_WR_DATA == I2C_1_state)
 318:Generated_Source\PSoC5/I2C_1_INT.c ****             {
 319:Generated_Source\PSoC5/I2C_1_INT.c ****                 I2C_1_DISABLE_INT_ON_STOP;
 320:Generated_Source\PSoC5/I2C_1_INT.c **** 
 321:Generated_Source\PSoC5/I2C_1_INT.c ****                 I2C_1_slStatus &= ((uint8) ~I2C_1_SSTAT_WR_BUSY);
 322:Generated_Source\PSoC5/I2C_1_INT.c ****                 I2C_1_slStatus |= ((uint8)  I2C_1_SSTAT_WR_CMPLT);
 323:Generated_Source\PSoC5/I2C_1_INT.c **** 
ARM GAS  C:\Users\JEFFSN~1\AppData\Local\Temp\cc1C2DMI.s 			page 40


 324:Generated_Source\PSoC5/I2C_1_INT.c ****                 I2C_1_state = I2C_1_SM_IDLE;
 325:Generated_Source\PSoC5/I2C_1_INT.c ****             }
 326:Generated_Source\PSoC5/I2C_1_INT.c ****         }
 327:Generated_Source\PSoC5/I2C_1_INT.c **** 
 328:Generated_Source\PSoC5/I2C_1_INT.c ****         if(I2C_1_CHECK_BYTE_COMPLETE(tmpCsr))
 329:Generated_Source\PSoC5/I2C_1_INT.c ****         {
 330:Generated_Source\PSoC5/I2C_1_INT.c ****             /* The address only issued after Start or ReStart: so check the address
 331:Generated_Source\PSoC5/I2C_1_INT.c ****                to catch these events:
 332:Generated_Source\PSoC5/I2C_1_INT.c ****                 FF : sets an address phase with a byte_complete interrupt trigger.
 333:Generated_Source\PSoC5/I2C_1_INT.c ****                 UDB: sets an address phase immediately after Start or ReStart. */
 334:Generated_Source\PSoC5/I2C_1_INT.c ****             if(I2C_1_CHECK_ADDRESS_STS(tmpCsr))
 335:Generated_Source\PSoC5/I2C_1_INT.c ****             {
 336:Generated_Source\PSoC5/I2C_1_INT.c ****             /* Check for software address detection */
 337:Generated_Source\PSoC5/I2C_1_INT.c ****             #if(I2C_1_SW_ADRR_DECODE)
 338:Generated_Source\PSoC5/I2C_1_INT.c ****                 tmp8 = I2C_1_GET_SLAVE_ADDR(I2C_1_DATA_REG);
 339:Generated_Source\PSoC5/I2C_1_INT.c **** 
 340:Generated_Source\PSoC5/I2C_1_INT.c ****                 if(tmp8 == I2C_1_slAddress)   /* Check for address match */
 341:Generated_Source\PSoC5/I2C_1_INT.c ****                 {
 342:Generated_Source\PSoC5/I2C_1_INT.c ****                     if(0u != (I2C_1_DATA_REG & I2C_1_READ_FLAG))
 343:Generated_Source\PSoC5/I2C_1_INT.c ****                     {
 344:Generated_Source\PSoC5/I2C_1_INT.c ****                         /* Place code to prepare read buffer here                  */
 345:Generated_Source\PSoC5/I2C_1_INT.c ****                         /* `#START I2C_1_SW_PREPARE_READ_BUF_interrupt` */
 346:Generated_Source\PSoC5/I2C_1_INT.c **** 
 347:Generated_Source\PSoC5/I2C_1_INT.c ****                         /* `#END` */
 348:Generated_Source\PSoC5/I2C_1_INT.c **** 
 349:Generated_Source\PSoC5/I2C_1_INT.c ****                     #ifdef I2C_1_SW_PREPARE_READ_BUF_CALLBACK
 350:Generated_Source\PSoC5/I2C_1_INT.c ****                         I2C_1_SwPrepareReadBuf_Callback();
 351:Generated_Source\PSoC5/I2C_1_INT.c ****                     #endif /* I2C_1_SW_PREPARE_READ_BUF_CALLBACK */
 352:Generated_Source\PSoC5/I2C_1_INT.c ****                         
 353:Generated_Source\PSoC5/I2C_1_INT.c ****                         /* Prepare next operation to read, get data and place in data register */
 354:Generated_Source\PSoC5/I2C_1_INT.c ****                         if(I2C_1_slRdBufIndex < I2C_1_slRdBufSize)
 355:Generated_Source\PSoC5/I2C_1_INT.c ****                         {
 356:Generated_Source\PSoC5/I2C_1_INT.c ****                             /* Load first data byte from array */
 357:Generated_Source\PSoC5/I2C_1_INT.c ****                             I2C_1_DATA_REG = I2C_1_slRdBufPtr[I2C_1_slRdBufIndex];
 358:Generated_Source\PSoC5/I2C_1_INT.c ****                             I2C_1_ACK_AND_TRANSMIT;
 359:Generated_Source\PSoC5/I2C_1_INT.c ****                             I2C_1_slRdBufIndex++;
 360:Generated_Source\PSoC5/I2C_1_INT.c **** 
 361:Generated_Source\PSoC5/I2C_1_INT.c ****                             I2C_1_slStatus |= I2C_1_SSTAT_RD_BUSY;
 362:Generated_Source\PSoC5/I2C_1_INT.c ****                         }
 363:Generated_Source\PSoC5/I2C_1_INT.c ****                         else    /* Overflow: provide 0xFF on bus */
 364:Generated_Source\PSoC5/I2C_1_INT.c ****                         {
 365:Generated_Source\PSoC5/I2C_1_INT.c ****                             I2C_1_DATA_REG = I2C_1_OVERFLOW_RETURN;
 366:Generated_Source\PSoC5/I2C_1_INT.c ****                             I2C_1_ACK_AND_TRANSMIT;
 367:Generated_Source\PSoC5/I2C_1_INT.c **** 
 368:Generated_Source\PSoC5/I2C_1_INT.c ****                             I2C_1_slStatus  |= (I2C_1_SSTAT_RD_BUSY |
 369:Generated_Source\PSoC5/I2C_1_INT.c ****                                                            I2C_1_SSTAT_RD_ERR_OVFL);
 370:Generated_Source\PSoC5/I2C_1_INT.c ****                         }
 371:Generated_Source\PSoC5/I2C_1_INT.c **** 
 372:Generated_Source\PSoC5/I2C_1_INT.c ****                         I2C_1_state = I2C_1_SM_SL_RD_DATA;
 373:Generated_Source\PSoC5/I2C_1_INT.c ****                     }
 374:Generated_Source\PSoC5/I2C_1_INT.c ****                     else  /* Write transaction: receive 1st byte */
 375:Generated_Source\PSoC5/I2C_1_INT.c ****                     {
 376:Generated_Source\PSoC5/I2C_1_INT.c ****                         I2C_1_ACK_AND_RECEIVE;
 377:Generated_Source\PSoC5/I2C_1_INT.c ****                         I2C_1_state = I2C_1_SM_SL_WR_DATA;
 378:Generated_Source\PSoC5/I2C_1_INT.c **** 
 379:Generated_Source\PSoC5/I2C_1_INT.c ****                         I2C_1_slStatus |= I2C_1_SSTAT_WR_BUSY;
 380:Generated_Source\PSoC5/I2C_1_INT.c ****                         I2C_1_ENABLE_INT_ON_STOP;
ARM GAS  C:\Users\JEFFSN~1\AppData\Local\Temp\cc1C2DMI.s 			page 41


 381:Generated_Source\PSoC5/I2C_1_INT.c ****                     }
 382:Generated_Source\PSoC5/I2C_1_INT.c ****                 }
 383:Generated_Source\PSoC5/I2C_1_INT.c ****                 else
 384:Generated_Source\PSoC5/I2C_1_INT.c ****                 {
 385:Generated_Source\PSoC5/I2C_1_INT.c ****                     /*     Place code to compare for additional address here    */
 386:Generated_Source\PSoC5/I2C_1_INT.c ****                     /* `#START I2C_1_SW_ADDR_COMPARE_interruptStart` */
 387:Generated_Source\PSoC5/I2C_1_INT.c **** 
 388:Generated_Source\PSoC5/I2C_1_INT.c ****                     /* `#END` */
 389:Generated_Source\PSoC5/I2C_1_INT.c **** 
 390:Generated_Source\PSoC5/I2C_1_INT.c ****                 #ifdef I2C_1_SW_ADDR_COMPARE_ENTRY_CALLBACK
 391:Generated_Source\PSoC5/I2C_1_INT.c ****                     I2C_1_SwAddrCompare_EntryCallback();
 392:Generated_Source\PSoC5/I2C_1_INT.c ****                 #endif /* I2C_1_SW_ADDR_COMPARE_ENTRY_CALLBACK */
 393:Generated_Source\PSoC5/I2C_1_INT.c ****                     
 394:Generated_Source\PSoC5/I2C_1_INT.c ****                     I2C_1_NAK_AND_RECEIVE;   /* NACK address */
 395:Generated_Source\PSoC5/I2C_1_INT.c **** 
 396:Generated_Source\PSoC5/I2C_1_INT.c ****                     /* Place code to end of condition for NACK generation here */
 397:Generated_Source\PSoC5/I2C_1_INT.c ****                     /* `#START I2C_1_SW_ADDR_COMPARE_interruptEnd`  */
 398:Generated_Source\PSoC5/I2C_1_INT.c **** 
 399:Generated_Source\PSoC5/I2C_1_INT.c ****                     /* `#END` */
 400:Generated_Source\PSoC5/I2C_1_INT.c **** 
 401:Generated_Source\PSoC5/I2C_1_INT.c ****                 #ifdef I2C_1_SW_ADDR_COMPARE_EXIT_CALLBACK
 402:Generated_Source\PSoC5/I2C_1_INT.c ****                     I2C_1_SwAddrCompare_ExitCallback();
 403:Generated_Source\PSoC5/I2C_1_INT.c ****                 #endif /* I2C_1_SW_ADDR_COMPARE_EXIT_CALLBACK */
 404:Generated_Source\PSoC5/I2C_1_INT.c ****                 }
 405:Generated_Source\PSoC5/I2C_1_INT.c **** 
 406:Generated_Source\PSoC5/I2C_1_INT.c ****             #else /* (I2C_1_HW_ADRR_DECODE) */
 407:Generated_Source\PSoC5/I2C_1_INT.c **** 
 408:Generated_Source\PSoC5/I2C_1_INT.c ****                 if(0u != (I2C_1_DATA_REG & I2C_1_READ_FLAG))
 409:Generated_Source\PSoC5/I2C_1_INT.c ****                 {
 410:Generated_Source\PSoC5/I2C_1_INT.c ****                     /* Place code to prepare read buffer here                  */
 411:Generated_Source\PSoC5/I2C_1_INT.c ****                     /* `#START I2C_1_HW_PREPARE_READ_BUF_interrupt` */
 412:Generated_Source\PSoC5/I2C_1_INT.c **** 
 413:Generated_Source\PSoC5/I2C_1_INT.c ****                     /* `#END` */
 414:Generated_Source\PSoC5/I2C_1_INT.c ****                     
 415:Generated_Source\PSoC5/I2C_1_INT.c ****                 #ifdef I2C_1_HW_PREPARE_READ_BUF_CALLBACK
 416:Generated_Source\PSoC5/I2C_1_INT.c ****                     I2C_1_HwPrepareReadBuf_Callback();
 417:Generated_Source\PSoC5/I2C_1_INT.c ****                 #endif /* I2C_1_HW_PREPARE_READ_BUF_CALLBACK */
 418:Generated_Source\PSoC5/I2C_1_INT.c **** 
 419:Generated_Source\PSoC5/I2C_1_INT.c ****                     /* Prepare next operation to read, get data and place in data register */
 420:Generated_Source\PSoC5/I2C_1_INT.c ****                     if(I2C_1_slRdBufIndex < I2C_1_slRdBufSize)
 421:Generated_Source\PSoC5/I2C_1_INT.c ****                     {
 422:Generated_Source\PSoC5/I2C_1_INT.c ****                         /* Load first data byte from array */
 423:Generated_Source\PSoC5/I2C_1_INT.c ****                         I2C_1_DATA_REG = I2C_1_slRdBufPtr[I2C_1_slRdBufIndex];
 424:Generated_Source\PSoC5/I2C_1_INT.c ****                         I2C_1_ACK_AND_TRANSMIT;
 425:Generated_Source\PSoC5/I2C_1_INT.c ****                         I2C_1_slRdBufIndex++;
 426:Generated_Source\PSoC5/I2C_1_INT.c **** 
 427:Generated_Source\PSoC5/I2C_1_INT.c ****                         I2C_1_slStatus |= I2C_1_SSTAT_RD_BUSY;
 428:Generated_Source\PSoC5/I2C_1_INT.c ****                     }
 429:Generated_Source\PSoC5/I2C_1_INT.c ****                     else    /* Overflow: provide 0xFF on bus */
 430:Generated_Source\PSoC5/I2C_1_INT.c ****                     {
 431:Generated_Source\PSoC5/I2C_1_INT.c ****                         I2C_1_DATA_REG = I2C_1_OVERFLOW_RETURN;
 432:Generated_Source\PSoC5/I2C_1_INT.c ****                         I2C_1_ACK_AND_TRANSMIT;
 433:Generated_Source\PSoC5/I2C_1_INT.c **** 
 434:Generated_Source\PSoC5/I2C_1_INT.c ****                         I2C_1_slStatus  |= (I2C_1_SSTAT_RD_BUSY |
 435:Generated_Source\PSoC5/I2C_1_INT.c ****                                                        I2C_1_SSTAT_RD_ERR_OVFL);
 436:Generated_Source\PSoC5/I2C_1_INT.c ****                     }
 437:Generated_Source\PSoC5/I2C_1_INT.c **** 
ARM GAS  C:\Users\JEFFSN~1\AppData\Local\Temp\cc1C2DMI.s 			page 42


 438:Generated_Source\PSoC5/I2C_1_INT.c ****                     I2C_1_state = I2C_1_SM_SL_RD_DATA;
 439:Generated_Source\PSoC5/I2C_1_INT.c ****                 }
 440:Generated_Source\PSoC5/I2C_1_INT.c ****                 else  /* Write transaction: receive 1st byte */
 441:Generated_Source\PSoC5/I2C_1_INT.c ****                 {
 442:Generated_Source\PSoC5/I2C_1_INT.c ****                     I2C_1_ACK_AND_RECEIVE;
 443:Generated_Source\PSoC5/I2C_1_INT.c ****                     I2C_1_state = I2C_1_SM_SL_WR_DATA;
 444:Generated_Source\PSoC5/I2C_1_INT.c **** 
 445:Generated_Source\PSoC5/I2C_1_INT.c ****                     I2C_1_slStatus |= I2C_1_SSTAT_WR_BUSY;
 446:Generated_Source\PSoC5/I2C_1_INT.c ****                     I2C_1_ENABLE_INT_ON_STOP;
 447:Generated_Source\PSoC5/I2C_1_INT.c ****                 }
 448:Generated_Source\PSoC5/I2C_1_INT.c **** 
 449:Generated_Source\PSoC5/I2C_1_INT.c ****             #endif /* (I2C_1_SW_ADRR_DECODE) */
 450:Generated_Source\PSoC5/I2C_1_INT.c ****             }
 451:Generated_Source\PSoC5/I2C_1_INT.c ****             /* Data states */
 452:Generated_Source\PSoC5/I2C_1_INT.c ****             /* Data master writes into slave */
 453:Generated_Source\PSoC5/I2C_1_INT.c ****             else if(I2C_1_state == I2C_1_SM_SL_WR_DATA)
 454:Generated_Source\PSoC5/I2C_1_INT.c ****             {
 455:Generated_Source\PSoC5/I2C_1_INT.c ****                 if(I2C_1_slWrBufIndex < I2C_1_slWrBufSize)
 456:Generated_Source\PSoC5/I2C_1_INT.c ****                 {
 457:Generated_Source\PSoC5/I2C_1_INT.c ****                     tmp8 = I2C_1_DATA_REG;
 458:Generated_Source\PSoC5/I2C_1_INT.c ****                     I2C_1_ACK_AND_RECEIVE;
 459:Generated_Source\PSoC5/I2C_1_INT.c ****                     I2C_1_slWrBufPtr[I2C_1_slWrBufIndex] = tmp8;
 460:Generated_Source\PSoC5/I2C_1_INT.c ****                     I2C_1_slWrBufIndex++;
 461:Generated_Source\PSoC5/I2C_1_INT.c ****                 }
 462:Generated_Source\PSoC5/I2C_1_INT.c ****                 else  /* of array: complete write, send NACK */
 463:Generated_Source\PSoC5/I2C_1_INT.c ****                 {
 464:Generated_Source\PSoC5/I2C_1_INT.c ****                     I2C_1_NAK_AND_RECEIVE;
 465:Generated_Source\PSoC5/I2C_1_INT.c **** 
 466:Generated_Source\PSoC5/I2C_1_INT.c ****                     I2C_1_slStatus |= I2C_1_SSTAT_WR_ERR_OVFL;
 467:Generated_Source\PSoC5/I2C_1_INT.c ****                 }
 468:Generated_Source\PSoC5/I2C_1_INT.c ****             }
 469:Generated_Source\PSoC5/I2C_1_INT.c ****             /* Data master reads from slave */
 470:Generated_Source\PSoC5/I2C_1_INT.c ****             else if(I2C_1_state == I2C_1_SM_SL_RD_DATA)
 471:Generated_Source\PSoC5/I2C_1_INT.c ****             {
 472:Generated_Source\PSoC5/I2C_1_INT.c ****                 if(I2C_1_CHECK_DATA_ACK(tmpCsr))
 473:Generated_Source\PSoC5/I2C_1_INT.c ****                 {
 474:Generated_Source\PSoC5/I2C_1_INT.c ****                     if(I2C_1_slRdBufIndex < I2C_1_slRdBufSize)
 475:Generated_Source\PSoC5/I2C_1_INT.c ****                     {
 476:Generated_Source\PSoC5/I2C_1_INT.c ****                          /* Get data from array */
 477:Generated_Source\PSoC5/I2C_1_INT.c ****                         I2C_1_DATA_REG = I2C_1_slRdBufPtr[I2C_1_slRdBufIndex];
 478:Generated_Source\PSoC5/I2C_1_INT.c ****                         I2C_1_TRANSMIT_DATA;
 479:Generated_Source\PSoC5/I2C_1_INT.c ****                         I2C_1_slRdBufIndex++;
 480:Generated_Source\PSoC5/I2C_1_INT.c ****                     }
 481:Generated_Source\PSoC5/I2C_1_INT.c ****                     else   /* Overflow: provide 0xFF on bus */
 482:Generated_Source\PSoC5/I2C_1_INT.c ****                     {
 483:Generated_Source\PSoC5/I2C_1_INT.c ****                         I2C_1_DATA_REG = I2C_1_OVERFLOW_RETURN;
 484:Generated_Source\PSoC5/I2C_1_INT.c ****                         I2C_1_TRANSMIT_DATA;
 485:Generated_Source\PSoC5/I2C_1_INT.c **** 
 486:Generated_Source\PSoC5/I2C_1_INT.c ****                         I2C_1_slStatus |= I2C_1_SSTAT_RD_ERR_OVFL;
 487:Generated_Source\PSoC5/I2C_1_INT.c ****                     }
 488:Generated_Source\PSoC5/I2C_1_INT.c ****                 }
 489:Generated_Source\PSoC5/I2C_1_INT.c ****                 else  /* Last byte was NACKed: read complete */
 490:Generated_Source\PSoC5/I2C_1_INT.c ****                 {
 491:Generated_Source\PSoC5/I2C_1_INT.c ****                     /* Only NACK appears on bus */
 492:Generated_Source\PSoC5/I2C_1_INT.c ****                     I2C_1_DATA_REG = I2C_1_OVERFLOW_RETURN;
 493:Generated_Source\PSoC5/I2C_1_INT.c ****                     I2C_1_NAK_AND_TRANSMIT;
 494:Generated_Source\PSoC5/I2C_1_INT.c **** 
ARM GAS  C:\Users\JEFFSN~1\AppData\Local\Temp\cc1C2DMI.s 			page 43


 495:Generated_Source\PSoC5/I2C_1_INT.c ****                     I2C_1_slStatus &= ((uint8) ~I2C_1_SSTAT_RD_BUSY);
 496:Generated_Source\PSoC5/I2C_1_INT.c ****                     I2C_1_slStatus |= ((uint8)  I2C_1_SSTAT_RD_CMPLT);
 497:Generated_Source\PSoC5/I2C_1_INT.c **** 
 498:Generated_Source\PSoC5/I2C_1_INT.c ****                     I2C_1_state = I2C_1_SM_IDLE;
 499:Generated_Source\PSoC5/I2C_1_INT.c ****                 }
 500:Generated_Source\PSoC5/I2C_1_INT.c ****             }
 501:Generated_Source\PSoC5/I2C_1_INT.c ****             else
 502:Generated_Source\PSoC5/I2C_1_INT.c ****             {
 503:Generated_Source\PSoC5/I2C_1_INT.c ****             #if(I2C_1_TIMEOUT_ENABLED)
 504:Generated_Source\PSoC5/I2C_1_INT.c ****                 /* Exit interrupt to take chance for timeout timer to handle this case */
 505:Generated_Source\PSoC5/I2C_1_INT.c ****                 I2C_1_DisableInt();
 506:Generated_Source\PSoC5/I2C_1_INT.c ****                 I2C_1_ClearPendingInt();
 507:Generated_Source\PSoC5/I2C_1_INT.c ****             #else
 508:Generated_Source\PSoC5/I2C_1_INT.c ****                 /* Block execution flow: unexpected condition */
 509:Generated_Source\PSoC5/I2C_1_INT.c ****                 CYASSERT(0u != 0u);
 510:Generated_Source\PSoC5/I2C_1_INT.c ****             #endif /* (I2C_1_TIMEOUT_ENABLED) */
 511:Generated_Source\PSoC5/I2C_1_INT.c ****             }
 512:Generated_Source\PSoC5/I2C_1_INT.c ****         }
 513:Generated_Source\PSoC5/I2C_1_INT.c ****     #endif /* (I2C_1_MODE_SLAVE_ENABLED) */
 514:Generated_Source\PSoC5/I2C_1_INT.c ****     }
 515:Generated_Source\PSoC5/I2C_1_INT.c ****     else
 516:Generated_Source\PSoC5/I2C_1_INT.c ****     {
 517:Generated_Source\PSoC5/I2C_1_INT.c ****         /* The FSM skips master and slave processing: return to IDLE */
 518:Generated_Source\PSoC5/I2C_1_INT.c ****         I2C_1_state = I2C_1_SM_IDLE;
 800              		.loc 1 518 0
 801 0290 1022     		movs	r2, #16
 802 0292 024B     		ldr	r3, .L27+4
 803 0294 1A70     		strb	r2, [r3]
 804              	.LVL6:
 805              	.L1:
 806 0296 38BD     		pop	{r3, r4, r5, pc}
 807              	.L28:
 808              		.align	2
 809              	.L27:
 810 0298 D7490040 		.word	1073760727
 811 029c 00000000 		.word	I2C_1_state
 812 02a0 00000000 		.word	I2C_1_mstrWrBufSize
 813 02a4 00000000 		.word	I2C_1_mstrWrBufPtr
 814 02a8 D8490040 		.word	1073760728
 815 02ac 00000000 		.word	I2C_1_mstrWrBufIndex
 816 02b0 00000000 		.word	I2C_1_mstrControl
 817 02b4 00000000 		.word	I2C_1_mstrStatus
 818 02b8 80E100E0 		.word	-536813184
 819 02bc D6490040 		.word	1073760726
 820 02c0 D9490040 		.word	1073760729
 821 02c4 00000000 		.word	I2C_1_mstrRdBufIndex
 822 02c8 00000000 		.word	I2C_1_mstrRdBufPtr
 823 02cc 00000000 		.word	I2C_1_mstrRdBufSize
 824              		.cfi_endproc
 825              	.LFE0:
 826              		.size	I2C_1_ISR, .-I2C_1_ISR
 827              		.text
 828              	.Letext0:
 829              		.file 2 "Generated_Source\\PSoC5\\cytypes.h"
 830              		.file 3 "Generated_Source\\PSoC5\\I2C_1_PVT.h"
 831              		.file 4 "Generated_Source\\PSoC5\\CyLib.h"