ARM GAS  C:\Users\JEFFSN~1\AppData\Local\Temp\ccrjUtdR.s 			page 1


   1              		.syntax unified
   2              		.cpu cortex-m3
   3              		.fpu softvfp
   4              		.eabi_attribute 20, 1
   5              		.eabi_attribute 21, 1
   6              		.eabi_attribute 23, 3
   7              		.eabi_attribute 24, 1
   8              		.eabi_attribute 25, 1
   9              		.eabi_attribute 26, 1
  10              		.eabi_attribute 30, 2
  11              		.eabi_attribute 34, 1
  12              		.eabi_attribute 18, 4
  13              		.thumb
  14              		.syntax unified
  15              		.file	"I2C_1.c"
  16              		.text
  17              	.Ltext0:
  18              		.section	.gnu.lto_.profile.a80ce034,"",%progbits
  19 0000 789C6361 		.ascii	"x\234ca`d`e`\000\222K\031\003\000\002\277\001\002"
  19      60646065 
  19      6000924B 
  19      19030002 
  19      BF0102
  20              		.text
  21              		.section	.gnu.lto_.icf.a80ce034,"",%progbits
  22 0000 789C6361 		.ascii	"x\234ca`d\000\001\005\006\004`e8\364e\351yN\266]\027"
  22      60640001 
  22      05060460 
  22      6538F465 
  22      E9794EB6 
  23 0016 2EFE6264 		.ascii	".\376bd?r\376\320bv\2165\177o\\g\343\354\372\320u\226"
  23      3F72FED0 
  23      62768E35 
  23      7F6F5C67 
  23      E3ECFAD0 
  24 002c 8B010010 		.ascii	"\213\001\000\020A\020\012"
  24      41100A
  25              		.text
  26              		.section	.gnu.lto_.jmpfuncs.a80ce034,"",%progbits
  27 0000 789C6361 		.ascii	"x\234ca`d\000\201B\006\004`\001a\306\277L\214\353>}"
  27      60640081 
  27      42060460 
  27      0161C6BF 
  27      4C8CEB3E 
  28 0015 59C7F685 		.ascii	"Y\307\366\205\251\225\231\201\221\237q9\243\014\003"
  28      A9959981 
  28      919F7139 
  28      A30C03
  29 0024 034874E7 		.ascii	"\003Ht\347\3167\267\331\353\3776t44\010\26423\376g\002"
  29      CE37B7D9 
  29      EBFF3674 
  29      343408B4 
  29      3233FE67 
  30 0039 2A675CC1 		.ascii	"*g\\\301X\017\322\204P\365\245\253\365;3D/;\343J\220"
  30      580FD284 
  30      50F5A5AB 
  30      F53B3344 
ARM GAS  C:\Users\JEFFSN~1\AppData\Local\Temp\ccrjUtdR.s 			page 2


  30      2F3BE34A 
  31 004e 281B0303 		.ascii	"(\033\003\003H)\003;\210\340\204r\300\004\000\027\344"
  31      4829033B 
  31      88E08472 
  31      C0040017 
  31      E4
  32 005f 18D4     		.ascii	"\030\324"
  33              		.text
  34              		.section	.gnu.lto_.inline.a80ce034,"",%progbits
  35 0000 789C6361 		.ascii	"x\234ca`d\000\201\016\006\004`a`\020Vad`\022Y0\207\221"
  35      60640081 
  35      0E060460 
  35      61601056 
  35      61646012 
  36 0018 816D813C 		.ascii	"\201m\201<\023H\220\231\207\201\201\011N\2611\360\312"
  36      13489099 
  36      87818109 
  36      4EB131F0 
  36      CA
  37 0029 0155F03C 		.ascii	"\001U\360<\210\205+`\342f``\234\340\007\242\030\330"
  37      88852B60 
  37      E2666060 
  37      9CE007A2 
  37      18D8
  38 003b 19B84480 		.ascii	"\031\270D\200\322\\\247\\\340\322\214\\0\202\223A\357"
  38      D25CA75C 
  38      E0D28C5C 
  38      30829341 
  38      EF
  39 004c 04D05626 		.ascii	"\004\320V&\257\011\207X\260\352\206\262\031\000\240"
  39      AF098758 
  39      B0EA86B2 
  39      1900A0
  40 005b A40DAE   		.ascii	"\244\015\256"
  41              		.text
  42              		.section	.gnu.lto_.pureconst.a80ce034,"",%progbits
  43 0000 789C6361 		.ascii	"x\234ca`d\340d```a\220b\223b\227\342\224\002\000\002"
  43      6064E064 
  43      60606061 
  43      90629362 
  43      97E29402 
  44 0016 EF0091   		.ascii	"\357\000\221"
  45              		.text
  46              		.section	.gnu.lto_I2C_1_Init.a80ce034,"",%progbits
  47 0000 789C75D4 		.ascii	"x\234u\324\317O\023A\024\007\360\371\316\364\227@\201"
  47      CF4F1341 
  47      1407F0F9 
  47      CEF49740 
  47      81
  48 0011 BB4DD423 		.ascii	"\273M\324#\211\321`\342_\300\201xS\271\222\020\203\275"
  48      89D160E2 
  48      5FC08178 
  48      53B99210 
  48      83BD
  49 0023 4A42F4DC 		.ascii	"JB\364\334\251\260\"D\020C\344`b\020\023\004\374Q@\013"
  49      A9B02244 
  49      1043E460 
ARM GAS  C:\Users\JEFFSN~1\AppData\Local\Temp\ccrjUtdR.s 			page 3


  49      62101304 
  49      FC51400B 
  50 0037 584028AD 		.ascii	"X@(\255\"\202\251\030\005\177@\002r \204\020\250PE\215"
  50      2282A918 
  50      057F4002 
  50      72208410 
  50      A850458D 
  51 004b 659DD9D9 		.ascii	"e\235\331\331\335X(\2334\333\2357\363y\323\367f\353"
  51      DD58289B 
  51      34DB9D37 
  51      F379D3F7 
  51      66EB
  52 005d 2020F26A 		.ascii	"  \362jt\020rL\334\017\213\017\030\001mN\020\022\364"
  52      7410724C 
  52      DC0F8B0F 
  52      18016D4E 
  52      1012F4
  53 0070 50407EE1 		.ascii	"P@~\341\036\220\000E\000?h\232\"V\267\022\241E\235\\"
  53      1E900045 
  53      003F689A 
  53      2256B712 
  53      A1459D5C 
  54 0084 5C4B1D77 		.ascii	"\\K\035w\030\357\212Bc\204\350\324\220\010:QD\304\264"
  54      18EF8A42 
  54      6384E8D4 
  54      90083A51 
  54      44C4B4
  55 0097 E5BEDDDB 		.ascii	"\345\276\335\333^W\255\234vT\005\321\005\227L\327s>"
  55      5E57AD9C 
  55      765405D1 
  55      05974CD7 
  55      733E
  56 00a9 CA75BD86 		.ascii	"\312u\275\206Gg\235\035\005\371\204$EP\246\371N\251"
  56      47679D1D 
  56      05F98424 
  56      4550A6F9 
  56      4EA9
  57 00bb BCB315C4 		.ascii	"\274\263\025\304R\311\201\343r\272pZ\265\330;w\212j"
  57      52C981E3 
  57      72BA705A 
  57      B5D83B77 
  57      8A6A
  58 00cd 0C90ECEC 		.ascii	"\014\220\354\354Z\323g\246\036\347Z\202\334!\206\036"
  58      5AD367A6 
  58      1EE75A82 
  58      DC21861E 
  59 00dd B486EA72 		.ascii	"\264\206\352r\332p7X\033\344<Wc\024\017\341C7|\"\345"
  59      DA703758 
  59      1BE43C57 
  59      63140FE1 
  59      43377C22 
  60 00f2 23B4414C 		.ascii	"#\264AL\031i\273\321\235#WQP<\026\021\231\243w\320\312"
  60      1969BBD1 
  60      9D235751 
  60      503C1611 
  60      99A377D0 
  61 0107 116E0E7F 		.ascii	"\021n\016\1771sL\232\350\320\317\360\254;\003}b\243"
ARM GAS  C:\Users\JEFFSN~1\AppData\Local\Temp\ccrjUtdR.s 			page 4


  61      31734C9A 
  61      E8D0CFF0 
  61      AC3B037D 
  61      62A3
  62 0119 2185AEEE 		.ascii	"!\205\256\356\314\324\273\024\032\004zL5i\253\2555\333"
  62      CCD4BB14 
  62      1A047A4C 
  62      3569ABAD 
  62      35DB
  63 012b E3F94A9D 		.ascii	"\343\371J\2352U\275n<\356\314P{m\265O\251\015\177>5"
  63      3255BD6E 
  63      3CEECC50 
  63      7B6DB54F 
  63      A90D7F3E 
  64 0140 7994EAC1 		.ascii	"y\224\352\301Sk\253#'M\364\375\326\307\015\023\2357"
  64      536BAB23 
  64      274DF4FD 
  64      D6C70D13 
  64      9D37
  65 0152 D1EDB5FE 		.ascii	"\321\355\265\376%d\240\317l4\254\320\373c\211\200\\"
  65      2564A0CF 
  65      6C34ACD0 
  65      FB638980 
  65      5C
  66 0163 C4508C7E 		.ascii	"\304P\214~k\243\266\231\372\325\230p(s\3014C\355\361"
  66      6BA3B699 
  66      FAD59870 
  66      2873C134 
  66      43EDF1
  67 0176 FE4C73C0 		.ascii	"\376Ls\3006\007\225\331\263\036\371\355U(\301s\023m"
  67      360795D9 
  67      B31EF9ED 
  67      5528C173 
  67      136D
  68 0188 5EC0DEBE 		.ascii	"^\300\336\2769\214\276]\033\031\275I\325#\217\327\360"
  68      398CBE5D 
  68      1B19BD49 
  68      D5238FD7 
  68      F0
  69 0199 7C311469 		.ascii	"|1\024i\231\333U\305\020\007\310\211!\221 b$\030V\011"
  69      99DB55C5 
  69      1007C889 
  69      21912062 
  69      24185609 
  70 01ad D2F7BEA6 		.ascii	"\322\367\276\246\235r\211\013\234\213\036\212\330*\264"
  70      9D72890B 
  70      9C8B1E8A 
  70      D82AB4
  71 01bc E8964B66 		.ascii	"\350\226Kf\220f$\262>\357\016\244\371u\316\0135\346"
  71      906624B2 
  71      3EEF0EA4 
  71      F975CE0B 
  71      35E6
  72 01ce D6A9385D 		.ascii	"\326\2518]x\201\200\214\205\266R!\227\332]\001F\341"
  72      7881808C 
  72      85B65221 
  72      97DA5D01 
ARM GAS  C:\Users\JEFFSN~1\AppData\Local\Temp\ccrjUtdR.s 			page 5


  72      46E1
  73 01e0 933FB341 		.ascii	"\223?\263A\333aj\310\2151\3704\3461\300\235\211\274"
  73      DB616AC8 
  73      8D31F834 
  73      E631C09D 
  73      89BC
  74 01f2 ECE2215D 		.ascii	"\354\342!]\234H\202\250\020M\342\2778?\247\261\034\235"
  74      9C4882A8 
  74      104DE2BF 
  74      383FA7B1 
  74      1C9D
  75 0204 326329C6 		.ascii	"2c)\306\021\320X\256\252\353\342-\347\336\032\344a\277"
  75      11D058AE 
  75      AAEBE22D 
  75      E7DE1AE4 
  75      61BF
  76 0216 9E572FDE 		.ascii	"\236W/\336\0329\274^\273\234\310\225u\340A9\356E\\\274"
  76      1A39BC5E 
  76      BB9CC895 
  76      75E04139 
  76      EE455CBC 
  77 022a 6A31A312 		.ascii	"j1\243\022/U%\206\267\377N\033\305\363\242\020\257\254"
  77      2F552586 
  77      B7FF4E1B 
  77      C5F3A210 
  77      AFAC
  78 023c FE6D7CB3 		.ascii	"\376m|\263\362\354\203\221\035\236\260\341\327\012\266"
  78      F2EC8391 
  78      1D9EB0E1 
  78      D70AB6
  79 024b 37E8153D 		.ascii	"7\350\025=\234\264\016\333f\273\373 \230f\207\337\330"
  79      9CB40EDB 
  79      66BBFB20 
  79      986687DF 
  79      D8
  80 025c F094806D 		.ascii	"\360\224\200mif\023\007A,;4mCo-h\015W\243\037J\2152"
  80      69661307 
  80      412C3B34 
  80      6D436F2D 
  80      680D57A3 
  81 0274 CB2B29BA 		.ascii	"\313+)\272,\376%\304F\216\224\372/\371\253/\\\366_\254"
  81      2CFE25C4 
  81      468E94FA 
  81      2FF9AB2F 
  81      5CF65FAC 
  82 0288 28ABBA52 		.ascii	"(\253\272R]\351/?[VUr\272\374\314\251\222\212\342\023"
  82      5DE92F3F 
  82      5B565572 
  82      BAFCCCA9 
  82      928AE213 
  83 029c 95E41F33 		.ascii	"\225\344\0373(\261\301"
  83      28B1C1
  84              		.text
  85              		.section	.gnu.lto_I2C_1_Enable.a80ce034,"",%progbits
  86 0000 789C7D91 		.ascii	"x\234}\221\317KTQ\024\307\317\367\3367\363^\232\331"
  86      CF4B5451 
  86      14C7CFF7 
ARM GAS  C:\Users\JEFFSN~1\AppData\Local\Temp\ccrjUtdR.s 			page 6


  86      DE37F35E 
  86      9AD9
  87 0012 BE812470 		.ascii	"\276\201$p1-\"\223\376\002\027a\253h\266\202\205\015"
  87      312D2293 
  87      FE021761 
  87      AB68B682 
  87      850D
  88 0024 D24641A6 		.ascii	"\322FA\246\266s\307\231\207\342\246\026\245\213\022"
  88      B673C799 
  88      87E2A616 
  88      A58B12
  89 0033 2131C7D4 		.ascii	"!1\307\324\306\351\227\314\"x\316\362AJ\3536\341b\020"
  89      C6E997CC 
  89      2278CEF2 
  89      414AEB36 
  89      E16210
  90 0046 71616020 		.ascii	"qa` \3268~\357{Q\220\324\205\373\343\335\367=\237\363"
  90      D6387EEF 
  90      7B5190D4 
  90      85FBE3DD 
  90      F73D9FF3 
  91 005a 3DE73A02 		.ascii	"=\347:\002\261cX\211\\\346~\201\023Z\240\036o\212\024"
  91      B1635889 
  91      5CE67E81 
  91      135AA01E 
  91      6F8A14
  92 006d 3C05D883 		.ascii	"<\005\330\203\361 y\205<\276\253\246B}\242QS\351E\303"
  92      F1207985 
  92      3CBEABA6 
  92      427DA251 
  92      53E945C3 
  93 0081 F17561BE 		.ascii	"\361ua\276\307\224\003\370Z\244\245\"\222`\021i\241"
  93      C79403F8 
  93      5AA4A522 
  93      92601169 
  93      A1
  94 0092 2C0C1FAD 		.ascii	",\014\037\255\236\321\227`\317\007\0376\356t\317\033"
  94      9ED19760 
  94      CF071F36 
  94      EE74CF1B 
  95 00a2 336E826A 		.ascii	"3n\202j\3301c\202B\227\257\20124\243\320\233\302\325"
  95      D8316382 
  95      4297AF81 
  95      3234A3D0 
  95      9BC2D5
  96 00b5 54144BE9 		.ascii	"T\024K\351v\365\370iG\262d\351]XBw\314\305+$\351\024"
  96      76F5F869 
  96      47B264E9 
  96      5D584277 
  96      CCC52B24 
  97 00cb F6A6723B 		.ascii	"\366\246r;0\255V\321\004\263m\033?\333\332\351\226\227"
  97      30AD56D1 
  97      04B36D1B 
  97      3FDBDAE9 
  97      9697
  98 00dd 8EF85A25 		.ascii	"\216\370Z%\354\342\332\305\263\213\310>\247-\340\233"
  98      ECE2DAC5 
ARM GAS  C:\Users\JEFFSN~1\AppData\Local\Temp\ccrjUtdR.s 			page 7


  98      B38BC83E 
  98      A72DE09B 
  99 00ed 5276D73B 		.ascii	"Rv\327;(\006\353S\235\226V\324\232\331j\265\275/n\276"
  99      2806EB53 
  99      9D9656D4 
  99      9AD96AB5 
  99      BD2F6EBE 
 100 0101 69268D39 		.ascii	"i&\2159\357k\272\261I\226\221g\270#\333PQ^\342\251\226"
 100      EF6BBAB1 
 100      49969167 
 100      B823DB50 
 100      515EE2A9 
 101 0116 06EA4753 		.ascii	"\006\352GS\215\245\207q\264\303\350i\277\276\345\036"
 101      8DA58771 
 101      B4C3E869 
 101      BFBEE51E 
 102 0126 285F27A2 		.ascii	"(_'\242*\177\314\034\226\317\306\237\013\023\005c\025"
 102      2A7FCC1C 
 102      96CFC69F 
 102      0B130563 
 102      15
 103 0137 7B5B479B 		.ascii	"{[G\233\347\3460[(\261GI\254\"\205\025\260V\274\306"
 103      E7E6305B 
 103      28B14749 
 103      AC228515 
 103      B056BCC6 
 104 014b 1C482C1E 		.ascii	"\034H,\036&c\\\"&~.\255=\327\026\241\340\240B%\223N"
 104      26635C22 
 104      267E2EAD 
 104      3DD716A1 
 104      E0A04225 
 105 0161 C34AFE07 		.ascii	"\303J\376\007[#\214\210\330\341n:&\272\214x\361\362"
 105      5B238C88 
 105      D8E16E3A 
 105      26BA8C78 
 105      F1F2
 106 0173 D3B3F6D8 		.ascii	"\323\263\366\330\321\373_\216\236TB\357\017\243\372"
 106      D1FB5F8E 
 106      9E5442EF 
 106      0FA3FA
 107 0182 9BF1E62F 		.ascii	"\233\361\346/C\036\011\247\034\374+\370md\300\223\035"
 107      431E09A7 
 107      1CFC2BF8 
 107      6D64C093 
 107      1D
 108 0193 94828F61 		.ascii	"\224\202\217a\32459\325]\267\305W\020\274cw\331N\237"
 108      D43539D5 
 108      5DB7C557 
 108      10BC6377 
 108      D94E9F
 109 01a6 F25D8C07 		.ascii	"\362]\214\007\315\233\221\332\216}v\237\257D\321\305"
 109      CD9B91DA 
 109      8E7D769F 
 109      AF44D1C5 
 110 01b6 1BD991EC 		.ascii	"\033\331\221\354\330\335\\\366\336`f\364\301\330Pv\340"
 110      D8DD5CF6 
 110      DE6066F4 
ARM GAS  C:\Users\JEFFSN~1\AppData\Local\Temp\ccrjUtdR.s 			page 8


 110      C1D85076 
 110      E0
 111 01c7 5666B4EF 		.ascii	"Vf\264\357\372@\377\265\276\301\236+C\342\335\037\311"
 111      FA40FFB5 
 111      BEC19E2B 
 111      43E2DD1F 
 111      C9
 112 01d8 6572FC7F 		.ascii	"er\374\177\002\\'\324\245"
 112      025C27D4 
 112      A5
 113              		.text
 114              		.section	.gnu.lto_I2C_1_Start.a80ce034,"",%progbits
 115 0000 789C9591 		.ascii	"x\234\225\221?K\034Q\024\305\357yofwYW\311\007\220U"
 115      3F4B1C51 
 115      14C5EF79 
 115      6F667759 
 115      57C90790 
 116 0015 1BC12662 		.ascii	"\033\301&bH>\201EH#\242\355\202D\263\255\202\230z\237"
 116      483E8145 
 116      4823A2ED 
 116      8244B3AD 
 116      82987A9F 
 117 0029 CE2EC64E 		.ascii	"\316.\306N\010\261\021]-\304?\211Y71\305\3328\016\206"
 117      08B1115D 
 117      2DC43F89 
 117      593731C5 
 117      DA380E86 
 118 003d 34B2565A 		.ascii	"4\262VZh\243)L0\022\\\262\221\244\230L\356\235\225\265"
 118      68A3294C 
 118      30125CB2 
 118      91A4984C 
 118      EE9D95B5 
 119 0051 100B2F0C 		.ascii	"\020\013/\014\357\315y\347\335\373\2333\026\201\244"
 119      EFCD79E7 
 119      DDFB9B33 
 119      1681A4
 120 0060 DA15511B 		.ascii	"\332\025Q\033\257\217\371\201MP\323e\242\361\230Rz+"
 120      AF8FF981 
 120      4D50D365 
 120      A2F19852 
 120      7A2B
 121 0072 49266E1D 		.ascii	"I&n\035v\222IhX5\331\002dcb\240\214\322\0262\370\255"
 121      76924968 
 121      5835D902 
 121      646362A0 
 121      8CD21632 
 122 0088 7C056FF2 		.ascii	"|\005o\362\254\244:\226\015\327\311\322v\227Yq\221\323"
 122      ACA43A96 
 122      0DD7C9D2 
 122      76975971 
 122      91D3
 123 009a 44810A47 		.ascii	"D\201\012G\020\226\321Al\373Z\374\367\2461\222\025["
 123      1096D141 
 123      6CFB5AFC 
 123      F7A63192 
 123      155B
 124 00ac 6BED102B 		.ascii	"k\355\020+\210\010G\241\3175A\340\030\327o\330\231o"
ARM GAS  C:\Users\JEFFSN~1\AppData\Local\Temp\ccrjUtdR.s 			page 9


 124      880847A1 
 124      CF3541E0 
 124      18D76FD8 
 124      996F
 125 00be 8A69CA69 		.ascii	"\212i\312i\226/\331\"\343*J\311\252\31701S\011<-\267"
 125      962FD922 
 125      E32A4AC9 
 125      AACF3031 
 125      53093C2D 
 126 00d3 1CADB9E3 		.ascii	"\034\255\271\343L\316\333\217VUN+\310\200R\351\3428"
 126      4CCEDB8F 
 126      56554E2B 
 126      C88052E9 
 126      E238
 127 00e5 9AF1CD2B 		.ascii	"\232\361\315+c\036\2606\305\014\"\237\357\035\354\306"
 127      631EB036 
 127      C50C229F 
 127      EF1DECC6 
 128 00f5 F3981B37 		.ascii	"\363\230\0337\241\256\261\306\340\253h\346\371o\221"
 128      A1AEB1C6 
 128      E0AB68E6 
 128      F96F91
 129 0104 079D227B 		.ascii	"\007\235\"{\344\014\336t-\\\224\3766JW\200\360N|$\020"
 129      E40CDE74 
 129      2D5C94FE 
 129      364A5780 
 129      F04E7C24 
 130 0119 9AB692FA 		.ascii	"\232\266\222\372;\034\367u9!\346\333\023\255\2009\010"
 130      3B1CF775 
 130      3921E6DB 
 130      13AD8039 
 130      08
 131 012a EBC8F007 		.ascii	"\353\310\360\007\330\304\274\325\215\317\277l1\337\203"
 131      D8C4BCD5 
 131      8DCFBF6C 
 131      31DF83
 132 0139 EE7D9DAE 		.ascii	"\356}\235\256\300t\354\3704\271W\214\013\017\003a#\344"
 132      C074ECF8 
 132      34B9578C 
 132      0B0F0361 
 132      23E4
 133 014b A9282B8C 		.ascii	"\251(+\214Dpf\313\352N\034N\020\305:\216W\235\376\242"
 133      447066CB 
 133      EA4E1C4E 
 133      10C53A8E 
 133      579DFEA2 
 134 015f AF69EAD1 		.ascii	"\257i\352\321E\302\3506\027\177\376I\324^\215\347\230"
 134      45C2E836 
 134      177FFE49 
 134      D45E8DE7 
 134      98
 135 0170 26968E7F 		.ascii	"&\226\216\177\\}\263\005,\313\1773\212\217h\306\207"
 135      5C7DB305 
 135      2CCB7F33 
 135      8A8F68C6 
 135      87
 136 0181 106BB386 		.ascii	"\020k\263\206\345/\034\371\266\\\211\301\030\246\344"
ARM GAS  C:\Users\JEFFSN~1\AppData\Local\Temp\ccrjUtdR.s 			page 10


 136      E52F1CF9 
 136      B65C89C1 
 136      18A6E4
 137 0190 B3734CB8 		.ascii	"\263sL\270\371\236\220F\352\222\343`J\206hy\232\036"
 137      F99E9046 
 137      EA92E360 
 137      4A866879 
 137      9A1E
 138 01a2 4E8F3E1F 		.ascii	"N\217>\037K\277\030\350\037y9:\224N\365\366\217t?I="
 138      4BBF18E8 
 138      1F79393A 
 138      944EF5F6 
 138      8F743F49 
 139 01b7 7BD43DD0 		.ascii	"{\324=\320\365p\210\376\003\032m\321g"
 139      F57088FE 
 139      031A6DD1 
 139      67
 140              		.text
 141              		.section	.gnu.lto_I2C_1_Stop.a80ce034,"",%progbits
 142 0000 789C9D96 		.ascii	"x\234\235\226\177LSW\024\307\337y\257\245\245\205RD"
 142      7F4C5357 
 142      14C7DF79 
 142      AFA5A585 
 142      5244
 143 0012 2A132632 		.ascii	"*\023&2\322\020X&S\263\277\226\354\037\376X\366\337"
 143      D2105826 
 143      53B3BF96 
 143      EC1FFE58 
 143      F6DF
 144 0024 027FCECC 		.ascii	"\002\177\316\314m\330?\226\031I\224\375\261\177\306"
 144      6DD83F96 
 144      194994FD 
 144      B17FC6
 145 0033 83522B5B 		.ascii	"\203R+[\024\022X\331f\210S\2432' \2338\371i\313\017"
 145      141258D9 
 145      668853A3 
 145      3227209B 
 145      38F969CB 
 146 0048 B7552CEA 		.ascii	"\267U,\352\000\177\200\003\331\306\034c\310/3\203\322"
 146      007F8003 
 146      D9C61C63 
 146      C82F3383 
 146      D2
 147 0059 EE9C7B1F 		.ascii	"\356\234{\037\357\261\002\215\254IO{\357;\367{?\367"
 147      EFB1028D 
 147      AC494F7B 
 147      EF3BF77B 
 147      3FF7
 148 006b 9C73EFBB 		.ascii	"\234s\357\273:\001\004\372\3541\013\302\253\370\233"
 148      3A0104FA 
 148      EC310BC2 
 148      ABF89B
 149 007a 8C5F9004 		.ascii	"\214_\220\004\020+\002\202Pl\024\001\350\217l\004\241"
 149      102B0282 
 149      506C1401 
 149      E88F6C04 
 149      A1
ARM GAS  C:\Users\JEFFSN~1\AppData\Local\Temp\ccrjUtdR.s 			page 11


 150 008b 48842278 		.ascii	"H\204\"x$.\212\320\351\036o\0263\317\310\370\031=5\265"
 150      242E8AD0 
 150      E91E6F16 
 150      33CFC8F8 
 150      193D35B5 
 151 009f 5DAEF582 		.ascii	"]\256\365\202K\022\204\220\310\224\0048\003\231\002"
 151      4B128490 
 151      C8940438 
 151      039902
 152 00ae BA8D3506 		.ascii	"\272\2155\006?\213\215*%\267\255\374!\324B\024NG\032"
 152      3F8B8D2A 
 152      25B7ADFC 
 152      21D44214 
 152      4E471A
 153 00c1 7E7F795D 		.ascii	"~\177y]\264\364\002\220\343\374E\337;\366\223\262\\"
 153      B4F40290 
 153      E3FC45DF 
 153      3BF693B2 
 153      5C
 154 00d2 227BABFB 		.ascii	"\"{\253\373\342\252eo\361V\227\004\3605H8\012v\246\300"
 154      E2AA656F 
 154      F1569704 
 154      F0354838 
 154      0A76A6C0 
 155 00e6 CB295CF8 		.ascii	"\313)\\\370,\330\321\275'\364\2177n^tI\"\220\322\315"
 155      2CD8D1BD 
 155      27F48F37 
 155      6E5E7449 
 155      2290D2CD 
 156 00fa E9DE1A33 		.ascii	"\351\336\03235%\260b\363\320\321\203>\220^d\302#\003"
 156      3525B062 
 156      F3D0D183 
 156      3E905E64 
 156      C22303
 157 010d 27CF5914 		.ascii	"'\317Y\024\345/\3127~.{KPY\007u\\\371\034\244\3007\240"
 157      E52FCA37 
 157      7E2E7B4B 
 157      50590775 
 157      5CF91CA4 
 158 0124 68D783BD 		.ascii	"h\327\203\275!\327+\207BN\331\373\310\342\013n\330&"
 158      21D72B87 
 158      424ED9FB 
 158      C8E20B6E 
 158      D826
 159 0136 092E49AF 		.ascii	"\011.I\257'c \023M\306\204&\312L&\206\232\261\364\317"
 159      27632013 
 159      4DC68426 
 159      CA4C2686 
 159      9AB1F4CF 
 160 014a 42268E29 		.ascii	"B&\216)X\2513\236L\002\032\203\215!o\242v\022\231\315"
 160      58A9339E 
 160      4C021A83 
 160      8D216FA2 
 160      761299CD 
 161 015e 6492C96C 		.ascii	"d\222\311l!\223J&\215L:\031;\231\0142\231d\262\310\010"
 161      21934A26 
 161      8D4C3A19 
ARM GAS  C:\Users\JEFFSN~1\AppData\Local\Temp\ccrjUtdR.s 			page 12


 161      3B990C32 
 161      9964B2C8 
 162 0173 C234068E 		.ascii	"\3024\006\216R0#\212\364+\215C\347\374\364\275<\012"
 162      5230238A 
 162      F42B8D43 
 162      E7FCF4BD 
 162      3C0A
 163 0185 25AED0E3 		.ascii	"%\256\320\343\352\3543\320\342\215l\301\007\333:\312"
 163      EAEC33D0 
 163      E28D6CC1 
 163      07DB3ACA 
 164 0195 45DE94BB 		.ascii	"E\336\224\273\234\262\005\273\232+\007\203\372cPS\\"
 164      9CB205BB 
 164      9A2B0783 
 164      FA635053 
 164      5C
 165 01a6 8A498A86 		.ascii	"\212I\212\206\363\270\346\006Z34\3021\300\347\213_\335"
 165      F3B8E606 
 165      5A3334C2 
 165      31C0E78B 
 165      5FDD
 166 01b8 5DD4D310 		.ascii	"]\324\323\020\003\310\262\010\337\3423\234b\341\223"
 166      03C8B208 
 166      DFE2339C 
 166      62E193
 167 01c7 605B0584 		.ascii	"`[\005\204%\221\026C\253dyD\205\357 \312)I\313)L\214"
 167      25911643 
 167      AB647944 
 167      85EF20CA 
 167      2949CB29 
 168 01dd C2E39CF3 		.ascii	"\302\343\234\363Yx\323_Y,\353\260+\344\366u\251\024"
 168      5978D35F 
 168      592CEBB0 
 168      2BE4F675 
 168      A914
 169 01ef 6668428A 		.ascii	"fhB\212\013\214\342\"R\340\204%\236\343\251\244\267"
 169      0B8CE222 
 169      52E08425 
 169      9EE3A9A4 
 169      B7
 170 0200 5C2C8689 		.ascii	"\\,\206\21157O\016\031\212\026\345C\262l\305\2762,4"
 170      35374F0E 
 170      198A16E5 
 170      43B26CC5 
 170      BE322C34 
 171 0214 EA9EE81D 		.ascii	"\352\236\350\035\3506\221\240\314\372c\341\022V\347"
 171      E83691A0 
 171      CCFA63E1 
 171      1256E7
 172 0223 F724890F 		.ascii	"\367$\211\017\217\\:_f\314\256#h\371-*\245f\234%\310"
 172      8F5C3A5F 
 172      66CCAE23 
 172      68F92D2A 
 172      A5669C25 
 173 0238 CA135A20 		.ascii	"\312\023Z \033\241\371\032\257\264W\000_\205\036G\335"
 173      1BA1F91A 
 173      AFB45700 
ARM GAS  C:\Users\JEFFSN~1\AppData\Local\Temp\ccrjUtdR.s 			page 13


 173      5F851E47 
 173      DD
 174 0249 98ED9F52 		.ascii	"\230\355\237R\260\207\024\354\271\211\246Q\320\260["
 174      B08714EC 
 174      B989A651 
 174      D0B05B
 175 0258 55ECB615 		.ascii	"U\354\266\025\330\317\312\331\036\211\263\203q\322\216"
 175      D8CFCAD9 
 175      1E89B383 
 175      71D28E
 176 0267 84CBC4A9 		.ascii	"\204\313\304\251\347\234\001\225\323@\333\345\361\341"
 176      E79C0195 
 176      D340DBE5 
 176      F1E1
 177 0275 808E730E 		.ascii	"\200\216s\016+\234\365\307\273\232\226qzUN\337\377\346"
 177      2B9CF5C7 
 177      BB9A9671 
 177      7A554EDF 
 177      FFE6
 178 0287 EC8CC4D9 		.ascii	"\354\214\304\331\3058\331\226\356&N\003\347\034o\277"
 178      C538D996 
 178      EE264E03 
 178      E71C6FBF 
 179 0297 AE704647 		.ascii	"\256pFG\202\352Q\240f\335\223\022w7\341\010\354qNG\361"
 179      82EA51A0 
 179      66DD9312 
 179      7737E108 
 179      EC714E47 
 180 02ac B619BB50 		.ascii	"\266\031\273P\341\313\326y?\253M\013\030\341\312Re\016"
 180      E1CBD679 
 180      3FAB4D0B 
 180      18E1CA52 
 180      650E
 181 02be 3FC79D62 		.ascii	"?\307\235b\"%\350\007u\216~e\216X\034As<V\346\260\260"
 181      2225E807 
 181      758E7E65 
 181      8E581C41 
 181      733C56E6 
 182 02d4 6962A9CB 		.ascii	"ib\251\313\243t\305a/\2126\271{\033M4\255\016\000~D"
 182      A374C561 
 182      2F8A36B9 
 182      7B1B4D34 
 182      AD0E007E 
 183 02e9 B93110C9 		.ascii	"\2711\020\311\201j\037\235\224\375\321\3766\037D\207"
 183      816A1F9D 
 183      94FDD1FE 
 183      361F4487 
 184 02f9 CEC0C491 		.ascii	"\316\300\304\221\333\022O\311\240\222\222\323\236z\267"
 184      DB124FC9 
 184      A09292D3 
 184      9E7AB7
 185 0308 4923FB49 		.ascii	"I#\373I%\363s2\347Se\322x.1\364\351`U,I\230!\010p\225"
 185      25F37332 
 185      E75365D2 
 185      782E31F4 
 185      E960552C 
 186 0322 2FD6034A 		.ascii	"/\326\003J\326\326T\353E5\324\340K\015t\354\340\232"
ARM GAS  C:\Users\JEFFSN~1\AppData\Local\Temp\ccrjUtdR.s 			page 14


 186      D6D654EB 
 186      4535D4E0 
 186      4B0D74EC 
 186      E09A
 187 0334 0984F900 		.ascii	"\011\204\371\000t\324Z\271\211\342BTbp\015\212\004t"
 187      74D45AB9 
 187      89E24254 
 187      62700D8A 
 187      0474
 188 0346 75495674 		.ascii	"uIVtuz\357\224'\362\301\266\025\003\342C\224k\010\340"
 188      757AEF94 
 188      27F2C1B6 
 188      1503E243 
 188      946B08E0 
 189 035a 0097B441 		.ascii	"\000\227\264A\015\307Y\012\207\215\207c\252\343c>z\023"
 189      0DC7590A 
 189      878D8763 
 189      AAE3633E 
 189      7A13
 190 036c 8E7E52FD 		.ascii	"\216~R\375\2706\206\207\343\224\233\207c\262o!`\321"
 190      B8368687 
 190      E3949B87 
 190      63B26F21 
 190      60D1
 191 037e 16D0A72E 		.ascii	"\026\320\247.\340zX8\222\270\304`M\217\307\314\303\361"
 191      E07A5838 
 191      92B8C460 
 191      4D8FC7CC 
 191      C3F1
 192 0390 04E04658 		.ascii	"\004\340FX8\326T\273\311\302\221\304\231f_\343\222\233"
 192      38D654BB 
 192      C9C291C4 
 192      99665FE3 
 192      929B
 193 03a2 71C489D3 		.ascii	"q\304\211\323\327\216\2329R\223\202T\325\3407j\032?"
 193      D78E9A39 
 193      52938254 
 193      D5E0376A 
 193      1A3F
 194 03b4 AB1AFD61 		.ascii	"\253\032\375aD\311\250\260\202`\255\301\003\014 \031"
 194      44C9A8B0 
 194      8260ADC1 
 194      030C2019 
 195 03c4 235AEA1D 		.ascii	"#Z\352\035\351\213Y=\001\011!\021\267\035\014\262\004"
 195      E98B593D 
 195      01092111 
 195      B71D0CB2 
 195      04
 196 03d5 D85CD246 		.ascii	"\330\\\322F\316;xY)\251-\2212~K\301[\252\343T\356\257"
 196      CE3B7859 
 196      29A92D91 
 196      327E4BC1 
 196      5BAAE354 
 197 03eb BE15F598 		.ascii	"\276\025\365\230\235\333\317Z>w\030n*\225O\313L\260"
 197      9DDBCF5A 
 197      3E77186E 
 197      2A954FCB 
ARM GAS  C:\Users\JEFFSN~1\AppData\Local\Temp\ccrjUtdR.s 			page 15


 197      4CB0
 198 03fd D2CC25D3 		.ascii	"\322\314%\323\326qN\334]qN\274D'\304\220v\342\016C6"
 198      D6714EDC 
 198      5D714EBC 
 198      4427C490 
 198      76E20E43 
 199 0412 83B9FFBC 		.ascii	"\203\271\377\274B\243\275\014Pe\247\360\337\027\302"
 199      42A3BD0C 
 199      5065A7F0 
 199      DF17C2
 200 0421 3D4694C6 		.ascii	"=F\224\306\210\032CKD\351\353 \372eu\242\021\215ht]"
 200      881A434B 
 200      44E9EB20 
 200      FA6575A2 
 200      118D6874 
 201 0436 44F71951 		.ascii	"D\367\031Q:\217\221Jd_\007\321\330\352D\277j\247\375"
 201      3A8F914A 
 201      645F07D1 
 201      D8EA44BF 
 201      6AA7FD
 202 0449 6FE144DA 		.ascii	"o\341D\332\301\246\022i\207\333\357\214\310\316c\324"
 202      C1A61269 
 202      87DBEF8C 
 202      C8CE63D4 
 203 0459 5DA51065 		.ascii	"]\245\020e\254\203h|u\242?\264s\375A8\221v\234\253D"
 203      AC83687C 
 203      75A23FB4 
 203      73FD4138 
 203      91769CAB 
 204 046e DA91FE27 		.ascii	"\332\221\376'#\312P\316\002\277\211n\010N)3R\351Mh\333"
 204      23CA50CE 
 204      02BF896E 
 204      084E2933 
 204      52E94D68 
 205 0483 8C396771 		.ascii	"\2149gq\377\023\376\232N\023\337\370\017\001\376R\013"
 205      FF13FE9A 
 205      4E13DFF8 
 205      0F01FE52 
 205      0B
 206 0494 B9367221 		.ascii	"\2716r!O2\200,r\236\257\270\245S\334[\026\016;%\345"
 206      4F32802C 
 206      729EAFB8 
 206      A553DC5B 
 206      160E3B25 
 207 04a9 3ED4C3EF 		.ascii	">\324\303\357C\027|C\345\222v\037\372[\275\017M\241"
 207      43177C43 
 207      E592761F 
 207      FA5BBD0F 
 207      4DA1
 208 04bb C2D2F567 		.ascii	"\302\322\365g~z\270J\037~\305J\\\345>\222X&\001\013"
 208      7E7AB84A 
 208      1F7EC54A 
 208      5CE53E92 
 208      5826010B 
 209 04cf E264E958 		.ascii	"\342d\351X\300\314\"\\L\3756\230\306\010?d\3023\374"
 209      C0CC225C 
 209      4CFD3698 
ARM GAS  C:\Users\JEFFSN~1\AppData\Local\Temp\ccrjUtdR.s 			page 16


 209      C6083F64 
 209      C233FC
 210 04e2 A2D53AF7 		.ascii	"\242\325:\367\364*\273\233\331\300\012\263\370d\002"
 210      F42ABB9B 
 210      D9C00AB3 
 210      F86402
 211 04f1 4ABCA15C 		.ascii	"J\274\241\\~\227\022\350\242\007t\301\303\340\247\276"
 211      7E9712E8 
 211      A20774C1 
 211      C3E0A7BE 
 212 0501 EED8E7D8 		.ascii	"\356\330\347\330\377n\241c\317\356\274\202\017\367\347"
 212      FF6EA163 
 212      CFEEBC82 
 212      0FF7E7
 213 0510 3B76BD99 		.ascii	";v\275\231W\220\363\312\2567v\344\354\336\276-_0\276"
 213      5790F3CA 
 213      AE3776E4 
 213      ECDEBE2D 
 213      5F30BE
 214 0523 BFAF30AF 		.ascii	"\277\2570\257\020\237[\337\333[\220\377A\256\343\200"
 214      109F5BDF 
 214      DB5B90FF 
 214      41AEE380 
 215 0533 A330E7A3 		.ascii	"\2430\347\243\374\275\216\003\377\002\333\357\326\035"
 215      FCBD8E03 
 215      FF02DBEF 
 215      D61D
 216              		.text
 217              		.section	.gnu.lto_.symbol_nodes.a80ce034,"",%progbits
 218 0000 789C558D 		.ascii	"x\234U\215\313\015\302@\014D\307\353\375d\311O\342\306"
 218      CB0DC240 
 218      0C44C7EB 
 218      FD64C94F 
 218      E2C6
 219 0012 29A107FA 		.ascii	")\241\007\372\363\"\005.\034\240\004\204R\002'\212\240"
 219      F322052E 
 219      1CA00484 
 219      5202278A 
 219      A0
 220 0023 06401C53 		.ascii	"\006@\034S\003b7\022\022{\032\277\361\214\255AX\021"
 220      03623712 
 220      127B1ABF 
 220      F18CAD41 
 220      5811
 221 0035 00A58470 		.ascii	"\000\245\204p\272\003\002\334\302\032\240\"N\311\000"
 221      BA0302DC 
 221      C21AA022 
 221      4EC900
 222 0044 C2B9070C 		.ascii	"\302\271\007\014a\267\214`<\365I\026j\226\222\223(\026"
 222      61B78C60 
 222      3CF54916 
 222      6A969293 
 222      2816
 223 0056 95B59516 		.ascii	"\225\265\225\026\316\014\003\275MueD\347\213\306\244"
 223      CE0C03BD 
 223      4D756544 
 223      E78BC6A4 
ARM GAS  C:\Users\JEFFSN~1\AppData\Local\Temp\ccrjUtdR.s 			page 17


 224 0066 0BE4C4FC 		.ascii	"\013\344\304\374\336\205h\220\025\233q-.\343J\212\214"
 224      DE856890 
 224      159B712D 
 224      2EE34A8A 
 224      8C
 225 0077 5BF1FFCC 		.ascii	"[\361\377\314\250\360~~\210Qb\330O\035\333\006\343#"
 225      A8F07E7E 
 225      885162D8 
 225      4F1DDB06 
 225      E323
 226 0089 B2AD3126 		.ascii	"\262\2551&v\300\353\272agqI1\337b8D\333\307\330\254"
 226      76C0EBBA 
 226      61677149 
 226      31DF6238 
 226      44DBC7D8 
 227 009e 31769C3A 		.ascii	"1v\234:|\001\000\2308\265"
 227      7C010098 
 227      38B5
 228              		.text
 229              		.section	.gnu.lto_.refs.a80ce034,"",%progbits
 230 0000 789C05C1 		.ascii	"x\234\005\301\301\015\2000\014\004\301[\307V\234\203"
 230      C10D8030 
 230      0C04C15B 
 230      C7569C83 
 231 0010 26104279 		.ascii	"&\020By\361\243\377\332\230I\241OR)hb1L\036\324\031"
 231      F1A3FFDA 
 231      9849A14F 
 231      52296862 
 231      314C1ED4 
 232 0025 530D9DBD 		.ascii	"S\015\235\275\360\300\205\247|\311\267\374\310\233x"
 232      F0C085A7 
 232      7CC9B7FC 
 232      C89B78
 233 0034 F50329FA 		.ascii	"\365\003)\372\001\316"
 233      01CE
 234              		.text
 235              		.section	.gnu.lto_.decls.a80ce034,"",%progbits
 236 0000 789C8D57 		.ascii	"x\234\215W[PT\311\031>}zf\230\033\003\245f\343\003I"
 236      5B5054C9 
 236      193E7D7A 
 236      66981B03 
 236      A566E303 
 237 0015 CC86059E 		.ascii	"\314\206\005\236\314\2421e\336\262;\273\331X\331J,Q"
 237      CCA23165 
 237      DEB23BBB 
 237      D958D94A 
 237      2C51
 238 0027 F3B22917 		.ascii	"\363\262)\027q\334L\026\301\035\306\224S\225\207\203"
 238      71DC4C16 
 238      C11DC694 
 238      53958783 
 239 0037 805C7455 		.ascii	"\200\\tU\274\261\"\024(.\313\035\024\360\206\321\221"
 239      BCB12214 
 239      282ECB1D 
 239      14F086D1 
 239      91
 240 0048 55AE82A8 		.ascii	"U\256\202\250D\\.2\212\023ET\024TP\020\362\367\345p"
ARM GAS  C:\Users\JEFFSN~1\AppData\Local\Temp\ccrjUtdR.s 			page 18


 240      445C2E32 
 240      8A134554 
 240      14545010 
 240      F2F7E570 
 241 005c CE4C60CB 		.ascii	"\316L`\313.\3769\335}\276\377\373/\375w\367A# \201\264"
 241      2EFE39DD 
 241      7DBEFFFB 
 241      2FFD77F7 
 241      41232081 
 242 0071 548B2004 		.ascii	"T\213 \004\213\202\020\0012\015M\013skA`(\204\200\224"
 242      8B821001 
 242      320D4D0B 
 242      736B4160 
 242      28848094 
 243 0085 0AAC1941 		.ascii	"\012\254\031A\312A\252@N\200\324\200\234\004\371\036"
 243      CA41AA40 
 243      4E80D480 
 243      9C04F91E 
 244 0095 A409E40A 		.ascii	"\244\011\344\012\310U\220[ :\220\036\220>\220~\220;"
 244      C855905B 
 244      203A901E 
 244      903E907E 
 244      903B
 245 00a7 20F74026 		.ascii	" \367@&\005\337F\270,\334\036qg\212\333\324B\037\203"
 245      05DF46B8 
 245      2CDC1E71 
 245      678ADBD4 
 245      421F83
 246 00ba 84132E78 		.ascii	"\204\023.x6\3023\0001_\352A\364\320\357\346\034\032"
 246      36C23300 
 246      315FEA41 
 246      F4D0EFE6 
 246      1C1A
 247 00cc CED3C47D 		.ascii	"\316\323\304})\347s\376\366\325\215\370o\340v\335\334"
 247      29E773FE 
 247      F6D58DF8 
 247      6FE076DD 
 247      DC
 248 00dd A60138DB 		.ascii	"\246\0018\333U~\030\341\331\312\361\230\353\\\345q\372"
 248      557E18E1 
 248      D9CAF198 
 248      EB5CE571 
 248      FA
 249 00ee B71A151F 		.ascii	"\267\032\025\037\3412!\306K\374-\361\213G\346\253Q\345"
 249      E13221C6 
 249      4BFC2DF1 
 249      8B47E6AB 
 249      51E5
 250 0100 12F1FCA8 		.ascii	"\022\361\374\250\033\311\355OU>\316\003Y\000\022\214"
 250      1BC9ED4F 
 250      553ECE03 
 250      5900128C 
 251 0110 988D3081 		.ascii	"\230\2150\201\361\311\334\262\337\363\340\371\032\236"
 251      F1C9DCB2 
 251      DFF3E0F9 
 251      1A9E
 252 011e 7F01990F 		.ascii	"\177\001\231\017\375.UlrLr\376\210\037c /@Fy\336\210"
ARM GAS  C:\Users\JEFFSN~1\AppData\Local\Temp\ccrjUtdR.s 			page 19


 252      FD2E556C 
 252      724C72FE 
 252      881F6320 
 252      2F404679 
 253 0134 DD5BAA58 		.ascii	"\335[\252XI\035L\362|\252\333\033\021\365\277*\372\303"
 253      491D4CF2 
 253      7CAADB1B 
 253      11F5BF2A 
 253      FAC3
 254 0146 E23209DA 		.ascii	"\3422\011\332\036I\022E\345\305\265\344\252\034\374"
 254      1E491245 
 254      E5C5B5E4 
 254      AA1CFC
 255 0155 5C44F38C 		.ascii	"\\D\363\214H\003\303gm\331\003\026\030.0\242E0|\323"
 255      4803C367 
 255      6DD90316 
 255      182E30A2 
 255      45307CD3 
 256 0169 7C385B5C 		.ascii	"|8[\\x\220\352%I\2134h\355;\250\030\205\240\"\004q\241"
 256      7890EA25 
 256      498B3468 
 256      ED3BA818 
 256      85A02204 
 257 017f 12B4107E 		.ascii	"\022\264\020~\327k\030\323\204\267\362\276\331\234!"
 257      D76B18D3 
 257      84B7F2BE 
 257      D99C21
 258 018e 49DB0876 		.ascii	"I\333\010v^\223\205\274W\241K\221\031}\207\026\013\254"
 258      5E9385BC 
 258      57A14B91 
 258      197D8716 
 258      0BAC
 259 01a0 0B0A0F2F 		.ascii	"\013\012\017/\024\214k0,\000\3643\352\006%\313\273\371"
 259      148C6B30 
 259      2C00F433 
 259      EA0625CB 
 259      BBF9
 260 01b2 9247923C 		.ascii	"\222G\222<=\223?\317L\312\377#U/CXV\202.u\032\225\243"
 260      3D933FCF 
 260      4CCAFF23 
 260      552F4358 
 260      56822E75 
 261 01c9 7741633A 		.ascii	"wAc:\257f\267\276\007\375@f\331\366\020\020b\277\210"
 261      AF66B7BE 
 261      07FD4066 
 261      D9F61010 
 261      62BF88
 262 01dc 8AC0840E 		.ascii	"\212\300\204\016\241#\012\254#O\3154\201CD\271\253\220"
 262      A1230AAC 
 262      234FCD34 
 262      814344B9 
 262      AB90
 263 01ee D13FAE8F 		.ascii	"\321?\256\217\246\345\306Vp\206\035q%6\346\312\002W"
 263      A6E5C656 
 263      70861D71 
 263      2536E6CA 
 263      0257
ARM GAS  C:\Users\JEFFSN~1\AppData\Local\Temp\ccrjUtdR.s 			page 20


 264 0200 42A26200 		.ascii	"B\242b\000\261\241\254\241\342\363\363H\366Y6#\210\362"
 264      B1A1ACA1 
 264      E2F3F348 
 264      F6593623 
 264      88F2
 265 0212 6AE59E29 		.ascii	"j\345\236)\271h\306\313h\312\362\217\2749-\222\224U"
 265      B968C6CB 
 265      68CAF28F 
 265      BC392D92 
 265      9455
 266 0224 499ECC86 		.ascii	"I\236\314\206\337\034L\222\232`\231\026\321\264U*i\253"
 266      DF1C4C92 
 266      9A609916 
 266      D1B4552A 
 266      69AB
 267 0236 A4694315 		.ascii	"\244iC\025\250\007\310\252h\352N\346d~\023\204?\247"
 267      A807C8AA 
 267      68EA4EE6 
 267      647E1384 
 267      3FA7
 268 0248 2CB9D2FE 		.ascii	",\271\322\376i-cqg\267\230\245=\211\222\364{\312q\\"
 268      692D6371 
 268      67B798A5 
 268      3D8992F4 
 268      7BCA715C 
 269 025c E138AEE6 		.ascii	"\3418\256\3468A9\306\313ogi\361&\312q\252\272#\337\000"
 269      384139C6 
 269      CB6F6769 
 269      F126CA71 
 269      AABA23DF 
 270 0271 1CF9C0F1 		.ascii	"\034\371\300\361\272U\315Q\255pT\2539j(\307\350pG\211"
 270      BA55CD51 
 270      AD7054AB 
 270      396A28C7 
 270      E8704789 
 271 0285 0EBB28C7 		.ascii	"\016\273(\307}wN\201\236s\214\264\2539j\025\216Z5\307"
 271      7D774E81 
 271      9E738CB4 
 271      AB396A15 
 271      8E5A35C7 
 272 0299 49CA71E0 		.ascii	"I\312q\340nA\241\031'#J\362\330\233Rm\302\373\350@\274"
 272      6E41A119 
 272      27234AF2 
 272      D89B526D 
 272      C2FBE840 
 273 02ae 7E773C5B 		.ascii	"~w<[\217\314\021sU$:\213\"TEYH\212\334\223\331\2721"
 273      8FCC1173 
 273      55243A8B 
 273      22544559 
 273      488ADC93 
 274 02c5 BB9B64F1 		.ascii	"\273\233d\361\014\2748\255X\006\034[\201\216\013\375"
 274      0CBC38AD 
 274      58061C5B 
 274      818E0BFD 
 275 02d5 937A0D2C 		.ascii	"\223z\015,\010E@\355\303\\e\312\275b=l\232\020#\232"
 275      084540ED 
 275      C35C65CA 
ARM GAS  C:\Users\JEFFSN~1\AppData\Local\Temp\ccrjUtdR.s 			page 21


 275      BD623D6C 
 275      9A10239A 
 276 02e9 4664FCE8 		.ascii	"Fd\374\350\314\253@6&\257\017e\016L\231p=\363\352\306"
 276      CCAB4036 
 276      26AF0F65 
 276      0E4C9970 
 276      3DF3EAC6 
 277 02fd 40E9A006 		.ascii	"@\351\240\006E\030\2519wu\177\210$\351\221\033\031\321"
 277      4518A939 
 277      77757F88 
 277      24E9911B 
 277      19D1
 278 030f 79C55808 		.ascii	"y\305X\0109\300\323\210\333O\217J\272\205\002Z\032\202"
 278      39C0D388 
 278      DB4F8F4A 
 278      BA85025A 
 278      1A82
 279 0321 DE07872F 		.ascii	"\336\007\207/\200\303\300IP\350\337\020\3059\210\002"
 279      80C3C049 
 279      50E8DF10 
 279      C5398802 
 280 0331 F88B3A46 		.ascii	"\370\213:F\232\015\324%\302S\207\250O#-\365\333\002"
 280      9A0DD425 
 280      C25387A8 
 280      4F232DF5 
 280      DB02
 281 0343 D43B97B8 		.ascii	"\324;\227\270\253l\306z\272u/\"\276wo\345\346\235\320"
 281      AB6CC67A 
 281      BA752F22 
 281      BE776FE5 
 281      E69DD0
 282 0356 F0ED777C 		.ascii	"\360\355w|\327\247w\013\266\273\367 \212B\247\024\277"
 282      D7A7770B 
 282      B6BBF720 
 282      8A42A714 
 282      BF
 283 0367 4EC93BF0 		.ascii	"N\311;\360{\232\372\322\232\341\345\370\001\313\274"
 283      7B9AFAD2 
 283      9AE1E5F8 
 283      01CBBC
 284 0376 372B6F48 		.ascii	"7+oH7\343\003K\313\370\271\334nqf\3562\363\253\272\260"
 284      37E3034B 
 284      CBF8B9DC 
 284      6E7166EE 
 284      32F3ABBA 
 285 038b 7AD834E7 		.ascii	"z\3304\347\211\322H\335j\220\335J;\320Vkbn\271O\265"
 285      89D248DD 
 285      6A90DD4A 
 285      3BD0566B 
 285      626EB94F 
 286 03a0 E04352BD 		.ascii	"\340CR\275\206@\320%\305\247K\262OM\324\247\013\203"
 286      8640D025 
 286      C5A74BB2 
 286      4F4DD4A7 
 286      0B83
 287 03b2 2DDF61FC 		.ascii	"-\337a\374jn\247\312\316\366>\322\315i\277\225\332o"
 287      6A6EA7CA 
ARM GAS  C:\Users\JEFFSN~1\AppData\Local\Temp\ccrjUtdR.s 			page 22


 287      CEF63ED2 
 287      CD69BF95 
 287      DA6F
 288 03c4 91ED0F14 		.ascii	"\221\355\017\024\034\336)\333\177\223\312\354\003\004"
 288      1CDE29DB 
 288      7F93CAEC 
 288      0304
 289 03d2 352BF69B 		.ascii	"5+\366\233e\373W\250\375\262\272\334\011=\336-R\373"
 289      65FB57A8 
 289      FDB2BADC 
 289      093DDE2D 
 289      52FB
 290 03e4 1D3B2E27 		.ascii	"\035;.'\005\251m\0217\024c\355>\307g\321\261}Gu\334"
 290      05A96D11 
 290      371463ED 
 290      3EC767D1 
 290      B17D4775 
 291 03f9 D64423B3 		.ascii	"\326D#\263\005\010\324\246\330j\223m]\245\266\362\322"
 291      0508D4A6 
 291      D86A936D 
 291      5DA5B6F2 
 291      D2
 292 040a 0BA634B8 		.ascii	"\013\2464\270\220\331\352k*.%\347x\270\221\036TA\252"
 292      90D9EA6B 
 292      2A2E25E7 
 292      78B8911E 
 292      5441AA
 293 041d 320C6765 		.ascii	"2\014ge\330\322\357\0351\340\032\012\027O\026\344\215"
 293      D8D2EF1D 
 293      31E01A0A 
 293      174F16E4 
 293      8D
 294 042e 6A913122 		.ascii	"j\2211\"M\331\034\202\2623\376\003\205\026\316\013\355"
 294      4DD91C82 
 294      B233FE03 
 294      8516CE0B 
 294      ED
 295 043f 3A4C5E83 		.ascii	":L^\203Iy\177l\312J\205\033\004uB(7\024\327\302\215"
 295      49797F6C 
 295      CA4A851B 
 295      04754228 
 295      3714D7C2 
 296 0454 2C8AC7C3 		.ascii	",\212\307\303ym\0014\345\2353)\1771\232\377P?g\312\273"
 296      796D0134 
 296      E59D3329 
 296      7F319AFF 
 296      503F67CA 
 297 0469 68166ECA 		.ascii	"h\026n\312)o\315\351\272g\226+\261\375_wNH\311\006\202"
 297      296FCDE9 
 297      BA67962B 
 297      B1FD5F77 
 297      4E48C906 
 298 047e 411D8AB1 		.ascii	"A\035\212\261\0169\017\267h\036j=\023\257L\270\216\345"
 298      0E390FB7 
 298      681E6A3D 
 298      13AF4CB8 
 298      8EE5
ARM GAS  C:\Users\JEFFSN~1\AppData\Local\Temp\ccrjUtdR.s 			page 23


 299 0490 E179F2E8 		.ascii	"\341y\362\350M\235\021\302Jz\273\315\263\375\374\320"
 299      4D9D11C2 
 299      4A7ABBCD 
 299      B3FDFCD0 
 300 04a0 6BFC5E81 		.ascii	"k\374^\201t\254\000\202\333\376\263\242\012\320\324"
 300      74AC0082 
 300      DBFEB3A2 
 300      0AD0D4
 301 04af A36E70FE 		.ascii	"\243np\376\007f\220\353\013\374\246\351A\357\201V}i"
 301      076690EB 
 301      0BFCA6E9 
 301      41EF8156 
 301      7D69
 302 04c1 E2D716DC 		.ascii	"\342\327\026\334\310L\016=K\257\242\024I\222\347\331"
 302      C84C0E3D 
 302      4BAFA214 
 302      4992E7D9 
 303 04d1 CDF0BA0A 		.ascii	"\315\360\272\012)\231S\364\372Q\364R\212>J\3610\245"
 303      299953F4 
 303      FA51F452 
 303      8A3E4AF1 
 303      30A5
 304 04e3 2BDB8C27 		.ascii	"+\333\214'\031\305\235\312\206\257\030\203\273\356\005"
 304      19C59DCA 
 304      86AF1883 
 304      BBEE05
 305 04f2 CA92EA13 		.ascii	"\312\222\352\0235\224\340\266\037\301mJ\320O\011\212"
 305      3594E0B6 
 305      1FC16D4A 
 305      D04F098A 
 306 0502 B3BE7DA2 		.ascii	"\263\276}\242\307\231\230\022\324\015\346,\343\004\235"
 306      C7999812 
 306      D40DE62C 
 306      E3049D
 307 0511 7F93CD7B 		.ascii	"\177\223\315{\374\264=T\373\016\325n\357i\372\035\324"
 307      FCB43D54 
 307      FB0ED56E 
 307      EF69FA1D 
 307      D4
 308 0522 06A948A2 		.ascii	"\006\251H\242\177w45\026\0272\256\302b\357K\004d\371"
 308      7F773435 
 308      161732AE 
 308      C262EF4B 
 308      0464F9
 309 0535 47494A42 		.ascii	"GIJB\306\266I\013)n\300\217\216\214\357\222r\271G\031"
 309      C6B6490B 
 309      296EC08F 
 309      8E8CEF92 
 309      72B94719 
 310 0549 4BFA7696 		.ascii	"K\372v\226\006\342\032\306qo\242\374\254\205}V\350\210"
 310      06E21AC6 
 310      716FA2FC 
 310      AC857D56 
 310      E888
 311 055b 7BA7CE35 		.ascii	"{\247\3165h\331g\305\3730<<\3327h`\303\010\0306\037"
 311      68D967C5 
 311      FB303C3C 
ARM GAS  C:\Users\JEFFSN~1\AppData\Local\Temp\ccrjUtdR.s 			page 24


 311      DA376860 
 311      C3081836 
 312 0570 3E5681F1 		.ascii	">V\201\361E\246\371$\331\3531\261w\013a\270\277\272"
 312      45A6F924 
 312      D9EB31B1 
 312      770B61B8 
 312      BFBA
 313 0582 3CC5809B 		.ascii	"<\305\200\233\331\273\353O\257\344\362w\3010\274\355"
 313      D9BBEB4F 
 313      AFE4F277 
 313      C130BCED 
 314 0592 6D805268 		.ascii	"m\200Rhg\357\236\235\315\335\245\303\327\331\240\376"
 314      67EF9E9D 
 314      CDDDA5C3 
 314      D7D9A0FE 
 315 05a2 606FA719 		.ascii	"`o\247\031w\261\301\201\334\341\033\032<@\007z\257t"
 315      77B1C181 
 315      DCE11B1A 
 315      3C40077A 
 315      AF74
 316 05b4 799F0585 		.ascii	"y\237\005\205\206\206\316\017\215\010\015=J\312\337"
 316      8686CE0F 
 316      8D080D3D 
 316      4ACADF
 317 05c3 D3E3093A 		.ascii	"\323\343\011:L\326]G\303\034\206\260\236\243\371r\335"
 317      4CD65D47 
 317      C31C86B0 
 317      9EA3F972 
 317      DD
 318 05d4 FC9A841A 		.ascii	"\374\232\204\032I>\343(\330\375\262\321$U}N\221OfA."
 318      493EE328 
 318      D8FDB2D1 
 318      24557D4E 
 318      914F6641 
 319 05e9 5590530A 		.ascii	"U\220S\012\362\351,\310\007\244\374\205L\376M&\241\257"
 319      F2E92CC8 
 319      07A4FC85 
 319      4CFE4D26 
 319      A1AF
 320 05fb 04741FEA 		.ascii	"\004t\037\352\362\277tW\0200\311\365K\250\332g(\024"
 320      F2BF7457 
 320      1030C9F5 
 320      4BA8DA67 
 320      2814
 321 060d 8D808C83 		.ascii	"\215\200\214\203\214\201\274\000\031E\241t\0130K\223"
 321      8C81BC00 
 321      1945A174 
 321      0B304B93 
 322 061d 8AA5C159 		.ascii	"\212\245\301Y,\025SK\354\306\351k4\223\033\007 \002"
 322      2C15534B 
 322      ECC6E96B 
 322      34931B07 
 322      2002
 323 062f DF4E0ACD 		.ascii	"\337N\012\315Dc`\226\344N\304\224hh\026\242\207H\211"
 323      44636096 
 323      E44EC494 
 323      686816A2 
ARM GAS  C:\Users\JEFFSN~1\AppData\Local\Temp\ccrjUtdR.s 			page 25


 323      874889
 324 0642 6E5CB1F9 		.ascii	"n\\\261\371x\026\350#\012%g\350\340\315\006\015\036"
 324      7816E823 
 324      0A2567E8 
 324      E0CD060D 
 324      1E
 325 0653 A2D917AB 		.ascii	"\242\331\027\253\363z\017i\321\374\210Y\243F\023\020"
 325      F37A0F69 
 325      D1FC8859 
 325      A3461310 
 326 0663 ECDB06CE 		.ascii	"\354\333\006\316\357\317\026D\242y\015J\257\224\363"
 326      EFCF1644 
 326      A2790D4A 
 326      AF94F3
 327 0672 8104476D 		.ascii	"\201\004Gm\237\030K=G+Y\";3\364\3346\2723\011\332\313"
 327      9F184B3D 
 327      472B5922 
 327      3B33F4DC 
 327      36BA3309 
 328 0688 6B59C9B8 		.ascii	"kY\311\270\227n\216IZ\312m\203G\246\003\3604\367\371"
 328      976E8E49 
 328      5ACA6D83 
 328      47A603F0 
 328      34F7F9
 329 069b C0A10301 		.ascii	"\300\241\003\001\354\250\364?S\246g9S\344srM\366\336"
 329      ECA8F43F 
 329      53A66739 
 329      53E47372 
 329      4DF6DE
 330 06ae 44F88E98 		.ascii	"D\370\216\230\202\374\274Q\\\203m\311\\\253\351x\\\251"
 330      82FCBC51 
 330      5C836DC9 
 330      5CABE978 
 330      5CA9
 331 06c0 F5F95A9E 		.ascii	"\365\371Z\236\362\271\034$\321L\2178x\002\372lY\345"
 331      F2B91C24 
 331      D14C8F38 
 331      7802FA6C 
 331      59E5
 332 06d2 37989D6A 		.ascii	"7\230\235jouX\023\225\333R\216\026'kh\014gN\017\225"
 332      6F755813 
 332      95DB528E 
 332      16276B68 
 332      0C674E0F 
 333 06e7 59E418FE 		.ascii	"Y\344\030\376\217!Y\234\343\270ww\377\203\2447I4\242"
 333      8F21599C 
 333      E3B87777 
 333      FF83A437 
 333      4934A2
 334 06fa 6DE24C0C 		.ascii	"m\342L\014\211\"\217\341d\323\265\332\000\237\030\010"
 334      89228FE1 
 334      64D3B5DA 
 334      009F1808 
 335 070a 52892185 		.ascii	"R\211!\205\307\220Bc\350/{\330\251\363A7\372\374\177"
 335      C7904263 
 335      E82F7BD8 
 335      A9F34137 
ARM GAS  C:\Users\JEFFSN~1\AppData\Local\Temp\ccrjUtdR.s 			page 26


 335      FAFC7F
 336 071d B09DA3B7 		.ascii	"\260\235\243\267StA\305\203\315>\340z\037p*\007\247"
 336      537441C5 
 336      83CD3EE0 
 336      7A1F702A 
 336      07A7
 337 072f 52F095CE 		.ascii	"R\360\225\316\326\363\276\216t\373$3\215\243\323(\272"
 337      D6F3BE8E 
 337      74FB2433 
 337      8DA3D328 
 337      BA
 338 0740 E2527A89 		.ascii	"\342Rz\211\350\203n\367\341N\347\350t\346vo\372\200"
 338      E8836EF7 
 338      E14EE7E8 
 338      74E6766F 
 338      FA80
 339 0752 C907DDEA 		.ascii	"\311\007\335\352\203\316\340\350\014\212\336\3219\371"
 339      83CEE0E8 
 339      0C8ADED1 
 339      39F9
 340 0760 810FD8F7 		.ascii	"\201\017\330\367\312\337\301\301;(\370\333\327\023O"
 340      CADFC1C1 
 340      3B28F8DB 
 340      D7134F
 341 076f C99D1D46 		.ascii	"\311\235\035F\356l\254\272\261\303\330\241\\t\244\241"
 341      EE6CACBA 
 341      B1C3D8A1 
 341      5C74A4A1 
 342 077f DA8833E8 		.ascii	"\332\2103\350\022\242\313\323c\356 v\242\212\260\242"
 342      12A2CBD3 
 342      63EE2076 
 342      A28AB0A2 
 343 078f 39FB2F96 		.ascii	"9\373/\226\353\344\013\034\026\325Xd\241\233\016\355"
 343      EBE40B1C 
 343      16D55864 
 343      A19B0EED 
 344 079f 16614533 		.ascii	"\026aE3aE\303\370\212~-\206\240\235\242\274\242\265"
 344      6145C3F8 
 344      8A7E2D86 
 344      A09DA2BC 
 344      A2B5
 345 07b1 EC8B730F 		.ascii	"\354\213s\017,\324.eI\303\310\212\222Irvv?\3173\370"
 345      2CD42E65 
 345      49C3C88A 
 345      92497276 
 345      763FCF33 
 346 07c6 C440368C 		.ascii	"\304@6\214\022\303^\036\303^"
 346      12C35E1E 
 346      C35E
 347 07d0 1AC3D879 		.ascii	"\032\303\330y\357S\337\324w\371\244g\037G\223\247\376"
 347      EF53DFD4 
 347      77F9A467 
 347      1F4793A7 
 347      FE
 348 07e1 933FAF59 		.ascii	"\223?\257Yd\215\214\024\014+\226X\327E\256[\021\265"
 348      648D8C14 
 348      0C2B9658 
ARM GAS  C:\Users\JEFFSN~1\AppData\Local\Temp\ccrjUtdR.s 			page 27


 348      D745AE5B 
 348      11B5
 349 07f3 EA179FD8 		.ascii	"\352\027\237\330\342l\216h\247m\303\272\250\370-\216"
 349      E26C8E68 
 349      A76DC3BA 
 349      A8F82D8E 
 350 0803 18DB672B 		.ascii	"\030\333g+\243\342\255\313>\243\200\305\177\027\214"
 350      A3E2ADCB 
 350      3EA380C5 
 350      7F178C
 351 0812 1C196777 		.ascii	"\034\031gw\37684F03\350\307q\321\353cm&6\210rF;\234"
 351      FE383446 
 351      3033E8C7 
 351      71D1EB63 
 351      6D263688 
 352 082a 46B91FBF 		.ascii	"F\271\037\277\331bu\255\210sF\331\234km1\316x\2079\306"
 352      D96275AD 
 352      887346D9 
 352      9C6B6D31 
 352      CE788739 
 353 083f 654F7044 		.ascii	"eOpDo\330\340\260%$\374r\016\376\030\227\323\265\331"
 353      6FD8E0B0 
 353      2524FC72 
 353      0EFE1897 
 353      D3B5D9
 354 0852 9600CE68 		.ascii	"\226\000\316h\267\330\343\234\313\347\362\303\352\372"
 354      B7D8E39C 
 354      CBE7F2C3 
 354      EAFA
 355 0860 D4BE1E50 		.ascii	"\324\276\036P\301\262\215\225\016{\274\303\356t\375"
 355      C1B28D95 
 355      0E7BBCC3 
 355      EE74FD
 356 086f C4EAFA78 		.ascii	"\304\352\372x\253\335i\205\276=&:6\012L\333\343\343"
 356      ABDD6985 
 356      BE3D263A 
 356      360A4CDB 
 356      E3E3
 357 0881 DE81D938 		.ascii	"\336\201\3318\247\315\3417\035hu}d\213\215vY]1\261\266"
 357      A7CDE137 
 357      1D68757D 
 357      648B8D76 
 357      595D31B1 
 358 0896 041DB1B8 		.ascii	"\004\035\261\270t\011\217&\301\011V\203Y\177S\202\323"
 358      74098F26 
 358      C1095683 
 358      597F5382 
 358      D3
 359 08a7 01D139B7 		.ascii	"\001\3219\267$\374\352\307\362\262n\345\332\325\340"
 359      24FCEAC7 
 359      F2B26EE5 
 359      DAD5E0
 360 08b6 D3024569 		.ascii	"\323\002Ei\325\206\017\267l\\\021\267\301\266U5\371"
 360      D5860FB7 
 360      6C5C11B7 
 360      C1B65535 
 360      F9
ARM GAS  C:\Users\JEFFSN~1\AppData\Local\Temp\ccrjUtdR.s 			page 28


 361 08c7 57873C19 		.ascii	"W\207<\031\310&\355\220\360\265\321\016\236\323\365"
 361      C826ED90 
 361      F0B5D10E 
 361      9ED3F5
 362 08d6 D1315F6E 		.ascii	"\3211_n\331\034\020\023\373\345G\366\177FjH\302p\314"
 362      D91C1013 
 362      FBE547F6 
 362      7F466A48 
 362      C270CC
 363 08e9 C62F345B 		.ascii	"\306/4[\341\307d\243\011'\276\3308b\311|\246\366\341"
 363      E1C764A3 
 363      0927BED8 
 363      3862C97C 
 363      A6F6E1
 364 08fc 07D63FAD 		.ascii	"\007\326?\255Y\271.j\365\2525\326\325\032\207\355\213"
 364      59B92E6A 
 364      F5AA35D6 
 364      D51A87ED 
 364      8B
 365 090d E55AF859 		.ascii	"\345Z\370Y\272\204F\025\371\333\377\001Z\330\037\375"
 365      BA844615 
 365      F9DBFF01 
 365      5AD81FFD 
 366              		.text
 367              		.section	.gnu.lto_.symtab.a80ce034,"",%progbits
 368 0000 4932435F 		.ascii	"I2C_1_Init\000"
 368      315F496E 
 368      697400
 369 000b 00       		.ascii	"\000"
 370 000c 00       		.ascii	"\000"
 371 000d 00       		.ascii	"\000"
 372 000e 00000000 		.ascii	"\000\000\000\000\000\000\000\000"
 372      00000000 
 373 0016 B0000000 		.ascii	"\260\000\000\000"
 374 001a 4932435F 		.ascii	"I2C_1_state\000"
 374      315F7374 
 374      61746500 
 375 0026 00       		.ascii	"\000"
 376 0027 04       		.ascii	"\004"
 377 0028 00       		.ascii	"\000"
 378 0029 01000000 		.ascii	"\001\000\000\000\000\000\000\000"
 378      00000000 
 379 0031 DB000000 		.ascii	"\333\000\000\000"
 380 0035 4932435F 		.ascii	"I2C_1_Enable\000"
 380      315F456E 
 380      61626C65 
 380      00
 381 0042 00       		.ascii	"\000"
 382 0043 00       		.ascii	"\000"
 383 0044 00       		.ascii	"\000"
 384 0045 00000000 		.ascii	"\000\000\000\000\000\000\000\000"
 384      00000000 
 385 004d B2000000 		.ascii	"\262\000\000\000"
 386 0051 4932435F 		.ascii	"I2C_1_Start\000"
 386      315F5374 
 386      61727400 
 387 005d 00       		.ascii	"\000"
ARM GAS  C:\Users\JEFFSN~1\AppData\Local\Temp\ccrjUtdR.s 			page 29


 388 005e 00       		.ascii	"\000"
 389 005f 00       		.ascii	"\000"
 390 0060 00000000 		.ascii	"\000\000\000\000\000\000\000\000"
 390      00000000 
 391 0068 B4000000 		.ascii	"\264\000\000\000"
 392 006c 4932435F 		.ascii	"I2C_1_initVar\000"
 392      315F696E 
 392      69745661 
 392      7200
 393 007a 00       		.ascii	"\000"
 394 007b 00       		.ascii	"\000"
 395 007c 00       		.ascii	"\000"
 396 007d 00000000 		.ascii	"\000\000\000\000\000\000\000\000"
 396      00000000 
 397 0085 E4000000 		.ascii	"\344\000\000\000"
 398 0089 4932435F 		.ascii	"I2C_1_Stop\000"
 398      315F5374 
 398      6F7000
 399 0094 00       		.ascii	"\000"
 400 0095 00       		.ascii	"\000"
 401 0096 00       		.ascii	"\000"
 402 0097 00000000 		.ascii	"\000\000\000\000\000\000\000\000"
 402      00000000 
 403 009f B6000000 		.ascii	"\266\000\000\000"
 404 00a3 4932435F 		.ascii	"I2C_1_ISR\000"
 404      315F4953 
 404      5200
 405 00ad 00       		.ascii	"\000"
 406 00ae 02       		.ascii	"\002"
 407 00af 00       		.ascii	"\000"
 408 00b0 00000000 		.ascii	"\000\000\000\000\000\000\000\000"
 408      00000000 
 409 00b8 AD000000 		.ascii	"\255\000\000\000"
 410 00bc 4932435F 		.ascii	"I2C_1_mstrStatus\000"
 410      315F6D73 
 410      74725374 
 410      61747573 
 410      00
 411 00cd 00       		.ascii	"\000"
 412 00ce 02       		.ascii	"\002"
 413 00cf 00       		.ascii	"\000"
 414 00d0 00000000 		.ascii	"\000\000\000\000\000\000\000\000"
 414      00000000 
 415 00d8 DD000000 		.ascii	"\335\000\000\000"
 416 00dc 4932435F 		.ascii	"I2C_1_mstrRdBufIndex\000"
 416      315F6D73 
 416      74725264 
 416      42756649 
 416      6E646578 
 417 00f1 00       		.ascii	"\000"
 418 00f2 02       		.ascii	"\002"
 419 00f3 00       		.ascii	"\000"
 420 00f4 00000000 		.ascii	"\000\000\000\000\000\000\000\000"
 420      00000000 
 421 00fc DF000000 		.ascii	"\337\000\000\000"
 422 0100 4932435F 		.ascii	"I2C_1_mstrWrBufIndex\000"
 422      315F6D73 
ARM GAS  C:\Users\JEFFSN~1\AppData\Local\Temp\ccrjUtdR.s 			page 30


 422      74725772 
 422      42756649 
 422      6E646578 
 423 0115 00       		.ascii	"\000"
 424 0116 02       		.ascii	"\002"
 425 0117 00       		.ascii	"\000"
 426 0118 00000000 		.ascii	"\000\000\000\000\000\000\000\000"
 426      00000000 
 427 0120 E1000000 		.ascii	"\341\000\000\000"
 428 0124 4932435F 		.ascii	"I2C_1_backup\000"
 428      315F6261 
 428      636B7570 
 428      00
 429 0131 00       		.ascii	"\000"
 430 0132 02       		.ascii	"\002"
 431 0133 00       		.ascii	"\000"
 432 0134 00000000 		.ascii	"\000\000\000\000\000\000\000\000"
 432      00000000 
 433 013c FC000000 		.ascii	"\374\000\000\000"
 434 0140 4379496E 		.ascii	"CyIntSetVector\000"
 434      74536574 
 434      56656374 
 434      6F7200
 435 014f 00       		.ascii	"\000"
 436 0150 02       		.ascii	"\002"
 437 0151 00       		.ascii	"\000"
 438 0152 00000000 		.ascii	"\000\000\000\000\000\000\000\000"
 438      00000000 
 439 015a C3000000 		.ascii	"\303\000\000\000"
 440 015e 4379496E 		.ascii	"CyIntSetPriority\000"
 440      74536574 
 440      5072696F 
 440      72697479 
 440      00
 441 016f 00       		.ascii	"\000"
 442 0170 02       		.ascii	"\002"
 443 0171 00       		.ascii	"\000"
 444 0172 00000000 		.ascii	"\000\000\000\000\000\000\000\000"
 444      00000000 
 445 017a C8000000 		.ascii	"\310\000\000\000"
 446 017e 43794578 		.ascii	"CyExitCriticalSection\000"
 446      69744372 
 446      69746963 
 446      616C5365 
 446      6374696F 
 447 0194 00       		.ascii	"\000"
 448 0195 02       		.ascii	"\002"
 449 0196 00       		.ascii	"\000"
 450 0197 00000000 		.ascii	"\000\000\000\000\000\000\000\000"
 450      00000000 
 451 019f CC000000 		.ascii	"\314\000\000\000"
 452 01a3 4379456E 		.ascii	"CyEnterCriticalSection\000"
 452      74657243 
 452      72697469 
 452      63616C53 
 452      65637469 
 453 01ba 00       		.ascii	"\000"
ARM GAS  C:\Users\JEFFSN~1\AppData\Local\Temp\ccrjUtdR.s 			page 31


 454 01bb 02       		.ascii	"\002"
 455 01bc 00       		.ascii	"\000"
 456 01bd 00000000 		.ascii	"\000\000\000\000\000\000\000\000"
 456      00000000 
 457 01c5 CF000000 		.ascii	"\317\000\000\000"
 458 01c9 43794465 		.ascii	"CyDelayCycles\000"
 458      6C617943 
 458      79636C65 
 458      7300
 459 01d7 00       		.ascii	"\000"
 460 01d8 02       		.ascii	"\002"
 461 01d9 00       		.ascii	"\000"
 462 01da 00000000 		.ascii	"\000\000\000\000\000\000\000\000"
 462      00000000 
 463 01e2 D8000000 		.ascii	"\330\000\000\000"
 464              		.text
 465              		.section	.gnu.lto_.opts,"",%progbits
 466 0000 272D666D 		.ascii	"'-fmath-errno' '-fsigned-zeros' '-ftrapping-math' '"
 466      6174682D 
 466      6572726E 
 466      6F272027 
 466      2D667369 
 467 0033 2D666E6F 		.ascii	"-fno-trapv' '-fno-openmp' '-fno-openacc' '-mcpu=cor"
 467      2D747261 
 467      70762720 
 467      272D666E 
 467      6F2D6F70 
 468 0066 7465782D 		.ascii	"tex-m3' '-mthumb' '-g' '-O3' '-ffunction-sections' "
 468      6D332720 
 468      272D6D74 
 468      68756D62 
 468      2720272D 
 469 0099 272D6666 		.ascii	"'-ffat-lto-objects' '-finline-functions' '-flto'\000"
 469      61742D6C 
 469      746F2D6F 
 469      626A6563 
 469      74732720 
 470              		.text
 471              		.cfi_sections	.debug_frame
 472              		.section	.text.I2C_1_Init,"ax",%progbits
 473              		.align	2
 474              		.global	I2C_1_Init
 475              		.thumb
 476              		.thumb_func
 477              		.type	I2C_1_Init, %function
 478              	I2C_1_Init:
 479              	.LFB0:
 480              		.file 1 "Generated_Source\\PSoC5\\I2C_1.c"
   1:Generated_Source\PSoC5/I2C_1.c **** /*******************************************************************************
   2:Generated_Source\PSoC5/I2C_1.c **** * File Name: I2C_1.c
   3:Generated_Source\PSoC5/I2C_1.c **** * Version 3.50
   4:Generated_Source\PSoC5/I2C_1.c **** *
   5:Generated_Source\PSoC5/I2C_1.c **** * Description:
   6:Generated_Source\PSoC5/I2C_1.c **** *  This file provides the source code of APIs for the I2C component.
   7:Generated_Source\PSoC5/I2C_1.c **** *  The actual protocol and operation code resides in the interrupt service
   8:Generated_Source\PSoC5/I2C_1.c **** *  routine file.
   9:Generated_Source\PSoC5/I2C_1.c **** *
ARM GAS  C:\Users\JEFFSN~1\AppData\Local\Temp\ccrjUtdR.s 			page 32


  10:Generated_Source\PSoC5/I2C_1.c **** *******************************************************************************
  11:Generated_Source\PSoC5/I2C_1.c **** * Copyright 2008-2015, Cypress Semiconductor Corporation. All rights reserved.
  12:Generated_Source\PSoC5/I2C_1.c **** * You may use this file only in accordance with the license, terms, conditions,
  13:Generated_Source\PSoC5/I2C_1.c **** * disclaimers, and limitations in the end user license agreement accompanying
  14:Generated_Source\PSoC5/I2C_1.c **** * the software package with which this file was provided.
  15:Generated_Source\PSoC5/I2C_1.c **** *******************************************************************************/
  16:Generated_Source\PSoC5/I2C_1.c **** 
  17:Generated_Source\PSoC5/I2C_1.c **** #include "I2C_1_PVT.h"
  18:Generated_Source\PSoC5/I2C_1.c **** 
  19:Generated_Source\PSoC5/I2C_1.c **** 
  20:Generated_Source\PSoC5/I2C_1.c **** /**********************************
  21:Generated_Source\PSoC5/I2C_1.c **** *      System variables
  22:Generated_Source\PSoC5/I2C_1.c **** **********************************/
  23:Generated_Source\PSoC5/I2C_1.c **** 
  24:Generated_Source\PSoC5/I2C_1.c **** uint8 I2C_1_initVar = 0u; /* Defines if component was initialized */
  25:Generated_Source\PSoC5/I2C_1.c **** 
  26:Generated_Source\PSoC5/I2C_1.c **** volatile uint8 I2C_1_state;  /* Current state of I2C FSM */
  27:Generated_Source\PSoC5/I2C_1.c **** 
  28:Generated_Source\PSoC5/I2C_1.c **** 
  29:Generated_Source\PSoC5/I2C_1.c **** /*******************************************************************************
  30:Generated_Source\PSoC5/I2C_1.c **** * Function Name: I2C_1_Init
  31:Generated_Source\PSoC5/I2C_1.c **** ********************************************************************************
  32:Generated_Source\PSoC5/I2C_1.c **** *
  33:Generated_Source\PSoC5/I2C_1.c **** * Summary:
  34:Generated_Source\PSoC5/I2C_1.c **** *  Initializes I2C registers with initial values provided from customizer.
  35:Generated_Source\PSoC5/I2C_1.c **** *
  36:Generated_Source\PSoC5/I2C_1.c **** * Parameters:
  37:Generated_Source\PSoC5/I2C_1.c **** *  None.
  38:Generated_Source\PSoC5/I2C_1.c **** *
  39:Generated_Source\PSoC5/I2C_1.c **** * Return:
  40:Generated_Source\PSoC5/I2C_1.c **** *  None.
  41:Generated_Source\PSoC5/I2C_1.c **** *
  42:Generated_Source\PSoC5/I2C_1.c **** * Global variables:
  43:Generated_Source\PSoC5/I2C_1.c **** *  None.
  44:Generated_Source\PSoC5/I2C_1.c **** *
  45:Generated_Source\PSoC5/I2C_1.c **** * Reentrant:
  46:Generated_Source\PSoC5/I2C_1.c **** *  No.
  47:Generated_Source\PSoC5/I2C_1.c **** *
  48:Generated_Source\PSoC5/I2C_1.c **** *******************************************************************************/
  49:Generated_Source\PSoC5/I2C_1.c **** void I2C_1_Init(void) 
  50:Generated_Source\PSoC5/I2C_1.c **** {
 481              		.loc 1 50 0
 482              		.cfi_startproc
 483              		@ args = 0, pretend = 0, frame = 0
 484              		@ frame_needed = 0, uses_anonymous_args = 0
 485 0000 F8B5     		push	{r3, r4, r5, r6, r7, lr}
 486              		.cfi_def_cfa_offset 24
 487              		.cfi_offset 3, -24
 488              		.cfi_offset 4, -20
 489              		.cfi_offset 5, -16
 490              		.cfi_offset 6, -12
 491              		.cfi_offset 7, -8
 492              		.cfi_offset 14, -4
  51:Generated_Source\PSoC5/I2C_1.c **** #if (I2C_1_FF_IMPLEMENTED)
  52:Generated_Source\PSoC5/I2C_1.c ****     /* Configure fixed function block */
  53:Generated_Source\PSoC5/I2C_1.c ****     I2C_1_CFG_REG  = I2C_1_DEFAULT_CFG;
  54:Generated_Source\PSoC5/I2C_1.c ****     I2C_1_XCFG_REG = I2C_1_DEFAULT_XCFG;
ARM GAS  C:\Users\JEFFSN~1\AppData\Local\Temp\ccrjUtdR.s 			page 33


 493              		.loc 1 54 0
 494 0002 124A     		ldr	r2, .L3
  53:Generated_Source\PSoC5/I2C_1.c ****     I2C_1_XCFG_REG = I2C_1_DEFAULT_XCFG;
 495              		.loc 1 53 0
 496 0004 124E     		ldr	r6, .L3+4
  55:Generated_Source\PSoC5/I2C_1.c ****     I2C_1_ADDR_REG = I2C_1_DEFAULT_ADDR;
  56:Generated_Source\PSoC5/I2C_1.c ****     I2C_1_CLKDIV1_REG = LO8(I2C_1_DEFAULT_DIVIDE_FACTOR);
  57:Generated_Source\PSoC5/I2C_1.c ****     I2C_1_CLKDIV2_REG = HI8(I2C_1_DEFAULT_DIVIDE_FACTOR);
  58:Generated_Source\PSoC5/I2C_1.c **** 
  59:Generated_Source\PSoC5/I2C_1.c **** #else
  60:Generated_Source\PSoC5/I2C_1.c ****     uint8 intState;
  61:Generated_Source\PSoC5/I2C_1.c **** 
  62:Generated_Source\PSoC5/I2C_1.c ****     /* Configure control and interrupt sources */
  63:Generated_Source\PSoC5/I2C_1.c ****     I2C_1_CFG_REG      = I2C_1_DEFAULT_CFG;
  64:Generated_Source\PSoC5/I2C_1.c ****     I2C_1_INT_MASK_REG = I2C_1_DEFAULT_INT_MASK;
  65:Generated_Source\PSoC5/I2C_1.c **** 
  66:Generated_Source\PSoC5/I2C_1.c ****     /* Enable interrupt generation in status */
  67:Generated_Source\PSoC5/I2C_1.c ****     intState = CyEnterCriticalSection();
  68:Generated_Source\PSoC5/I2C_1.c ****     I2C_1_INT_ENABLE_REG |= I2C_1_INTR_ENABLE;
  69:Generated_Source\PSoC5/I2C_1.c ****     CyExitCriticalSection(intState);
  70:Generated_Source\PSoC5/I2C_1.c **** 
  71:Generated_Source\PSoC5/I2C_1.c ****     /* Configure bit counter */
  72:Generated_Source\PSoC5/I2C_1.c ****     #if (I2C_1_MODE_SLAVE_ENABLED)
  73:Generated_Source\PSoC5/I2C_1.c ****         I2C_1_PERIOD_REG = I2C_1_DEFAULT_PERIOD;
  74:Generated_Source\PSoC5/I2C_1.c ****     #endif  /* (I2C_1_MODE_SLAVE_ENABLED) */
  75:Generated_Source\PSoC5/I2C_1.c **** 
  76:Generated_Source\PSoC5/I2C_1.c ****     /* Configure clock generator */
  77:Generated_Source\PSoC5/I2C_1.c ****     #if (I2C_1_MODE_MASTER_ENABLED)
  78:Generated_Source\PSoC5/I2C_1.c ****         I2C_1_MCLK_PRD_REG = I2C_1_DEFAULT_MCLK_PRD;
  79:Generated_Source\PSoC5/I2C_1.c ****         I2C_1_MCLK_CMP_REG = I2C_1_DEFAULT_MCLK_CMP;
  80:Generated_Source\PSoC5/I2C_1.c ****     #endif /* (I2C_1_MODE_MASTER_ENABLED) */
  81:Generated_Source\PSoC5/I2C_1.c **** #endif /* (I2C_1_FF_IMPLEMENTED) */
  82:Generated_Source\PSoC5/I2C_1.c **** 
  83:Generated_Source\PSoC5/I2C_1.c **** #if (I2C_1_TIMEOUT_ENABLED)
  84:Generated_Source\PSoC5/I2C_1.c ****     I2C_1_TimeoutInit();
  85:Generated_Source\PSoC5/I2C_1.c **** #endif /* (I2C_1_TIMEOUT_ENABLED) */
  86:Generated_Source\PSoC5/I2C_1.c **** 
  87:Generated_Source\PSoC5/I2C_1.c ****     /* Configure internal interrupt */
  88:Generated_Source\PSoC5/I2C_1.c ****     CyIntDisable    (I2C_1_ISR_NUMBER);
 497              		.loc 1 88 0
 498 0006 134B     		ldr	r3, .L3+8
  55:Generated_Source\PSoC5/I2C_1.c ****     I2C_1_ADDR_REG = I2C_1_DEFAULT_ADDR;
 499              		.loc 1 55 0
 500 0008 1349     		ldr	r1, .L3+12
  56:Generated_Source\PSoC5/I2C_1.c ****     I2C_1_CLKDIV2_REG = HI8(I2C_1_DEFAULT_DIVIDE_FACTOR);
 501              		.loc 1 56 0
 502 000a 1448     		ldr	r0, .L3+16
  57:Generated_Source\PSoC5/I2C_1.c **** 
 503              		.loc 1 57 0
 504 000c 144D     		ldr	r5, .L3+20
  53:Generated_Source\PSoC5/I2C_1.c ****     I2C_1_XCFG_REG = I2C_1_DEFAULT_XCFG;
 505              		.loc 1 53 0
 506 000e 0227     		movs	r7, #2
  54:Generated_Source\PSoC5/I2C_1.c ****     I2C_1_ADDR_REG = I2C_1_DEFAULT_ADDR;
 507              		.loc 1 54 0
 508 0010 8124     		movs	r4, #129
  53:Generated_Source\PSoC5/I2C_1.c ****     I2C_1_XCFG_REG = I2C_1_DEFAULT_XCFG;
ARM GAS  C:\Users\JEFFSN~1\AppData\Local\Temp\ccrjUtdR.s 			page 34


 509              		.loc 1 53 0
 510 0012 3770     		strb	r7, [r6]
  54:Generated_Source\PSoC5/I2C_1.c ****     I2C_1_ADDR_REG = I2C_1_DEFAULT_ADDR;
 511              		.loc 1 54 0
 512 0014 1470     		strb	r4, [r2]
  55:Generated_Source\PSoC5/I2C_1.c ****     I2C_1_CLKDIV1_REG = LO8(I2C_1_DEFAULT_DIVIDE_FACTOR);
 513              		.loc 1 55 0
 514 0016 0827     		movs	r7, #8
  57:Generated_Source\PSoC5/I2C_1.c **** 
 515              		.loc 1 57 0
 516 0018 0024     		movs	r4, #0
 517              		.loc 1 88 0
 518 001a 4FF40042 		mov	r2, #32768
  56:Generated_Source\PSoC5/I2C_1.c ****     I2C_1_CLKDIV2_REG = HI8(I2C_1_DEFAULT_DIVIDE_FACTOR);
 519              		.loc 1 56 0
 520 001e 3126     		movs	r6, #49
  55:Generated_Source\PSoC5/I2C_1.c ****     I2C_1_CLKDIV1_REG = LO8(I2C_1_DEFAULT_DIVIDE_FACTOR);
 521              		.loc 1 55 0
 522 0020 0F70     		strb	r7, [r1]
  56:Generated_Source\PSoC5/I2C_1.c ****     I2C_1_CLKDIV2_REG = HI8(I2C_1_DEFAULT_DIVIDE_FACTOR);
 523              		.loc 1 56 0
 524 0022 0670     		strb	r6, [r0]
  89:Generated_Source\PSoC5/I2C_1.c ****     CyIntSetPriority(I2C_1_ISR_NUMBER, I2C_1_ISR_PRIORITY);
 525              		.loc 1 89 0
 526 0024 0721     		movs	r1, #7
  57:Generated_Source\PSoC5/I2C_1.c **** 
 527              		.loc 1 57 0
 528 0026 2C70     		strb	r4, [r5]
 529              		.loc 1 89 0
 530 0028 0F20     		movs	r0, #15
  88:Generated_Source\PSoC5/I2C_1.c ****     CyIntSetPriority(I2C_1_ISR_NUMBER, I2C_1_ISR_PRIORITY);
 531              		.loc 1 88 0
 532 002a 1A60     		str	r2, [r3]
 533              		.loc 1 89 0
 534 002c FFF7FEFF 		bl	CyIntSetPriority
 535              	.LVL0:
  90:Generated_Source\PSoC5/I2C_1.c ****     #if (I2C_1_INTERN_I2C_INTR_HANDLER)
  91:Generated_Source\PSoC5/I2C_1.c ****         (void) CyIntSetVector(I2C_1_ISR_NUMBER, &I2C_1_ISR);
 536              		.loc 1 91 0
 537 0030 0C49     		ldr	r1, .L3+24
 538 0032 0F20     		movs	r0, #15
 539 0034 FFF7FEFF 		bl	CyIntSetVector
 540              	.LVL1:
  92:Generated_Source\PSoC5/I2C_1.c ****     #endif /* (I2C_1_INTERN_I2C_INTR_HANDLER) */
  93:Generated_Source\PSoC5/I2C_1.c **** 
  94:Generated_Source\PSoC5/I2C_1.c ****     /* Set FSM to default state */
  95:Generated_Source\PSoC5/I2C_1.c ****     I2C_1_state = I2C_1_SM_IDLE;
 541              		.loc 1 95 0
 542 0038 0B48     		ldr	r0, .L3+28
  96:Generated_Source\PSoC5/I2C_1.c **** 
  97:Generated_Source\PSoC5/I2C_1.c **** #if (I2C_1_MODE_SLAVE_ENABLED)
  98:Generated_Source\PSoC5/I2C_1.c ****     /* Clear status and buffers index */
  99:Generated_Source\PSoC5/I2C_1.c ****     I2C_1_slStatus = 0u;
 100:Generated_Source\PSoC5/I2C_1.c ****     I2C_1_slRdBufIndex = 0u;
 101:Generated_Source\PSoC5/I2C_1.c ****     I2C_1_slWrBufIndex = 0u;
 102:Generated_Source\PSoC5/I2C_1.c **** 
 103:Generated_Source\PSoC5/I2C_1.c ****     /* Configure matched address */
ARM GAS  C:\Users\JEFFSN~1\AppData\Local\Temp\ccrjUtdR.s 			page 35


 104:Generated_Source\PSoC5/I2C_1.c ****     I2C_1_SlaveSetAddress(I2C_1_DEFAULT_ADDR);
 105:Generated_Source\PSoC5/I2C_1.c **** #endif /* (I2C_1_MODE_SLAVE_ENABLED) */
 106:Generated_Source\PSoC5/I2C_1.c **** 
 107:Generated_Source\PSoC5/I2C_1.c **** #if (I2C_1_MODE_MASTER_ENABLED)
 108:Generated_Source\PSoC5/I2C_1.c ****     /* Clear status and buffers index */
 109:Generated_Source\PSoC5/I2C_1.c ****     I2C_1_mstrStatus = 0u;
 543              		.loc 1 109 0
 544 003a 0C49     		ldr	r1, .L3+32
 110:Generated_Source\PSoC5/I2C_1.c ****     I2C_1_mstrRdBufIndex = 0u;
 545              		.loc 1 110 0
 546 003c 0C4A     		ldr	r2, .L3+36
 111:Generated_Source\PSoC5/I2C_1.c ****     I2C_1_mstrWrBufIndex = 0u;
 547              		.loc 1 111 0
 548 003e 0D4B     		ldr	r3, .L3+40
  95:Generated_Source\PSoC5/I2C_1.c **** 
 549              		.loc 1 95 0
 550 0040 1025     		movs	r5, #16
 551 0042 0570     		strb	r5, [r0]
 109:Generated_Source\PSoC5/I2C_1.c ****     I2C_1_mstrRdBufIndex = 0u;
 552              		.loc 1 109 0
 553 0044 0C70     		strb	r4, [r1]
 110:Generated_Source\PSoC5/I2C_1.c ****     I2C_1_mstrWrBufIndex = 0u;
 554              		.loc 1 110 0
 555 0046 1470     		strb	r4, [r2]
 556              		.loc 1 111 0
 557 0048 1C70     		strb	r4, [r3]
 558 004a F8BD     		pop	{r3, r4, r5, r6, r7, pc}
 559              	.L4:
 560              		.align	2
 561              	.L3:
 562 004c C8490040 		.word	1073760712
 563 0050 D6490040 		.word	1073760726
 564 0054 80E100E0 		.word	-536813184
 565 0058 CA490040 		.word	1073760714
 566 005c DB490040 		.word	1073760731
 567 0060 DC490040 		.word	1073760732
 568 0064 00000000 		.word	I2C_1_ISR
 569 0068 00000000 		.word	I2C_1_state
 570 006c 00000000 		.word	I2C_1_mstrStatus
 571 0070 00000000 		.word	I2C_1_mstrRdBufIndex
 572 0074 00000000 		.word	I2C_1_mstrWrBufIndex
 573              		.cfi_endproc
 574              	.LFE0:
 575              		.size	I2C_1_Init, .-I2C_1_Init
 576              		.section	.text.I2C_1_Enable,"ax",%progbits
 577              		.align	2
 578              		.global	I2C_1_Enable
 579              		.thumb
 580              		.thumb_func
 581              		.type	I2C_1_Enable, %function
 582              	I2C_1_Enable:
 583              	.LFB1:
 112:Generated_Source\PSoC5/I2C_1.c **** #endif /* (I2C_1_MODE_MASTER_ENABLED) */
 113:Generated_Source\PSoC5/I2C_1.c **** }
 114:Generated_Source\PSoC5/I2C_1.c **** 
 115:Generated_Source\PSoC5/I2C_1.c **** 
 116:Generated_Source\PSoC5/I2C_1.c **** /*******************************************************************************
ARM GAS  C:\Users\JEFFSN~1\AppData\Local\Temp\ccrjUtdR.s 			page 36


 117:Generated_Source\PSoC5/I2C_1.c **** * Function Name: I2C_1_Enable
 118:Generated_Source\PSoC5/I2C_1.c **** ********************************************************************************
 119:Generated_Source\PSoC5/I2C_1.c **** *
 120:Generated_Source\PSoC5/I2C_1.c **** * Summary:
 121:Generated_Source\PSoC5/I2C_1.c **** *  Enables I2C operations.
 122:Generated_Source\PSoC5/I2C_1.c **** *
 123:Generated_Source\PSoC5/I2C_1.c **** * Parameters:
 124:Generated_Source\PSoC5/I2C_1.c **** *  None.
 125:Generated_Source\PSoC5/I2C_1.c **** *
 126:Generated_Source\PSoC5/I2C_1.c **** * Return:
 127:Generated_Source\PSoC5/I2C_1.c **** *  None.
 128:Generated_Source\PSoC5/I2C_1.c **** *
 129:Generated_Source\PSoC5/I2C_1.c **** * Global variables:
 130:Generated_Source\PSoC5/I2C_1.c **** *  None.
 131:Generated_Source\PSoC5/I2C_1.c **** *
 132:Generated_Source\PSoC5/I2C_1.c **** *******************************************************************************/
 133:Generated_Source\PSoC5/I2C_1.c **** void I2C_1_Enable(void) 
 134:Generated_Source\PSoC5/I2C_1.c **** {
 584              		.loc 1 134 0
 585              		.cfi_startproc
 586              		@ args = 0, pretend = 0, frame = 0
 587              		@ frame_needed = 0, uses_anonymous_args = 0
 588 0000 08B5     		push	{r3, lr}
 589              		.cfi_def_cfa_offset 8
 590              		.cfi_offset 3, -8
 591              		.cfi_offset 14, -4
 135:Generated_Source\PSoC5/I2C_1.c **** #if (I2C_1_FF_IMPLEMENTED)
 136:Generated_Source\PSoC5/I2C_1.c ****     uint8 intState;
 137:Generated_Source\PSoC5/I2C_1.c **** 
 138:Generated_Source\PSoC5/I2C_1.c ****     /* Enable power to block */
 139:Generated_Source\PSoC5/I2C_1.c ****     intState = CyEnterCriticalSection();
 592              		.loc 1 139 0
 593 0002 FFF7FEFF 		bl	CyEnterCriticalSection
 594              	.LVL2:
 140:Generated_Source\PSoC5/I2C_1.c ****     I2C_1_ACT_PWRMGR_REG  |= I2C_1_ACT_PWR_EN;
 595              		.loc 1 140 0
 596 0006 0749     		ldr	r1, .L7
 141:Generated_Source\PSoC5/I2C_1.c ****     I2C_1_STBY_PWRMGR_REG |= I2C_1_STBY_PWR_EN;
 597              		.loc 1 141 0
 598 0008 074A     		ldr	r2, .L7+4
 140:Generated_Source\PSoC5/I2C_1.c ****     I2C_1_ACT_PWRMGR_REG  |= I2C_1_ACT_PWR_EN;
 599              		.loc 1 140 0
 600 000a 0B78     		ldrb	r3, [r1]	@ zero_extendqisi2
 601 000c 43F00403 		orr	r3, r3, #4
 602 0010 0B70     		strb	r3, [r1]
 603              		.loc 1 141 0
 604 0012 1378     		ldrb	r3, [r2]	@ zero_extendqisi2
 605 0014 43F00403 		orr	r3, r3, #4
 606 0018 1370     		strb	r3, [r2]
 142:Generated_Source\PSoC5/I2C_1.c ****     CyExitCriticalSection(intState);
 143:Generated_Source\PSoC5/I2C_1.c **** #else
 144:Generated_Source\PSoC5/I2C_1.c ****     #if (I2C_1_MODE_SLAVE_ENABLED)
 145:Generated_Source\PSoC5/I2C_1.c ****         /* Enable bit counter */
 146:Generated_Source\PSoC5/I2C_1.c ****         uint8 intState = CyEnterCriticalSection();
 147:Generated_Source\PSoC5/I2C_1.c ****         I2C_1_COUNTER_AUX_CTL_REG |= I2C_1_CNT7_ENABLE;
 148:Generated_Source\PSoC5/I2C_1.c ****         CyExitCriticalSection(intState);
 149:Generated_Source\PSoC5/I2C_1.c ****     #endif /* (I2C_1_MODE_SLAVE_ENABLED) */
ARM GAS  C:\Users\JEFFSN~1\AppData\Local\Temp\ccrjUtdR.s 			page 37


 150:Generated_Source\PSoC5/I2C_1.c **** 
 151:Generated_Source\PSoC5/I2C_1.c ****     /* Enable slave or master bits */
 152:Generated_Source\PSoC5/I2C_1.c ****     I2C_1_CFG_REG |= I2C_1_ENABLE_MS;
 153:Generated_Source\PSoC5/I2C_1.c **** #endif /* (I2C_1_FF_IMPLEMENTED) */
 154:Generated_Source\PSoC5/I2C_1.c **** 
 155:Generated_Source\PSoC5/I2C_1.c **** #if (I2C_1_TIMEOUT_ENABLED)
 156:Generated_Source\PSoC5/I2C_1.c ****     I2C_1_TimeoutEnable();
 157:Generated_Source\PSoC5/I2C_1.c **** #endif /* (I2C_1_TIMEOUT_ENABLED) */
 158:Generated_Source\PSoC5/I2C_1.c **** }
 607              		.loc 1 158 0
 608 001a BDE80840 		pop	{r3, lr}
 609              		.cfi_restore 14
 610              		.cfi_restore 3
 611              		.cfi_def_cfa_offset 0
 142:Generated_Source\PSoC5/I2C_1.c ****     CyExitCriticalSection(intState);
 612              		.loc 1 142 0
 613 001e FFF7FEBF 		b	CyExitCriticalSection
 614              	.LVL3:
 615              	.L8:
 616 0022 00BF     		.align	2
 617              	.L7:
 618 0024 A5430040 		.word	1073759141
 619 0028 B5430040 		.word	1073759157
 620              		.cfi_endproc
 621              	.LFE1:
 622              		.size	I2C_1_Enable, .-I2C_1_Enable
 623              		.section	.text.I2C_1_Start,"ax",%progbits
 624              		.align	2
 625              		.global	I2C_1_Start
 626              		.thumb
 627              		.thumb_func
 628              		.type	I2C_1_Start, %function
 629              	I2C_1_Start:
 630              	.LFB2:
 159:Generated_Source\PSoC5/I2C_1.c **** 
 160:Generated_Source\PSoC5/I2C_1.c **** 
 161:Generated_Source\PSoC5/I2C_1.c **** /*******************************************************************************
 162:Generated_Source\PSoC5/I2C_1.c **** * Function Name: I2C_1_Start
 163:Generated_Source\PSoC5/I2C_1.c **** ********************************************************************************
 164:Generated_Source\PSoC5/I2C_1.c **** *
 165:Generated_Source\PSoC5/I2C_1.c **** * Summary:
 166:Generated_Source\PSoC5/I2C_1.c **** *  Starts the I2C hardware. Enables Active mode power template bits or clock
 167:Generated_Source\PSoC5/I2C_1.c **** *  gating as appropriate. It is required to be executed before I2C bus
 168:Generated_Source\PSoC5/I2C_1.c **** *  operation.
 169:Generated_Source\PSoC5/I2C_1.c **** *
 170:Generated_Source\PSoC5/I2C_1.c **** * Parameters:
 171:Generated_Source\PSoC5/I2C_1.c **** *  None.
 172:Generated_Source\PSoC5/I2C_1.c **** *
 173:Generated_Source\PSoC5/I2C_1.c **** * Return:
 174:Generated_Source\PSoC5/I2C_1.c **** *  None.
 175:Generated_Source\PSoC5/I2C_1.c **** *
 176:Generated_Source\PSoC5/I2C_1.c **** * Side Effects:
 177:Generated_Source\PSoC5/I2C_1.c **** *  This component automatically enables its interrupt.  If I2C is enabled !
 178:Generated_Source\PSoC5/I2C_1.c **** *  without the interrupt enabled, it can lock up the I2C bus.
 179:Generated_Source\PSoC5/I2C_1.c **** *
 180:Generated_Source\PSoC5/I2C_1.c **** * Global variables:
 181:Generated_Source\PSoC5/I2C_1.c **** *  I2C_1_initVar - This variable is used to check the initial
ARM GAS  C:\Users\JEFFSN~1\AppData\Local\Temp\ccrjUtdR.s 			page 38


 182:Generated_Source\PSoC5/I2C_1.c **** *                             configuration, modified on the first
 183:Generated_Source\PSoC5/I2C_1.c **** *                             function call.
 184:Generated_Source\PSoC5/I2C_1.c **** *
 185:Generated_Source\PSoC5/I2C_1.c **** * Reentrant:
 186:Generated_Source\PSoC5/I2C_1.c **** *  No.
 187:Generated_Source\PSoC5/I2C_1.c **** *
 188:Generated_Source\PSoC5/I2C_1.c **** *******************************************************************************/
 189:Generated_Source\PSoC5/I2C_1.c **** void I2C_1_Start(void) 
 190:Generated_Source\PSoC5/I2C_1.c **** {
 631              		.loc 1 190 0
 632              		.cfi_startproc
 633              		@ args = 0, pretend = 0, frame = 0
 634              		@ frame_needed = 0, uses_anonymous_args = 0
 635 0000 F8B5     		push	{r3, r4, r5, r6, r7, lr}
 636              		.cfi_def_cfa_offset 24
 637              		.cfi_offset 3, -24
 638              		.cfi_offset 4, -20
 639              		.cfi_offset 5, -16
 640              		.cfi_offset 6, -12
 641              		.cfi_offset 7, -8
 642              		.cfi_offset 14, -4
 191:Generated_Source\PSoC5/I2C_1.c ****     if (0u == I2C_1_initVar)
 643              		.loc 1 191 0
 644 0002 1D4D     		ldr	r5, .L13
 645 0004 2C78     		ldrb	r4, [r5]	@ zero_extendqisi2
 646 0006 24BB     		cbnz	r4, .L10
 647              	.LBB6:
 648              	.LBB7:
  53:Generated_Source\PSoC5/I2C_1.c ****     I2C_1_XCFG_REG = I2C_1_DEFAULT_XCFG;
 649              		.loc 1 53 0
 650 0008 1C4B     		ldr	r3, .L13+4
  54:Generated_Source\PSoC5/I2C_1.c ****     I2C_1_ADDR_REG = I2C_1_DEFAULT_ADDR;
 651              		.loc 1 54 0
 652 000a 1D4E     		ldr	r6, .L13+8
  53:Generated_Source\PSoC5/I2C_1.c ****     I2C_1_XCFG_REG = I2C_1_DEFAULT_XCFG;
 653              		.loc 1 53 0
 654 000c 0227     		movs	r7, #2
 655 000e 1F70     		strb	r7, [r3]
  55:Generated_Source\PSoC5/I2C_1.c ****     I2C_1_CLKDIV1_REG = LO8(I2C_1_DEFAULT_DIVIDE_FACTOR);
 656              		.loc 1 55 0
 657 0010 1C4A     		ldr	r2, .L13+12
  54:Generated_Source\PSoC5/I2C_1.c ****     I2C_1_ADDR_REG = I2C_1_DEFAULT_ADDR;
 658              		.loc 1 54 0
 659 0012 8127     		movs	r7, #129
 660 0014 3770     		strb	r7, [r6]
  88:Generated_Source\PSoC5/I2C_1.c ****     CyIntSetPriority(I2C_1_ISR_NUMBER, I2C_1_ISR_PRIORITY);
 661              		.loc 1 88 0
 662 0016 1C4B     		ldr	r3, .L13+16
  56:Generated_Source\PSoC5/I2C_1.c ****     I2C_1_CLKDIV2_REG = HI8(I2C_1_DEFAULT_DIVIDE_FACTOR);
 663              		.loc 1 56 0
 664 0018 1C49     		ldr	r1, .L13+20
  57:Generated_Source\PSoC5/I2C_1.c **** 
 665              		.loc 1 57 0
 666 001a 1D48     		ldr	r0, .L13+24
  55:Generated_Source\PSoC5/I2C_1.c ****     I2C_1_CLKDIV1_REG = LO8(I2C_1_DEFAULT_DIVIDE_FACTOR);
 667              		.loc 1 55 0
 668 001c 0827     		movs	r7, #8
ARM GAS  C:\Users\JEFFSN~1\AppData\Local\Temp\ccrjUtdR.s 			page 39


 669 001e 1770     		strb	r7, [r2]
  56:Generated_Source\PSoC5/I2C_1.c ****     I2C_1_CLKDIV2_REG = HI8(I2C_1_DEFAULT_DIVIDE_FACTOR);
 670              		.loc 1 56 0
 671 0020 3126     		movs	r6, #49
  88:Generated_Source\PSoC5/I2C_1.c ****     CyIntSetPriority(I2C_1_ISR_NUMBER, I2C_1_ISR_PRIORITY);
 672              		.loc 1 88 0
 673 0022 4FF40042 		mov	r2, #32768
  56:Generated_Source\PSoC5/I2C_1.c ****     I2C_1_CLKDIV2_REG = HI8(I2C_1_DEFAULT_DIVIDE_FACTOR);
 674              		.loc 1 56 0
 675 0026 0E70     		strb	r6, [r1]
  57:Generated_Source\PSoC5/I2C_1.c **** 
 676              		.loc 1 57 0
 677 0028 0470     		strb	r4, [r0]
  89:Generated_Source\PSoC5/I2C_1.c ****     #if (I2C_1_INTERN_I2C_INTR_HANDLER)
 678              		.loc 1 89 0
 679 002a 0721     		movs	r1, #7
  88:Generated_Source\PSoC5/I2C_1.c ****     CyIntSetPriority(I2C_1_ISR_NUMBER, I2C_1_ISR_PRIORITY);
 680              		.loc 1 88 0
 681 002c 1A60     		str	r2, [r3]
  89:Generated_Source\PSoC5/I2C_1.c ****     #if (I2C_1_INTERN_I2C_INTR_HANDLER)
 682              		.loc 1 89 0
 683 002e 0F20     		movs	r0, #15
 684 0030 FFF7FEFF 		bl	CyIntSetPriority
 685              	.LVL4:
  91:Generated_Source\PSoC5/I2C_1.c ****     #endif /* (I2C_1_INTERN_I2C_INTR_HANDLER) */
 686              		.loc 1 91 0
 687 0034 1749     		ldr	r1, .L13+28
 688 0036 0F20     		movs	r0, #15
 689 0038 FFF7FEFF 		bl	CyIntSetVector
 690              	.LVL5:
  95:Generated_Source\PSoC5/I2C_1.c **** 
 691              		.loc 1 95 0
 692 003c 164E     		ldr	r6, .L13+32
 109:Generated_Source\PSoC5/I2C_1.c ****     I2C_1_mstrRdBufIndex = 0u;
 693              		.loc 1 109 0
 694 003e 1749     		ldr	r1, .L13+36
 110:Generated_Source\PSoC5/I2C_1.c ****     I2C_1_mstrWrBufIndex = 0u;
 695              		.loc 1 110 0
 696 0040 174A     		ldr	r2, .L13+40
 111:Generated_Source\PSoC5/I2C_1.c **** #endif /* (I2C_1_MODE_MASTER_ENABLED) */
 697              		.loc 1 111 0
 698 0042 184B     		ldr	r3, .L13+44
  95:Generated_Source\PSoC5/I2C_1.c **** 
 699              		.loc 1 95 0
 700 0044 1027     		movs	r7, #16
 701              	.LBE7:
 702              	.LBE6:
 192:Generated_Source\PSoC5/I2C_1.c ****     {
 193:Generated_Source\PSoC5/I2C_1.c ****         I2C_1_Init();
 194:Generated_Source\PSoC5/I2C_1.c ****         I2C_1_initVar = 1u; /* Component initialized */
 703              		.loc 1 194 0
 704 0046 0120     		movs	r0, #1
 705              	.LBB10:
 706              	.LBB8:
  95:Generated_Source\PSoC5/I2C_1.c **** 
 707              		.loc 1 95 0
 708 0048 3770     		strb	r7, [r6]
ARM GAS  C:\Users\JEFFSN~1\AppData\Local\Temp\ccrjUtdR.s 			page 40


 709              	.LBE8:
 710              	.LBE10:
 711              		.loc 1 194 0
 712 004a 2870     		strb	r0, [r5]
 713              	.LBB11:
 714              	.LBB9:
 109:Generated_Source\PSoC5/I2C_1.c ****     I2C_1_mstrRdBufIndex = 0u;
 715              		.loc 1 109 0
 716 004c 0C70     		strb	r4, [r1]
 110:Generated_Source\PSoC5/I2C_1.c ****     I2C_1_mstrWrBufIndex = 0u;
 717              		.loc 1 110 0
 718 004e 1470     		strb	r4, [r2]
 111:Generated_Source\PSoC5/I2C_1.c **** #endif /* (I2C_1_MODE_MASTER_ENABLED) */
 719              		.loc 1 111 0
 720 0050 1C70     		strb	r4, [r3]
 721              	.L10:
 722              	.LBE9:
 723              	.LBE11:
 724              	.LBB12:
 725              	.LBB13:
 139:Generated_Source\PSoC5/I2C_1.c ****     I2C_1_ACT_PWRMGR_REG  |= I2C_1_ACT_PWR_EN;
 726              		.loc 1 139 0
 727 0052 FFF7FEFF 		bl	CyEnterCriticalSection
 728              	.LVL6:
 140:Generated_Source\PSoC5/I2C_1.c ****     I2C_1_STBY_PWRMGR_REG |= I2C_1_STBY_PWR_EN;
 729              		.loc 1 140 0
 730 0056 1449     		ldr	r1, .L13+48
 141:Generated_Source\PSoC5/I2C_1.c ****     CyExitCriticalSection(intState);
 731              		.loc 1 141 0
 732 0058 144A     		ldr	r2, .L13+52
 140:Generated_Source\PSoC5/I2C_1.c ****     I2C_1_STBY_PWRMGR_REG |= I2C_1_STBY_PWR_EN;
 733              		.loc 1 140 0
 734 005a 0B78     		ldrb	r3, [r1]	@ zero_extendqisi2
 735 005c 43F00403 		orr	r3, r3, #4
 736 0060 0B70     		strb	r3, [r1]
 141:Generated_Source\PSoC5/I2C_1.c ****     CyExitCriticalSection(intState);
 737              		.loc 1 141 0
 738 0062 1378     		ldrb	r3, [r2]	@ zero_extendqisi2
 739 0064 43F00403 		orr	r3, r3, #4
 740 0068 1370     		strb	r3, [r2]
 142:Generated_Source\PSoC5/I2C_1.c **** #else
 741              		.loc 1 142 0
 742 006a FFF7FEFF 		bl	CyExitCriticalSection
 743              	.LVL7:
 744              	.LBE13:
 745              	.LBE12:
 195:Generated_Source\PSoC5/I2C_1.c ****     }
 196:Generated_Source\PSoC5/I2C_1.c **** 
 197:Generated_Source\PSoC5/I2C_1.c ****     I2C_1_Enable();
 198:Generated_Source\PSoC5/I2C_1.c ****     I2C_1_EnableInt();
 746              		.loc 1 198 0
 747 006e 104B     		ldr	r3, .L13+56
 748 0070 4FF40042 		mov	r2, #32768
 749 0074 1A60     		str	r2, [r3]
 750 0076 F8BD     		pop	{r3, r4, r5, r6, r7, pc}
 751              	.L14:
 752              		.align	2
ARM GAS  C:\Users\JEFFSN~1\AppData\Local\Temp\ccrjUtdR.s 			page 41


 753              	.L13:
 754 0078 00000000 		.word	.LANCHOR0
 755 007c D6490040 		.word	1073760726
 756 0080 C8490040 		.word	1073760712
 757 0084 CA490040 		.word	1073760714
 758 0088 80E100E0 		.word	-536813184
 759 008c DB490040 		.word	1073760731
 760 0090 DC490040 		.word	1073760732
 761 0094 00000000 		.word	I2C_1_ISR
 762 0098 00000000 		.word	I2C_1_state
 763 009c 00000000 		.word	I2C_1_mstrStatus
 764 00a0 00000000 		.word	I2C_1_mstrRdBufIndex
 765 00a4 00000000 		.word	I2C_1_mstrWrBufIndex
 766 00a8 A5430040 		.word	1073759141
 767 00ac B5430040 		.word	1073759157
 768 00b0 00E100E0 		.word	-536813312
 769              		.cfi_endproc
 770              	.LFE2:
 771              		.size	I2C_1_Start, .-I2C_1_Start
 772              		.section	.text.I2C_1_Stop,"ax",%progbits
 773              		.align	2
 774              		.global	I2C_1_Stop
 775              		.thumb
 776              		.thumb_func
 777              		.type	I2C_1_Stop, %function
 778              	I2C_1_Stop:
 779              	.LFB3:
 199:Generated_Source\PSoC5/I2C_1.c **** }
 200:Generated_Source\PSoC5/I2C_1.c **** 
 201:Generated_Source\PSoC5/I2C_1.c **** 
 202:Generated_Source\PSoC5/I2C_1.c **** /*******************************************************************************
 203:Generated_Source\PSoC5/I2C_1.c **** * Function Name: I2C_1_Stop
 204:Generated_Source\PSoC5/I2C_1.c **** ********************************************************************************
 205:Generated_Source\PSoC5/I2C_1.c **** *
 206:Generated_Source\PSoC5/I2C_1.c **** * Summary:
 207:Generated_Source\PSoC5/I2C_1.c **** *  Disables I2C hardware and disables I2C interrupt. Disables Active mode power
 208:Generated_Source\PSoC5/I2C_1.c **** *  template bits or clock gating as appropriate.
 209:Generated_Source\PSoC5/I2C_1.c **** *
 210:Generated_Source\PSoC5/I2C_1.c **** * Parameters:
 211:Generated_Source\PSoC5/I2C_1.c **** *  None.
 212:Generated_Source\PSoC5/I2C_1.c **** *
 213:Generated_Source\PSoC5/I2C_1.c **** * Return:
 214:Generated_Source\PSoC5/I2C_1.c **** *  None.
 215:Generated_Source\PSoC5/I2C_1.c **** *
 216:Generated_Source\PSoC5/I2C_1.c **** *******************************************************************************/
 217:Generated_Source\PSoC5/I2C_1.c **** void I2C_1_Stop(void) 
 218:Generated_Source\PSoC5/I2C_1.c **** {
 780              		.loc 1 218 0
 781              		.cfi_startproc
 782              		@ args = 0, pretend = 0, frame = 0
 783              		@ frame_needed = 0, uses_anonymous_args = 0
 784 0000 2DE9F843 		push	{r3, r4, r5, r6, r7, r8, r9, lr}
 785              		.cfi_def_cfa_offset 32
 786              		.cfi_offset 3, -32
 787              		.cfi_offset 4, -28
 788              		.cfi_offset 5, -24
 789              		.cfi_offset 6, -20
ARM GAS  C:\Users\JEFFSN~1\AppData\Local\Temp\ccrjUtdR.s 			page 42


 790              		.cfi_offset 7, -16
 791              		.cfi_offset 8, -12
 792              		.cfi_offset 9, -8
 793              		.cfi_offset 14, -4
 219:Generated_Source\PSoC5/I2C_1.c ****     I2C_1_DisableInt();
 794              		.loc 1 219 0
 795 0004 234B     		ldr	r3, .L17
 796              	.LBB14:
 220:Generated_Source\PSoC5/I2C_1.c **** 
 221:Generated_Source\PSoC5/I2C_1.c **** #if (I2C_1_TIMEOUT_ENABLED)
 222:Generated_Source\PSoC5/I2C_1.c ****     I2C_1_TimeoutStop();
 223:Generated_Source\PSoC5/I2C_1.c **** #endif  /* End (I2C_1_TIMEOUT_ENABLED) */
 224:Generated_Source\PSoC5/I2C_1.c **** 
 225:Generated_Source\PSoC5/I2C_1.c **** #if (I2C_1_FF_IMPLEMENTED)
 226:Generated_Source\PSoC5/I2C_1.c ****     {
 227:Generated_Source\PSoC5/I2C_1.c ****         uint8 intState;
 228:Generated_Source\PSoC5/I2C_1.c ****         uint16 blockResetCycles;
 229:Generated_Source\PSoC5/I2C_1.c **** 
 230:Generated_Source\PSoC5/I2C_1.c ****         /* Store registers effected by block disable */
 231:Generated_Source\PSoC5/I2C_1.c ****         I2C_1_backup.addr    = I2C_1_ADDR_REG;
 797              		.loc 1 231 0
 798 0006 DFF8B080 		ldr	r8, .L17+36
 232:Generated_Source\PSoC5/I2C_1.c ****         I2C_1_backup.clkDiv1 = I2C_1_CLKDIV1_REG;
 799              		.loc 1 232 0
 800 000a 234F     		ldr	r7, .L17+4
 233:Generated_Source\PSoC5/I2C_1.c ****         I2C_1_backup.clkDiv2 = I2C_1_CLKDIV2_REG;
 801              		.loc 1 233 0
 802 000c 234E     		ldr	r6, .L17+8
 803              	.LBE14:
 219:Generated_Source\PSoC5/I2C_1.c **** 
 804              		.loc 1 219 0
 805 000e 4FF40049 		mov	r9, #32768
 806 0012 C3F80090 		str	r9, [r3]
 807              	.LBB15:
 231:Generated_Source\PSoC5/I2C_1.c ****         I2C_1_backup.clkDiv1 = I2C_1_CLKDIV1_REG;
 808              		.loc 1 231 0
 809 0016 98F800E0 		ldrb	lr, [r8]	@ zero_extendqisi2
 234:Generated_Source\PSoC5/I2C_1.c **** 
 235:Generated_Source\PSoC5/I2C_1.c ****         /* Calculate number of cycles to reset block */
 236:Generated_Source\PSoC5/I2C_1.c ****         blockResetCycles = ((uint16) ((uint16) I2C_1_CLKDIV2_REG << 8u) | I2C_1_CLKDIV1_REG) + 1u;
 237:Generated_Source\PSoC5/I2C_1.c **** 
 238:Generated_Source\PSoC5/I2C_1.c ****         /* Disable block */
 239:Generated_Source\PSoC5/I2C_1.c ****         I2C_1_CFG_REG &= (uint8) ~I2C_1_CFG_EN_SLAVE;
 810              		.loc 1 239 0
 811 001a 214D     		ldr	r5, .L17+12
 232:Generated_Source\PSoC5/I2C_1.c ****         I2C_1_backup.clkDiv2 = I2C_1_CLKDIV2_REG;
 812              		.loc 1 232 0
 813 001c 3978     		ldrb	r1, [r7]	@ zero_extendqisi2
 233:Generated_Source\PSoC5/I2C_1.c **** 
 814              		.loc 1 233 0
 815 001e 3278     		ldrb	r2, [r6]	@ zero_extendqisi2
 236:Generated_Source\PSoC5/I2C_1.c **** 
 816              		.loc 1 236 0
 817 0020 3078     		ldrb	r0, [r6]	@ zero_extendqisi2
 818 0022 3B78     		ldrb	r3, [r7]	@ zero_extendqisi2
 819              	.LVL8:
 231:Generated_Source\PSoC5/I2C_1.c ****         I2C_1_backup.clkDiv1 = I2C_1_CLKDIV1_REG;
ARM GAS  C:\Users\JEFFSN~1\AppData\Local\Temp\ccrjUtdR.s 			page 43


 820              		.loc 1 231 0
 821 0024 1F4C     		ldr	r4, .L17+16
 240:Generated_Source\PSoC5/I2C_1.c ****         /* Wait for block reset before disable power */
 241:Generated_Source\PSoC5/I2C_1.c ****         CyDelayCycles((uint32) blockResetCycles);
 822              		.loc 1 241 0
 823 0026 43EA0020 		orr	r0, r3, r0, lsl #8
 824              	.LVL9:
 239:Generated_Source\PSoC5/I2C_1.c ****         /* Wait for block reset before disable power */
 825              		.loc 1 239 0
 826 002a 2B78     		ldrb	r3, [r5]	@ zero_extendqisi2
 827              		.loc 1 241 0
 828 002c 0130     		adds	r0, r0, #1
 239:Generated_Source\PSoC5/I2C_1.c ****         /* Wait for block reset before disable power */
 829              		.loc 1 239 0
 830 002e 03F0FE03 		and	r3, r3, #254
 831 0032 2B70     		strb	r3, [r5]
 832              		.loc 1 241 0
 833 0034 80B2     		uxth	r0, r0
 231:Generated_Source\PSoC5/I2C_1.c ****         I2C_1_backup.clkDiv1 = I2C_1_CLKDIV1_REG;
 834              		.loc 1 231 0
 835 0036 84F803E0 		strb	lr, [r4, #3]
 232:Generated_Source\PSoC5/I2C_1.c ****         I2C_1_backup.clkDiv2 = I2C_1_CLKDIV2_REG;
 836              		.loc 1 232 0
 837 003a 2171     		strb	r1, [r4, #4]
 233:Generated_Source\PSoC5/I2C_1.c **** 
 838              		.loc 1 233 0
 839 003c 6271     		strb	r2, [r4, #5]
 840              		.loc 1 241 0
 841 003e FFF7FEFF 		bl	CyDelayCycles
 842              	.LVL10:
 242:Generated_Source\PSoC5/I2C_1.c **** 
 243:Generated_Source\PSoC5/I2C_1.c ****         /* Disable power to block */
 244:Generated_Source\PSoC5/I2C_1.c ****         intState = CyEnterCriticalSection();
 843              		.loc 1 244 0
 844 0042 FFF7FEFF 		bl	CyEnterCriticalSection
 845              	.LVL11:
 245:Generated_Source\PSoC5/I2C_1.c ****         I2C_1_ACT_PWRMGR_REG  &= (uint8) ~I2C_1_ACT_PWR_EN;
 846              		.loc 1 245 0
 847 0046 1849     		ldr	r1, .L17+20
 246:Generated_Source\PSoC5/I2C_1.c ****         I2C_1_STBY_PWRMGR_REG &= (uint8) ~I2C_1_STBY_PWR_EN;
 848              		.loc 1 246 0
 849 0048 184A     		ldr	r2, .L17+24
 245:Generated_Source\PSoC5/I2C_1.c ****         I2C_1_ACT_PWRMGR_REG  &= (uint8) ~I2C_1_ACT_PWR_EN;
 850              		.loc 1 245 0
 851 004a 0B78     		ldrb	r3, [r1]	@ zero_extendqisi2
 852 004c 03F0FB03 		and	r3, r3, #251
 853 0050 0B70     		strb	r3, [r1]
 854              		.loc 1 246 0
 855 0052 1378     		ldrb	r3, [r2]	@ zero_extendqisi2
 856 0054 03F0FB03 		and	r3, r3, #251
 857 0058 1370     		strb	r3, [r2]
 247:Generated_Source\PSoC5/I2C_1.c ****         CyExitCriticalSection(intState);
 858              		.loc 1 247 0
 859 005a FFF7FEFF 		bl	CyExitCriticalSection
 860              	.LVL12:
 248:Generated_Source\PSoC5/I2C_1.c **** 
 249:Generated_Source\PSoC5/I2C_1.c ****         /* Enable block */
ARM GAS  C:\Users\JEFFSN~1\AppData\Local\Temp\ccrjUtdR.s 			page 44


 250:Generated_Source\PSoC5/I2C_1.c ****         I2C_1_CFG_REG |= (uint8) I2C_1_ENABLE_MS;
 861              		.loc 1 250 0
 862 005e 2B78     		ldrb	r3, [r5]	@ zero_extendqisi2
 251:Generated_Source\PSoC5/I2C_1.c **** 
 252:Generated_Source\PSoC5/I2C_1.c ****         /* Restore registers effected by block disable. Ticket ID#198004 */
 253:Generated_Source\PSoC5/I2C_1.c ****         I2C_1_ADDR_REG    = I2C_1_backup.addr;
 254:Generated_Source\PSoC5/I2C_1.c ****         I2C_1_ADDR_REG    = I2C_1_backup.addr;
 255:Generated_Source\PSoC5/I2C_1.c ****         I2C_1_CLKDIV1_REG = I2C_1_backup.clkDiv1;
 863              		.loc 1 255 0
 864 0060 2179     		ldrb	r1, [r4, #4]	@ zero_extendqisi2
 256:Generated_Source\PSoC5/I2C_1.c ****         I2C_1_CLKDIV2_REG = I2C_1_backup.clkDiv2;
 865              		.loc 1 256 0
 866 0062 6279     		ldrb	r2, [r4, #5]	@ zero_extendqisi2
 253:Generated_Source\PSoC5/I2C_1.c ****         I2C_1_ADDR_REG    = I2C_1_backup.addr;
 867              		.loc 1 253 0
 868 0064 94F803E0 		ldrb	lr, [r4, #3]	@ zero_extendqisi2
 250:Generated_Source\PSoC5/I2C_1.c **** 
 869              		.loc 1 250 0
 870 0068 43F00203 		orr	r3, r3, #2
 871 006c 2B70     		strb	r3, [r5]
 253:Generated_Source\PSoC5/I2C_1.c ****         I2C_1_ADDR_REG    = I2C_1_backup.addr;
 872              		.loc 1 253 0
 873 006e 88F800E0 		strb	lr, [r8]
 254:Generated_Source\PSoC5/I2C_1.c ****         I2C_1_CLKDIV1_REG = I2C_1_backup.clkDiv1;
 874              		.loc 1 254 0
 875 0072 88F800E0 		strb	lr, [r8]
 255:Generated_Source\PSoC5/I2C_1.c ****         I2C_1_CLKDIV2_REG = I2C_1_backup.clkDiv2;
 876              		.loc 1 255 0
 877 0076 3970     		strb	r1, [r7]
 878              		.loc 1 256 0
 879 0078 3270     		strb	r2, [r6]
 880              	.LBE15:
 257:Generated_Source\PSoC5/I2C_1.c ****     }
 258:Generated_Source\PSoC5/I2C_1.c **** #else
 259:Generated_Source\PSoC5/I2C_1.c **** 
 260:Generated_Source\PSoC5/I2C_1.c ****     /* Disable slave or master bits */
 261:Generated_Source\PSoC5/I2C_1.c ****     I2C_1_CFG_REG &= (uint8) ~I2C_1_ENABLE_MS;
 262:Generated_Source\PSoC5/I2C_1.c **** 
 263:Generated_Source\PSoC5/I2C_1.c **** #if (I2C_1_MODE_SLAVE_ENABLED)
 264:Generated_Source\PSoC5/I2C_1.c ****     {
 265:Generated_Source\PSoC5/I2C_1.c ****         /* Disable bit counter */
 266:Generated_Source\PSoC5/I2C_1.c ****         uint8 intState = CyEnterCriticalSection();
 267:Generated_Source\PSoC5/I2C_1.c ****         I2C_1_COUNTER_AUX_CTL_REG &= (uint8) ~I2C_1_CNT7_ENABLE;
 268:Generated_Source\PSoC5/I2C_1.c ****         CyExitCriticalSection(intState);
 269:Generated_Source\PSoC5/I2C_1.c ****     }
 270:Generated_Source\PSoC5/I2C_1.c **** #endif /* (I2C_1_MODE_SLAVE_ENABLED) */
 271:Generated_Source\PSoC5/I2C_1.c **** 
 272:Generated_Source\PSoC5/I2C_1.c ****     /* Clear interrupt source register */
 273:Generated_Source\PSoC5/I2C_1.c ****     (void) I2C_1_CSR_REG;
 274:Generated_Source\PSoC5/I2C_1.c **** #endif /* (I2C_1_FF_IMPLEMENTED) */
 275:Generated_Source\PSoC5/I2C_1.c **** 
 276:Generated_Source\PSoC5/I2C_1.c ****     /* Disable interrupt on stop (enabled by write transaction) */
 277:Generated_Source\PSoC5/I2C_1.c ****     I2C_1_DISABLE_INT_ON_STOP;
 881              		.loc 1 277 0
 882 007a 2B78     		ldrb	r3, [r5]	@ zero_extendqisi2
 278:Generated_Source\PSoC5/I2C_1.c ****     I2C_1_ClearPendingInt();
 883              		.loc 1 278 0
ARM GAS  C:\Users\JEFFSN~1\AppData\Local\Temp\ccrjUtdR.s 			page 45


 884 007c 0C48     		ldr	r0, .L17+28
 279:Generated_Source\PSoC5/I2C_1.c **** 
 280:Generated_Source\PSoC5/I2C_1.c ****     /* Reset FSM to default state */
 281:Generated_Source\PSoC5/I2C_1.c ****     I2C_1_state = I2C_1_SM_IDLE;
 885              		.loc 1 281 0
 886 007e 0D4A     		ldr	r2, .L17+32
 277:Generated_Source\PSoC5/I2C_1.c ****     I2C_1_ClearPendingInt();
 887              		.loc 1 277 0
 888 0080 03F0EF03 		and	r3, r3, #239
 889              		.loc 1 281 0
 890 0084 1021     		movs	r1, #16
 277:Generated_Source\PSoC5/I2C_1.c ****     I2C_1_ClearPendingInt();
 891              		.loc 1 277 0
 892 0086 2B70     		strb	r3, [r5]
 278:Generated_Source\PSoC5/I2C_1.c ****     I2C_1_ClearPendingInt();
 893              		.loc 1 278 0
 894 0088 C0F80090 		str	r9, [r0]
 895              		.loc 1 281 0
 896 008c 1170     		strb	r1, [r2]
 897 008e BDE8F883 		pop	{r3, r4, r5, r6, r7, r8, r9, pc}
 898              	.L18:
 899 0092 00BF     		.align	2
 900              	.L17:
 901 0094 80E100E0 		.word	-536813184
 902 0098 DB490040 		.word	1073760731
 903 009c DC490040 		.word	1073760732
 904 00a0 D6490040 		.word	1073760726
 905 00a4 00000000 		.word	I2C_1_backup
 906 00a8 A5430040 		.word	1073759141
 907 00ac B5430040 		.word	1073759157
 908 00b0 80E200E0 		.word	-536812928
 909 00b4 00000000 		.word	I2C_1_state
 910 00b8 CA490040 		.word	1073760714
 911              		.cfi_endproc
 912              	.LFE3:
 913              		.size	I2C_1_Stop, .-I2C_1_Stop
 914              		.comm	I2C_1_state,1,1
 915              		.global	I2C_1_initVar
 916              		.bss
 917              		.set	.LANCHOR0,. + 0
 918              		.type	I2C_1_initVar, %object
 919              		.size	I2C_1_initVar, 1
 920              	I2C_1_initVar:
 921 0000 00       		.space	1
 922              		.text
 923              	.Letext0:
 924              		.file 2 "Generated_Source\\PSoC5\\cytypes.h"
 925              		.file 3 "Generated_Source\\PSoC5\\I2C_1.h"
 926              		.file 4 "Generated_Source\\PSoC5\\I2C_1_PVT.h"
 927              		.file 5 "Generated_Source\\PSoC5\\CyLib.h"