ARM GAS  C:\Users\JEFFSN~1\AppData\Local\Temp\ccmmrF1b.s 			page 1


   1              		.syntax unified
   2              		.cpu cortex-m3
   3              		.fpu softvfp
   4              		.eabi_attribute 20, 1
   5              		.eabi_attribute 21, 1
   6              		.eabi_attribute 23, 3
   7              		.eabi_attribute 24, 1
   8              		.eabi_attribute 25, 1
   9              		.eabi_attribute 26, 1
  10              		.eabi_attribute 30, 1
  11              		.eabi_attribute 34, 1
  12              		.eabi_attribute 18, 4
  13              		.thumb
  14              		.syntax unified
  15              		.file	"I2C_1_PM.c"
  16              		.text
  17              	.Ltext0:
  18              		.section	.gnu.lto_.profile.c7d77bbb,"",%progbits
  19 0000 789C6361 		.ascii	"x\234ca`d`a`\000\222\271\306\000\001w\000\253"
  19      60646061 
  19      600092B9 
  19      C6000177 
  19      00AB
  20              		.text
  21              		.section	.gnu.lto_.inline.c7d77bbb,"",%progbits
  22 0000 789C6361 		.ascii	"x\234ca`d\000\201\002\006\004`a`\340\345ad`\022Y0\207"
  22      60640081 
  22      02060460 
  22      6160E0E5 
  22      61646012 
  23 0017 91816D81 		.ascii	"\221\201m\201<\023H\220\211\201[\014(\306\363 \026."
  23      3C134890 
  23      89815B0C 
  23      28C6F320 
  23      162E
  24 0029 C4C80523 		.ascii	"\304\310\005#\230\031\244D\200\222j\333N!i\340\006J"
  24      9819A444 
  24      80926ADB 
  24      4E2169E0 
  24      064A
  25 003b 4EF00351 		.ascii	"N\360\003Q@\0239\205\201\362\034\277L\260hf\000\000"
  25      40133985 
  25      81F21CBF 
  25      4CB06866 
  25      0000
  26 004d AFF30ACB 		.ascii	"\257\363\012\313"
  27              		.text
  28              		.section	.gnu.lto_.jmpfuncs.c7d77bbb,"",%progbits
  29 0000 789C6361 		.ascii	"x\234ca`d\000\001\021\006\004`\001b&\020\203\031\306"
  29      60640001 
  29      11060460 
  29      01622610 
  29      8319C6
  30 0013 63600000 		.ascii	"c`\000\000\004\027\000'"
  30      04170027 
  31              		.text
  32              		.section	.gnu.lto_.pureconst.c7d77bbb,"",%progbits
ARM GAS  C:\Users\JEFFSN~1\AppData\Local\Temp\ccmmrF1b.s 			page 2


  33 0000 789C6361 		.ascii	"x\234ca`d\340d```a\220b\222b\226b\221\002\000\002\275"
  33      6064E064 
  33      60606061 
  33      90629262 
  33      96629102 
  34 0017 0084     		.ascii	"\000\204"
  35              		.text
  36              		.section	.gnu.lto_I2C_1_SaveConfig.c7d77bbb,"",%progbits
  37 0000 789C9DD3 		.ascii	"x\234\235\323\315k\023A\024\000\360\367f\266\233%X\361"
  37      CD6B1341 
  37      1400F0F7 
  37      66B69B25 
  37      58F1
  38 0012 6E0B225E 		.ascii	"n\013\"^z\261*\370\027\364P<\010\305\\\013Aj\256\026"
  38      7AB12AF8 
  38      17F4503C 
  38      08C55C0B 
  38      416AAE16 
  39 0026 8A82B74C 		.ascii	"\212\202\267L\232.\261\202\245 \346P\220\322\213\375"
  39      9A2EB182 
  39      A520E650 
  39      90D28BFD 
  40 0036 D0A6AD4D 		.ascii	"\320\246\255M\264\251_\233DDDR\012MQ*R<\354!\210\244"
  40      B4A95F9B 
  40      44444452 
  40      0A4D512A 
  40      523CEC21 
  41 004c B68A0A6D 		.ascii	"\266\212\012m|ov\223\024\012A\262\260\263\273\263\373"
  41      7C6F7693 
  41      140A41B2 
  41      B0B3BBB3 
  41      FB
  42 005d DEFCDEEC 		.ascii	"\336\374\336\354\214\001\010|\374\221\000g\350z\222"
  42      8C01087C 
  42      FC910067 
  42      E87A92
  43 006c 4E948062 		.ascii	"N\224\200b\274\010\020\263\004\"\337(\013!*0\212?\305"
  43      BC0810B3 
  43      0422DF28 
  43      0B212A30 
  43      8A3FC5
  44 007f BEC07CC2 		.ascii	"\276\300|\302\315\212\256iE\307\266\355\236S3\016\332"
  44      CD8AAE69 
  44      45C7B6ED 
  44      9E53330E 
  44      DA
  45 0090 145E153A 		.ascii	"\024^\025:\023\3404v\001}\366u\351\340~\2739\302\237"
  45      13E03476 
  45      017DF675 
  45      E9E07EBB 
  45      39C29F
  46 00a3 9DF25EE2 		.ascii	"\235\362^\342\014\232<\334\302\025GU\253q\345,\233\271"
  46      0C9A3CDC 
  46      C2154755 
  46      AB71E52C 
  46      9BB9
  47 00b5 4AE09800 		.ascii	"J\340\230\000[\242\301\215\311\215\305M\220\033\200"
ARM GAS  C:\Users\JEFFSN~1\AppData\Local\Temp\ccmmrF1b.s 			page 3


  47      5BA2C18D 
  47      C98DC54D 
  47      901B80
  48 00c4 0A853160 		.ascii	"\012\2051`G\010\276J\027\363\177\357\274\235\270\305"
  48      4708BE4A 
  48      17F37FEF 
  48      BC9DB8C5 
  49 00d4 99E29231 		.ascii	"\231\342\2221I;\277\026\330\023\266\024\310\203\226"
  49      493BBF16 
  49      D813B614 
  49      C88396
  50 00e3 CA631FA5 		.ascii	"\312c\037\245\367\270y/\246\014\352z\230L%\202\223\370"
  50      F7B8792F 
  50      A60CEA7A 
  50      984C2582 
  50      93F8
  51 00f5 2036424C 		.ascii	" 6BL\211s\330\201\263\330A\232G8\211\340\342pr\252\223"
  51      8973D881 
  51      B3D8419A 
  51      473889E0 
  51      E27072AA 
  52 010a F31D4E66 		.ascii	"\363\035Nf\350d\331\354\267\255@t_\335V\352\004\365"
  52      E864D9EC 
  52      B7AD4074 
  52      5FDD56EA 
  52      04F5
  53 011c 8D5291DC 		.ascii	"\215R\221\334]\376Pz\243\023*\335\337\206\36343\217"
  53      5DFE507A 
  53      A3132ADD 
  53      DF86F334 
  53      338F
  54 012e 3925BD1C 		.ascii	"9%\275\034[Y\034\265\272\347\271j\025\262\245\211)\032"
  54      5B591CB5 
  54      BAE7B96A 
  54      15B2A589 
  54      291A
  55 0140 E5404F0D 		.ascii	"\345@O\015.`7\241A\027Q\254\025\301\304\364x\372\223"
  55      2E6037A1 
  55      411751AC 
  55      15C1C4F4 
  55      78FA93
  56 0153 5FC43B5F 		.ascii	"_\304;_\275\372+]\0124\324\213u\365\322\021\365\377"
  56      BDFA2B5D 
  56      0A34D48B 
  56      75F5D211 
  56      F5FF
  57 0165 329F3463 		.ascii	"2\2374c.k&\377\035L3\323\360\230\2335\246\236\236\370"
  57      2E6B26FF 
  57      1D4C33D3 
  57      F0989B35 
  57      A69E9EF8 
  58 0179 6EEEB8C7 		.ascii	"n\356\270\307|\3573\253\211\\\241\255\301\314\324\231"
  58      7CEF33AB 
  58      895CA1AD 
  58      C1CCD499 
  59 0189 4F5B663E 		.ascii	"O[f>k\306\\\321L\275\230\262\3144=\346\227\032\323\242"
  59      6BC65CD1 
ARM GAS  C:\Users\JEFFSN~1\AppData\Local\Temp\ccmmrF1b.s 			page 4


  59      4CBD98B2 
  59      CC343DE6 
  59      971AD3A2 
  60 019d A0F51F1B 		.ascii	"\240\365\037\033\337}\346\226\317\334-g\266\261\301"
  60      DF7DE696 
  60      CFDC2D67 
  60      B6B1C1
  61 01ac 5CAD339F 		.ascii	"\\\2553\237\267\314|\321\214\371R39\024_1\323\362\230"
  61      B7CC7CD1 
  61      8CF95233 
  61      39145F31 
  61      D3F298
  62 01bf 6E8D19A4 		.ascii	"n\215\031\244\240\275\337w\213\206\307\374\3543SS\205"
  62      A0BDDF77 
  62      8B86C7FC 
  62      EC335353 
  62      85
  63 01d0 CC21E6EB 		.ascii	"\314!\346\353:\323i\231\231k\306\314k\246\301\314\002"
  63      3AD36999 
  63      996BC6CC 
  63      6BA6C1CC 
  63      02
  64 01e1 338350C6 		.ascii	"3\203P\306ag\247\227\307\320{\271B+\202\366\035\315"
  64      6167A797 
  64      C7D07BB9 
  64      422B82F6 
  64      1DCD
  65 01f3 F7E9DEC8 		.ascii	"\367\351\336\310\365\310\320\325\033\221k\341\320\340"
  65      F5C8D0D5 
  65      1B916BE1 
  65      D0E0
  66 0201 CDA18148 		.ascii	"\315\241\201H\177_h\260\347b\377\245\013=\341\363\341"
  66      7F5F68B0 
  66      E762FFA5 
  66      0B3DE1F3 
  66      E1
  67 0212 BECB6707 		.ascii	"\276\313g\007\340\037\216[l\360"
  67      E01F8E5B 
  67      6CF0
  68              		.text
  69              		.section	.gnu.lto_I2C_1_backup.c7d77bbb,"",%progbits
  70 0000 789C6361 		.ascii	"x\234ca`d\000\201^ \206\260\030\030\37621\256\177\263"
  70      60640081 
  70      5E2086B0 
  70      1818FE32 
  70      31AE7FB3 
  71 0014 F327EF17 		.ascii	"\363'\357\027\246Vf\240 \220\273\341\301\335F6\010W"
  71      A65666A0 
  71      2090BBE1 
  71      C1DD4636 
  71      0857
  72 0026 0FC89DB5 		.ascii	"\017\310\235\265\373\313)V\010\227\003\310=\372\377"
  72      FBCB2956 
  72      089703C8 
  72      3DFAFF
  73 0035 FB017E08 		.ascii	"\373\001~\010\227\011\310\335\275r\375s\250\342FF \177"
  73      9709C8DD 
ARM GAS  C:\Users\JEFFSN~1\AppData\Local\Temp\ccmmrF1b.s 			page 5


  73      BD72FD73 
  73      A8E24646 
  73      207F
  74 0047 FAE12F8F 		.ascii	"\372\341/\2179,\2665t,hHhef\374\307\304\300\270\234"
  74      392CB635 
  74      742C6848 
  74      686566FC 
  74      C7C4C0B8 
  75 005c 51E61F13 		.ascii	"Q\346\037\023#\343j\020\305\304\270\012D13\256\004Q"
  75      23E36A10 
  75      C5C4B80A 
  75      443133AE 
  75      0451
  76 006e 2C8C2B40 		.ascii	",\214+@\024+H\011\003\343\032F\013\006\000\221u1\216"
  76      142B4809 
  76      03E31A46 
  76      0B060091 
  76      75318E
  77              		.text
  78              		.section	.gnu.lto_I2C_1_Sleep.c7d77bbb,"",%progbits
  79 0000 789C7590 		.ascii	"x\234u\220\317k\023Q\020\307\347;\357\345\2071\225\036"
  79      CF6B1351 
  79      10C7E73B 
  79      EFE58731 
  79      951E
  80 0012 3D942AE2 		.ascii	"=\224*\342\245\027CE\377\202\202\"\"\024s-\004\251\271"
  80      A5174345 
  80      FF828222 
  80      2214732D 
  80      04A9B9
  81 0025 5A287ACE 		.ascii	"Z(z\316K7K\254\007\361b\274X\202\007i\264\255I\025l"
  81      4B374BAC 
  81      07F162BC 
  81      58820769 
  81      B4AD4915 
  82 003a B7A735F4 		.ascii	"\267\2475\364Vi\361\240\227\202\250`\220\222C#\012Z"
  82      5669F1A0 
  82      9782A860 
  82      90924323 
  82      0A5A
  83 004c 6DE3CC6E 		.ascii	"m\343\314n\017\2028\260\373\336\233\371\314\314\227"
  83      0F8238B0 
  83      FBDE9BF9 
  83      CCCC97
  84 005b AF259046 		.ascii	"\257%\220F\216\211N\313yN>$\010|o\223\250\234f6k\303"
  84      8E894ECB 
  84      794E3E24 
  84      087C6F93 
  84      A89C6636 
  85 0071 E432F65D 		.ascii	"\3442\366]\216\\\326\300\306i\013\350\305\245A%6\026"
  85      8E5CD6C0 
  85      C6690BE8 
  85      C5A54125 
  85      3616
  86 0083 257CE77D 		.ascii	"%|\347}F\273\332\011xd\336I|\370\2740\352\032!|C\324"
  86      46BBDA09 
  86      7864DE49 
ARM GAS  C:\Users\JEFFSN~1\AppData\Local\Temp\ccmmrF1b.s 			page 6


  86      7CF8BC30 
  86      EA1A217C 
  87 0099 E7680561 		.ascii	"\347h\005a\036#$\330\247\345\203\373\003\311\212b'\343"
  87      1E2324D8 
  87      A7E583FB 
  87      03C98A62 
  87      27E3
  88 00ab 221A48AA 		.ascii	"\"\032H\252\216\346\325\320\365\373\236\013{\231W\253"
  88      8EE6D5D0 
  88      F5FB9E0B 
  88      7B9957AB 
  89 00bb 47334CBE 		.ascii	"G3L\276\254\324_B~\234\324\033\321\256t\350\366\036"
  89      ACD45F42 
  89      7E9CD41B 
  89      D1AE74E8 
  89      F61E
  90 00cd B39EA683 		.ascii	"\263\236\246\203\366\336\235\367\213-\350\024\317X\331"
  90      F6DE9DF7 
  90      8B2DE814 
  90      CF58D9
  91 00dc 50F3DB5B 		.ascii	"P\363\333[\251o\354\033\341\345\371\353\301\217F6~>"
  91      A96FEC1B 
  91      E1E5F9EB 
  91      C18F4636 
  91      7E3E
  92 00ee AE969D12 		.ascii	"\256\226\235\022\335\255\275\315cu\314\225+\"\321\342"
  92      DDADBDCD 
  92      6375CC95 
  92      2B22D1E2 
  93 00fe 2986F004 		.ascii	")\206\360\004C\242d\001uP\007\336\357\013\344\031\216"
  93      43A26401 
  93      755007DE 
  93      EF0BE419 
  93      8E
  94 010f C7BDA9B4 		.ascii	"\307\275\251\264\036\032\355\007,\026\005\223\372\313"
  94      1E1AED07 
  94      2C160593 
  94      FACB
  95 011d EABA8D17 		.ascii	"\352\272\215\027&\204\023\250\331\015~\016\304\020a"
  95      268413A8 
  95      D90D7E0E 
  95      C41061
  96 012c 298266BE 		.ascii	")\202f\276\246bD)}\327\036\235\320\304\337\012\023\221"
  96      A6624429 
  96      7DD71E9D 
  96      D0C4DF0A 
  96      1391
  97 013e C220E86E 		.ascii	"\302 \350n\247J\373\356\266s\203\222\233\025\3274\275"
  97      A74AFBEE 
  97      B6738392 
  97      9B15D734 
  97      BD
  98 014f F3FAED7A 		.ascii	"\363\372\355zFU\272(\237DS\254~\246:\245xw\2655\233"
  98      4655BA28 
  98      9F4453AC 
  98      7EA63AA5 
  98      7877B535 
ARM GAS  C:\Users\JEFFSN~1\AppData\Local\Temp\ccmmrF1b.s 			page 7


  99 0164 CE2DA98D 		.ascii	"\316-\251\215.\357\233\024Z\"\375 \362\032\313\310\311"
  99      2EEF9B14 
  99      5A22FD20 
  99      F21ACBC8 
  99      C9
 100 0175 56FA88CA 		.ascii	"V\372\210\312\266\267R;~\250\"\222\245\321cCk\303\346"
 100      B6B7523B 
 100      7EA82292 
 100      A5D16343 
 100      6BC3E6
 101 0188 0BBCB0BE 		.ascii	"\013\274\260\276\221\325\352\277\"\322}\026\263\361"
 101      91D5EABF 
 101      22D27D16 
 101      B3F1
 102 0196 1C25B1FD 		.ascii	"\034%\261\375H\324d#\277\265ke\203\377\333%\012\360"
 102      48D46423 
 102      BFB56B65 
 102      83FFDB25 
 102      0AF0
 103 01a8 E2B06B07 		.ascii	"\342\260k\0073ap9B5ve\244\214\020\342\324\305\342\215"
 103      33617039 
 103      42357665 
 103      A48C10E2 
 103      D4C5E28D 
 104 01bc E2F4B59B 		.ascii	"\342\364\265\233\305\353\205\374\324\255\351\311\342"
 104      C5EB85FC 
 104      D4ADE9C9 
 104      E2
 105 01c9 C4787E6A 		.ascii	"\304x~j\354\374\304\245\263c\205\321\302\370\2253\223"
 105      ECFCC4A5 
 105      B36385D1 
 105      C2F89533 
 105      93
 106 01da F4077B2A 		.ascii	"\364\007{*\313\036"
 106      CB1E
 107              		.text
 108              		.section	.gnu.lto_I2C_1_RestoreConfig.c7d77bbb,"",%progbits
 109 0000 789C95D4 		.ascii	"x\234\225\324KL\023A\030\000\340\371w\266\017Z\312C"
 109      4B4C1341 
 109      1800E0F9 
 109      77B60F5A 
 109      CA43
 110 0012 42B86042 		.ascii	"B\270`BL8p@\004\342\021/\034\214\007\023\002W\022T\344"
 110      4C387040 
 110      04E2112F 
 110      1C8C0713 
 110      02571254 
 111 0027 E00522C1 		.ascii	"\340\005\"\301\233\011\013mEHD\022b\271H\2101\002>\240"
 111      9B090B6D 
 111      45484412 
 111      62B94888 
 111      31023EA0 
 112 003b 9497147C 		.ascii	"\224\227\024|ly(\"\026Q \022\214\002\007B\0324 \205"
 112      6C792822 
 112      16512012 
 112      8C020742 
 112      1A342085 
ARM GAS  C:\Users\JEFFSN~1\AppData\Local\Temp\ccmmrF1b.s 			page 8


 113 004f 880AF59F 		.ascii	"\210\012\365\237\231\245JiH\272\311\316n\247\377\376"
 113      99A54A69 
 113      48BAC9CE 
 113      6EA7FFFE 
 114 005f FDFE7FA6 		.ascii	"\375\376\177\246+\023 \354\270\252'$\035\257g\360\004"
 114      2B1320EC 
 114      B8AA2724 
 114      1DAF67F0 
 114      04
 115 0070 3D01A9C1 		.ascii	"=\001\251\301KH\225Q\222hS\034QL\362N\016Q\242)\350"
 115      4B489551 
 115      9268531C 
 115      514CF24E 
 115      0E51A229 
 116 0085 C4B4BC7F 		.ascii	"\304\264\274\177\243\003`7\212\021H\245De\035T\302\226"
 116      A3036037 
 116      8A1148A5 
 116      44651D54 
 116      C296
 117 0097 B42BC170 		.ascii	"\264+\301p\315\212[JkS\360X|\340\313T\332U\260SB\002"
 117      CD8A5B4A 
 117      6B53F058 
 117      7CE0CB54 
 117      DA55B053 
 118 00ad 12FF3102 		.ascii	"\022\3771\002m\220F0lb\342vG\024M\005v\357\357\367\\"
 118      6D904630 
 118      6C62E276 
 118      47144D05 
 118      76EFEFF7 
 119 00c2 48BDAF28 		.ascii	"H\275\257(\325\212:\357\2654)jU\212\235\002\264\003"
 119      D58A3AEF 
 119      B534296A 
 119      558A9D02 
 119      B403
 120 00d4 C5A7203B 		.ascii	"\305\247 ;\031N%\363g1t\331\265w\307\242\267\261\354"
 120      194E25F3 
 120      673174D9 
 120      B577C7A2 
 120      B7B1EC
 121 00e7 29F01052 		.ascii	")\360\020RE^x\004z,\006\330\2143_U\002\001\253\242\316"
 121      455E7804 
 121      7A2C06D8 
 121      8C335F55 
 121      0201ABA2 
 122 00fc C678BA8F 		.ascii	"\306x\272\217%Qb\247\222\314\006,\015\2776\260[#\033"
 122      255162A7 
 122      92CC062C 
 122      0DBF36B0 
 122      5B231B
 123 010f CC6CB0B0 		.ascii	"\314l\260\260!\226\015\361lH`C\"\033\010Y\307\223U\270"
 123      21960DF1 
 123      6C486043 
 123      221B0859 
 123      C79355B8 
 124 0123 2149EC4A 		.ascii	"!I\354JW`\370W\335\366`\026\3731+\245\210q\330\207\247"
 124      5760F857 
 124      DDF66016 
ARM GAS  C:\Users\JEFFSN~1\AppData\Local\Temp\ccmmrF1b.s 			page 9


 124      FB312BA5 
 124      8871D887 
 125 0138 0C7EC94E 		.ascii	"\014~\311N)/\243urf\310$>\272nT)2N}s\216\326\031[\240"
 125      292FA375 
 125      7266C824 
 125      3EBA6E54 
 125      29324E7D 
 126 0152 B9CA864D 		.ascii	"\271\312\206M\220\341\011$\303c\300b\240\003Z\200\254"
 126      90E10924 
 126      C363C062 
 126      A0035A80 
 126      AC
 127 0163 80F58F5E 		.ascii	"\200\365\217^\244\223E\306i[\327]\312RH C'F.\201m\301"
 127      A49345C6 
 127      695BD75D 
 127      CA524820 
 127      4327462E 
 128 017a 7A498BC1 		.ascii	"zI\213\301\000\347\232{\307\"\002\0108A\364eC\242\244"
 128      00E79A7B 
 128      C7220208 
 128      3841F465 
 128      43A2A4
 129 018d 298EAE82 		.ascii	")\216\256\202U\335\252O\024\301z\014v\273\327\026\014"
 129      55DDAA4F 
 129      14C17A0C 
 129      76BBD716 
 129      0C
 130 019e 95BBCA4D 		.ascii	"\225\273\312ME\211\263S]@b=\352\202J\254OO\226A\342"
 130      4589B353 
 130      5D40623D 
 130      EA824AAC 
 130      4F4F9641 
 131 01b3 6DC39E60 		.ascii	"m\303\236`4\341\325}\031\272.\2366\034ew\205\330\215"
 131      34E1D57D 
 131      19BA2E9E 
 131      361C6577 
 131      85D88D
 132 01c6 227EAE79 		.ascii	"\"~\256y\314af4\031~\003tc(\346t\000\2139*[\017f\303"
 132      CC616634 
 132      197E0374 
 132      6328E674 
 132      008B392A 
 133 01de 1C64156C 		.ascii	"\034d\025l\352\2167\232\205\223CvC\000\027\201@/\332"
 133      EA8E379A 
 133      85934376 
 133      43001781 
 133      402FDA
 134 01f1 116BC7F0 		.ascii	"\021k\307\360\025\250\036\334\370\3721J\020\314\377"
 134      15A81EDC 
 134      F8FA314A 
 134      10CCFF
 135 0200 AF46141C 		.ascii	"\257F\024\034N\020UK\305\006\362M\316\216\232\230C\341"
 135      4E10554B 
 135      C506F24D 
 135      CE8E9A98 
 135      43E1
 136 0212 F326E8C7 		.ascii	"\363&\350\307\215\333\307$\370e\375@W\2551#\235m\276"
ARM GAS  C:\Users\JEFFSN~1\AppData\Local\Temp\ccmmrF1b.s 			page 10


 136      8DDBC724 
 136      F865FD40 
 136      57AD3123 
 136      9D6DBE
 137 0225 A7C8DAE3 		.ascii	"\247\310\332\343{\026\006 \203\227\262\224\244\3252"
 137      7B160620 
 137      8397B294 
 137      A4D532
 138 0234 EBABFF44 		.ascii	"\353\253\377D\305B\3175\212\205nut\326\360\2646L\234"
 138      C542CF35 
 138      8A856E75 
 138      74D6F0B4 
 138      364C9C
 139 0247 4D5889EE 		.ascii	"MX\211\356`\211\203\274D3_)\231\354\344P\206w\371\033"
 139      608983BC 
 139      44335F29 
 139      99ECE450 
 139      8677F91B 
 140 025b CD026F89 		.ascii	"\315\002o\211@;\024^\373\214k\331\377\031\236\357k\217"
 140      403B145E 
 140      FB8C6BD9 
 140      FF199EEF 
 140      6B8F
 141 026d 6BDADE86 		.ascii	"k\332\336\206\336ym\227\216k\332\301\355\336Y\303A\355"
 141      DE796D97 
 141      8E6BDAC1 
 141      EDDE59C3 
 141      41ED
 142 027f 8BA0F625 		.ascii	"\213\240\366%\327ZD\207\203\310\330\010\220jx\244\347"
 142      D75A4487 
 142      83C8D808 
 142      906A78A4 
 142      E7
 143 0290 5F4B8743 		.ascii	"_K\207C\221G\366o\204\213b\271\310\265\265/\212\217"
 143      9147F66F 
 143      848B62B9 
 143      C8B5B52F 
 143      8A8F
 144 02a2 40341A5E 		.ascii	"@4\032^4\306E\374\015\362*T\344\260nzbD\333&\264\266"
 144      34C645FC 
 144      0DF22A54 
 144      E4B06E7A 
 144      6244DB26 
 145 02b8 056A3C23 		.ascii	"\005j<#\272\203\310\327A\3448G\306\213\266\005\221\011"
 145      BA83C8D7 
 145      41E43847 
 145      C68BB605 
 145      9109
 146 02ca 1120DF84 		.ascii	"\021 \337\204GNp${\010\336\206\"\247\177\314|\327\220"
 146      474E7024 
 146      7B08DE86 
 146      22A77FCC 
 146      7CD790
 147 02dd 0B1A72D3 		.ascii	"\013\032r\323\327\267\010\007\221\223A\344;\216L\020"
 147      D7B70807 
 147      919341E4 
 147      3B8E4C10 
ARM GAS  C:\Users\JEFFSN~1\AppData\Local\Temp\ccmmrF1b.s 			page 11


 148 02ed 9DDCDE47 		.ascii	"\235\334\336G&F\200\364\206GNq\244\314\220\357C\221"
 148      264680F4 
 148      86474E71 
 148      A4CC90EF 
 148      4391
 149 02ff FE9FB7BC 		.ascii	"\376\237\267\274\262@~\326\220\235\367F\372B\220\323"
 149      B2407ED6 
 149      909DF746 
 149      FA4290D3 
 150 030f 41E4078E 		.ascii	"A\344\007\216L\344\177\027\035\177\365\372\240Z\355"
 150      4CE47F17 
 150      1D7FF5FA 
 150      A05AED
 151 031e C9E7AF06 		.ascii	"\311\347\257\006v\254\343N\307i\\\267\023gKJK\312/V"
 151      76ACE34E 
 151      C7695CB7 
 151      13674B4A 
 151      4BCA2F56 
 152 0332 945C2E2A 		.ascii	"\224\\.*(\273V^\\R\230WP\226{\272\360\\VnQfQ\336\371"
 152      28BB565E 
 152      5C529857 
 152      50967BBA 
 152      F05C566E 
 153 034b 93C5C478 		.ascii	"\223\305\304x\245\264\242\240\002C\376\002\214\2218"
 153      A5B4A2A0 
 153      0243FE02 
 153      8C9138
 154 035a 3B       		.ascii	";"
 155              		.text
 156              		.section	.gnu.lto_I2C_1_Wakeup.c7d77bbb,"",%progbits
 157 0000 789C7551 		.ascii	"x\234uQ1K[Q\024>\337\2757yQ\242\010YEJqq\250\241\242"
 157      314B5B51 
 157      143EDFBD 
 157      377951A2 
 157      0859454A 
 158 0019 BFC0A174 		.ascii	"\277\300\241t(\210Y\205\320\332\254\012b\347\\}yX\027"
 158      28885985 
 158      D0DAAC0A 
 158      62E75C7D 
 158      795817
 159 002c 71D1ADD8 		.ascii	"q\321\255\330N\332\3326\332\012mR\012\317\340(\355 "
 159      4EDADA36 
 159      DA0A6D52 
 159      0ACFE028 
 159      ED20
 160 003e B6601615 		.ascii	"\266`\026\025\261\305\212\030HE\207\030\317\271\001"
 160      B1C58A18 
 160      48458718 
 160      CFB901
 161 004d 5B100F3C 		.ascii	"[\020\017<\316{\337\371\276{\276\357>C \251\003n\235"
 161      CE7BDFF9 
 161      BE7BBEEF 
 161      3E4320A9 
 161      036E9D
 162 0060 DC7BF941 		.ascii	"\334{\371A\204\240f\277\021M\304\224\322\305\016\262"
 162      84A066BF 
 162      114DC494 
ARM GAS  C:\Users\JEFFSN~1\AppData\Local\Temp\ccmmrF1b.s 			page 12


 162      D2C50EB2 
 163 0070 CDE64792 		.ascii	"\315\346G\222l\\\3034`\003\310\213\215\201\262J\033"
 163      6C5CC334 
 163      6003C88B 
 163      8D81B24A 
 163      1B
 164 0081 64F157D5 		.ascii	"d\361W\325\024JS\207\005\325\265h\271v\203O=v)D\240"
 164      144A5387 
 164      05D5B568 
 164      B976834F 
 164      3D762944 
 165 0096 89EACAAD 		.ascii	"\211\352\312\255 ,\242\213\230\266\277z9\327\022\315"
 165      202CA28B 
 165      98B6BF7A 
 165      39D712CD 
 166 00a6 09ED4E63 		.ascii	"\011\355Nc\210%D\305G~0\264\365\272o\303/\211\365\363"
 166      882544C5 
 166      477E30B4 
 166      F5BA6FC3 
 166      2F89F5F3 
 167 00ba 846728D0 		.ascii	"\204g(\320\014\2372E\326U\224\222\256\177\303\017\277"
 167      0C9F3245 
 167      D6559492 
 167      AE7FC30F 
 167      BF
 168 00cb 6E2911C9 		.ascii	"n)\021\311q\205\302q\331\313\326\354sk\333\002\255\352"
 168      7185C271 
 168      D9CBD6EC 
 168      736BDB02 
 168      ADEA
 169 00dd 8A25788D 		.ascii	"\212%x\215,\2135\035b\262X\251\256yB\366\265a\372|P"
 169      2C8B351D 
 169      62B258A9 
 169      AE7942F6 
 169      B561FA7C 
 170 00f2 FAEE5555 		.ascii	"\372\356UU\300\266o\252\3154\373\025\370hs{\243y\001"
 170      C0B66FAA 
 170      CD34FB15 
 170      F868737B 
 170      A37901
 171 0105 2F26ACC3 		.ascii	"/&\254\303#X\346\220o\320\356\2063\237W\246c\311{\201"
 171      2358E690 
 171      6FD0EE86 
 171      339F57A6 
 171      63C97B81 
 172 0119 8EE22D16 		.ascii	"\216\342-\026p\351\362\341\035\222\264\207\\\331\177"
 172      70E9F2E1 
 172      1D92B487 
 172      5CD97F
 173 0128 F26F59FE 		.ascii	"\362oY\376\270p\321\"\313\000\302{\221\223\344\320T"
 173      B870D122 
 173      CB00C27B 
 173      9193E4D0 
 173      54
 174 0139 EC70317E 		.ascii	"\354p1~n\305o\215\301\247\"\177\035\243T\235=3\302\375"
 174      6EC56F8D 
 174      C1A7227F 
ARM GAS  C:\Users\JEFFSN~1\AppData\Local\Temp\ccmmrF1b.s 			page 13


 174      1DA3549D 
 174      3D33C2FD 
 175 014d 3F82E722 		.ascii	"?\202\347\"\254\275:9\2177>m\311\267\255\014\225\377"
 175      ACBD3A39 
 175      8F373E6D 
 175      C9B7AD0C 
 175      95FF
 176 015f 9CFD8A88 		.ascii	"\234\375\212\210\375\034\377\201\030V\321\216\025\331"
 176      FD1CFF81 
 176      1856D18E 
 176      15D9
 177 016d 8E0FEC97 		.ascii	"\216\017\354\227\347\265\227;\265\210H\232`\255\302"
 177      E7B5973B 
 177      B588489A 
 177      60ADC2
 178 017c 47E7ACA2 		.ascii	"G\347\254\242\214\273\337#L\206\027)\347K\352\224/\224"
 178      8CBBDF23 
 178      4C861729 
 178      E74BEA94 
 178      2F94
 179 018e 61B673F7 		.ascii	"a\266s\367Af$3\366x<\3634\235\032}66\234\031\032H\215"
 179      41662433 
 179      F6783CF3 
 179      349D1A7D 
 179      36369C19 
 180 01a5 F6F70D3D 		.ascii	"\366\367\015=\354\351O\337O\017<\352\036\246+\034\016"
 180      ECE94FDF 
 180      4F0F3CEA 
 180      1EA62B1C 
 180      0E
 181 01b6 BA8C     		.ascii	"\272\214"
 182              		.text
 183              		.section	.gnu.lto_.symbol_nodes.c7d77bbb,"",%progbits
 184 0000 789C5589 		.ascii	"x\234U\211+\016\002A\024\004k^\317g5\232\004\270\303"
 184      2B0E0241 
 184      14046B5E 
 184      CF67359A 
 184      04B8C3
 185 0013 DEEF0D64 		.ascii	"\336\357\015d\203\346\014\004\205_\205G\302\025\020"
 185      83E60C04 
 185      855F8547 
 185      C21510
 186 0022 C8BD0284 		.ascii	"\310\275\002\204\005\305\264\351TU$pa\236\005\207\303"
 186      05C5B4E9 
 186      54552470 
 186      619E0587 
 186      C3
 187 0033 0DE63BD7 		.ascii	"\015\346;\327\015$\330.\276\301<4\301\344\326\212\350"
 187      0D24D82E 
 187      BEC13C34 
 187      C1E4D68A 
 187      E8
 188 0044 6A44481E 		.ascii	"jDH\036\177\002j]\317\\<5\234=7\334y\371gY\3429\366"
 188      7F026A5D 
 188      CF5C3C35 
 188      9C3D37DC 
 188      79F96759 
ARM GAS  C:\Users\JEFFSN~1\AppData\Local\Temp\ccmmrF1b.s 			page 14


 189 005b 32D8EDA7 		.ascii	"2\330\355\247\225T\030^K)s\272\336\245(\216\217wP\354"
 189      9554185E 
 189      4B2973BA 
 189      DEA5288E 
 189      8F7750EC 
 190 006f 18C69E0F 		.ascii	"\030\306\236\017%\012(\035"
 190      250A281D 
 191              		.text
 192              		.section	.gnu.lto_.refs.c7d77bbb,"",%progbits
 193 0000 789C15C7 		.ascii	"x\234\025\307Q\012\000\020\024\000\301]\036I\222\344"
 193      510A0010 
 193      1400C15D 
 193      1E4992E4 
 194 0010 20EE7F3A 		.ascii	" \356\177:\231\277\011\344\002\005M\032Z\265i\377+5"
 194      99BF09E4 
 194      02054D1A 
 194      5AB569FF 
 194      2B35
 195 0022 63C78113 		.ascii	"c\307\201\023\027n<\006&\036\030\361\000\336"
 195      176E3C06 
 195      261E18F1 
 195      00DE
 196              		.text
 197              		.section	.gnu.lto_.decls.c7d77bbb,"",%progbits
 198 0000 789C8D55 		.ascii	"x\234\215UiLTW\024~g\356\3140\014\203\030i\215?HJ\015"
 198      694C5457 
 198      147E67EE 
 198      CC300C83 
 198      18698D3F 
 199 0017 06922654 		.ascii	"\006\222&T M\374W\353\324Jc\027#j\377\230P\300\321N"
 199      204DFC57 
 199      EBD44A63 
 199      17236AFF 
 199      9850C0D1 
 200 002c 24407030 		.ascii	"$@p0\222\376\350C\260\266j\214\330\002\262Y\\\252\354"
 200      92FEE843 
 200      B0B66A8C 
 200      D802B259 
 200      5CAAEC
 201 003f 20A3A2E0 		.ascii	" \243\242\3402@eS\220E\241\212\300 P\031\245\002b\215"
 201      32406553 
 201      9045A18A 
 201      C0205019 
 201      A502628D 
 202 0053 C4AA3DF7 		.ascii	"\304\252=\367\276;\274\007\2351^8\363\336\271\357;\337"
 202      BE3BBC07 
 202      9D315E38 
 202      F3DEB9EF 
 202      3BDF
 203 0065 D9EEA216 		.ascii	"\331\356\242\026@\240\343k\275 |\217\257:\225 \274\306"
 203      40A0E36B 
 203      BD207C8F 
 203      AF3A9520 
 203      BCC6
 204 0077 A1C5B94D 		.ascii	"\241\305\271M\202<t(e(\025(gP\254(\347P\256\240\324"
 204      823C7428 
 204      65281528 
ARM GAS  C:\Users\JEFFSN~1\AppData\Local\Temp\ccmmrF1b.s 			page 15


 204      6750AC28 
 204      E750AEA0 
 205 008c A134A050 		.ascii	"\2414\240P\246>a\356\2406\036\234\313\017\305\2162\200"
 205      A63E61EE 
 205      A0361E9C 
 205      CB0FC58E 
 205      3280
 206 009e 32847217 		.ascii	"2\204r\027\245\026E\203\322\213\322\211\322\203\322"
 206      A5164583 
 206      D28BD289 
 206      D283D2
 207 00ad 8DD2C5F9 		.ascii	"\215\322\305\371\312\334\360R]\3059)\017\215\267\203"
 207      CADCF052 
 207      5DC53929 
 207      0F8DB783 
 208 00bd 73F4CEE3 		.ascii	"s\364\316\343q5h\036zE\\\303nb{\200R\312c\240\374\204"
 208      7135681E 
 208      7A455CC3 
 208      6E627B80 
 208      52CA63A0 
 209 00d3 DB9E7B43 		.ascii	"\333\236{Cl\264>^\234\273v^\336c(6\024\007\312e\205"
 209      6CB43E5E 
 209      9CBB765E 
 209      DE632836 
 209      1407CA65 
 210 00e8 2F773520 		.ascii	"/w5 \234\217\326\370\212\033\177\326y\2718cV\3461\215"
 210      9C8FD6F8 
 210      8A1B7FD6 
 210      79B93863 
 210      56E6318D 
 211 00fc F2042570 		.ascii	"\362\004%p^.V\316\357\256\177/U\220Ww\264A\323\007w"
 211      5E2E56CE 
 211      EFAE7F2F 
 211      55905777 
 211      B441D307 
 212 0111 00046043 		.ascii	"\000\004`C\340kF\2403\374I_@RT\002\347\002'\210\243"
 212      E06B46A0 
 212      33FC495F 
 212      40525402 
 212      E7022788 
 213 0126 D91FFEAB 		.ascii	"\331\037\376\253\030~v\336\211\233\365\371\3329\344"
 213      187E76DE 
 213      899BF5F9 
 213      DA39E4
 214 0135 29981D4E 		.ascii	")\230\035N$\314%\245\254\262\212\272J6P\360\361\350"
 214      24CC25A5 
 214      ACB28ABA 
 214      4A3650F0 
 214      F1E8
 215 0147 B97F50BA 		.ascii	"\271\177P\272e\324\304\231\364T\366\343\225\004)\361"
 215      65D4C499 
 215      F454F6E3 
 215      950429F1 
 216 0157 7570A6F0 		.ascii	"up\246\360\263\340R\021\307!QT} \027\2463\2552\217<"
 216      B3E05211 
 216      C7215154 
 216      7D2017A6 
ARM GAS  C:\Users\JEFFSN~1\AppData\Local\Temp\ccmmrF1b.s 			page 16


 216      33AD328F 
 217 016c 55C1223D 		.ascii	"U\301\"=\250\251I[\316\360\002T\337\321\203?\252/[r"
 217      A8A9495B 
 217      CEF00254 
 217      DFD1833F 
 217      AA2F5B72 
 218 0180 73544B32 		.ascii	"sTK2\231]\252\350\257\206M\213\241\004\374\240\030\260"
 218      995DAAE8 
 218      AF864D8B 
 218      A104FCA0 
 218      18B0
 219 0192 47500A4B 		.ascii	"GP\012K\3607Z-1\355+/\330\272\264@\264W\212\366\031"
 219      F0375A2D 
 219      31ED2B2F 
 219      D8BAB440 
 219      B4578AF6 
 220 01a7 BB213355 		.ascii	"\273!3UlF+\177\012\202B P\004\3014@|\245\217\323\320"
 220      6C462B7F 
 220      0A824220 
 220      5004C134 
 220      407CA58F 
 221 01bd 87A197C1 		.ascii	"\207\241\227\301R4<V\327~\326\233|\314\342,rL>P#KA\245"
 221      52343C56 
 221      D77ED69B 
 221      7CCCE22C 
 221      724C3E50 
 222 01d5 681B6835 		.ascii	"h\033h5\210\207RDq%\343(\2279\312\225\034\025\214\243"
 222      88875244 
 222      7125E328 
 222      9739CA95 
 222      1C158CA3 
 223 01e9 B2AEF7B2 		.ascii	"\262\256\367\262\232\254e\034\351\303/\255\006)\022"
 223      9AAC651C 
 223      E9C32FAD 
 223      062912
 224 01f8 5B57BB92 		.ascii	"[W\273\222\243R\346\250Tr\234a\034\277\227U\026\352"
 224      A352E6A8 
 224      54729C61 
 224      1CBF9755 
 224      16EA
 225 020a 48A41447 		.ascii	"H\244\024Gu\317MO\036\307\205n%G\225\314Q\245\344\260"
 225      75CF4D4F 
 225      1EC7856E 
 225      254795CC 
 225      51A5E4B0 
 226 021e 328EE989 		.ascii	"2\216\351\211\216b-\211e\034\255'\353h*vQ\264\017\354"
 226      8E622D89 
 226      651CAD27 
 226      EB682A76 
 226      51B40FEC 
 227 0232 DD7438B5 		.ascii	"\335t8\265 \234\021\234\225\011\316\202\324+8\307\214"
 227      209C119C 
 227      9509CE82 
 227      D42B38C7 
 227      8C
 228 0243 AF3A5A4F 		.ascii	"\257:ZO\023\222\005\314\272b\317H\221\016;\341\247\207"
 228      139205CC 
ARM GAS  C:\Users\JEFFSN~1\AppData\Local\Temp\ccmmrF1b.s 			page 17


 228      BA62CF48 
 228      910E3BE1 
 228      A787
 229 0255 D740F5F1 		.ascii	"\327@\365\361\2133\336\222N?g\247\017\277\362\"e\014"
 229      8B33DE92 
 229      4E3F67A7 
 229      0FBFF222 
 229      650C
 230 0267 ABEA1E2E 		.ascii	"\253\352\036.q\250!H\177\2126\312\336{=6k/v\031jA\017"
 230      71A82148 
 230      7F8A36CA 
 230      DE7B3D36 
 230      6B2F7619 
 231 027e 17656F7E 		.ascii	"\027eo~t\177\375$\212\273\305\311\343\242v\211\000a"
 231      747FFD24 
 231      8ABBC5C9 
 231      E3A27689 
 231      0061
 232 0290 7EB0DC4F 		.ascii	"~\260\334O\200\032\010\242\254\024\005\027\260\271\325"
 232      801A08A2 
 232      AC140517 
 232      B0B9D5
 233 029f D85CF430 		.ascii	"\330\\\3640\232\365\333#\255\0327\002\343\301.\343\\"
 233      9AF5DB23 
 233      AD1A3702 
 233      E3C12EE3 
 233      5C
 234 02b0 69CDBD71 		.ascii	"i\315\275q\255\333\365p\231\255\207K\300\027\304\360"
 234      ADDBF570 
 234      99AD874B 
 234      C017C4F0 
 235 02c0 89DC035E 		.ascii	"\211\334\003^\274\000}\007\177\030\252\022\323<)\006"
 235      BC007D07 
 235      7F18AA12 
 235      D33C2906 
 236 02d0 CECB319D 		.ascii	"\316\3131\235wV\340\012\253@im\376\013\035\371G\252"
 236      7756E00A 
 236      AB40696D 
 236      FE0B1DF9 
 236      47AA
 237 02e2 40C7FE6B 		.ascii	"@\307\376k\251>Jg4\016\331\233m\316\352+<\371\313q\255"
 237      A93E4A67 
 237      340ED99B 
 237      6DCEEA2B 
 237      3CF9CB71 
 238 02f7 E4CCF6A2 		.ascii	"\344\314\366\242\211d\213\365j\212\200\253\262\257\253"
 238      89648BF5 
 238      6A8A80AB 
 238      B2AFAB
 239 0306 4E5F75CC 		.ascii	"N_u\314\327\371\274\364#>\344\200\264?\354\023c#\006"
 239      D7F9BCF4 
 239      233EE480 
 239      B43FEC13 
 239      632306
 240 0319 1EEB60D3 		.ascii	"\036\353`\323\206\373,V\332\255z\331\276\336i\337\300"
 240      86FB2C56 
 240      DAAD7AD9 
ARM GAS  C:\Users\JEFFSN~1\AppData\Local\Temp\ccmmrF1b.s 			page 18


 240      BEDE69DF 
 240      C0
 241 032a EC8BFB0F 		.ascii	"\354\213\373\017\224x\223l\311~\344EY\315\002i\033i"
 241      9478936C 
 241      C97EE445 
 241      59CD0269 
 241      1B69
 242 033c 51ADADBE 		.ascii	"Q\255\255\276\324\250\221\266\321rTs\247\373\035\236"
 242      D4A891B6 
 242      D1725473 
 242      A7FB1D9E 
 243 034c 921A846A 		.ascii	"\222\032\204jK\356\311rBNI\226\217\323F\355^\322\267"
 243      4BEEC972 
 243      424E4996 
 243      8FD346ED 
 243      5ED2B7
 244 035f 25A8FE6A 		.ascii	"%\250\376j-\333\343I\312\245o]\2237\362\371\267\205"
 244      2DDBE349 
 244      CAA56F5D 
 244      9337F2F9 
 244      B785
 245 0371 A80E8C36 		.ascii	"\250\016\2146v\000\261J\337\246j\362\017jI\265\244\324"
 245      7600B14A 
 245      DFA66AF2 
 245      0F6A49B5 
 245      A4D4
 246 0383 67DEBB65 		.ascii	"g\336\273e \227$%#\177\242[M\232\231\242\313\030\374"
 246      20972425 
 246      237FA25B 
 246      4D9A99A2 
 246      CB18FC
 247 0396 71720104 		.ascii	"qr\001\004\340\360\015\012\0108N\273o\233j\362\316\022"
 247      E0F00D0A 
 247      08384EBB 
 247      6F9B6AF2 
 247      CE12
 248 03a8 6D298415 		.ascii	"m)\204\025\264\035\023\274\005\276\316\305\360!-m\010"
 248      B41D13BC 
 248      05BECEC5 
 248      F0212D6D 
 248      08
 249 03b9 3D8125EC 		.ascii	"=\201%\354\263&/\261\362[\206ls\201\014\223\221\257"
 249      B3262FB1 
 249      F25B866C 
 249      73810C93 
 249      91AF
 250 03cb 64E44D17 		.ascii	"d\344M\027\310&\220\241\377\312\320f\027\320\022\006"
 250      C82690A1 
 250      FFCAD066 
 250      17D01206 
 251 03db 4DE7A795 		.ascii	"M\347\247\225H\017\271Fl\3735\326v\012\306\206\300m"
 251      480FB946 
 251      6CFB35D6 
 251      760AC686 
 251      C06D
 252 03ed 5CB51D10 		.ascii	"\\\265\035\020\000\235(\275(=(\335(]\020\300\272\304"
 252      009D28BD 
ARM GAS  C:\Users\JEFFSN~1\AppData\Local\Temp\ccmmrF1b.s 			page 19


 252      283D28DD 
 252      285D10C0 
 252      BAC4
 253 03ff F682ADBF 		.ascii	"\366\202\255\277\311 \212:j$\3606\012\263Q\274P\226"
 253      C9208A3A 
 253      6A24F036 
 253      0AB351BC 
 253      5096
 254 0411 A1D5451C 		.ascii	"\241\325E\034-\212\220\237\313!\337p\001\275\316\240"
 254      2D8A909F 
 254      CB21DF70 
 254      01BDCEA0 
 255 0421 74D13B7A 		.ascii	"t\321;z\032\325\244\203\025_u*\245k\237\027\004\371"
 255      1AD5A483 
 255      155F752A 
 255      A56B9F17 
 255      04F9
 256 0433 4AB1585B 		.ascii	"J\261X[\201\306r\027M\377\224W\025\015\315M\262x]\005"
 256      81C67217 
 256      4DFF9457 
 256      150DCD4D 
 256      B2785D05 
 257 0447 BD75BEE8 		.ascii	"\275u\276\350\273\340\367\316\002\237e'\304\002\\\307"
 257      BBE0F7CE 
 257      029F6527 
 257      C4025CC7 
 258 0457 3327CD87 		.ascii	"3'\315\207E1\234y\373C\362\246(\"\235\331\240\022\360"
 258      45319C79 
 258      FB43F2A6 
 258      28229DD9 
 258      A012F0
 259 046a E05A8676 		.ascii	"\340Z\206vO\323\246{\264z<\031R\337\356dhs\034{\355"
 259      4FD3A67B 
 259      B47A3C19 
 259      52DFEE64 
 259      68731C7B 
 260 047f 4146A41C 		.ascii	"AF\244\034\255\031\331\031\036\240\017ra>\350\302\334"
 260      AD19D919 
 260      1EA00F72 
 260      613EE8C2 
 260      DC
 261 0490 79446DCC 		.ascii	"yDm\3149\234\202\267\303\000\326\263_.\306=\320K\251"
 261      399C82B7 
 261      C300D6B3 
 261      5F2EC63D 
 261      D04BA9
 262 04a3 143D6EB0 		.ascii	"\024=n\260\201a\037-=\356\375E\341\014(\357};\030\330"
 262      81611F2D 
 262      3DEEFD45 
 262      E10C28EF 
 262      7D3B18D8 
 263 04b7 4EC427BD 		.ascii	"N\304'\275\303\252\316\035\325(\3014i\031<\304\301C"
 263      C3AACE1D 
 263      D528C134 
 263      69193CC4 
 263      C143
 264 04c9 0CDC76AD 		.ascii	"\014\334v\255\373\210\007q\260\340\325\216\212c\231"
ARM GAS  C:\Users\JEFFSN~1\AppData\Local\Temp\ccmmrF1b.s 			page 20


 264      FB880771 
 264      B0E0D58E 
 264      8A6399
 265 04d8 7AF0F403 		.ascii	"z\360\364\003\004C\320^v6\356.\360\207\331\024\376\302"
 265      0443D05E 
 265      7636EE2E 
 265      F087D914 
 265      FEC2
 266 04ea 1486C113 		.ascii	"\024\206\301\023\255G\0202\212|9\330B:\223#b\306\013"
 266      AD471032 
 266      8A7C39D8 
 266      423A9323 
 266      62C60B
 267 04fd D9EB29E7 		.ascii	"\331\353)\347\275*P\025\356\363s\202\372D\035}\346\334"
 267      BD2A5015 
 267      EEF37382 
 267      FA441D7D 
 267      E6DC
 268 050f C9BBAE53 		.ascii	"\311\273\256S\006HO\0269\300\007`p\026\340\001\213\261"
 268      06484F16 
 268      39C00760 
 268      7016E001 
 268      8BB1
 269 0521 F846633B 		.ascii	"\370Fc;Q\342ms\360c<\2411\006\236\254kn\360Q\202/\317"
 269      51E26D73 
 269      F0633CA1 
 269      31069EAC 
 269      6B6EF051 
 270 0538 013B38D8 		.ascii	"\001;8\330\301\300\375\315E%\364\272\017\304[\005\207"
 270      C1C0FDCD 
 270      4525F4BA 
 270      0FC45B05 
 270      87
 271 0549 8FE26209 		.ascii	"\217\342b\011\224.\226\326\301\321'\236dBjnW\366\370"
 271      942E96D6 
 271      C1D1279E 
 271      64426A6E 
 271      57F6F8
 272 055c A0566A2E 		.ascii	"\240Vj.g\027f\251\3411\326&\220\267\367\021N>t\266\327"
 272      671766A9 
 272      E131D626 
 272      90B7F711 
 272      4E3E74B6 
 273 0571 563DE847 		.ascii	"V=\350GW\372\337\330\263q\271\271\201\274\267?\017e"
 273      57FADFD8 
 273      B371B9B9 
 273      81BCB73F 
 273      0F65
 274 0583 DCD548CB 		.ascii	"\334\325H\313\355m(\321\242f@\314\323\220gRL\267\367"
 274      ED6D28D1 
 274      A26640CC 
 274      D3906752 
 274      4CB7F7
 275 0596 571F21CE 		.ascii	"W\037!\316\313\316\326\3670<\215\356\232'\350kR\366"
 275      CBCED6F7 
 275      303C8DEE 
 275      9A27E86B 
ARM GAS  C:\Users\JEFFSN~1\AppData\Local\Temp\ccmmrF1b.s 			page 21


 275      52F6
 276 05a8 3501FCB2 		.ascii	"5\001\374\262\373\277\217)\327>\236=o9`P\226\361\311"
 276      FBBF8F29 
 276      D73E9E3D 
 276      6F396050 
 276      96F1C9
 277 05bb 9C1537CD 		.ascii	"\234\0257\315\313H\237\013?\0175F\206DFD\3554\031\343"
 277      CB489F0B 
 277      3F0F3546 
 277      86444644 
 277      ED3419E3 
 278 05cf E3B69AB7 		.ascii	"\343\266\232\267\351\326|\265\321\337\030\022\",]c\212"
 278      E9D67CB5 
 278      D1DF1812 
 278      222C5D63 
 278      8A
 279 05e0 33254659 		.ascii	"3%FYL[\"#\342\223\022cL\233\327E\304\033?\332,\031\254"
 279      4C5B2223 
 279      E2931263 
 279      4C9BD745 
 279      C41B3FDA 
 280 05f7 FB323846 		.ascii	"\37328F\360\342\306\261&S\202\257\364\276\336\264\303"
 280      F0E2C6B1 
 280      265382AF 
 280      F4BEDEB4 
 280      C3
 281 0608 129FC8B9 		.ascii	"\022\237\310\271\014\322\3347Q\333MI\011z\016\266\304"
 281      0CD2DC37 
 281      51DB4D49 
 281      097A0EB6 
 281      C4
 282 0619 27BCF726 		.ascii	"'\274\367&\352\340\357\204w\215\311\253w\231-\306D\263"
 282      EAE0EF84 
 282      778DC9AB 
 282      77992DC6 
 282      44B3
 283 062b C51C1315 		.ascii	"\305\034\023\025\033a\212\261\230\343\3434I\3468\313"
 283      1B618AB1 
 283      98E3E334 
 283      49E638CB 
 284 063b 8AF7DDD8 		.ascii	"\212\367\335\330\306$[\222\023L;\320\332\035\2731\371"
 284      C6245B92 
 284      134C3BD0 
 284      DA1DBB31 
 284      F9
 285 064c 0B73347E 		.ascii	"\013s4~_\214\354q\026S\342<z\036\354\352\270\250\350"
 285      5F8CEC71 
 285      1653E23C 
 285      7A1EECEA 
 285      B8A8E8
 286 065f 581357A2 		.ascii	"X\023W\242\243b\266'%x\304\304n\377\324\2743D\035\265"
 286      A362B627 
 286      2578C4C4 
 286      6EFFD4BC 
 286      33441DB5 
 287 0673 654B2289 		.ascii	"eK\"\211\331\272M\275\013\177\274L\014\031aAO\034\021"
 287      D9BA4DBD 
ARM GAS  C:\Users\JEFFSN~1\AppData\Local\Temp\ccmmrF1b.s 			page 22


 287      0B7FBC4C 
 287      0C196141 
 287      4F1C11
 288 0686 CA8BB0EA 		.ascii	"\312\213\260\352\023\343\332\215\353\"#6\254\337h\334"
 288      13E3DA8D 
 288      EB222336 
 288      ACDF68DC 
 289 0696 A04E346D 		.ascii	"\240N4m[\241\211\\\025\037\037\253\245\031\204\205j"
 289      5BA1895C 
 289      151F1FAB 
 289      A5198485 
 289      6A
 290 06a7 70262CF4 		.ascii	"p&,\364?\331\316\247 "
 290      3FD9CEA7 
 290      20
 291              		.text
 292              		.section	.gnu.lto_.symtab.c7d77bbb,"",%progbits
 293 0000 4932435F 		.ascii	"I2C_1_SaveConfig\000"
 293      315F5361 
 293      7665436F 
 293      6E666967 
 293      00
 294 0011 00       		.ascii	"\000"
 295 0012 00       		.ascii	"\000"
 296 0013 00       		.ascii	"\000"
 297 0014 00000000 		.ascii	"\000\000\000\000\000\000\000\000"
 297      00000000 
 298 001c AD000000 		.ascii	"\255\000\000\000"
 299 0020 4932435F 		.ascii	"I2C_1_backup\000"
 299      315F6261 
 299      636B7570 
 299      00
 300 002d 00       		.ascii	"\000"
 301 002e 00       		.ascii	"\000"
 302 002f 00       		.ascii	"\000"
 303 0030 00000000 		.ascii	"\000\000\000\000\000\000\000\000"
 303      00000000 
 304 0038 DB000000 		.ascii	"\333\000\000\000"
 305 003c 4932435F 		.ascii	"I2C_1_Sleep\000"
 305      315F536C 
 305      65657000 
 306 0048 00       		.ascii	"\000"
 307 0049 00       		.ascii	"\000"
 308 004a 00       		.ascii	"\000"
 309 004b 00000000 		.ascii	"\000\000\000\000\000\000\000\000"
 309      00000000 
 310 0053 AF000000 		.ascii	"\257\000\000\000"
 311 0057 4932435F 		.ascii	"I2C_1_RestoreConfig\000"
 311      315F5265 
 311      73746F72 
 311      65436F6E 
 311      66696700 
 312 006b 00       		.ascii	"\000"
 313 006c 00       		.ascii	"\000"
 314 006d 00       		.ascii	"\000"
 315 006e 00000000 		.ascii	"\000\000\000\000\000\000\000\000"
 315      00000000 
ARM GAS  C:\Users\JEFFSN~1\AppData\Local\Temp\ccmmrF1b.s 			page 23


 316 0076 B1000000 		.ascii	"\261\000\000\000"
 317 007a 4932435F 		.ascii	"I2C_1_Wakeup\000"
 317      315F5761 
 317      6B657570 
 317      00
 318 0087 00       		.ascii	"\000"
 319 0088 00       		.ascii	"\000"
 320 0089 00       		.ascii	"\000"
 321 008a 00000000 		.ascii	"\000\000\000\000\000\000\000\000"
 321      00000000 
 322 0092 B3000000 		.ascii	"\263\000\000\000"
 323 0096 4932435F 		.ascii	"I2C_1_Stop\000"
 323      315F5374 
 323      6F7000
 324 00a1 00       		.ascii	"\000"
 325 00a2 02       		.ascii	"\002"
 326 00a3 00       		.ascii	"\000"
 327 00a4 00000000 		.ascii	"\000\000\000\000\000\000\000\000"
 327      00000000 
 328 00ac B5000000 		.ascii	"\265\000\000\000"
 329 00b0 43794578 		.ascii	"CyExitCriticalSection\000"
 329      69744372 
 329      69746963 
 329      616C5365 
 329      6374696F 
 330 00c6 00       		.ascii	"\000"
 331 00c7 02       		.ascii	"\002"
 332 00c8 00       		.ascii	"\000"
 333 00c9 00000000 		.ascii	"\000\000\000\000\000\000\000\000"
 333      00000000 
 334 00d1 BE000000 		.ascii	"\276\000\000\000"
 335 00d5 4379456E 		.ascii	"CyEnterCriticalSection\000"
 335      74657243 
 335      72697469 
 335      63616C53 
 335      65637469 
 336 00ec 00       		.ascii	"\000"
 337 00ed 02       		.ascii	"\002"
 338 00ee 00       		.ascii	"\000"
 339 00ef 00000000 		.ascii	"\000\000\000\000\000\000\000\000"
 339      00000000 
 340 00f7 C1000000 		.ascii	"\301\000\000\000"
 341 00fb 4932435F 		.ascii	"I2C_1_Enable\000"
 341      315F456E 
 341      61626C65 
 341      00
 342 0108 00       		.ascii	"\000"
 343 0109 02       		.ascii	"\002"
 344 010a 00       		.ascii	"\000"
 345 010b 00000000 		.ascii	"\000\000\000\000\000\000\000\000"
 345      00000000 
 346 0113 C3000000 		.ascii	"\303\000\000\000"
 347              		.text
 348              		.section	.gnu.lto_.opts,"",%progbits
 349 0000 272D666D 		.ascii	"'-fmath-errno' '-fsigned-zeros' '-ftrapping-math' '"
 349      6174682D 
 349      6572726E 
ARM GAS  C:\Users\JEFFSN~1\AppData\Local\Temp\ccmmrF1b.s 			page 24


 349      6F272027 
 349      2D667369 
 350 0033 2D666E6F 		.ascii	"-fno-trapv' '-fno-strict-overflow' '-fno-openmp' '-"
 350      2D747261 
 350      70762720 
 350      272D666E 
 350      6F2D7374 
 351 0066 666E6F2D 		.ascii	"fno-openacc' '-mcpu=cortex-m3' '-mthumb' '-g' '-Og'"
 351      6F70656E 
 351      61636327 
 351      20272D6D 
 351      6370753D 
 352 0099 20272D66 		.ascii	" '-ffunction-sections' '-ffat-lto-objects' '-finlin"
 352      66756E63 
 352      74696F6E 
 352      2D736563 
 352      74696F6E 
 353 00cc 652D6675 		.ascii	"e-functions' '-flto'\000"
 353      6E637469 
 353      6F6E7327 
 353      20272D66 
 353      6C746F27 
 354              		.text
 355              		.cfi_sections	.debug_frame
 356              		.section	.text.I2C_1_SaveConfig,"ax",%progbits
 357              		.align	2
 358              		.global	I2C_1_SaveConfig
 359              		.thumb
 360              		.thumb_func
 361              		.type	I2C_1_SaveConfig, %function
 362              	I2C_1_SaveConfig:
 363              	.LFB0:
 364              		.file 1 "Generated_Source\\PSoC5\\I2C_1_PM.c"
   1:Generated_Source\PSoC5/I2C_1_PM.c **** /*******************************************************************************
   2:Generated_Source\PSoC5/I2C_1_PM.c **** * File Name: I2C_1_PM.c
   3:Generated_Source\PSoC5/I2C_1_PM.c **** * Version 3.50
   4:Generated_Source\PSoC5/I2C_1_PM.c **** *
   5:Generated_Source\PSoC5/I2C_1_PM.c **** * Description:
   6:Generated_Source\PSoC5/I2C_1_PM.c **** *  This file provides low power mode APIs for the I2C component.
   7:Generated_Source\PSoC5/I2C_1_PM.c **** *
   8:Generated_Source\PSoC5/I2C_1_PM.c **** ********************************************************************************
   9:Generated_Source\PSoC5/I2C_1_PM.c **** * Copyright 2008-2015, Cypress Semiconductor Corporation. All rights reserved.
  10:Generated_Source\PSoC5/I2C_1_PM.c **** * You may use this file only in accordance with the license, terms, conditions,
  11:Generated_Source\PSoC5/I2C_1_PM.c **** * disclaimers, and limitations in the end user license agreement accompanying
  12:Generated_Source\PSoC5/I2C_1_PM.c **** * the software package with which this file was provided.
  13:Generated_Source\PSoC5/I2C_1_PM.c **** *******************************************************************************/
  14:Generated_Source\PSoC5/I2C_1_PM.c **** 
  15:Generated_Source\PSoC5/I2C_1_PM.c **** #include "I2C_1_PVT.h"
  16:Generated_Source\PSoC5/I2C_1_PM.c **** 
  17:Generated_Source\PSoC5/I2C_1_PM.c **** I2C_1_BACKUP_STRUCT I2C_1_backup =
  18:Generated_Source\PSoC5/I2C_1_PM.c **** {
  19:Generated_Source\PSoC5/I2C_1_PM.c ****     I2C_1_DISABLE,
  20:Generated_Source\PSoC5/I2C_1_PM.c **** 
  21:Generated_Source\PSoC5/I2C_1_PM.c **** #if (I2C_1_FF_IMPLEMENTED)
  22:Generated_Source\PSoC5/I2C_1_PM.c ****     I2C_1_DEFAULT_XCFG,
  23:Generated_Source\PSoC5/I2C_1_PM.c ****     I2C_1_DEFAULT_CFG,
  24:Generated_Source\PSoC5/I2C_1_PM.c ****     I2C_1_DEFAULT_ADDR,
ARM GAS  C:\Users\JEFFSN~1\AppData\Local\Temp\ccmmrF1b.s 			page 25


  25:Generated_Source\PSoC5/I2C_1_PM.c ****     LO8(I2C_1_DEFAULT_DIVIDE_FACTOR),
  26:Generated_Source\PSoC5/I2C_1_PM.c ****     HI8(I2C_1_DEFAULT_DIVIDE_FACTOR),
  27:Generated_Source\PSoC5/I2C_1_PM.c **** #else  /* (I2C_1_UDB_IMPLEMENTED) */
  28:Generated_Source\PSoC5/I2C_1_PM.c ****     I2C_1_DEFAULT_CFG,
  29:Generated_Source\PSoC5/I2C_1_PM.c **** #endif /* (I2C_1_FF_IMPLEMENTED) */
  30:Generated_Source\PSoC5/I2C_1_PM.c **** 
  31:Generated_Source\PSoC5/I2C_1_PM.c **** #if (I2C_1_TIMEOUT_ENABLED)
  32:Generated_Source\PSoC5/I2C_1_PM.c ****     I2C_1_DEFAULT_TMOUT_PERIOD,
  33:Generated_Source\PSoC5/I2C_1_PM.c ****     I2C_1_DEFAULT_TMOUT_INTR_MASK,
  34:Generated_Source\PSoC5/I2C_1_PM.c **** #endif /* (I2C_1_TIMEOUT_ENABLED) */
  35:Generated_Source\PSoC5/I2C_1_PM.c **** };
  36:Generated_Source\PSoC5/I2C_1_PM.c **** 
  37:Generated_Source\PSoC5/I2C_1_PM.c **** #if ((I2C_1_FF_IMPLEMENTED) && (I2C_1_WAKEUP_ENABLED))
  38:Generated_Source\PSoC5/I2C_1_PM.c ****     volatile uint8 I2C_1_wakeupSource;
  39:Generated_Source\PSoC5/I2C_1_PM.c **** #endif /* ((I2C_1_FF_IMPLEMENTED) && (I2C_1_WAKEUP_ENABLED)) */
  40:Generated_Source\PSoC5/I2C_1_PM.c **** 
  41:Generated_Source\PSoC5/I2C_1_PM.c **** 
  42:Generated_Source\PSoC5/I2C_1_PM.c **** /*******************************************************************************
  43:Generated_Source\PSoC5/I2C_1_PM.c **** * Function Name: I2C_1_SaveConfig
  44:Generated_Source\PSoC5/I2C_1_PM.c **** ********************************************************************************
  45:Generated_Source\PSoC5/I2C_1_PM.c **** *
  46:Generated_Source\PSoC5/I2C_1_PM.c **** * Summary:
  47:Generated_Source\PSoC5/I2C_1_PM.c **** *  The Enable wakeup from Sleep Mode selection influences this function
  48:Generated_Source\PSoC5/I2C_1_PM.c **** *  implementation:
  49:Generated_Source\PSoC5/I2C_1_PM.c **** *   Unchecked: Stores the component non-retention configuration registers.
  50:Generated_Source\PSoC5/I2C_1_PM.c **** *   Checked:   Disables the master, if it was enabled before, and enables
  51:Generated_Source\PSoC5/I2C_1_PM.c **** *              backup regulator of the I2C hardware. If a transaction intended
  52:Generated_Source\PSoC5/I2C_1_PM.c **** *              for component executes during this function call, it waits until
  53:Generated_Source\PSoC5/I2C_1_PM.c **** *              the current transaction is completed and I2C hardware is ready
  54:Generated_Source\PSoC5/I2C_1_PM.c **** *              to enter sleep mode. All subsequent I2C traffic is NAKed until
  55:Generated_Source\PSoC5/I2C_1_PM.c **** *              the device is put into sleep mode.
  56:Generated_Source\PSoC5/I2C_1_PM.c **** *
  57:Generated_Source\PSoC5/I2C_1_PM.c **** * Parameters:
  58:Generated_Source\PSoC5/I2C_1_PM.c **** *  None.
  59:Generated_Source\PSoC5/I2C_1_PM.c **** *
  60:Generated_Source\PSoC5/I2C_1_PM.c **** * Return:
  61:Generated_Source\PSoC5/I2C_1_PM.c **** *  None.
  62:Generated_Source\PSoC5/I2C_1_PM.c **** *
  63:Generated_Source\PSoC5/I2C_1_PM.c **** * Global Variables:
  64:Generated_Source\PSoC5/I2C_1_PM.c **** *  I2C_1_backup - The global variable used to save the component
  65:Generated_Source\PSoC5/I2C_1_PM.c **** *                            configuration and non-retention registers before
  66:Generated_Source\PSoC5/I2C_1_PM.c **** *                            entering the sleep mode.
  67:Generated_Source\PSoC5/I2C_1_PM.c **** *
  68:Generated_Source\PSoC5/I2C_1_PM.c **** * Reentrant:
  69:Generated_Source\PSoC5/I2C_1_PM.c **** *  No.
  70:Generated_Source\PSoC5/I2C_1_PM.c **** *
  71:Generated_Source\PSoC5/I2C_1_PM.c **** *******************************************************************************/
  72:Generated_Source\PSoC5/I2C_1_PM.c **** void I2C_1_SaveConfig(void) 
  73:Generated_Source\PSoC5/I2C_1_PM.c **** {
 365              		.loc 1 73 0
 366              		.cfi_startproc
 367              		@ args = 0, pretend = 0, frame = 0
 368              		@ frame_needed = 0, uses_anonymous_args = 0
 369              		@ link register save eliminated.
  74:Generated_Source\PSoC5/I2C_1_PM.c **** #if (I2C_1_FF_IMPLEMENTED)
  75:Generated_Source\PSoC5/I2C_1_PM.c ****     #if (I2C_1_WAKEUP_ENABLED)
  76:Generated_Source\PSoC5/I2C_1_PM.c ****         uint8 intState;
ARM GAS  C:\Users\JEFFSN~1\AppData\Local\Temp\ccmmrF1b.s 			page 26


  77:Generated_Source\PSoC5/I2C_1_PM.c ****     #endif /* (I2C_1_WAKEUP_ENABLED) */
  78:Generated_Source\PSoC5/I2C_1_PM.c **** 
  79:Generated_Source\PSoC5/I2C_1_PM.c ****     /* Store registers before enter low power mode */
  80:Generated_Source\PSoC5/I2C_1_PM.c ****     I2C_1_backup.cfg     = I2C_1_CFG_REG;
 370              		.loc 1 80 0
 371 0000 084B     		ldr	r3, .L2
 372 0002 1A78     		ldrb	r2, [r3]	@ zero_extendqisi2
 373 0004 084B     		ldr	r3, .L2+4
 374 0006 9A70     		strb	r2, [r3, #2]
  81:Generated_Source\PSoC5/I2C_1_PM.c ****     I2C_1_backup.xcfg    = I2C_1_XCFG_REG;
 375              		.loc 1 81 0
 376 0008 084A     		ldr	r2, .L2+8
 377 000a 1278     		ldrb	r2, [r2]	@ zero_extendqisi2
 378 000c 5A70     		strb	r2, [r3, #1]
  82:Generated_Source\PSoC5/I2C_1_PM.c ****     I2C_1_backup.addr    = I2C_1_ADDR_REG;
 379              		.loc 1 82 0
 380 000e 084A     		ldr	r2, .L2+12
 381 0010 1278     		ldrb	r2, [r2]	@ zero_extendqisi2
 382 0012 DA70     		strb	r2, [r3, #3]
  83:Generated_Source\PSoC5/I2C_1_PM.c ****     I2C_1_backup.clkDiv1 = I2C_1_CLKDIV1_REG;
 383              		.loc 1 83 0
 384 0014 074A     		ldr	r2, .L2+16
 385 0016 1278     		ldrb	r2, [r2]	@ zero_extendqisi2
 386 0018 1A71     		strb	r2, [r3, #4]
  84:Generated_Source\PSoC5/I2C_1_PM.c ****     I2C_1_backup.clkDiv2 = I2C_1_CLKDIV2_REG;
 387              		.loc 1 84 0
 388 001a 074A     		ldr	r2, .L2+20
 389 001c 1278     		ldrb	r2, [r2]	@ zero_extendqisi2
 390 001e 5A71     		strb	r2, [r3, #5]
 391 0020 7047     		bx	lr
 392              	.L3:
 393 0022 00BF     		.align	2
 394              	.L2:
 395 0024 D6490040 		.word	1073760726
 396 0028 00000000 		.word	.LANCHOR0
 397 002c C8490040 		.word	1073760712
 398 0030 CA490040 		.word	1073760714
 399 0034 DB490040 		.word	1073760731
 400 0038 DC490040 		.word	1073760732
 401              		.cfi_endproc
 402              	.LFE0:
 403              		.size	I2C_1_SaveConfig, .-I2C_1_SaveConfig
 404              		.section	.text.I2C_1_Sleep,"ax",%progbits
 405              		.align	2
 406              		.global	I2C_1_Sleep
 407              		.thumb
 408              		.thumb_func
 409              		.type	I2C_1_Sleep, %function
 410              	I2C_1_Sleep:
 411              	.LFB1:
  85:Generated_Source\PSoC5/I2C_1_PM.c **** 
  86:Generated_Source\PSoC5/I2C_1_PM.c **** #if (I2C_1_WAKEUP_ENABLED)
  87:Generated_Source\PSoC5/I2C_1_PM.c ****     /* Disable master */
  88:Generated_Source\PSoC5/I2C_1_PM.c ****     I2C_1_CFG_REG &= (uint8) ~I2C_1_ENABLE_MASTER;
  89:Generated_Source\PSoC5/I2C_1_PM.c **** 
  90:Generated_Source\PSoC5/I2C_1_PM.c ****     /* Enable backup regulator to keep block powered in low power mode */
  91:Generated_Source\PSoC5/I2C_1_PM.c ****     intState = CyEnterCriticalSection();
ARM GAS  C:\Users\JEFFSN~1\AppData\Local\Temp\ccmmrF1b.s 			page 27


  92:Generated_Source\PSoC5/I2C_1_PM.c ****     I2C_1_PWRSYS_CR1_REG |= I2C_1_PWRSYS_CR1_I2C_REG_BACKUP;
  93:Generated_Source\PSoC5/I2C_1_PM.c ****     CyExitCriticalSection(intState);
  94:Generated_Source\PSoC5/I2C_1_PM.c **** 
  95:Generated_Source\PSoC5/I2C_1_PM.c ****     /* 1) Set force NACK to ignore I2C transactions;
  96:Generated_Source\PSoC5/I2C_1_PM.c ****     *  2) Wait unti I2C is ready go to Sleep; !!
  97:Generated_Source\PSoC5/I2C_1_PM.c ****     *  3) These bits are cleared on wake up.
  98:Generated_Source\PSoC5/I2C_1_PM.c ****     */
  99:Generated_Source\PSoC5/I2C_1_PM.c ****     /* Wait when block is ready for sleep */
 100:Generated_Source\PSoC5/I2C_1_PM.c ****     I2C_1_XCFG_REG |= I2C_1_XCFG_FORCE_NACK;
 101:Generated_Source\PSoC5/I2C_1_PM.c ****     while (0u == (I2C_1_XCFG_REG & I2C_1_XCFG_RDY_TO_SLEEP))
 102:Generated_Source\PSoC5/I2C_1_PM.c ****     {
 103:Generated_Source\PSoC5/I2C_1_PM.c ****     }
 104:Generated_Source\PSoC5/I2C_1_PM.c **** 
 105:Generated_Source\PSoC5/I2C_1_PM.c ****     /* Setup wakeup interrupt */
 106:Generated_Source\PSoC5/I2C_1_PM.c ****     I2C_1_DisableInt();
 107:Generated_Source\PSoC5/I2C_1_PM.c ****     (void) CyIntSetVector(I2C_1_ISR_NUMBER, &I2C_1_WAKEUP_ISR);
 108:Generated_Source\PSoC5/I2C_1_PM.c ****     I2C_1_wakeupSource = 0u;
 109:Generated_Source\PSoC5/I2C_1_PM.c ****     I2C_1_EnableInt();
 110:Generated_Source\PSoC5/I2C_1_PM.c **** #endif /* (I2C_1_WAKEUP_ENABLED) */
 111:Generated_Source\PSoC5/I2C_1_PM.c **** 
 112:Generated_Source\PSoC5/I2C_1_PM.c **** #else
 113:Generated_Source\PSoC5/I2C_1_PM.c ****     /* Store only address match bit */
 114:Generated_Source\PSoC5/I2C_1_PM.c ****     I2C_1_backup.control = (I2C_1_CFG_REG & I2C_1_CTRL_ANY_ADDRESS_MASK);
 115:Generated_Source\PSoC5/I2C_1_PM.c **** #endif /* (I2C_1_FF_IMPLEMENTED) */
 116:Generated_Source\PSoC5/I2C_1_PM.c **** 
 117:Generated_Source\PSoC5/I2C_1_PM.c **** #if (I2C_1_TIMEOUT_ENABLED)
 118:Generated_Source\PSoC5/I2C_1_PM.c ****     I2C_1_TimeoutSaveConfig();
 119:Generated_Source\PSoC5/I2C_1_PM.c **** #endif /* (I2C_1_TIMEOUT_ENABLED) */
 120:Generated_Source\PSoC5/I2C_1_PM.c **** }
 121:Generated_Source\PSoC5/I2C_1_PM.c **** 
 122:Generated_Source\PSoC5/I2C_1_PM.c **** 
 123:Generated_Source\PSoC5/I2C_1_PM.c **** /*******************************************************************************
 124:Generated_Source\PSoC5/I2C_1_PM.c **** * Function Name: I2C_1_Sleep
 125:Generated_Source\PSoC5/I2C_1_PM.c **** ********************************************************************************
 126:Generated_Source\PSoC5/I2C_1_PM.c **** *
 127:Generated_Source\PSoC5/I2C_1_PM.c **** * Summary:
 128:Generated_Source\PSoC5/I2C_1_PM.c **** *  This is the preferred method to prepare the component before device enters
 129:Generated_Source\PSoC5/I2C_1_PM.c **** *  sleep mode. The Enable wakeup from Sleep Mode selection influences this
 130:Generated_Source\PSoC5/I2C_1_PM.c **** *  function implementation:
 131:Generated_Source\PSoC5/I2C_1_PM.c **** *   Unchecked: Checks current I2C component state, saves it, and disables the
 132:Generated_Source\PSoC5/I2C_1_PM.c **** *              component by calling I2C_Stop() if it is currently enabled.
 133:Generated_Source\PSoC5/I2C_1_PM.c **** *              I2C_SaveConfig() is then called to save the component
 134:Generated_Source\PSoC5/I2C_1_PM.c **** *              non-retention configuration registers.
 135:Generated_Source\PSoC5/I2C_1_PM.c **** *   Checked:   If a transaction intended for component executes during this
 136:Generated_Source\PSoC5/I2C_1_PM.c **** *              function call, it waits until the current transaction is
 137:Generated_Source\PSoC5/I2C_1_PM.c **** *              completed. All subsequent I2C traffic intended for component
 138:Generated_Source\PSoC5/I2C_1_PM.c **** *              is NAKed until the device is put to sleep mode. The address
 139:Generated_Source\PSoC5/I2C_1_PM.c **** *              match event wakes up the device.
 140:Generated_Source\PSoC5/I2C_1_PM.c **** *
 141:Generated_Source\PSoC5/I2C_1_PM.c **** * Parameters:
 142:Generated_Source\PSoC5/I2C_1_PM.c **** *  None.
 143:Generated_Source\PSoC5/I2C_1_PM.c **** *
 144:Generated_Source\PSoC5/I2C_1_PM.c **** * Return:
 145:Generated_Source\PSoC5/I2C_1_PM.c **** *  None.
 146:Generated_Source\PSoC5/I2C_1_PM.c **** *
 147:Generated_Source\PSoC5/I2C_1_PM.c **** * Reentrant:
 148:Generated_Source\PSoC5/I2C_1_PM.c **** *  No.
ARM GAS  C:\Users\JEFFSN~1\AppData\Local\Temp\ccmmrF1b.s 			page 28


 149:Generated_Source\PSoC5/I2C_1_PM.c **** *
 150:Generated_Source\PSoC5/I2C_1_PM.c **** *******************************************************************************/
 151:Generated_Source\PSoC5/I2C_1_PM.c **** void I2C_1_Sleep(void) 
 152:Generated_Source\PSoC5/I2C_1_PM.c **** {
 412              		.loc 1 152 0
 413              		.cfi_startproc
 414              		@ args = 0, pretend = 0, frame = 0
 415              		@ frame_needed = 0, uses_anonymous_args = 0
 416 0000 08B5     		push	{r3, lr}
 417              		.cfi_def_cfa_offset 8
 418              		.cfi_offset 3, -8
 419              		.cfi_offset 14, -4
 153:Generated_Source\PSoC5/I2C_1_PM.c **** #if (I2C_1_WAKEUP_ENABLED)
 154:Generated_Source\PSoC5/I2C_1_PM.c ****     /* Do not enable block after exit low power mode if it is wakeup source */
 155:Generated_Source\PSoC5/I2C_1_PM.c ****     I2C_1_backup.enableState = I2C_1_DISABLE;
 156:Generated_Source\PSoC5/I2C_1_PM.c **** 
 157:Generated_Source\PSoC5/I2C_1_PM.c ****     #if (I2C_1_TIMEOUT_ENABLED)
 158:Generated_Source\PSoC5/I2C_1_PM.c ****         I2C_1_TimeoutStop();
 159:Generated_Source\PSoC5/I2C_1_PM.c ****     #endif /* (I2C_1_TIMEOUT_ENABLED) */
 160:Generated_Source\PSoC5/I2C_1_PM.c **** 
 161:Generated_Source\PSoC5/I2C_1_PM.c **** #else
 162:Generated_Source\PSoC5/I2C_1_PM.c ****     /* Store enable state */
 163:Generated_Source\PSoC5/I2C_1_PM.c ****     I2C_1_backup.enableState = (uint8) I2C_1_IS_ENABLED;
 420              		.loc 1 163 0
 421 0002 064B     		ldr	r3, .L7
 422 0004 1B78     		ldrb	r3, [r3]	@ zero_extendqisi2
 423 0006 C3F38003 		ubfx	r3, r3, #2, #1
 424 000a 054A     		ldr	r2, .L7+4
 425 000c 1370     		strb	r3, [r2]
 164:Generated_Source\PSoC5/I2C_1_PM.c **** 
 165:Generated_Source\PSoC5/I2C_1_PM.c ****     if (0u != I2C_1_backup.enableState)
 426              		.loc 1 165 0
 427 000e 0BB1     		cbz	r3, .L5
 166:Generated_Source\PSoC5/I2C_1_PM.c ****     {
 167:Generated_Source\PSoC5/I2C_1_PM.c ****         I2C_1_Stop();
 428              		.loc 1 167 0
 429 0010 FFF7FEFF 		bl	I2C_1_Stop
 430              	.LVL0:
 431              	.L5:
 168:Generated_Source\PSoC5/I2C_1_PM.c ****     }
 169:Generated_Source\PSoC5/I2C_1_PM.c **** #endif /* (I2C_1_WAKEUP_ENABLED) */
 170:Generated_Source\PSoC5/I2C_1_PM.c **** 
 171:Generated_Source\PSoC5/I2C_1_PM.c ****     I2C_1_SaveConfig();
 432              		.loc 1 171 0
 433 0014 FFF7FEFF 		bl	I2C_1_SaveConfig
 434              	.LVL1:
 435 0018 08BD     		pop	{r3, pc}
 436              	.L8:
 437 001a 00BF     		.align	2
 438              	.L7:
 439 001c A5430040 		.word	1073759141
 440 0020 00000000 		.word	.LANCHOR0
 441              		.cfi_endproc
 442              	.LFE1:
 443              		.size	I2C_1_Sleep, .-I2C_1_Sleep
 444              		.section	.text.I2C_1_RestoreConfig,"ax",%progbits
 445              		.align	2
ARM GAS  C:\Users\JEFFSN~1\AppData\Local\Temp\ccmmrF1b.s 			page 29


 446              		.global	I2C_1_RestoreConfig
 447              		.thumb
 448              		.thumb_func
 449              		.type	I2C_1_RestoreConfig, %function
 450              	I2C_1_RestoreConfig:
 451              	.LFB2:
 172:Generated_Source\PSoC5/I2C_1_PM.c **** }
 173:Generated_Source\PSoC5/I2C_1_PM.c **** 
 174:Generated_Source\PSoC5/I2C_1_PM.c **** 
 175:Generated_Source\PSoC5/I2C_1_PM.c **** /*******************************************************************************
 176:Generated_Source\PSoC5/I2C_1_PM.c **** * Function Name: I2C_1_RestoreConfig
 177:Generated_Source\PSoC5/I2C_1_PM.c **** ********************************************************************************
 178:Generated_Source\PSoC5/I2C_1_PM.c **** *
 179:Generated_Source\PSoC5/I2C_1_PM.c **** * Summary:
 180:Generated_Source\PSoC5/I2C_1_PM.c **** *  The Enable wakeup from Sleep Mode selection influences this function
 181:Generated_Source\PSoC5/I2C_1_PM.c **** *  implementation:
 182:Generated_Source\PSoC5/I2C_1_PM.c **** *   Unchecked: Restores the component non-retention configuration registers
 183:Generated_Source\PSoC5/I2C_1_PM.c **** *              to the state they were in before I2C_Sleep() or I2C_SaveConfig()
 184:Generated_Source\PSoC5/I2C_1_PM.c **** *              was called.
 185:Generated_Source\PSoC5/I2C_1_PM.c **** *   Checked:   Disables the backup regulator of the I2C hardware. Sets up the
 186:Generated_Source\PSoC5/I2C_1_PM.c **** *              regular component interrupt handler and generates the component
 187:Generated_Source\PSoC5/I2C_1_PM.c **** *              interrupt if it was wake up source to release the bus and
 188:Generated_Source\PSoC5/I2C_1_PM.c **** *              continue in-coming I2C transaction.
 189:Generated_Source\PSoC5/I2C_1_PM.c **** *
 190:Generated_Source\PSoC5/I2C_1_PM.c **** * Parameters:
 191:Generated_Source\PSoC5/I2C_1_PM.c **** *  None.
 192:Generated_Source\PSoC5/I2C_1_PM.c **** *
 193:Generated_Source\PSoC5/I2C_1_PM.c **** * Return:
 194:Generated_Source\PSoC5/I2C_1_PM.c **** *  None.
 195:Generated_Source\PSoC5/I2C_1_PM.c **** *
 196:Generated_Source\PSoC5/I2C_1_PM.c **** * Global Variables:
 197:Generated_Source\PSoC5/I2C_1_PM.c **** *  I2C_1_backup - The global variable used to save the component
 198:Generated_Source\PSoC5/I2C_1_PM.c **** *                            configuration and non-retention registers before
 199:Generated_Source\PSoC5/I2C_1_PM.c **** *                            exiting the sleep mode.
 200:Generated_Source\PSoC5/I2C_1_PM.c **** *
 201:Generated_Source\PSoC5/I2C_1_PM.c **** * Reentrant:
 202:Generated_Source\PSoC5/I2C_1_PM.c **** *  No.
 203:Generated_Source\PSoC5/I2C_1_PM.c **** *
 204:Generated_Source\PSoC5/I2C_1_PM.c **** * Side Effects:
 205:Generated_Source\PSoC5/I2C_1_PM.c **** *  Calling this function before I2C_1_SaveConfig() or
 206:Generated_Source\PSoC5/I2C_1_PM.c **** *  I2C_1_Sleep() will lead to unpredictable results.
 207:Generated_Source\PSoC5/I2C_1_PM.c **** *
 208:Generated_Source\PSoC5/I2C_1_PM.c **** *******************************************************************************/
 209:Generated_Source\PSoC5/I2C_1_PM.c **** void I2C_1_RestoreConfig(void) 
 210:Generated_Source\PSoC5/I2C_1_PM.c **** {
 452              		.loc 1 210 0
 453              		.cfi_startproc
 454              		@ args = 0, pretend = 0, frame = 0
 455              		@ frame_needed = 0, uses_anonymous_args = 0
 456 0000 08B5     		push	{r3, lr}
 457              		.cfi_def_cfa_offset 8
 458              		.cfi_offset 3, -8
 459              		.cfi_offset 14, -4
 211:Generated_Source\PSoC5/I2C_1_PM.c **** #if (I2C_1_FF_IMPLEMENTED)
 212:Generated_Source\PSoC5/I2C_1_PM.c ****     uint8 intState;
 213:Generated_Source\PSoC5/I2C_1_PM.c **** 
 214:Generated_Source\PSoC5/I2C_1_PM.c ****     if (I2C_1_CHECK_PWRSYS_I2C_BACKUP)
ARM GAS  C:\Users\JEFFSN~1\AppData\Local\Temp\ccmmrF1b.s 			page 30


 460              		.loc 1 214 0
 461 0002 124B     		ldr	r3, .L13
 462 0004 1B78     		ldrb	r3, [r3]	@ zero_extendqisi2
 463 0006 13F0040F 		tst	r3, #4
 464 000a 0DD0     		beq	.L10
 215:Generated_Source\PSoC5/I2C_1_PM.c ****     /* Low power mode was Sleep - backup regulator is enabled */
 216:Generated_Source\PSoC5/I2C_1_PM.c ****     {
 217:Generated_Source\PSoC5/I2C_1_PM.c ****         /* Enable backup regulator in active mode */
 218:Generated_Source\PSoC5/I2C_1_PM.c ****         intState = CyEnterCriticalSection();
 465              		.loc 1 218 0
 466 000c FFF7FEFF 		bl	CyEnterCriticalSection
 467              	.LVL2:
 219:Generated_Source\PSoC5/I2C_1_PM.c ****         I2C_1_PWRSYS_CR1_REG &= (uint8) ~I2C_1_PWRSYS_CR1_I2C_REG_BACKUP;
 468              		.loc 1 219 0
 469 0010 0E4A     		ldr	r2, .L13
 470 0012 1378     		ldrb	r3, [r2]	@ zero_extendqisi2
 471 0014 03F0FB03 		and	r3, r3, #251
 472 0018 1370     		strb	r3, [r2]
 220:Generated_Source\PSoC5/I2C_1_PM.c ****         CyExitCriticalSection(intState);
 473              		.loc 1 220 0
 474 001a FFF7FEFF 		bl	CyExitCriticalSection
 475              	.LVL3:
 221:Generated_Source\PSoC5/I2C_1_PM.c **** 
 222:Generated_Source\PSoC5/I2C_1_PM.c ****         /* Restore master */
 223:Generated_Source\PSoC5/I2C_1_PM.c ****         I2C_1_CFG_REG = I2C_1_backup.cfg;
 476              		.loc 1 223 0
 477 001e 0C4B     		ldr	r3, .L13+4
 478 0020 9A78     		ldrb	r2, [r3, #2]	@ zero_extendqisi2
 479 0022 0C4B     		ldr	r3, .L13+8
 480 0024 1A70     		strb	r2, [r3]
 481 0026 08BD     		pop	{r3, pc}
 482              	.L10:
 224:Generated_Source\PSoC5/I2C_1_PM.c ****     }
 225:Generated_Source\PSoC5/I2C_1_PM.c ****     else
 226:Generated_Source\PSoC5/I2C_1_PM.c ****     /* Low power mode was Hibernate - backup regulator is disabled. All registers are cleared */
 227:Generated_Source\PSoC5/I2C_1_PM.c ****     {
 228:Generated_Source\PSoC5/I2C_1_PM.c ****     #if (I2C_1_WAKEUP_ENABLED)
 229:Generated_Source\PSoC5/I2C_1_PM.c ****         /* Disable power to block before register restore */
 230:Generated_Source\PSoC5/I2C_1_PM.c ****         intState = CyEnterCriticalSection();
 231:Generated_Source\PSoC5/I2C_1_PM.c ****         I2C_1_ACT_PWRMGR_REG  &= (uint8) ~I2C_1_ACT_PWR_EN;
 232:Generated_Source\PSoC5/I2C_1_PM.c ****         I2C_1_STBY_PWRMGR_REG &= (uint8) ~I2C_1_STBY_PWR_EN;
 233:Generated_Source\PSoC5/I2C_1_PM.c ****         CyExitCriticalSection(intState);
 234:Generated_Source\PSoC5/I2C_1_PM.c **** 
 235:Generated_Source\PSoC5/I2C_1_PM.c ****         /* Enable component in I2C_Wakeup() after register restore */
 236:Generated_Source\PSoC5/I2C_1_PM.c ****         I2C_1_backup.enableState = I2C_1_ENABLE;
 237:Generated_Source\PSoC5/I2C_1_PM.c ****     #endif /* (I2C_1_WAKEUP_ENABLED) */
 238:Generated_Source\PSoC5/I2C_1_PM.c **** 
 239:Generated_Source\PSoC5/I2C_1_PM.c ****         /* Restore component registers after Hibernate */
 240:Generated_Source\PSoC5/I2C_1_PM.c ****         I2C_1_XCFG_REG    = I2C_1_backup.xcfg;
 483              		.loc 1 240 0
 484 0028 094B     		ldr	r3, .L13+4
 485 002a 5978     		ldrb	r1, [r3, #1]	@ zero_extendqisi2
 486 002c 0A4A     		ldr	r2, .L13+12
 487 002e 1170     		strb	r1, [r2]
 241:Generated_Source\PSoC5/I2C_1_PM.c ****         I2C_1_CFG_REG     = I2C_1_backup.cfg;
 488              		.loc 1 241 0
 489 0030 9978     		ldrb	r1, [r3, #2]	@ zero_extendqisi2
ARM GAS  C:\Users\JEFFSN~1\AppData\Local\Temp\ccmmrF1b.s 			page 31


 490 0032 0E32     		adds	r2, r2, #14
 491 0034 1170     		strb	r1, [r2]
 242:Generated_Source\PSoC5/I2C_1_PM.c ****         I2C_1_ADDR_REG    = I2C_1_backup.addr;
 492              		.loc 1 242 0
 493 0036 D978     		ldrb	r1, [r3, #3]	@ zero_extendqisi2
 494 0038 0C3A     		subs	r2, r2, #12
 495 003a 1170     		strb	r1, [r2]
 243:Generated_Source\PSoC5/I2C_1_PM.c ****         I2C_1_CLKDIV1_REG = I2C_1_backup.clkDiv1;
 496              		.loc 1 243 0
 497 003c 1979     		ldrb	r1, [r3, #4]	@ zero_extendqisi2
 498 003e 1132     		adds	r2, r2, #17
 499 0040 1170     		strb	r1, [r2]
 244:Generated_Source\PSoC5/I2C_1_PM.c ****         I2C_1_CLKDIV2_REG = I2C_1_backup.clkDiv2;
 500              		.loc 1 244 0
 501 0042 5A79     		ldrb	r2, [r3, #5]	@ zero_extendqisi2
 502 0044 054B     		ldr	r3, .L13+16
 503 0046 1A70     		strb	r2, [r3]
 504 0048 08BD     		pop	{r3, pc}
 505              	.L14:
 506 004a 00BF     		.align	2
 507              	.L13:
 508 004c 31430040 		.word	1073759025
 509 0050 00000000 		.word	.LANCHOR0
 510 0054 D6490040 		.word	1073760726
 511 0058 C8490040 		.word	1073760712
 512 005c DC490040 		.word	1073760732
 513              		.cfi_endproc
 514              	.LFE2:
 515              		.size	I2C_1_RestoreConfig, .-I2C_1_RestoreConfig
 516              		.section	.text.I2C_1_Wakeup,"ax",%progbits
 517              		.align	2
 518              		.global	I2C_1_Wakeup
 519              		.thumb
 520              		.thumb_func
 521              		.type	I2C_1_Wakeup, %function
 522              	I2C_1_Wakeup:
 523              	.LFB3:
 245:Generated_Source\PSoC5/I2C_1_PM.c ****     }
 246:Generated_Source\PSoC5/I2C_1_PM.c **** 
 247:Generated_Source\PSoC5/I2C_1_PM.c **** #if (I2C_1_WAKEUP_ENABLED)
 248:Generated_Source\PSoC5/I2C_1_PM.c ****     I2C_1_DisableInt();
 249:Generated_Source\PSoC5/I2C_1_PM.c ****     (void) CyIntSetVector(I2C_1_ISR_NUMBER, &I2C_1_ISR);
 250:Generated_Source\PSoC5/I2C_1_PM.c ****     if (0u != I2C_1_wakeupSource)
 251:Generated_Source\PSoC5/I2C_1_PM.c ****     {
 252:Generated_Source\PSoC5/I2C_1_PM.c ****         /* Generate interrupt to process incoming transaction */
 253:Generated_Source\PSoC5/I2C_1_PM.c ****         I2C_1_SetPendingInt();
 254:Generated_Source\PSoC5/I2C_1_PM.c ****     }
 255:Generated_Source\PSoC5/I2C_1_PM.c ****     I2C_1_EnableInt();
 256:Generated_Source\PSoC5/I2C_1_PM.c **** #endif /* (I2C_1_WAKEUP_ENABLED) */
 257:Generated_Source\PSoC5/I2C_1_PM.c **** 
 258:Generated_Source\PSoC5/I2C_1_PM.c **** #else
 259:Generated_Source\PSoC5/I2C_1_PM.c ****     I2C_1_CFG_REG = I2C_1_backup.control;
 260:Generated_Source\PSoC5/I2C_1_PM.c **** #endif /* (I2C_1_FF_IMPLEMENTED) */
 261:Generated_Source\PSoC5/I2C_1_PM.c **** 
 262:Generated_Source\PSoC5/I2C_1_PM.c **** #if (I2C_1_TIMEOUT_ENABLED)
 263:Generated_Source\PSoC5/I2C_1_PM.c ****     I2C_1_TimeoutRestoreConfig();
 264:Generated_Source\PSoC5/I2C_1_PM.c **** #endif /* (I2C_1_TIMEOUT_ENABLED) */
ARM GAS  C:\Users\JEFFSN~1\AppData\Local\Temp\ccmmrF1b.s 			page 32


 265:Generated_Source\PSoC5/I2C_1_PM.c **** }
 266:Generated_Source\PSoC5/I2C_1_PM.c **** 
 267:Generated_Source\PSoC5/I2C_1_PM.c **** 
 268:Generated_Source\PSoC5/I2C_1_PM.c **** /*******************************************************************************
 269:Generated_Source\PSoC5/I2C_1_PM.c **** * Function Name: I2C_1_Wakeup
 270:Generated_Source\PSoC5/I2C_1_PM.c **** ********************************************************************************
 271:Generated_Source\PSoC5/I2C_1_PM.c **** *
 272:Generated_Source\PSoC5/I2C_1_PM.c **** * Summary:
 273:Generated_Source\PSoC5/I2C_1_PM.c **** *  This is the preferred method to prepare the component for active mode
 274:Generated_Source\PSoC5/I2C_1_PM.c **** *  operation (when device exits sleep mode). The Enable wakeup from Sleep Mode
 275:Generated_Source\PSoC5/I2C_1_PM.c **** *  selection influences this function implementation:
 276:Generated_Source\PSoC5/I2C_1_PM.c **** *   Unchecked: Restores the component non-retention configuration registers
 277:Generated_Source\PSoC5/I2C_1_PM.c **** *              by calling I2C_RestoreConfig(). If the component was enabled
 278:Generated_Source\PSoC5/I2C_1_PM.c **** *              before the I2C_Sleep() function was called, I2C_Wakeup()
 279:Generated_Source\PSoC5/I2C_1_PM.c **** *              re-enables it.
 280:Generated_Source\PSoC5/I2C_1_PM.c **** *   Checked:   Enables  master functionality if it was enabled before sleep,
 281:Generated_Source\PSoC5/I2C_1_PM.c **** *              and disables the backup regulator of the I2C hardware.
 282:Generated_Source\PSoC5/I2C_1_PM.c **** *              The incoming transaction continues as soon as the regular
 283:Generated_Source\PSoC5/I2C_1_PM.c **** *              I2C interrupt handler is set up (global interrupts has to be
 284:Generated_Source\PSoC5/I2C_1_PM.c **** *              enabled to service I2C component interrupt).
 285:Generated_Source\PSoC5/I2C_1_PM.c **** *
 286:Generated_Source\PSoC5/I2C_1_PM.c **** * Parameters:
 287:Generated_Source\PSoC5/I2C_1_PM.c **** *  None.
 288:Generated_Source\PSoC5/I2C_1_PM.c **** *
 289:Generated_Source\PSoC5/I2C_1_PM.c **** * Return:
 290:Generated_Source\PSoC5/I2C_1_PM.c **** *  None.
 291:Generated_Source\PSoC5/I2C_1_PM.c **** *
 292:Generated_Source\PSoC5/I2C_1_PM.c **** * Reentrant:
 293:Generated_Source\PSoC5/I2C_1_PM.c **** *  No.
 294:Generated_Source\PSoC5/I2C_1_PM.c **** *
 295:Generated_Source\PSoC5/I2C_1_PM.c **** * Side Effects:
 296:Generated_Source\PSoC5/I2C_1_PM.c **** *  Calling this function before I2C_1_SaveConfig() or
 297:Generated_Source\PSoC5/I2C_1_PM.c **** *  I2C_1_Sleep() will lead to unpredictable results.
 298:Generated_Source\PSoC5/I2C_1_PM.c **** *
 299:Generated_Source\PSoC5/I2C_1_PM.c **** *******************************************************************************/
 300:Generated_Source\PSoC5/I2C_1_PM.c **** void I2C_1_Wakeup(void) 
 301:Generated_Source\PSoC5/I2C_1_PM.c **** {
 524              		.loc 1 301 0
 525              		.cfi_startproc
 526              		@ args = 0, pretend = 0, frame = 0
 527              		@ frame_needed = 0, uses_anonymous_args = 0
 528 0000 08B5     		push	{r3, lr}
 529              		.cfi_def_cfa_offset 8
 530              		.cfi_offset 3, -8
 531              		.cfi_offset 14, -4
 302:Generated_Source\PSoC5/I2C_1_PM.c ****     I2C_1_RestoreConfig();
 532              		.loc 1 302 0
 533 0002 FFF7FEFF 		bl	I2C_1_RestoreConfig
 534              	.LVL4:
 303:Generated_Source\PSoC5/I2C_1_PM.c **** 
 304:Generated_Source\PSoC5/I2C_1_PM.c ****     /* Restore component enable state */
 305:Generated_Source\PSoC5/I2C_1_PM.c ****     if (0u != I2C_1_backup.enableState)
 535              		.loc 1 305 0
 536 0006 054B     		ldr	r3, .L18
 537 0008 1B78     		ldrb	r3, [r3]	@ zero_extendqisi2
 538 000a 2BB1     		cbz	r3, .L15
 306:Generated_Source\PSoC5/I2C_1_PM.c ****     {
ARM GAS  C:\Users\JEFFSN~1\AppData\Local\Temp\ccmmrF1b.s 			page 33


 307:Generated_Source\PSoC5/I2C_1_PM.c ****         I2C_1_Enable();
 539              		.loc 1 307 0
 540 000c FFF7FEFF 		bl	I2C_1_Enable
 541              	.LVL5:
 308:Generated_Source\PSoC5/I2C_1_PM.c ****         I2C_1_EnableInt();
 542              		.loc 1 308 0
 543 0010 4FF40042 		mov	r2, #32768
 544 0014 024B     		ldr	r3, .L18+4
 545 0016 1A60     		str	r2, [r3]
 546              	.L15:
 547 0018 08BD     		pop	{r3, pc}
 548              	.L19:
 549 001a 00BF     		.align	2
 550              	.L18:
 551 001c 00000000 		.word	.LANCHOR0
 552 0020 00E100E0 		.word	-536813312
 553              		.cfi_endproc
 554              	.LFE3:
 555              		.size	I2C_1_Wakeup, .-I2C_1_Wakeup
 556              		.global	I2C_1_backup
 557              		.data
 558              		.align	2
 559              		.set	.LANCHOR0,. + 0
 560              		.type	I2C_1_backup, %object
 561              		.size	I2C_1_backup, 6
 562              	I2C_1_backup:
 563 0000 00       		.byte	0
 564 0001 81       		.byte	-127
 565 0002 02       		.byte	2
 566 0003 08       		.byte	8
 567 0004 2E       		.byte	46
 568 0005 00       		.byte	0
 569              		.text
 570              	.Letext0:
 571              		.file 2 "Generated_Source\\PSoC5\\cytypes.h"
 572              		.file 3 "Generated_Source\\PSoC5\\I2C_1.h"
 573              		.file 4 "Generated_Source\\PSoC5\\CyLib.h"