ARM GAS  C:\Users\JEFFSN~1\AppData\Local\Temp\ccgPtFdy.s 			page 1


   1              		.syntax unified
   2              		.cpu cortex-m3
   3              		.fpu softvfp
   4              		.eabi_attribute 20, 1
   5              		.eabi_attribute 21, 1
   6              		.eabi_attribute 23, 3
   7              		.eabi_attribute 24, 1
   8              		.eabi_attribute 25, 1
   9              		.eabi_attribute 26, 1
  10              		.eabi_attribute 30, 1
  11              		.eabi_attribute 34, 1
  12              		.eabi_attribute 18, 4
  13              		.thumb
  14              		.syntax unified
  15              		.file	"IDAC_OUT.c"
  16              		.text
  17              	.Ltext0:
  18              		.section	.gnu.lto_.profile.ba2d9d2b,"",%progbits
  19 0000 789C6361 		.ascii	"x\234ca`d`a`\000\222\022\"\000\000\256\0007"
  19      60646061 
  19      60009212 
  19      220000AE 
  19      0037
  20              		.text
  21              		.section	.gnu.lto_.inline.ba2d9d2b,"",%progbits
  22 0000 789C6361 		.ascii	"x\234ca`d\000\001?\006\004`a`\340`gd`\342\232\340\307"
  22      60640001 
  22      3F060460 
  22      6160E060 
  22      676460E2 
  23 0017 C0B6409E 		.ascii	"\300\266@\236\011$\306\210)\304\304\300\306\012\024"
  23      0924C688 
  23      29C4C4C0 
  23      C60A14
  24 0026 62FBA007 		.ascii	"b\373\240\007\027b\306\024b\000\0008\317\007\322"
  24      1762C614 
  24      62000038 
  24      CF07D2
  25              		.text
  26              		.section	.gnu.lto_.jmpfuncs.ba2d9d2b,"",%progbits
  27 0000 789C6361 		.ascii	"x\234ca`d\000\001>\006\004`\001b\240(\023\003\0033\220"
  27      60640001 
  27      3E060460 
  27      0162A028 
  27      13030333 
  28 0015 05000292 		.ascii	"\005\000\002\222\000\036"
  28      001E
  29              		.text
  30              		.section	.gnu.lto_.pureconst.ba2d9d2b,"",%progbits
  31 0000 789C6361 		.ascii	"x\234ca`d\340d```a\220b\224b\222b\226\002\000\002\261"
  31      6064E064 
  31      60606061 
  31      90629462 
  31      92629602 
  32 0017 0081     		.ascii	"\000\201"
  33              		.text
  34              		.section	.gnu.lto_IDAC_OUT_Write.ba2d9d2b,"",%progbits
ARM GAS  C:\Users\JEFFSN~1\AppData\Local\Temp\ccgPtFdy.s 			page 2


  35 0000 789C5550 		.ascii	"x\234UPAKTQ\024>\337\275\363f&\315\372\001\315B\202"
  35      414B5451 
  35      143EDFBD 
  35      F36626CD 
  35      FA01CD42 
  36 0015 41240841 		.ascii	"A$\010A\374\001e\020\256\224\254\335\200\014\323[\010"
  36      FC016510 
  36      AE94ACDD 
  36      800CD35B 
  36      08
  37 0026 95A0635B 		.ascii	"\225\240c[\317s|#\270\311M\316*\015C4-\315v\211\340"
  37      CF737C23 
  37      B8C94DCE 
  37      2A0D4334 
  37      2DCD7689 
  38 003b E3AD5C44 		.ascii	"\343\255\\Dn\\E\204\270xA\253\021\034F\263\232\316y"
  38      6E5C4584 
  38      B87841AB 
  38      111C46B3 
  38      9ACE79
  39 004e 6F9317EE 		.ascii	"o\223\027\356\273\367\235\373}\337\371\316\227\"\220"
  39      BBF79DFB 
  39      7DDFF9CE 
  39      972290
  40 005d 2E6388FA 		.ascii	".c\210\372\344\274!\033\226`\346\277\020yY\003\350\205"
  40      E4BC211B 
  40      9660E6BF 
  40      10795903 
  40      E885
  41 006f B3A02983 		.ascii	"\263\240)\203)4\314\037\203p6\372d\272WY\326\321\312"
  41      2934CC1F 
  41      837036FA 
  41      64BA5759 
  41      D6D1CA
  42 0082 A2E5B500 		.ascii	"\242\345\265\000\276%j\231X\211\260\212nA\375\330\235"
  42      BE256A99 
  42      5889B08A 
  42      6E41FDD8 
  42      9D
  43 0093 3D84CD83 		.ascii	"=\204\315\203\344^\015\033\365\366\256\025\346i\346"
  43      E45E0D1B 
  43      F5F6AE15 
  43      E669E6
  44 00a2 6681AD6F 		.ascii	"f\201\255o\2015Xa\2407\207\236\034I\201\360\026]\012"
  44      81355861 
  44      A037879E 
  44      1C4981F0 
  44      165D0A
  45 00b5 3EFB7AB8 		.ascii	">\373z\270y\315\336\212\211\363\034-_\315\277Qb\320"
  45      79CDDE8A 
  45      89F31C2D 
  45      5FCDBF51 
  45      62D0
  46 00c7 7C5AE3C0 		.ascii	"|Z\343\300\353T\356\372\377\\]\002=\336\376\373\262"
  46      EB54EEFA 
  46      FF5C5D02 
  46      3DDEFEFB 
ARM GAS  C:\Users\JEFFSN~1\AppData\Local\Temp\ccgPtFdy.s 			page 3


  46      B2
  47 00d8 233DA3AE 		.ascii	"#=\243\256:\261\201|\342\007\357\220\226\011\241\225"
  47      3AB1817C 
  47      E207EF90 
  47      9609A195 
  48 00e8 AD0701B7 		.ascii	"\255\007\001\267Z\025\016\032N\303f\215452\251<\244"
  48      5A150E1A 
  48      4EC3668D 
  48      343532A9 
  48      3CA4
  49 00fa A0BD1D2D 		.ascii	"\240\275\035-\244\365CT\227\255\203\237H.r\332\010\341"
  49      A4F54354 
  49      97AD839F 
  49      482E72DA 
  49      08E1
  50 010c AFB9EFB5 		.ascii	"\257\271\357\265\214\312U\254\206\260\340\207\007\231"
  50      8CCA55AC 
  50      86B0E087 
  50      0799
  51 011a 53E35B1B 		.ascii	"S\343[\033\033\345\327/\316\235\344\227\227=NI\351\374"
  51      1BE5D72F 
  51      CE9DE497 
  51      973D4E49 
  51      E9FC
  52 012c 6067B763 		.ascii	"`g\267c\011\257\274\031\211'\205M\344\360\036b\027["
  52      09AFBC19 
  52      8927854D 
  52      E4F01E62 
  52      175B
  53 013e 580245A8 		.ascii	"X\002E\250\374\256~C\"h\023\315\213\375h\357\272\212"
  53      FCAE7E43 
  53      226813CD 
  53      8BFD68EF 
  53      BA8A
  54 0150 002DC207 		.ascii	"\000-\302\007\001\037\303\304\023\210IA)\251^\215jW"
  54      011FC3C4 
  54      13884941 
  54      29A95E8D 
  54      6A57
  55 0162 129653B1 		.ascii	"\022\226S\261\332\347t\316oZe9\310`[H\202:\253~6\011"
  55      DAE774CE 
  55      6F5A6539 
  55      C8605B48 
  55      823AAB7E 
  56 0178 285177A4 		.ascii	"(Qw\244\030.\304\335.9\363\230\333/\233\373(\346\204"
  56      182EC4DD 
  56      2E39F398 
  56      DB2F9BFB 
  56      28E684
  57 018b 453F311D 		.ascii	"E?1\035\\8J\210\003\256\033h\020\022\313\315\373\356"
  57      5C384A88 
  57      03AE1B68 
  57      1012CBCD 
  57      FBEE
  58 019d 3377BC58 		.ascii	"3w\274Xv\037\217\014\217M\216\227\334\302\320\360X\177"
  58      761F8F0C 
  58      8F4D8E97 
ARM GAS  C:\Users\JEFFSN~1\AppData\Local\Temp\ccgPtFdy.s 			page 4


  58      DCC2D0F0 
  58      587F
  59 01af 5F61E0DE 		.ascii	"_a\340\336\235\376\221\301G\017o\227\310y^|2\351\266"
  59      9DFE91C1 
  59      470F6F97 
  59      C8795E7C 
  59      32E9B6
  60 01c2 4D948BE5 		.ascii	"M\224\213\345\321\322\335\321\362\304?^\232\2703"
  60      D1D2DDD1 
  60      F2C43F5E 
  60      9AB833
  61              		.text
  62              		.section	.gnu.lto_IDAC_OUT_SetDriveMode.ba2d9d2b,"",%progbits
  63 0000 789C7D51 		.ascii	"x\234}QMK\033Q\024\275\347\275\311Lbl\376\200Y\210P"
  63      4D4B1B51 
  63      14BDE7BD 
  63      C94C626C 
  63      FE805988 
  64 0015 241B114A 		.ascii	"$\033\021J\177\200XZ\\U\374\330E\244$\263\254\241\241"
  64      7F80585A 
  64      5C55FCD8 
  64      45A424B3 
  64      ACA1A1
  65 0028 AE7D490C 		.ascii	"\256}I\014\001\273)H\262)\022]\210\037\211\306\322n"
  65      01BB2948 
  65      B229125D 
  65      881F89C6 
  65      D26E
  66 003a 0A5DA481 		.ascii	"\012]\244\201viw.\\\210\270\010EPbU\264\266i\274w\246"
  66      7669772E 
  66      5C88B808 
  66      45506255 
  66      B4B669BC 
  67 0050 8BACFA98 		.ascii	"\213\254\372\230w?\016\347\034\356}c\021H\316\017N1"
  67      773F0EE7 
  67      1CEE7D63 
  67      1148CE0F 
  67      4E31
  68 0062 CE7D7CA1 		.ascii	"\316}|\241\011\352\355>Q&\250\000)L\020\264\240\260"
  68      09EAED3E 
  68      5126A800 
  68      294C10B4 
  68      A0B0
  69 0074 806BD556 		.ascii	"\200k\325Vh\024\232\237Tl\303\3609\376z>l6\353\310k"
  69      68149A9F 
  69      546CC3F0 
  69      39FE7A3E 
  69      6C36EBC8 
  70 0089 A28EF29C 		.ascii	"\242\216\362\234\010\033\2101\353\362\303\372rX?\004"
  70      081B8831 
  70      EBF2C3FA 
  70      72583F04 
  71 0099 717DB1DF 		.ascii	"q}\261\337:\212\014\256\033\2235\2468ct^\003\233\320"
  71      3A8A0CAE 
  71      1B9335A6 
  71      3863745E 
  71      039BD0
ARM GAS  C:\Users\JEFFSN~1\AppData\Local\Temp\ccgPtFdy.s 			page 5


  72 00ac ACC0A328 		.ascii	"\254\300\243(\206\243\304\000a\013\203B>y\377\267\370"
  72      86A3C400 
  72      610B8342 
  72      3E79FFB7 
  72      F8
  73 00bd C05E14FB 		.ascii	"\300^\024\373~\337\024\333\260e\314\332D\335t:9S\277"
  73      7EDF14DB 
  73      B065CCDA 
  73      44DD743A 
  73      3953BF
  74 00d0 B1BFDCD9 		.ascii	"\261\277\334\331a\3052\2459hKB\000\342`K\351H\010J\010"
  74      61C532A5 
  74      39684B42 
  74      00E2604B 
  74      E948084A 
  75 00e5 0987A8C5 		.ascii	"\011\207\250\305W\026\271PJ\262n\242q\267\324|g\211"
  75      5716B950 
  75      4AB26EA2 
  75      71B7D47C 
  75      6789
  76 00f7 734ECB52 		.ascii	"sN\313R\245|\343\273s\245\362\332\362&^;8\374\334\343"
  76      A57CE3BB 
  76      73A5F2DA 
  76      F2265E3B 
  76      38FCDCE3 
  77 010b B785D58C 		.ascii	"\267\205\325\214\261\030\372\370\253}\331[\306Jf\221"
  77      B118FAF8 
  77      AB7DD95B 
  77      C64A6691 
  78 011b D70DA08A 		.ascii	"\327\015\240\212(*\210\362t;(\203\232\310\376t|;\315"
  78      282A88F2 
  78      743B2883 
  78      9AC8FE74 
  78      7C3BCD
  79 012e 8EDCE7FE 		.ascii	"\216\334\347\376\330~o1\304\372\303oo\332!\261\324x"
  79      D87E6F31 
  79      C4FAC36F 
  79      6FDA21B1 
  79      D478
  80 0140 855D5676 		.ascii	"\205]VvI\370\013tK\034\206XrvP\251j_\022A\315\223\344"
  80      49F80B74 
  80      4B1C8658 
  80      727650A9 
  80      6A5F1241 
  81 0157 6EFF5182 		.ascii	"n\377Q\202\236\261\323\355\022b\224\373F\011\322\377"
  81      9EB1D3ED 
  81      126294FB 
  81      4609D2FF 
  82 0167 6FE43D1E 		.ascii	"o\344=\036\231\371t\212l\375\367Sa{\277\256\245 \317"
  82      99F9748A 
  82      6CFDF753 
  82      617BBFAE 
  82      A520CF
  83 017a C38F35F0 		.ascii	"\303\2175\360\314\235s\323/^\273\311\331\311\324|:\341"
  83      CC9D73D3 
  83      2F5EBBC9 
  83      D9C9D47C 
ARM GAS  C:\Users\JEFFSN~1\AppData\Local\Temp\ccgPtFdy.s 			page 6


  83      3AE1
  84 018c C6C72753 		.ascii	"\306\307'S\243\217\343cOFFg\237OO\015%\310z\231J\272"
  84      A38FE363 
  84      4F464667 
  84      9F4F4F0D 
  84      25C87A99 
  85 01a2 F77F18A7 		.ascii	"\367\177\030\247="
  85      3D
  86              		.text
  87              		.section	.gnu.lto_IDAC_OUT_Read.ba2d9d2b,"",%progbits
  88 0000 789C354F 		.ascii	"x\2345OA+DQ\024>\337\275\357\315\233\246\374\002\263"
  88      412B4451 
  88      143EDFBD 
  88      EFCD9BA6 
  88      FC02B3
  89 0013 906C6623 		.ascii	"\220lf#%%;\215\310\212\014\331LM\032\26355\261\236;"
  89      25253B8D 
  89      C88A0CD9 
  89      4C4D1AB3 
  89      3535B19E 
  90 0028 F3E651B2 		.ascii	"\363\346Q\262\260\301\012\2454\303\0206,\215I\"bCYI"
  90      B0C10AA5 
  90      34C31036 
  90      2C8D4922 
  90      62435949 
  91 003c D25B5831 		.ascii	"\322[X1\215F\023\306\271\036\247\3569\367~\367\373\316"
  91      8D4613C6 
  91      B91EA7EE 
  91      39F77EF7 
  91      FBCE
  92 004e 778E4120 		.ascii	"w\216A \035\343\\\332\2706\363\201$\210\305k\242\214"
  92      1DE35CDA 
  92      B836F381 
  92      2488C56B 
  92      A28C
  93 0060 5F00FAA2 		.ascii	"_\000\372\242\374\240\264@\032\357\342K\340\262v\276"
  93      FCA0B440 
  93      1AEFE24B 
  93      E0B276BE 
  94 0070 1008E595 		.ascii	"\020\010\345\225\312\252\307\315z\367J\241\004G\022"
  94      CAAAC7CD 
  94      7AF74AA1 
  94      044712
  95 007f 3504A133 		.ascii	"5\004\2413\210\216\240n\221G\210\230\372t\360\275\324"
  95      888EA06E 
  95      91478898 
  95      FA74F0BD 
  95      D4
  96 0090 E4CB298E 		.ascii	"\344\313)\216\026M\340\237\002|\332ro\244\244\032\015"
  96      164DE09F 
  96      027CDA72 
  96      6FA4A41A 
  96      0D
  97 00a1 5B95EEAC 		.ascii	"[\225\356\254\223{\313\0029\222}9\031\234\204\251\223"
  97      937BCB02 
  97      39927D39 
  97      199C84A9 
ARM GAS  C:\Users\JEFFSN~1\AppData\Local\Temp\ccgPtFdy.s 			page 7


  97      93
  98 00b2 8F745B7A 		.ascii	"\217t[ze\231\036\342M\010]\245\213r}\376a\255Gw\262"
  98      65991EE2 
  98      4D085DA5 
  98      8B727DFE 
  98      61AD4777 
  99 00c7 A5649765 		.ascii	"\245d\227e\247|cU\205#%\264i\361\324\311\231\3363\263"
  99      A77C6355 
  99      852325B4 
  99      69F1D4C9 
  99      99DE33B3 
 100 00db 91510643 		.ascii	"\221Q\006CG\037\373\307X\307j&\307\243\032\330F\020"
 100      471FFBC7 
 100      58C76A26 
 100      C7A31AD8 
 100      4610
 101 00ed 5BE04151 		.ascii	"[\340AQd\224\\\330\237\375dKx\355\016\335\213\263\200"
 101      64945CD8 
 101      9FFD644B 
 101      78ED0EDD 
 101      8BB380
 102 0100 D6030AD8 		.ascii	"\326\003\012\330a\236\213le\356Jz\216\006\023\265\244"
 102      619E8B6C 
 102      65EE4A7A 
 102      8E0613B5 
 102      A4
 103 0111 327B6B7A 		.ascii	"2{kz\210\311 \353\252\363NMj\235\200\205\335\177\331"
 103      88C920EB 
 103      AAF34E4D 
 103      6A9D8085 
 103      DD7FD9
 104 0124 333C92E6 		.ascii	"3<\222\346\321\013\304\337\213~7\203\336\210\367k\035"
 104      D10BC4DF 
 104      8B7E3783 
 104      DE88F76B 
 104      1D
 105 0135 484C2552 		.ascii	"HL%R\023\323\211\311X$9\223\212'\242\303\221d\270+:"
 105      13D389C9 
 105      58243993 
 105      8A27A2C3 
 105      9164B82B 
 106 014a D8D71B8E 		.ascii	"\330\327\033\216\015\215\215\266\307\351\007U\352{\221"
 106      0D8D8DB6 
 106      C7E90755 
 106      EA7B91
 107              		.text
 108              		.section	.gnu.lto_IDAC_OUT_ReadDataReg.ba2d9d2b,"",%progbits
 109 0000 789C354F 		.ascii	"x\2345O\275KBQ\024?\277{\337S\021\374\013r\210hq\211"
 109      BD4B4251 
 109      143FBF7B 
 109      DF5311FC 
 109      0B728868 
 110 0016 201A6A0B 		.ascii	" \032j\013\243h*\262h\021$\354\255\011R\263W\237\257"
 110      A3682AB2 
 110      681124EC 
 110      AD0952B3 
 110      579FAF
ARM GAS  C:\Users\JEFFSN~1\AppData\Local\Temp\ccgPtFdy.s 			page 8


 111 0029 20825AAA 		.ascii	" \202Z\252)\214 \324>\210\226\206(0\207(\212l\350\017"
 111      298C20D4 
 111      3E889686 
 111      28308728 
 111      8A6CE80F 
 112 003d 880887A6 		.ascii	"\210\010\207\246\022C\214\322\316\355\325\201{\316\275"
 112      12438CD2 
 112      CEEDD581 
 112      7BCEBD
 113 004c E7FE3ECE 		.ascii	"\347\376>\3161\010\244c\206K7\327\016>\220\004\261~"
 113      3108A463 
 113      864B37D7 
 113      0E3E9004 
 113      B17E
 114 005e 4F94F609 		.ascii	"O\224\366\011@_\224\017\224\022H\341C|\013\3346\256"
 114      405F940F 
 114      941248E1 
 114      437C0BDC 
 114      36AE
 115 0070 57FDA1BC 		.ascii	"W\375\241\274R\031\365\264\227\037\330*\224\340H\242"
 115      5219F5B4 
 115      971FD82A 
 115      94E048A2 
 116 0080 B620F405 		.ascii	"\266 \364\005\321\033\324\022y\204\210\241\317'\255"
 116      D11BD412 
 116      798488A1 
 116      CF27AD
 117 008f 8D8027AB 		.ascii	"\215\200'\2538:5\200\177\012\360h\313\343\311\222j\267"
 117      383A3580 
 117      7F0AF068 
 117      CBE3C992 
 117      6AB7
 118 00a1 6D55BAF0 		.ascii	"mU\272\360_>\370\275 G\262/'\203\2230u\362\220\226\245"
 118      5F3EF8BD 
 118      2047B22F 
 118      27839330 
 118      75F29096 
 119 00b6 37A6E921 		.ascii	"7\246\351!\336\205\320UVQ\376\\i\025\007\265\222-%\273"
 119      DE85D055 
 119      5651FE5C 
 119      691507B5 
 119      922D25BB 
 120 00ca 6C3AE58A 		.ascii	"l:\345\212\267.\034)\241M\325\316Z\323t\237j7\255\014"
 120      B72E1C29 
 120      A14DD5CE 
 120      5AD3749F 
 120      6A37AD0C 
 121 00de 6E352B67 		.ascii	"n5+g\347\201\034\266\323Y\036\325\300>\202(\202\007"
 121      E7811CB6 
 121      D3591ED5 
 121      C03E8228 
 121      8207
 122 00f0 C50172A0 		.ascii	"\305\001r\240*\354\257\021\262%\\\271\323\352\315\225"
 122      2AECAF11 
 122      B2255CB9 
 122      D3EACD95 
 123 0100 5FF30105 		.ascii	"_\363\001\005\0342\256\212Lm\371N\272\216\006\0035\245"
ARM GAS  C:\Users\JEFFSN~1\AppData\Local\Temp\ccgPtFdy.s 			page 9


 123      1C32AE8A 
 123      4C6DF94E 
 123      BA8E0603 
 123      35A5
 124 0112 B6F468BA 		.ascii	"\266\364h\272\035\223\233\314\253\2578\015\251y\002"
 124      1D939BCC 
 124      ABAF380D 
 124      A97902
 125 0121 5E1CFDD3 		.ascii	"^\034\375\323^\340\2024\216^!\376^\364\273\031\364F"
 125      5EE08234 
 125      8E5E21FE 
 125      5EF4BB19 
 125      F446
 126 0133 BC5FD7A8 		.ascii	"\274_\327\2505o%g\027\254\271X$\261\230\214[\321\211"
 126      356F2567 
 126      17ACB958 
 126      24B1988C 
 126      5BD189
 127 0146 4822DC1F 		.ascii	"H\"\334\037\035\033\036\012\307\306\247\247z\342\364"
 127      1D1B1E0A 
 127      C7C6A7A7 
 127      7AE2F4
 128 0155 0334537B 		.ascii	"\0034S{\253"
 128      AB
 129              		.text
 130              		.section	.gnu.lto_.symbol_nodes.ba2d9d2b,"",%progbits
 131 0000 789C6361 		.ascii	"x\234ca`dpc\000\002&\206z\006\206\011\347\030@\324\252"
 131      60647063 
 131      00022686 
 131      7A068609 
 131      E71840D4 
 132 0015 0645A000 		.ascii	"\006E\240\000c=#\252\000S=\023\252\000s=3\212\000\003"
 132      633D23AA 
 132      00533D13 
 132      AA00733D 
 132      338A0003 
 133 0029 001ED60E 		.ascii	"\000\036\326\016\374"
 133      FC
 134              		.text
 135              		.section	.gnu.lto_.refs.ba2d9d2b,"",%progbits
 136 0000 789C6361 		.ascii	"x\234ca`\004B \000\000\0009\000\007"
 136      60044220 
 136      00000039 
 136      0007
 137              		.text
 138              		.section	.gnu.lto_.decls.ba2d9d2b,"",%progbits
 139 0000 789C8D92 		.ascii	"x\234\215\222]H\024Q\024\307\357\231\231]m\\-\304Bb"
 139      5D481451 
 139      14C7EF99 
 139      995D6D5C 
 139      2DC44262 
 140 0014 1ECC277B 		.ascii	"\036\314'{\261$\002\241\350\003%\353\241\014M{\021d"
 140      B12402A1 
 140      E80325EB 
 140      A10C4D7B 
 140      1164
 141 0026 D5C17CD1 		.ascii	"\325\301|\321\330\326@z\271\271FZ/\372\260\206\"jB\245"
ARM GAS  C:\Users\JEFFSN~1\AppData\Local\Temp\ccgPtFdy.s 			page 10


 141      D8D6407A 
 141      B9B9465A 
 141      2FFAB086 
 141      226A42A5 
 142 003a F9B9AE6B 		.ascii	"\371\271\256k\272f\256Y\026\201\220\011A\230$\231\220"
 142      BA66AE59 
 142      16819009 
 142      41982499 
 142      90
 143 004b 2466E88B 		.ascii	"$f\350\213\017\266\235{wfg\254\015<p\347\336s\357\371"
 143      0FB69D7B 
 143      776667AC 
 143      0D3C70E7 
 143      DE73EFF9 
 144 005f FFCEB967 		.ascii	"\377\316\271g\256D\2000;!\021\322\201\263\202n\020\315"
 144      AE448030 
 144      3B2111D2 
 144      81B3826E 
 144      10CD
 145 0071 82EB7C62 		.ascii	"\202\353|b\030\036\023/\016\037\216\021\034~\362\257"
 145      181E132F 
 145      0E1F8E11 
 145      1C7EF2AF 
 146 0081 B173ABA6 		.ascii	"\261s\253\246\353c,\034\0238\306qdk1\240\305\375m\276"
 146      EB632C1C 
 146      1338C671 
 146      646B31A0 
 146      C5FD6DBE 
 147 0095 08DA8049 		.ascii	"\010\332\200I\257k}\021\264\254\036\213I\227\035A7\022"
 147      AF6B7D11 
 147      B4AC1E8B 
 147      49971D41 
 147      3712
 148 00a7 41E7DF85 		.ascii	"A\347\337\205.\322=\267\005h\231l\235\262\314\303'\000"
 148      2ED23DB7 
 148      0568996C 
 148      9DB2CCC3 
 148      2700
 149 00b9 02DC88D6 		.ascii	"\002\334\210\326G\302v\264\231- \344\010:\017\364 ="
 149      47C276B4 
 149      992D20E4 
 149      083A0FF4 
 149      203D
 150 00cb 050F0722 		.ascii	"\005\017\007\"\360\370\360\276\036\027\316\031\324\315"
 150      F0F8F0BE 
 150      1E17CE19 
 150      D4CD
 151 00d9 D882B0E9 		.ascii	"\330\202\260\351\221\260\023\312\250\206\213\276`\010"
 151      91B013CA 
 151      A8868BBE 
 151      6008
 152 00e7 4C3CAD7A 		.ascii	"L<\255z-?\230\323r\264\250_\372\203\347\253W\022\221"
 152      2D3F98D3 
 152      72B4A85F 
 152      FA83E7AB 
 152      571291
 153 00fa 89EB2F5B 		.ascii	"\211\353/[\235\347R{(Z=\245\302a\2433\375w\276uEo\012"
ARM GAS  C:\Users\JEFFSN~1\AppData\Local\Temp\ccgPtFdy.s 			page 11


 153      9DE7527B 
 153      285A3DA5 
 153      C261A333 
 153      FD77BE75 
 154 0111 A0C81004 		.ascii	"\240\310\020\004\346\257\216n\305\206|v\334\324\260"
 154      E6AF8E6E 
 154      C5867C76 
 154      DCD4B0
 155 0120 F43B463C 		.ascii	"\364;F<\310\326\302\334R\367\212\004)\362c\206YlX>5"
 155      C8D6C2DC 
 155      52F78A04 
 155      29F26386 
 155      596C583E 
 156 0135 4AE93EE8 		.ascii	"J\351>\350\003\031z@\204.He\025(2~k)\255\246\353\035"
 156      03197A40 
 156      842E4865 
 156      1528327E 
 156      6B29ADA6 
 157 014b D49A48E0 		.ascii	"\324\232H\340\230\002G\025\002\275\220\302\230,\012"
 157      98024715 
 157      02BD90C2 
 157      982C0A
 158 015a BA4181A7 		.ascii	"\272A\201\247\2400\376\362\203\266\037V\011\333\315"
 158      A030FEF2 
 158      83B61F56 
 158      09DBCD
 159 0169 394512DB 		.ascii	"9E\022\333\233\255\031h\021\261\204x\031$t\177\3154"
 159      9BAD1968 
 159      11B18478 
 159      1924747F 
 159      CD34
 160 017b 2FC5A19B 		.ascii	"/\305\241\233 C\022\272=\376\317\253\326\304F~\025\027"
 160      204312BA 
 160      3DFECFAB 
 160      D6C4467E 
 160      1517
 161 018d 4D9220FF 		.ascii	"M\222 \377\000x\0208\200@\002\203\220\210\337~\220B"
 161      00781038 
 161      80400283 
 161      9088DF7E 
 161      9042
 162 019f B7FBBEBE 		.ascii	"\267\373\276\276\320\275'\271\235\266\017\320E\367\364"
 162      D0BD27B9 
 162      9DB60FD0 
 162      45F7F4
 163 01ae C946177D 		.ascii	"\311F\027}\213\272$\026\006\235F\321\270d\323\023\230"
 163      8BBA2416 
 163      069D46D1 
 163      B864D313 
 163      98
 164 01bf C7867A21 		.ascii	"\307\206z!\031\225\343\376\225\205hQ\345M\270\273\261"
 164      1995E3FE 
 164      95856851 
 164      E54DB8BB 
 164      B1
 165 01d0 B61813A2 		.ascii	"\266\030\023\242\0046\247m\264\3766\245g8c\310`\014"
 165      0436A76D 
ARM GAS  C:\Users\JEFFSN~1\AppData\Local\Temp\ccgPtFdy.s 			page 12


 165      B4FE36A5 
 165      673863C8 
 165      600C
 166 01e2 99193ECE 		.ascii	"\231\031>\316\360\364y\352$\361\026g\274\277\377\332"
 166      F0F479EA 
 166      24F11667 
 166      BCBFFFDA 
 167 01f2 B5D75C36 		.ascii	"\265\327\\6\273\257Q\3673^w\221V\366\317@\333#\213\226"
 167      BBAF51F7 
 167      335E7791 
 167      56F6CF40 
 167      DB238B96 
 168 0206 70EE8DD8 		.ascii	"p\356\215\330D\0035\250\023X\024\014\033)\207\315)G"
 168      440335A8 
 168      1358140C 
 168      1B2987CD 
 168      2947
 169 0218 78CAC15E 		.ascii	"x\312\301^\367\021\261\016xJ\327\330\254M\203\370\337"
 169      F711B10E 
 169      784AD7D8 
 169      AC4D83F8 
 169      DF
 170 0229 E95533C4 		.ascii	"\351U3\304\250\201\0305#\374\034\261Y\263\361\321*\343"
 170      A8811835 
 170      23FC1CB1 
 170      59B3F1D1 
 170      2AE3
 171 023b 2F74EDEE 		.ascii	"/t\355\356\027\316\254<\014F\211\255<\247\340u7\271"
 171      17CEAC3C 
 171      0C4689AD 
 171      3CA7E075 
 171      37B9
 172 024d A3404E89 		.ascii	"\243@N\211 \177\021A\256=\245\336\274\206:v\277q\354"
 172      207F1141 
 172      AE3DA5DE 
 172      BC863A76 
 172      BF71EC
 173 0260 C973A3B8 		.ascii	"\311s\243\2701\220C\375\350Z\233\012\200\355\036{U\330"
 173      319043FD 
 173      E85A9B0A 
 173      80ED1E7B 
 173      55D8
 174 0272 BCF8F33C 		.ascii	"\274\370\363<\320h\336\004\330\370\353\307y[\020_\315"
 174      D068DE04 
 174      D8F8EBC7 
 174      795B105F 
 174      CD
 175 0283 F54FC820 		.ascii	"\365O\310 +\200\347P\313\022\254W\233\352 \020`X\230"
 175      2B80E750 
 175      CB12AC57 
 175      9BEA2010 
 175      605898
 176 0296 C4E39728 		.ascii	"\304\343\227(o\246,f\026\3706w\326O\3635\377\304]\310"
 176      6FA62C66 
 176      16F83677 
 176      D64FF335 
 176      FFC45DC8 
ARM GAS  C:\Users\JEFFSN~1\AppData\Local\Temp\ccgPtFdy.s 			page 13


 177 02aa 3C9B5198 		.ascii	"<\233Q\230\235w\245\360\252\243\314\251Fg]\312K\312"
 177      9D77A5F0 
 177      AAA3CCA9 
 177      46675DCA 
 177      4BCA
 178 02bc 484B2396 		.ascii	"HK#\226\312\262rg\372\241,\265\\u\330\235jIanE\245\243"
 178      CAB27267 
 178      FAA12CB5 
 178      5C75D89D 
 178      6A49616E 
 179 02d3 582DB89C 		.ascii	"X-\270\234[\221q\274\240\270\312Yu]\275\221z\215$\377"
 179      5B9171BC 
 179      A0B8CA59 
 179      755DBD91 
 179      7A8D24FF 
 180 02e7 2742C7A6 		.ascii	"'B\307\246\026\223\375\341\024\271\2523\323QvS\275X"
 180      1693FDE1 
 180      14B9AA33 
 180      D3517653 
 180      BD58
 181 02f9 51A2C686 		.ascii	"Q\242\306\206wsT{I\302\016/\323\356\264\347\250\245"
 181      7773547B 
 181      49C20E2F 
 181      D3EEB4E7 
 181      A8A5
 182 030b 92432D4D 		.ascii	"\222C-M\377\003u\265a\241"
 182      FF0375B5 
 182      61A1
 183              		.text
 184              		.section	.gnu.lto_.symtab.ba2d9d2b,"",%progbits
 185 0000 49444143 		.ascii	"IDAC_OUT_Write\000"
 185      5F4F5554 
 185      5F577269 
 185      746500
 186 000f 00       		.ascii	"\000"
 187 0010 00       		.ascii	"\000"
 188 0011 00       		.ascii	"\000"
 189 0012 00000000 		.ascii	"\000\000\000\000\000\000\000\000"
 189      00000000 
 190 001a B3000000 		.ascii	"\263\000\000\000"
 191 001e 49444143 		.ascii	"IDAC_OUT_SetDriveMode\000"
 191      5F4F5554 
 191      5F536574 
 191      44726976 
 191      654D6F64 
 192 0034 00       		.ascii	"\000"
 193 0035 00       		.ascii	"\000"
 194 0036 00       		.ascii	"\000"
 195 0037 00000000 		.ascii	"\000\000\000\000\000\000\000\000"
 195      00000000 
 196 003f B5000000 		.ascii	"\265\000\000\000"
 197 0043 49444143 		.ascii	"IDAC_OUT_Read\000"
 197      5F4F5554 
 197      5F526561 
 197      6400
 198 0051 00       		.ascii	"\000"
 199 0052 00       		.ascii	"\000"
ARM GAS  C:\Users\JEFFSN~1\AppData\Local\Temp\ccgPtFdy.s 			page 14


 200 0053 00       		.ascii	"\000"
 201 0054 00000000 		.ascii	"\000\000\000\000\000\000\000\000"
 201      00000000 
 202 005c B8000000 		.ascii	"\270\000\000\000"
 203 0060 49444143 		.ascii	"IDAC_OUT_ReadDataReg\000"
 203      5F4F5554 
 203      5F526561 
 203      64446174 
 203      61526567 
 204 0075 00       		.ascii	"\000"
 205 0076 00       		.ascii	"\000"
 206 0077 00       		.ascii	"\000"
 207 0078 00000000 		.ascii	"\000\000\000\000\000\000\000\000"
 207      00000000 
 208 0080 BA000000 		.ascii	"\272\000\000\000"
 209              		.text
 210              		.section	.gnu.lto_.opts,"",%progbits
 211 0000 272D666D 		.ascii	"'-fmath-errno' '-fsigned-zeros' '-ftrapping-math' '"
 211      6174682D 
 211      6572726E 
 211      6F272027 
 211      2D667369 
 212 0033 2D666E6F 		.ascii	"-fno-trapv' '-fno-strict-overflow' '-fno-openmp' '-"
 212      2D747261 
 212      70762720 
 212      272D666E 
 212      6F2D7374 
 213 0066 666E6F2D 		.ascii	"fno-openacc' '-mcpu=cortex-m3' '-mthumb' '-g' '-Og'"
 213      6F70656E 
 213      61636327 
 213      20272D6D 
 213      6370753D 
 214 0099 20272D66 		.ascii	" '-ffunction-sections' '-ffat-lto-objects' '-finlin"
 214      66756E63 
 214      74696F6E 
 214      2D736563 
 214      74696F6E 
 215 00cc 652D6675 		.ascii	"e-functions' '-flto'\000"
 215      6E637469 
 215      6F6E7327 
 215      20272D66 
 215      6C746F27 
 216              		.text
 217              		.cfi_sections	.debug_frame
 218              		.section	.text.IDAC_OUT_Write,"ax",%progbits
 219              		.align	2
 220              		.global	IDAC_OUT_Write
 221              		.thumb
 222              		.thumb_func
 223              		.type	IDAC_OUT_Write, %function
 224              	IDAC_OUT_Write:
 225              	.LFB0:
 226              		.file 1 "Generated_Source\\PSoC5\\IDAC_OUT.c"
   1:Generated_Source\PSoC5/IDAC_OUT.c **** /*******************************************************************************
   2:Generated_Source\PSoC5/IDAC_OUT.c **** * File Name: IDAC_OUT.c  
   3:Generated_Source\PSoC5/IDAC_OUT.c **** * Version 2.20
   4:Generated_Source\PSoC5/IDAC_OUT.c **** *
ARM GAS  C:\Users\JEFFSN~1\AppData\Local\Temp\ccgPtFdy.s 			page 15


   5:Generated_Source\PSoC5/IDAC_OUT.c **** * Description:
   6:Generated_Source\PSoC5/IDAC_OUT.c **** *  This file contains API to enable firmware control of a Pins component.
   7:Generated_Source\PSoC5/IDAC_OUT.c **** *
   8:Generated_Source\PSoC5/IDAC_OUT.c **** * Note:
   9:Generated_Source\PSoC5/IDAC_OUT.c **** *
  10:Generated_Source\PSoC5/IDAC_OUT.c **** ********************************************************************************
  11:Generated_Source\PSoC5/IDAC_OUT.c **** * Copyright 2008-2015, Cypress Semiconductor Corporation.  All rights reserved.
  12:Generated_Source\PSoC5/IDAC_OUT.c **** * You may use this file only in accordance with the license, terms, conditions, 
  13:Generated_Source\PSoC5/IDAC_OUT.c **** * disclaimers, and limitations in the end user license agreement accompanying 
  14:Generated_Source\PSoC5/IDAC_OUT.c **** * the software package with which this file was provided.
  15:Generated_Source\PSoC5/IDAC_OUT.c **** *******************************************************************************/
  16:Generated_Source\PSoC5/IDAC_OUT.c **** 
  17:Generated_Source\PSoC5/IDAC_OUT.c **** #include "cytypes.h"
  18:Generated_Source\PSoC5/IDAC_OUT.c **** #include "IDAC_OUT.h"
  19:Generated_Source\PSoC5/IDAC_OUT.c **** 
  20:Generated_Source\PSoC5/IDAC_OUT.c **** /* APIs are not generated for P15[7:6] on PSoC 5 */
  21:Generated_Source\PSoC5/IDAC_OUT.c **** #if !(CY_PSOC5A &&\
  22:Generated_Source\PSoC5/IDAC_OUT.c **** 	 IDAC_OUT__PORT == 15 && ((IDAC_OUT__MASK & 0xC0) != 0))
  23:Generated_Source\PSoC5/IDAC_OUT.c **** 
  24:Generated_Source\PSoC5/IDAC_OUT.c **** 
  25:Generated_Source\PSoC5/IDAC_OUT.c **** /*******************************************************************************
  26:Generated_Source\PSoC5/IDAC_OUT.c **** * Function Name: IDAC_OUT_Write
  27:Generated_Source\PSoC5/IDAC_OUT.c **** ****************************************************************************//**
  28:Generated_Source\PSoC5/IDAC_OUT.c **** *
  29:Generated_Source\PSoC5/IDAC_OUT.c **** * \brief Writes the value to the physical port (data output register), masking
  30:Generated_Source\PSoC5/IDAC_OUT.c **** *  and shifting the bits appropriately. 
  31:Generated_Source\PSoC5/IDAC_OUT.c **** *
  32:Generated_Source\PSoC5/IDAC_OUT.c **** * The data output register controls the signal applied to the physical pin in 
  33:Generated_Source\PSoC5/IDAC_OUT.c **** * conjunction with the drive mode parameter. This function avoids changing 
  34:Generated_Source\PSoC5/IDAC_OUT.c **** * other bits in the port by using the appropriate method (read-modify-write or
  35:Generated_Source\PSoC5/IDAC_OUT.c **** * bit banding).
  36:Generated_Source\PSoC5/IDAC_OUT.c **** *
  37:Generated_Source\PSoC5/IDAC_OUT.c **** * <b>Note</b> This function should not be used on a hardware digital output pin 
  38:Generated_Source\PSoC5/IDAC_OUT.c **** * as it is driven by the hardware signal attached to it.
  39:Generated_Source\PSoC5/IDAC_OUT.c **** *
  40:Generated_Source\PSoC5/IDAC_OUT.c **** * \param value
  41:Generated_Source\PSoC5/IDAC_OUT.c **** *  Value to write to the component instance.
  42:Generated_Source\PSoC5/IDAC_OUT.c **** *
  43:Generated_Source\PSoC5/IDAC_OUT.c **** * \return 
  44:Generated_Source\PSoC5/IDAC_OUT.c **** *  None 
  45:Generated_Source\PSoC5/IDAC_OUT.c **** *
  46:Generated_Source\PSoC5/IDAC_OUT.c **** * \sideeffect
  47:Generated_Source\PSoC5/IDAC_OUT.c **** *  If you use read-modify-write operations that are not atomic; the Interrupt 
  48:Generated_Source\PSoC5/IDAC_OUT.c **** *  Service Routines (ISR) can cause corruption of this function. An ISR that 
  49:Generated_Source\PSoC5/IDAC_OUT.c **** *  interrupts this function and performs writes to the Pins component data 
  50:Generated_Source\PSoC5/IDAC_OUT.c **** *  register can cause corrupted port data. To avoid this issue, you should 
  51:Generated_Source\PSoC5/IDAC_OUT.c **** *  either use the Per-Pin APIs (primary method) or disable interrupts around 
  52:Generated_Source\PSoC5/IDAC_OUT.c **** *  this function.
  53:Generated_Source\PSoC5/IDAC_OUT.c **** *
  54:Generated_Source\PSoC5/IDAC_OUT.c **** * \funcusage
  55:Generated_Source\PSoC5/IDAC_OUT.c **** *  \snippet IDAC_OUT_SUT.c usage_IDAC_OUT_Write
  56:Generated_Source\PSoC5/IDAC_OUT.c **** *******************************************************************************/
  57:Generated_Source\PSoC5/IDAC_OUT.c **** void IDAC_OUT_Write(uint8 value)
  58:Generated_Source\PSoC5/IDAC_OUT.c **** {
 227              		.loc 1 58 0
 228              		.cfi_startproc
 229              		@ args = 0, pretend = 0, frame = 0
ARM GAS  C:\Users\JEFFSN~1\AppData\Local\Temp\ccgPtFdy.s 			page 16


 230              		@ frame_needed = 0, uses_anonymous_args = 0
 231              		@ link register save eliminated.
 232              	.LVL0:
  59:Generated_Source\PSoC5/IDAC_OUT.c ****     uint8 staticBits = (IDAC_OUT_DR & (uint8)(~IDAC_OUT_MASK));
 233              		.loc 1 59 0
 234 0000 044A     		ldr	r2, .L2
 235 0002 1378     		ldrb	r3, [r2]	@ zero_extendqisi2
 236 0004 03F07F03 		and	r3, r3, #127
 237              	.LVL1:
  60:Generated_Source\PSoC5/IDAC_OUT.c ****     IDAC_OUT_DR = staticBits | ((uint8)(value << IDAC_OUT_SHIFT) & IDAC_OUT_MASK);
 238              		.loc 1 60 0
 239 0008 C001     		lsls	r0, r0, #7
 240              	.LVL2:
 241 000a C0B2     		uxtb	r0, r0
 242 000c 1843     		orrs	r0, r0, r3
 243 000e 1070     		strb	r0, [r2]
 244 0010 7047     		bx	lr
 245              	.L3:
 246 0012 00BF     		.align	2
 247              	.L2:
 248 0014 00510040 		.word	1073762560
 249              		.cfi_endproc
 250              	.LFE0:
 251              		.size	IDAC_OUT_Write, .-IDAC_OUT_Write
 252              		.section	.text.IDAC_OUT_SetDriveMode,"ax",%progbits
 253              		.align	2
 254              		.global	IDAC_OUT_SetDriveMode
 255              		.thumb
 256              		.thumb_func
 257              		.type	IDAC_OUT_SetDriveMode, %function
 258              	IDAC_OUT_SetDriveMode:
 259              	.LFB1:
  61:Generated_Source\PSoC5/IDAC_OUT.c **** }
  62:Generated_Source\PSoC5/IDAC_OUT.c **** 
  63:Generated_Source\PSoC5/IDAC_OUT.c **** 
  64:Generated_Source\PSoC5/IDAC_OUT.c **** /*******************************************************************************
  65:Generated_Source\PSoC5/IDAC_OUT.c **** * Function Name: IDAC_OUT_SetDriveMode
  66:Generated_Source\PSoC5/IDAC_OUT.c **** ****************************************************************************//**
  67:Generated_Source\PSoC5/IDAC_OUT.c **** *
  68:Generated_Source\PSoC5/IDAC_OUT.c **** * \brief Sets the drive mode for each of the Pins component's pins.
  69:Generated_Source\PSoC5/IDAC_OUT.c **** * 
  70:Generated_Source\PSoC5/IDAC_OUT.c **** * <b>Note</b> This affects all pins in the Pins component instance. Use the
  71:Generated_Source\PSoC5/IDAC_OUT.c **** * Per-Pin APIs if you wish to control individual pin's drive modes.
  72:Generated_Source\PSoC5/IDAC_OUT.c **** *
  73:Generated_Source\PSoC5/IDAC_OUT.c **** * \param mode
  74:Generated_Source\PSoC5/IDAC_OUT.c **** *  Mode for the selected signals. Valid options are documented in 
  75:Generated_Source\PSoC5/IDAC_OUT.c **** *  \ref driveMode.
  76:Generated_Source\PSoC5/IDAC_OUT.c **** *
  77:Generated_Source\PSoC5/IDAC_OUT.c **** * \return
  78:Generated_Source\PSoC5/IDAC_OUT.c **** *  None
  79:Generated_Source\PSoC5/IDAC_OUT.c **** *
  80:Generated_Source\PSoC5/IDAC_OUT.c **** * \sideeffect
  81:Generated_Source\PSoC5/IDAC_OUT.c **** *  If you use read-modify-write operations that are not atomic, the ISR can
  82:Generated_Source\PSoC5/IDAC_OUT.c **** *  cause corruption of this function. An ISR that interrupts this function 
  83:Generated_Source\PSoC5/IDAC_OUT.c **** *  and performs writes to the Pins component Drive Mode registers can cause 
  84:Generated_Source\PSoC5/IDAC_OUT.c **** *  corrupted port data. To avoid this issue, you should either use the Per-Pin
  85:Generated_Source\PSoC5/IDAC_OUT.c **** *  APIs (primary method) or disable interrupts around this function.
ARM GAS  C:\Users\JEFFSN~1\AppData\Local\Temp\ccgPtFdy.s 			page 17


  86:Generated_Source\PSoC5/IDAC_OUT.c **** *
  87:Generated_Source\PSoC5/IDAC_OUT.c **** * \funcusage
  88:Generated_Source\PSoC5/IDAC_OUT.c **** *  \snippet IDAC_OUT_SUT.c usage_IDAC_OUT_SetDriveMode
  89:Generated_Source\PSoC5/IDAC_OUT.c **** *******************************************************************************/
  90:Generated_Source\PSoC5/IDAC_OUT.c **** void IDAC_OUT_SetDriveMode(uint8 mode)
  91:Generated_Source\PSoC5/IDAC_OUT.c **** {
 260              		.loc 1 91 0
 261              		.cfi_startproc
 262              		@ args = 0, pretend = 0, frame = 0
 263              		@ frame_needed = 0, uses_anonymous_args = 0
 264              		@ link register save eliminated.
 265              	.LVL3:
  92:Generated_Source\PSoC5/IDAC_OUT.c **** 	CyPins_SetPinDriveMode(IDAC_OUT_0, mode);
 266              		.loc 1 92 0
 267 0000 044A     		ldr	r2, .L5
 268 0002 1378     		ldrb	r3, [r2]	@ zero_extendqisi2
 269 0004 03F0F103 		and	r3, r3, #241
 270 0008 00F00E00 		and	r0, r0, #14
 271              	.LVL4:
 272 000c 1843     		orrs	r0, r0, r3
 273 000e 1070     		strb	r0, [r2]
 274 0010 7047     		bx	lr
 275              	.L6:
 276 0012 00BF     		.align	2
 277              	.L5:
 278 0014 07500040 		.word	1073762311
 279              		.cfi_endproc
 280              	.LFE1:
 281              		.size	IDAC_OUT_SetDriveMode, .-IDAC_OUT_SetDriveMode
 282              		.section	.text.IDAC_OUT_Read,"ax",%progbits
 283              		.align	2
 284              		.global	IDAC_OUT_Read
 285              		.thumb
 286              		.thumb_func
 287              		.type	IDAC_OUT_Read, %function
 288              	IDAC_OUT_Read:
 289              	.LFB2:
  93:Generated_Source\PSoC5/IDAC_OUT.c **** }
  94:Generated_Source\PSoC5/IDAC_OUT.c **** 
  95:Generated_Source\PSoC5/IDAC_OUT.c **** 
  96:Generated_Source\PSoC5/IDAC_OUT.c **** /*******************************************************************************
  97:Generated_Source\PSoC5/IDAC_OUT.c **** * Function Name: IDAC_OUT_Read
  98:Generated_Source\PSoC5/IDAC_OUT.c **** ****************************************************************************//**
  99:Generated_Source\PSoC5/IDAC_OUT.c **** *
 100:Generated_Source\PSoC5/IDAC_OUT.c **** * \brief Reads the associated physical port (pin status register) and masks 
 101:Generated_Source\PSoC5/IDAC_OUT.c **** *  the required bits according to the width and bit position of the component
 102:Generated_Source\PSoC5/IDAC_OUT.c **** *  instance. 
 103:Generated_Source\PSoC5/IDAC_OUT.c **** *
 104:Generated_Source\PSoC5/IDAC_OUT.c **** * The pin's status register returns the current logic level present on the 
 105:Generated_Source\PSoC5/IDAC_OUT.c **** * physical pin.
 106:Generated_Source\PSoC5/IDAC_OUT.c **** *
 107:Generated_Source\PSoC5/IDAC_OUT.c **** * \return 
 108:Generated_Source\PSoC5/IDAC_OUT.c **** *  The current value for the pins in the component as a right justified number.
 109:Generated_Source\PSoC5/IDAC_OUT.c **** *
 110:Generated_Source\PSoC5/IDAC_OUT.c **** * \funcusage
 111:Generated_Source\PSoC5/IDAC_OUT.c **** *  \snippet IDAC_OUT_SUT.c usage_IDAC_OUT_Read  
 112:Generated_Source\PSoC5/IDAC_OUT.c **** *******************************************************************************/
ARM GAS  C:\Users\JEFFSN~1\AppData\Local\Temp\ccgPtFdy.s 			page 18


 113:Generated_Source\PSoC5/IDAC_OUT.c **** uint8 IDAC_OUT_Read(void)
 114:Generated_Source\PSoC5/IDAC_OUT.c **** {
 290              		.loc 1 114 0
 291              		.cfi_startproc
 292              		@ args = 0, pretend = 0, frame = 0
 293              		@ frame_needed = 0, uses_anonymous_args = 0
 294              		@ link register save eliminated.
 115:Generated_Source\PSoC5/IDAC_OUT.c ****     return (IDAC_OUT_PS & IDAC_OUT_MASK) >> IDAC_OUT_SHIFT;
 295              		.loc 1 115 0
 296 0000 014B     		ldr	r3, .L8
 297 0002 1878     		ldrb	r0, [r3]	@ zero_extendqisi2
 116:Generated_Source\PSoC5/IDAC_OUT.c **** }
 298              		.loc 1 116 0
 299 0004 C009     		lsrs	r0, r0, #7
 300 0006 7047     		bx	lr
 301              	.L9:
 302              		.align	2
 303              	.L8:
 304 0008 01510040 		.word	1073762561
 305              		.cfi_endproc
 306              	.LFE2:
 307              		.size	IDAC_OUT_Read, .-IDAC_OUT_Read
 308              		.section	.text.IDAC_OUT_ReadDataReg,"ax",%progbits
 309              		.align	2
 310              		.global	IDAC_OUT_ReadDataReg
 311              		.thumb
 312              		.thumb_func
 313              		.type	IDAC_OUT_ReadDataReg, %function
 314              	IDAC_OUT_ReadDataReg:
 315              	.LFB3:
 117:Generated_Source\PSoC5/IDAC_OUT.c **** 
 118:Generated_Source\PSoC5/IDAC_OUT.c **** 
 119:Generated_Source\PSoC5/IDAC_OUT.c **** /*******************************************************************************
 120:Generated_Source\PSoC5/IDAC_OUT.c **** * Function Name: IDAC_OUT_ReadDataReg
 121:Generated_Source\PSoC5/IDAC_OUT.c **** ****************************************************************************//**
 122:Generated_Source\PSoC5/IDAC_OUT.c **** *
 123:Generated_Source\PSoC5/IDAC_OUT.c **** * \brief Reads the associated physical port's data output register and masks 
 124:Generated_Source\PSoC5/IDAC_OUT.c **** *  the correct bits according to the width and bit position of the component 
 125:Generated_Source\PSoC5/IDAC_OUT.c **** *  instance. 
 126:Generated_Source\PSoC5/IDAC_OUT.c **** *
 127:Generated_Source\PSoC5/IDAC_OUT.c **** * The data output register controls the signal applied to the physical pin in 
 128:Generated_Source\PSoC5/IDAC_OUT.c **** * conjunction with the drive mode parameter. This is not the same as the 
 129:Generated_Source\PSoC5/IDAC_OUT.c **** * preferred IDAC_OUT_Read() API because the 
 130:Generated_Source\PSoC5/IDAC_OUT.c **** * IDAC_OUT_ReadDataReg() reads the data register instead of the status 
 131:Generated_Source\PSoC5/IDAC_OUT.c **** * register. For output pins this is a useful function to determine the value 
 132:Generated_Source\PSoC5/IDAC_OUT.c **** * just written to the pin.
 133:Generated_Source\PSoC5/IDAC_OUT.c **** *
 134:Generated_Source\PSoC5/IDAC_OUT.c **** * \return 
 135:Generated_Source\PSoC5/IDAC_OUT.c **** *  The current value of the data register masked and shifted into a right 
 136:Generated_Source\PSoC5/IDAC_OUT.c **** *  justified number for the component instance.
 137:Generated_Source\PSoC5/IDAC_OUT.c **** *
 138:Generated_Source\PSoC5/IDAC_OUT.c **** * \funcusage
 139:Generated_Source\PSoC5/IDAC_OUT.c **** *  \snippet IDAC_OUT_SUT.c usage_IDAC_OUT_ReadDataReg 
 140:Generated_Source\PSoC5/IDAC_OUT.c **** *******************************************************************************/
 141:Generated_Source\PSoC5/IDAC_OUT.c **** uint8 IDAC_OUT_ReadDataReg(void)
 142:Generated_Source\PSoC5/IDAC_OUT.c **** {
 316              		.loc 1 142 0
ARM GAS  C:\Users\JEFFSN~1\AppData\Local\Temp\ccgPtFdy.s 			page 19


 317              		.cfi_startproc
 318              		@ args = 0, pretend = 0, frame = 0
 319              		@ frame_needed = 0, uses_anonymous_args = 0
 320              		@ link register save eliminated.
 143:Generated_Source\PSoC5/IDAC_OUT.c ****     return (IDAC_OUT_DR & IDAC_OUT_MASK) >> IDAC_OUT_SHIFT;
 321              		.loc 1 143 0
 322 0000 014B     		ldr	r3, .L11
 323 0002 1878     		ldrb	r0, [r3]	@ zero_extendqisi2
 144:Generated_Source\PSoC5/IDAC_OUT.c **** }
 324              		.loc 1 144 0
 325 0004 C009     		lsrs	r0, r0, #7
 326 0006 7047     		bx	lr
 327              	.L12:
 328              		.align	2
 329              	.L11:
 330 0008 00510040 		.word	1073762560
 331              		.cfi_endproc
 332              	.LFE3:
 333              		.size	IDAC_OUT_ReadDataReg, .-IDAC_OUT_ReadDataReg
 334              		.text
 335              	.Letext0:
 336              		.file 2 "Generated_Source\\PSoC5\\cytypes.h"