ARM GAS  C:\Users\JEFFSN~1\AppData\Local\Temp\ccAcerIl.s 			page 1


   1              		.syntax unified
   2              		.cpu cortex-m3
   3              		.fpu softvfp
   4              		.eabi_attribute 20, 1
   5              		.eabi_attribute 21, 1
   6              		.eabi_attribute 23, 3
   7              		.eabi_attribute 24, 1
   8              		.eabi_attribute 25, 1
   9              		.eabi_attribute 26, 1
  10              		.eabi_attribute 30, 1
  11              		.eabi_attribute 34, 1
  12              		.eabi_attribute 18, 4
  13              		.thumb
  14              		.syntax unified
  15              		.file	"knob_2_36.c"
  16              		.text
  17              	.Ltext0:
  18              		.section	.gnu.lto_.profile.6331665b,"",%progbits
  19 0000 789C6361 		.ascii	"x\234ca`d`a`\000\222\222\242\000\000\261\0009"
  19      60646061 
  19      60009292 
  19      A20000B1 
  19      0039
  20              		.text
  21              		.section	.gnu.lto_.inline.6331665b,"",%progbits
  22 0000 789C6361 		.ascii	"x\234ca`d\000\001?\006\004`a`\340\344`d`\342y\020\313"
  22      60640001 
  22      3F060460 
  22      6160E0E4 
  22      606460E2 
  23 0017 C0B6409E 		.ascii	"\300\266@\236\011$\306\310\300\301\016\024\342\232\340"
  23      0924C6C8 
  23      C0C10E14 
  23      E29AE0
  24 0026 07176262 		.ascii	"\007\027bb`c\005\012\261}\320\203\0131c\0121\000\000"
  24      6063050A 
  24      B17DD083 
  24      0B31630A 
  24      310000
  25 0039 537C0835 		.ascii	"S|\0105"
  26              		.text
  27              		.section	.gnu.lto_.jmpfuncs.6331665b,"",%progbits
  28 0000 789C6361 		.ascii	"x\234ca`d\000\001>\006\004`\001b\240(\023\003\0033\220"
  28      60640001 
  28      3E060460 
  28      0162A028 
  28      13030333 
  29 0015 05000292 		.ascii	"\005\000\002\222\000\036"
  29      001E
  30              		.text
  31              		.section	.gnu.lto_.pureconst.6331665b,"",%progbits
  32 0000 789C6361 		.ascii	"x\234ca`d\340d```a\220b\224b\222b\226\002\000\002\261"
  32      6064E064 
  32      60606061 
  32      90629462 
  32      92629602 
  33 0017 0081     		.ascii	"\000\201"
ARM GAS  C:\Users\JEFFSN~1\AppData\Local\Temp\ccAcerIl.s 			page 2


  34              		.text
  35              		.section	.gnu.lto_knob_2_36_Write.6331665b,"",%progbits
  36 0000 789C5551 		.ascii	"x\234UQKk\023Q\024>\337\275\363h\215\355\037h\026\005"
  36      4B6B1351 
  36      143EDFBD 
  36      F3688DED 
  36      1F681605 
  37 0014 A9A52822 		.ascii	"\251\245(\"\026\373\003t\341V\3546\020b\234EQ\033hS"
  37      16FB0374 
  37      E156EC36 
  37      10629C45 
  37      511B6853 
  38 0028 B7BDD369 		.ascii	"\267\275\323iR\250\010\335\264EP\013\221\222\372\350"
  38      52A808DD 
  38      B445500B 
  38      9192FAE8 
  39 0038 D3952238 		.ascii	"\323\225\"8\314\017\320M\\\370@J\221\021\\H\004\243"
  39      CC0FD04D 
  39      5CF8404A 
  39      91115C48 
  39      04A3
  40 004a AD51D373 		.ascii	"\255Q\323sf6\366\300}\314\231\357;\347\373\316\265\010"
  40      6636F6C0 
  40      7DCC99EF 
  40      3BE7FBCE 
  40      B508
  41 005c 24714A11 		.ascii	"$qJ\021\215\360\331\307\013\232\240\026^\023\371]\012"
  41      8DF0D9C7 
  41      0B9AA016 
  41      5E13F95D 
  41      0A
  42 006d 908BE902 		.ascii	"\220\213\351\002M+L\243\245\376*Ds\361s5T7\034\273\253"
  42      4D2B4CA3 
  42      A5FE2A44 
  42      73F17335 
  42      54371CBB 
  43 0082 0FB4590B 		.ascii	"\017\264Y\013Q\321D\035\225T\"\3241\304\250//\347\032"
  43      51D1441D 
  43      955422D4 
  43      31C4A82F 
  43      2FE71A
  44 0095 D027417C 		.ascii	"\320'A|\257F\255ffp\325\230\031c\016rFW4\260\006\315"
  44      AF46AD66 
  44      6670D598 
  44      19630E72 
  44      465734B0 
  45 00ab 0C0C6771 		.ascii	"\014\014gq6K\234 <\302\240\200\367\33776z\365\351\204"
  45      364B9C20 
  45      3CC2A080 
  45      F7DF3736 
  45      7AF5E984 
  46 00bf B860E2DA 		.ascii	"\270`\342\332\361\201\207B\014\177\335\\6\241\337/\334"
  46      F1818742 
  46      0C7FDD5C 
  46      36A1DF2F 
  46      DC
  47 00d0 C7FF7325 		.ascii	"\307\377s%\030\272\267\375o\261\307\231\025U\375x\202"
ARM GAS  C:\Users\JEFFSN~1\AppData\Local\Temp\ccAcerIl.s 			page 3


  47      18BAB7FD 
  47      6FB1C799 
  47      1555FD78 
  47      82
  48 00e1 81540F9E 		.ascii	"\201T\017\236\302a\207\220\314\346\225\320t:\201\011"
  48      C2618790 
  48      CCE695D0 
  48      743A8109 
  49 00f1 5B764B77 		.ascii	"[vKw+n\252\330)\377\260 \275mI8\262\271\262\0215y\211"
  49      2B6EAAD8 
  49      29FFB020 
  49      BD6D4938 
  49      B2B9B211 
  50 0108 FBEF4AC9 		.ascii	"\373\357J\311\251cD\277\347?-\273R3\3202\211\245J\364"
  50      A96344BF 
  50      E73F2DBB 
  50      5233D032 
  50      89A54AF4 
  51 011c C6FDA12A 		.ascii	"\306\375\241*Z'j\337}\270\373\315I?\267j\276\2618\265"
  51      5A276ADF 
  51      7DB8FBCD 
  51      493FB76A 
  51      BEB138B5 
  52 0130 3B7FAFED 		.ascii	";\177\257\355\256\340\276?\3133\262\260\201,\326\301"
  52      AEE0BE3F 
  52      CB33B2B0 
  52      812CD6C1 
  53 0140 9AB18915 		.ascii	"\232\261\211\025P\214\340O\365#\322\202:\255y\373`\347"
  53      508CE04F 
  53      F523D282 
  53      3AAD79FB 
  53      60E7
  54 0152 6D8F1401 		.ascii	"m\217\024\001^\001[\014\336\203Jl\260RF\011\251Y\215"
  54      5E015B0C 
  54      DE834A6C 
  54      B0524609 
  54      A9598D
  55 0165 EBDD29CB 		.ascii	"\353\335)\313\016\264\364\371\334^\177\321+,\233\201"
  55      0EB4F4F9 
  55      DC5E7FD1 
  55      2B2C9B81 
  56 0175 DB4C4A4A 		.ascii	"\333LJJ7T\012\022\034\203j?\203;\031\001Y\010\011;)"
  56      37540A12 
  56      1C836A3F 
  56      833B1901 
  56      5908093B 
  57 018a 6ADF4931 		.ascii	"j\337I1n\242\300\341T\264\224(:\242\3367&s\324\3003"
  57      6EA2C0E1 
  57      54B49428 
  57      3AA2DE37 
  57      2673D4C0 
  58 019f 36C02CFA 		.ascii	"6\300,\372\212\231\260m\013!y\211\246\202\014\213Gw"
  58      8A99B06D 
  58      0B217989 
  58      A6820C8B 
  58      4777
  59 01b1 E29237EE 		.ascii	"\342\2227\356M\024\312\336\265\374hij\242\350\345.\217"
ARM GAS  C:\Users\JEFFSN~1\AppData\Local\Temp\ccAcerIl.s 			page 4


  59      4D14CADE 
  59      B5FC6869 
  59      6AA2E8E5 
  59      2E8F
  60 01c3 962E9ECF 		.ascii	"\226.\236\317]\037/]\315\237\313\017\217\234)\222}\253"
  60      5D1F2F5D 
  60      CD9FCB0F 
  60      8F9C2992 
  60      7DAB
  61 01d5 7063CA3B 		.ascii	"pc\312;6Y.\224\307\212\027\306\312\223\207\002\231\304"
  61      36592E94 
  61      C78A17C6 
  61      CA938702 
  61      99C4
  62 01e7 9E       		.ascii	"\236"
  63              		.text
  64              		.section	.gnu.lto_knob_2_36_SetDriveMode.6331665b,"",%progbits
  65 0000 789C7D51 		.ascii	"x\234}Q=K#Q\024\275\347\275\311\314\0041\177`S\010\202"
  65      3D4B2351 
  65      14BDE7BD 
  65      C9CC0431 
  65      7F605308 
  66 0015 A28588A2 		.ascii	"\242\205\210\242\177@X\333em\225\260\352T\242A\321\332"
  66      7F4058DB 
  66      656D95B0 
  66      EA54A241 
  66      D1DA
  67 0027 97C42068 		.ascii	"\227\304 h\241\260\254[,\2536b\334d\327\225\255\354"
  67      A1B0AC5B 
  67      2CAB3662 
  67      DC64D795 
  67      ADEC
  68 0039 C6801616 		.ascii	"\306\200\026\026jea!b\021DP\342\027\212_\361\336\031"
  68      6A656121 
  68      62114450 
  68      E2178A5F 
  68      F1DE19
  69 004c 8B54FB98 		.ascii	"\213T\373\230w?\016\347\034\356}c\021H\316\031\247f"
  69      773F0EE7 
  69      1CEE7D63 
  69      1148CE19 
  69      A766
  70 005e CE1FF842 		.ascii	"\316\037\370B\023\324\374\036Q\312U\200\024\306\005"
  70      13D4FC1E 
  70      51CA5580 
  70      14C605
  71 006d 4D2A4CE2 		.ascii	"M*L\342N\275(\024\247K\233\252i\325\3609\331\276l59"
  71      4EBD2814 
  71      A74B9BAA 
  71      69D5F039 
  71      D9BE6C35 
  72 0082 1F594D54 		.ascii	"\037YMTQ\201\023a\025M\314\272\371\267\362\265F7\200"
  72      51811361 
  72      154DCCBA 
  72      F9B7F2B5 
  72      463780
  73 0095 B8BEDA2B 		.ascii	"\270\276\332+\037\307\032W\214I\033\363\275\317\350"
ARM GAS  C:\Users\JEFFSN~1\AppData\Local\Temp\ccAcerIl.s 			page 5


  73      1FC71A57 
  73      8C491BF3 
  73      BDCFE8
  74 00a4 AC0672D0 		.ascii	"\254\006r\320\254@{\034\255qb\200\260\206F!\237n\274"
  74      AC407B1C 
  74      AD716280 
  74      B0864621 
  74      9F6EBC
  75 00b7 7EABB5A7 		.ascii	"~\253\265\247\304\276.4\305/\3302\346\372g\337T*\031"
  75      C4BE2E34 
  75      C52FD832 
  75      E6FA67DF 
  75      542A19
  76 00ca E3DFDB5B 		.ascii	"\343\337\333[\217v\215b\231\322\034\264%!\002q\260\245"
  76      8F768D62 
  76      99D21CB4 
  76      25210271 
  76      B0A5
  77 00dc 7424B812 		.ascii	"t$\270\022\242\302!*\363\225E\256\224\222\254K(>\316"
  77      A2C2212A 
  77      F39545AE 
  77      9492AC4B 
  77      283ECE
  78 00ef 947E58E2 		.ascii	"\224~X\342\234\321\262\324B\266\270\357\334\252\254"
  78      9CD1B2D4 
  78      42B6B8EF 
  78      DCAAAC
  79 00fe B6828977 		.ascii	"\266\202\211w\317\375\203X\330..\247\214\305\320F~\316"
  79      CFFD8358 
  79      D82E2EA7 
  79      8CC5D046 
  79      7ECE
  80 0110 B84BF899 		.ascii	"\270K\370\231\232\342u#( \216<\342<\335o,\201JH_;\241"
  80      9AE27523 
  80      28208E3C 
  80      E23CDD6F 
  80      2C814A48 
  81 0127 9D6647EE 		.ascii	"\235fG\3563\317v\330[\014\261\376hg\366%*\226\032\243"
  81      33CF76D8 
  81      5B0CB1FE 
  81      6867F625 
  81      2A961AA3 
  82 013b F8C3CA2A 		.ascii	"\370\303\312*\011\177\221j\211\303\020K.\016\363\005"
  82      097F916A 
  82      89C3104B 
  82      2E0EF305 
  83 014b 1D4A6258 		.ascii	"\035JbX\017$\231\207w\212\033\030;\325.QF\271/.@\372"
  83      0F249987 
  83      778A1B18 
  83      3BD52E51 
  83      46B92F2E 
  84 0161 FF8DFC97 		.ascii	"\377\215\374\227Gf>\235#\355?}\024v\360\353\312\012"
  84      47663E9D 
  84      23ED3F7D 
  84      1476F0EB 
  84      CA0A
  85 0173 F23CFC58 		.ascii	"\362<\374X\365\335\336\2107\366e\334\033L\364$'\306"
ARM GAS  C:\Users\JEFFSN~1\AppData\Local\Temp\ccAcerIl.s 			page 6


  85      F5DDDE88 
  85      37F665DC 
  85      1B4CF424 
  85      27C6
  86 0185 06BCDE4F 		.ascii	"\006\274\336O=\311\256\216\336\241\221d\177\242-\321"
  86      3DC9AE8E 
  86      DEA19164 
  86      7FA22DD1 
  87 0195 DED93240 		.ascii	"\336\3312@\326pr\320{\003\317v\245\303"
  87      D67072D0 
  87      7B03CF76 
  87      A5C3
  88              		.text
  89              		.section	.gnu.lto_knob_2_36_Read.6331665b,"",%progbits
  90 0000 789C354F 		.ascii	"x\2345O=K\003A\020\235\267{\371@\211\177\300\024\202"
  90      3D4B0341 
  90      109DB77B 
  90      F940897F 
  90      C01482
  91 0013 58A41131 		.ascii	"X\244\0211(b+h+\246\260\011\004\215W\011\011\004\255"
  91      28622B68 
  91      2BA6B009 
  91      048D5709 
  91      0904AD
  92 0026 7397CB29 		.ascii	"s\227\313)\210\205\215Zi@\220Dc\220T\001\2533\225 h"
  92      88858D5A 
  92      69409044 
  92      63905401 
  92      AB339520 
  93 003b A182A004 		.ascii	"\241\202\240\004\221\020\301B4(B\374\210\263\236\016"
  93      9110C142 
  93      342842FC 
  93      88B39E0E 
  94 004b ECCCEEEC 		.ascii	"\354\314\356\354{\363\346i\004R1\315\245\217k7\037H"
  94      7BF3E669 
  94      045231CD 
  94      A58F6B37 
  94      1F48
  95 005d 82583B23 		.ascii	"\202X;#2\375\002P\027\303\017J\013\244\361&\276\004"
  95      32FD0250 
  95      17C30F4A 
  95      0BA4F126 
  95      BE04
  96 006f 4EDF4F56 		.ascii	"N\337OV;By\303\310\030w\273\255\221\315\202\003[\022"
  96      3B4279C3 
  96      C81877BB 
  96      AD91CD82 
  96      035B12
  97 0082 B505211C 		.ascii	"\265\005!\034\304@P\215\310#D\014\275/\177\257\007\274"
  97      C440508D 
  97      C823440C 
  97      BD2F7FAF 
  97      07BC
  98 0094 5983A347 		.ascii	"Y\203\243G\001\370\247\000\257\222<\234r\214v\3332\234"
  98      01F8A700 
  98      AF923C9C 
  98      728C76DB 
ARM GAS  C:\Users\JEFFSN~1\AppData\Local\Temp\ccAcerIl.s 			page 7


  98      329C
  99 00a6 2BDFF1B5 		.ascii	"+\337\361\265\317\007\262%\353r\3228\011\217J^Rc\351"
  99      CF07B225 
  99      EB72D238 
  99      098F4A5E 
  99      5263E9
 100 00b9 99696A89 		.ascii	"\231ij\211\027!T\225\015T[+\265\355Q5\311\222\222U6"
 100      17215495 
 100      0D545B2B 
 100      B5ED5135 
 100      C9929255 
 101 00ce ECEAB9EF 		.ascii	"\354\352\271\357U\330RB\211f\036j7\235\356\263\274c"
 101      55D85242 
 101      89661E6A 
 101      379DEEB3 
 101      BC63
 102 00e0 1A1AB76C 		.ascii	"\032\032\267l\363\342\266+\207-3\313\253j\330G\020{"
 102      F3E2B62B 
 102      872D33CB 
 102      AB6AD847 
 102      107B
 103 00f2 E0455144 		.ascii	"\340EQD\016\324\200\3659N\226\204;\256\362T\254\004"
 103      0ED480F5 
 103      394E9684 
 103      3BAEF254 
 103      AC04
 104 0104 141F7008 		.ascii	"\024\037p\010\007\214k \323\\\276\224\256\242\306@E"
 104      078C6B20 
 104      D35CBE94 
 104      AEA2C640 
 104      45
 105 0115 692ED53D 		.ascii	"i.\325=n\307\303M\346\325?JG]\212'\330b\351\237V\207"
 105      6EC7C34D 
 105      E6D53F4A 
 105      475D8A27 
 105      D862E99F 
 106 012b 0B52387A 		.ascii	"\013R8z\204\370{\321\2573(G\354\257wBO\350\251\231\005"
 106      84F87BD1 
 106      AF332847 
 106      ECAF7742 
 106      4FE8A999 
 107 0140 7D2E1649 		.ascii	"}.\026I.\246\342zt2\222\034\033\212\316'\222\263\261"
 107      2EA6E27A 
 107      7432921C 
 107      1B8ACE27 
 107      92B3B1
 108 0153 C15878B8 		.ascii	"\301Xx\270?N?\203\357}>"
 108      3F4E3F83 
 108      EF7D3E
 109              		.text
 110              		.section	.gnu.lto_knob_2_36_ReadDataReg.6331665b,"",%progbits
 111 0000 789C354F 		.ascii	"x\2345O\277KBQ\024>\337\275\317\037\010\366\017\344"
 111      BF4B4251 
 111      143EDFBD 
 111      CF1F08F6 
 111      0FE4
 112 0012 1044834B 		.ascii	"\020D\203KDRPkPk\344\320\"H\331\233\002\005\251\331"
ARM GAS  C:\Users\JEFFSN~1\AppData\Local\Temp\ccAcerIl.s 			page 8


 112      4452506B 
 112      506BE4D0 
 112      2248D99B 
 112      0205A9D9 
 113 0026 A7CF5720 		.ascii	"\247\317W \015-\025A!\004\241fRMB\020\274\234\202\240"
 113      0D2D1541 
 113      2104A166 
 113      524D4210 
 113      BC9C82A0 
 114 003a 1A5AA245 		.ascii	"\032Z\242EB\034\032\244\244\010\262\264s{u\340\236s"
 114      421C1AA4 
 114      A408B2B4 
 114      737B75E0 
 114      9E73
 115 004c EFB9DF77 		.ascii	"\357\271\337w\276\363i\004R1\317e\210k?\037H\202\330"
 115      BEF36904 
 115      5231CF65 
 115      886B3F1F 
 115      4882D8
 116 005f BC214A7B 		.ascii	"\274!J{\005\240.\206\027\224\022H\341]|\013\\\177\\"
 116      05A02E86 
 116      17941248 
 116      E15D7C0B 
 116      5C7F5C
 117 0072 6DF88205 		.ascii	"m\370\202\005\303\310\030\365\303\302\304N\321\206%"
 117      C3C818F5 
 117      C3C2C44E 
 117      D18625
 118 0081 897A8210 		.ascii	"\211z\202\020\012`$\240F\024\020$\206>\235u\267\374"
 118      0A6024A0 
 118      46141024 
 118      863E9D75 
 118      B7FC
 119 0093 EEACC131 		.ascii	"\356\254\3011\240\000\374S\204[I\236\314\331F\257g\032"
 119      A000FC53 
 119      845B499E 
 119      CCD946AF 
 119      671A
 120 00a5 F685EFF2 		.ascii	"\366\205\357\362\316\347\001Y\222u9i\234\204K%7\251"
 120      CEE70159 
 120      92753969 
 120      9C844B25 
 120      37A9
 121 00b7 B1F4C234 		.ascii	"\261\364\3024\265\304\253\020\252\312&j\237\271niRM"
 121      B5C4AB10 
 121      AACA266A 
 121      9FB96E69 
 121      524D
 122 00c9 32A56495 		.ascii	"2\245d\225m\253v\353y\023\226\224P\242\017\217\273-"
 122      6DAB76EB 
 122      79139694 
 122      50A20F8F 
 122      BB2D
 123 00db B7F33C3D 		.ascii	"\267\363<=H\033\032\267\352\271\275\216'\217\375t\226"
 123      481B1AB7 
 123      EAB9BD8E 
 123      278FFD74 
ARM GAS  C:\Users\JEFFSN~1\AppData\Local\Temp\ccAcerIl.s 			page 9


 123      96
 124 00ec 57D57084 		.ascii	"W\325p\204\000J\340EQF\036\324\204\3715M\246\2043\256"
 124      004AE045 
 124      51461ED4 
 124      84F9354D 
 124      A68433AE 
 125 0100 DA2A57FD 		.ascii	"\332*W\375\212\017\330\204c\3065\221i\257\337KGQc\240"
 125      8A0FD884 
 125      63C63591 
 125      69AFDF4B 
 125      475163A0 
 126 0114 A2B4D71A 		.ascii	"\242\264\327\032.\247\343\342&\363\032\235\312y\237"
 126      2EA7E3E2 
 126      26F31A9D 
 126      CA799F
 127 0123 E209B658 		.ascii	"\342\011\266X\371\2475\340\200\024\216\236!\376^\364"
 127      F9A735E0 
 127      80148E9E 
 127      21FE5EF4 
 128 0133 EB0CCA11 		.ascii	"\353\014\312\021\373\033\234\321\343zraE_\212\206\023"
 128      FB1B9CD1 
 128      E37A7261 
 128      455F8A86 
 128      13
 129 0144 ABC9981E 		.ascii	"\253\311\230\036\231\015'\246\306\"\313\361\304bt4\032"
 129      990D27A6 
 129      C622CBF1 
 129      C4627434 
 129      1A
 130 0155 1A1F8ED1 		.ascii	"\032\037\216\321\017`\010}U"
 130      0F60087D 
 130      55
 131              		.text
 132              		.section	.gnu.lto_.symbol_nodes.6331665b,"",%progbits
 133 0000 789C6361 		.ascii	"x\234ca`dpc\000\002&\206z\006\206\011\347\030@\324\252"
 133      60647063 
 133      00022686 
 133      7A068609 
 133      E71840D4 
 134 0015 0645A000 		.ascii	"\006E\240\000c=#\252\000S=\023\252\000s=3\212\000\003"
 134      633D23AA 
 134      00533D13 
 134      AA00733D 
 134      338A0003 
 135 0029 001ED60E 		.ascii	"\000\036\326\016\374"
 135      FC
 136              		.text
 137              		.section	.gnu.lto_.refs.6331665b,"",%progbits
 138 0000 789C6361 		.ascii	"x\234ca`\004B \000\000\0009\000\007"
 138      60044220 
 138      00000039 
 138      0007
 139              		.text
 140              		.section	.gnu.lto_.decls.6331665b,"",%progbits
 141 0000 789C8D52 		.ascii	"x\234\215R]HTA\024\236s\357\335Un\246!%B\373`\366\""
 141      5D485441 
 141      149E73EF 
ARM GAS  C:\Users\JEFFSN~1\AppData\Local\Temp\ccAcerIl.s 			page 10


 141      DD556EA6 
 141      212542FB 
 142 0017 3D482685 		.ascii	"=H&\205\017\375\201\222\275\224\241h/\302\262\352\305"
 142      0FFD8192 
 142      BD94A168 
 142      2FC2B2EA 
 142      C5
 143 0028 2470635B 		.ascii	"$pc[\003_bt\015\254\010\224RQ\304,I\335\374\255uM\267"
 143      035F6274 
 143      0DAC0894 
 143      5251C42C 
 143      49DDFCAD 
 144 003f D435CB22 		.ascii	"\3245\313\"\020\022A\010\203\204MI\224\330H\012\003"
 144      10124108 
 144      83844D49 
 144      94D8480A 
 144      03
 145 0050 B333B3F7 		.ascii	"\2633\263\367\356\275\326\006\036\230;sf\276\357;\337"
 145      EEBDD606 
 145      1E983B73 
 145      66BEEF3B 
 145      DF
 146 0061 9C3B1201 		.ascii	"\234;\022\001\302\342\204DH\027\316\026L\2670L\270."
 146      C2E28444 
 146      4817CE16 
 146      4CB7304C 
 146      B82E
 147 0073 207AE031 		.ascii	" z\3401\361\340\360\342\030\301\341#\377\006;7\253\274"
 147      F1E0F0E2 
 147      18C1E123 
 147      FF063B37 
 147      ABBC
 148 0085 7EA68563 		.ascii	"~\246\205c\002\307\030\216\034\025\003*\356\357\360"
 148      02C7188E 
 148      1C15032A 
 148      EEEFF0
 149 0094 46E0FA0D 		.ascii	"F\340\372\015|\215\353\215\300e~L\006^N\004\336H\004"
 149      7C8DEB8D 
 149      C0657E4C 
 149      065E4E04 
 149      DE4804
 150 00a7 9E6F07BC 		.ascii	"\236o\007\274H\367\334\024\240u\262m\312\264\000\037"
 150      48F7DC14 
 150      A075B26D 
 150      CAB4001F 
 151 00b7 0008F020 		.ascii	"\000\010\360 j\037\011\333Qg\266\200P\"hz\240\201\264"
 151      6A1F09DB 
 151      5167B680 
 151      5022687A 
 151      A081B4
 152 00ca 121C0E44 		.ascii	"\022\034\016D\340\370\360\276\206\013\327\334\322B\337"
 152      E0F8F0BE 
 152      860BD7DC 
 152      D242DF
 153 00d9 82706848 		.ascii	"\202phH\330.\312T\365\024sA'\030\364T\367j}0\226\345"
 153      D82ECA54 
 153      F5147341 
ARM GAS  C:\Users\JEFFSN~1\AppData\Local\Temp\ccAcerIl.s 			page 11


 153      2718F454 
 153      F76A7D30 
 154 00ef D2A276E9 		.ascii	"\322\242v\351\361\037\325\001\263\210\232\270\376\264"
 154      F11FD501 
 154      B3889AB8 
 154      FEB4
 155 00fd D17D26B5 		.ascii	"\321}&\265\227b\324Q*\034\322;3p\343\263;z]\000\213"
 155      9762D451 
 155      2A1CD23B 
 155      3370E3B3 
 155      3B7A5D00 
 156 0112 0C5BC0F2 		.ascii	"\014[\300\362\265\321\215\335\241\234\0357\327\007~"
 156      B5D18DDD 
 156      A19C1D37 
 156      D7077E
 157 0121 EF12F7B3 		.ascii	"\357\022\367\263\2650\027\350Y\221 E\356d2\213w\227"
 157      B53017E8 
 157      59912045 
 157      EE64328B 
 157      7797
 158 0133 4E8E52BA 		.ascii	"N\216R\272\007\372A\206^\020\301\015\251\314\201E\306"
 158      07FA4186 
 158      5E10C10D 
 158      A9CC8145 
 158      C6
 159 0144 6F2DA5D5 		.ascii	"o-\245\3254\370\220\232\023\011\244[\340\260\205@\037"
 159      34F8909A 
 159      1309A45B 
 159      E0B08540 
 159      1F
 160 0155 A4304D86 		.ascii	"\2440M\206\202\036\260\300c\2600\375\245\246\373\253"
 160      821EB0C0 
 160      63B030FD 
 160      A5A6FBAB 
 161 0165 6609DBCD 		.ascii	"f\011\333\315u\212$\2667[3\330*\242\205x\031$L\277\315"
 161      758A24B6 
 161      375B33D8 
 161      2AA28578 
 161      19244CBF 
 162 017a B4046231 		.ascii	"\264\004b1\335+C\022\246\275\276\217k\346\304F~\025"
 162      DD2B4312 
 162      A6BDBE8F 
 162      6BE6C446 
 162      7E15
 163 018c 174D92A0 		.ascii	"\027M\222\240 \001\236\240\340 \012\022x\012\211\370"
 163      20019EA0 
 163      E0200A12 
 163      780A89F8 
 164 019c 1D002974 		.ascii	"\035\000)t\273/M\2153Q\311\355\264}\220.6M\037ot\321"
 164      BB2F4D8D 
 164      3351C9ED 
 164      B47D902E 
 164      364D1F6F 
 165 01b2 B7C84B62 		.ascii	"\267\310Kb0\350\326M\343\222M]\260\200\015\365@22ig"
 165      30E8D64D 
 165      E3924D5D 
 165      B0800DF5 
ARM GAS  C:\Users\JEFFSN~1\AppData\Local\Temp\ccAcerIl.s 			page 12


 165      40323269 
 166 01c7 556BB458 		.ascii	"Uk\264X\312\233\320\021\370\265)\204T\374\353\3231\264"
 166      CA9BD011 
 166      F8B52984 
 166      54FCEBD3 
 166      31B4
 167 01d9 AE8AD2D3 		.ascii	"\256\212\322\323\\cH\327\0302jx\271\306#\337\374\246"
 167      5C6348D7 
 167      18326A78 
 167      B9C623DF 
 167      FCA6
 168 01eb 285EE71A 		.ascii	"(^\347\032\357o\277v\305\031m\263\373\352\276\237q\337"
 168      EF6FBF76 
 168      C5196DB3 
 168      FBEABE9F 
 168      71DF
 169 01fd 45AAED7B 		.ascii	"E\252\355{A\267GT\013\316\275\021\233\251\277\006y\002"
 169      41B74754 
 169      0BCEBD11 
 169      9BA9BF06 
 169      7902
 170 020f 43C1B05E 		.ascii	"C\301\260^r\330Xr\204\227\3749\333\266*\213w\200\327"
 170      72D85872 
 170      8497FC39 
 170      DBB62A8B 
 170      7780D7
 171 0222 5C9E5FAE 		.ascii	"\\\236_\256\325|\373\336i\276\231\310\250.2j\024\361"
 171      D57CFBDE 
 171      69BE99C8 
 171      A82E326A 
 171      14F1
 172 0234 7191F59A 		.ascii	"q\221\365\232\357\363f\031\177\242kg?qf\345\301V\224"
 172      EFF36619 
 172      7FA26B67 
 172      3F7166E5 
 172      C15694
 173 0247 D8C18B0A 		.ascii	"\330\301\213\012\236\206\346\206(\220S\"\320\307#\320"
 173      9E86E686 
 173      28905322 
 173      D0C723D0 
 174 0257 D5C7D497 		.ascii	"\325\307\324\227_\177\223\335p\014\273\362B7\367\034"
 174      5F7F93DD 
 174      700CBBF2 
 174      4237F71C 
 175 0267 E45047DC 		.ascii	"\344PG\334_\247\374\020s\213\275+l_\374Y\016\324\333"
 175      5FA7FC10 
 175      738BBD2B 
 175      6C5FFC59 
 175      0ED4DB
 176 027a 370131FC 		.ascii	"7\0011\374\375\343\274)\210\257\346\006&d\220-\200\347"
 176      FDE3BC29 
 176      88AFE606 
 176      2664902D 
 176      80E7
 177 028c 50CB0A04 		.ascii	"P\313\012\004\253\015>\010\370\231,L\342\361K\244\267"
 177      AB0D3E08 
 177      F8992C4C 
ARM GAS  C:\Users\JEFFSN~1\AppData\Local\Temp\ccAcerIl.s 			page 13


 177      E2F14BA4 
 177      B7
 178 029d 50869905 		.ascii	"P\206\231\005\276\315\223\340)\276\346\237\270\313\345"
 178      BECD93E0 
 178      29BEE69F 
 178      B8CBE5
 179 02ac F622EB11 		.ascii	"\366\"\353\021k\3721\353EG\231S\211\316>\237\237\224"
 179      6BFA31EB 
 179      45479953 
 179      89CE3E9F 
 179      9F94
 180 02be 9996464C 		.ascii	"\231\226FL\025e\345\316\214\003\331J\271\342\2609\225"
 180      1565E5CE 
 180      8C03D94A 
 180      B9E2B039 
 180      95
 181 02cf 126B9EBD 		.ascii	"\022k\236\275\302Q\254\024^\310\263g\036-,\256tV^Q\256"
 181      C251AC14 
 181      5EC8B367 
 181      1E2D2CAE 
 181      74565E51 
 182 02e4 A65E2207 		.ascii	"\246^\"\007\377\203\010\353\246\026\223\004\275H\236"
 182      FF8308EB 
 182      A6169304 
 182      BD489E
 183 02f3 E2CC7294 		.ascii	"\342\314r\224]S\316\331K\224X};W\261\225\354\333\236"
 183      5D53CED9 
 183      4B94587D 
 183      3B57B195 
 183      ECDB9E
 184 0306 66D99CB6 		.ascii	"f\331\234\266\\\245Tr(\245\031\177\000\354\012fK"
 184      5CA55472 
 184      28A5197F 
 184      00EC0A66 
 184      4B
 185              		.text
 186              		.section	.gnu.lto_.symtab.6331665b,"",%progbits
 187 0000 6B6E6F62 		.ascii	"knob_2_36_Write\000"
 187      5F325F33 
 187      365F5772 
 187      69746500 
 188 0010 00       		.ascii	"\000"
 189 0011 00       		.ascii	"\000"
 190 0012 00       		.ascii	"\000"
 191 0013 00000000 		.ascii	"\000\000\000\000\000\000\000\000"
 191      00000000 
 192 001b B3000000 		.ascii	"\263\000\000\000"
 193 001f 6B6E6F62 		.ascii	"knob_2_36_SetDriveMode\000"
 193      5F325F33 
 193      365F5365 
 193      74447269 
 193      76654D6F 
 194 0036 00       		.ascii	"\000"
 195 0037 00       		.ascii	"\000"
 196 0038 00       		.ascii	"\000"
 197 0039 00000000 		.ascii	"\000\000\000\000\000\000\000\000"
 197      00000000 
ARM GAS  C:\Users\JEFFSN~1\AppData\Local\Temp\ccAcerIl.s 			page 14


 198 0041 B5000000 		.ascii	"\265\000\000\000"
 199 0045 6B6E6F62 		.ascii	"knob_2_36_Read\000"
 199      5F325F33 
 199      365F5265 
 199      616400
 200 0054 00       		.ascii	"\000"
 201 0055 00       		.ascii	"\000"
 202 0056 00       		.ascii	"\000"
 203 0057 00000000 		.ascii	"\000\000\000\000\000\000\000\000"
 203      00000000 
 204 005f B8000000 		.ascii	"\270\000\000\000"
 205 0063 6B6E6F62 		.ascii	"knob_2_36_ReadDataReg\000"
 205      5F325F33 
 205      365F5265 
 205      61644461 
 205      74615265 
 206 0079 00       		.ascii	"\000"
 207 007a 00       		.ascii	"\000"
 208 007b 00       		.ascii	"\000"
 209 007c 00000000 		.ascii	"\000\000\000\000\000\000\000\000"
 209      00000000 
 210 0084 BA000000 		.ascii	"\272\000\000\000"
 211              		.text
 212              		.section	.gnu.lto_.opts,"",%progbits
 213 0000 272D666D 		.ascii	"'-fmath-errno' '-fsigned-zeros' '-ftrapping-math' '"
 213      6174682D 
 213      6572726E 
 213      6F272027 
 213      2D667369 
 214 0033 2D666E6F 		.ascii	"-fno-trapv' '-fno-strict-overflow' '-fno-openmp' '-"
 214      2D747261 
 214      70762720 
 214      272D666E 
 214      6F2D7374 
 215 0066 666E6F2D 		.ascii	"fno-openacc' '-mcpu=cortex-m3' '-mthumb' '-g' '-Og'"
 215      6F70656E 
 215      61636327 
 215      20272D6D 
 215      6370753D 
 216 0099 20272D66 		.ascii	" '-ffunction-sections' '-ffat-lto-objects' '-finlin"
 216      66756E63 
 216      74696F6E 
 216      2D736563 
 216      74696F6E 
 217 00cc 652D6675 		.ascii	"e-functions' '-flto'\000"
 217      6E637469 
 217      6F6E7327 
 217      20272D66 
 217      6C746F27 
 218              		.text
 219              		.cfi_sections	.debug_frame
 220              		.section	.text.knob_2_36_Write,"ax",%progbits
 221              		.align	2
 222              		.global	knob_2_36_Write
 223              		.thumb
 224              		.thumb_func
 225              		.type	knob_2_36_Write, %function
ARM GAS  C:\Users\JEFFSN~1\AppData\Local\Temp\ccAcerIl.s 			page 15


 226              	knob_2_36_Write:
 227              	.LFB0:
 228              		.file 1 "Generated_Source\\PSoC5\\knob_2_36.c"
   1:Generated_Source\PSoC5/knob_2_36.c **** /*******************************************************************************
   2:Generated_Source\PSoC5/knob_2_36.c **** * File Name: knob_2_36.c  
   3:Generated_Source\PSoC5/knob_2_36.c **** * Version 2.20
   4:Generated_Source\PSoC5/knob_2_36.c **** *
   5:Generated_Source\PSoC5/knob_2_36.c **** * Description:
   6:Generated_Source\PSoC5/knob_2_36.c **** *  This file contains API to enable firmware control of a Pins component.
   7:Generated_Source\PSoC5/knob_2_36.c **** *
   8:Generated_Source\PSoC5/knob_2_36.c **** * Note:
   9:Generated_Source\PSoC5/knob_2_36.c **** *
  10:Generated_Source\PSoC5/knob_2_36.c **** ********************************************************************************
  11:Generated_Source\PSoC5/knob_2_36.c **** * Copyright 2008-2015, Cypress Semiconductor Corporation.  All rights reserved.
  12:Generated_Source\PSoC5/knob_2_36.c **** * You may use this file only in accordance with the license, terms, conditions, 
  13:Generated_Source\PSoC5/knob_2_36.c **** * disclaimers, and limitations in the end user license agreement accompanying 
  14:Generated_Source\PSoC5/knob_2_36.c **** * the software package with which this file was provided.
  15:Generated_Source\PSoC5/knob_2_36.c **** *******************************************************************************/
  16:Generated_Source\PSoC5/knob_2_36.c **** 
  17:Generated_Source\PSoC5/knob_2_36.c **** #include "cytypes.h"
  18:Generated_Source\PSoC5/knob_2_36.c **** #include "knob_2_36.h"
  19:Generated_Source\PSoC5/knob_2_36.c **** 
  20:Generated_Source\PSoC5/knob_2_36.c **** /* APIs are not generated for P15[7:6] on PSoC 5 */
  21:Generated_Source\PSoC5/knob_2_36.c **** #if !(CY_PSOC5A &&\
  22:Generated_Source\PSoC5/knob_2_36.c **** 	 knob_2_36__PORT == 15 && ((knob_2_36__MASK & 0xC0) != 0))
  23:Generated_Source\PSoC5/knob_2_36.c **** 
  24:Generated_Source\PSoC5/knob_2_36.c **** 
  25:Generated_Source\PSoC5/knob_2_36.c **** /*******************************************************************************
  26:Generated_Source\PSoC5/knob_2_36.c **** * Function Name: knob_2_36_Write
  27:Generated_Source\PSoC5/knob_2_36.c **** ****************************************************************************//**
  28:Generated_Source\PSoC5/knob_2_36.c **** *
  29:Generated_Source\PSoC5/knob_2_36.c **** * \brief Writes the value to the physical port (data output register), masking
  30:Generated_Source\PSoC5/knob_2_36.c **** *  and shifting the bits appropriately. 
  31:Generated_Source\PSoC5/knob_2_36.c **** *
  32:Generated_Source\PSoC5/knob_2_36.c **** * The data output register controls the signal applied to the physical pin in 
  33:Generated_Source\PSoC5/knob_2_36.c **** * conjunction with the drive mode parameter. This function avoids changing 
  34:Generated_Source\PSoC5/knob_2_36.c **** * other bits in the port by using the appropriate method (read-modify-write or
  35:Generated_Source\PSoC5/knob_2_36.c **** * bit banding).
  36:Generated_Source\PSoC5/knob_2_36.c **** *
  37:Generated_Source\PSoC5/knob_2_36.c **** * <b>Note</b> This function should not be used on a hardware digital output pin 
  38:Generated_Source\PSoC5/knob_2_36.c **** * as it is driven by the hardware signal attached to it.
  39:Generated_Source\PSoC5/knob_2_36.c **** *
  40:Generated_Source\PSoC5/knob_2_36.c **** * \param value
  41:Generated_Source\PSoC5/knob_2_36.c **** *  Value to write to the component instance.
  42:Generated_Source\PSoC5/knob_2_36.c **** *
  43:Generated_Source\PSoC5/knob_2_36.c **** * \return 
  44:Generated_Source\PSoC5/knob_2_36.c **** *  None 
  45:Generated_Source\PSoC5/knob_2_36.c **** *
  46:Generated_Source\PSoC5/knob_2_36.c **** * \sideeffect
  47:Generated_Source\PSoC5/knob_2_36.c **** *  If you use read-modify-write operations that are not atomic; the Interrupt 
  48:Generated_Source\PSoC5/knob_2_36.c **** *  Service Routines (ISR) can cause corruption of this function. An ISR that 
  49:Generated_Source\PSoC5/knob_2_36.c **** *  interrupts this function and performs writes to the Pins component data 
  50:Generated_Source\PSoC5/knob_2_36.c **** *  register can cause corrupted port data. To avoid this issue, you should 
  51:Generated_Source\PSoC5/knob_2_36.c **** *  either use the Per-Pin APIs (primary method) or disable interrupts around 
  52:Generated_Source\PSoC5/knob_2_36.c **** *  this function.
  53:Generated_Source\PSoC5/knob_2_36.c **** *
  54:Generated_Source\PSoC5/knob_2_36.c **** * \funcusage
ARM GAS  C:\Users\JEFFSN~1\AppData\Local\Temp\ccAcerIl.s 			page 16


  55:Generated_Source\PSoC5/knob_2_36.c **** *  \snippet knob_2_36_SUT.c usage_knob_2_36_Write
  56:Generated_Source\PSoC5/knob_2_36.c **** *******************************************************************************/
  57:Generated_Source\PSoC5/knob_2_36.c **** void knob_2_36_Write(uint8 value)
  58:Generated_Source\PSoC5/knob_2_36.c **** {
 229              		.loc 1 58 0
 230              		.cfi_startproc
 231              		@ args = 0, pretend = 0, frame = 0
 232              		@ frame_needed = 0, uses_anonymous_args = 0
 233              		@ link register save eliminated.
 234              	.LVL0:
  59:Generated_Source\PSoC5/knob_2_36.c ****     uint8 staticBits = (knob_2_36_DR & (uint8)(~knob_2_36_MASK));
 235              		.loc 1 59 0
 236 0000 044A     		ldr	r2, .L2
 237 0002 1378     		ldrb	r3, [r2]	@ zero_extendqisi2
 238 0004 03F0BF03 		and	r3, r3, #191
 239              	.LVL1:
  60:Generated_Source\PSoC5/knob_2_36.c ****     knob_2_36_DR = staticBits | ((uint8)(value << knob_2_36_SHIFT) & knob_2_36_MASK);
 240              		.loc 1 60 0
 241 0008 8001     		lsls	r0, r0, #6
 242              	.LVL2:
 243 000a 00F04000 		and	r0, r0, #64
 244 000e 1843     		orrs	r0, r0, r3
 245 0010 1070     		strb	r0, [r2]
 246 0012 7047     		bx	lr
 247              	.L3:
 248              		.align	2
 249              	.L2:
 250 0014 30510040 		.word	1073762608
 251              		.cfi_endproc
 252              	.LFE0:
 253              		.size	knob_2_36_Write, .-knob_2_36_Write
 254              		.section	.text.knob_2_36_SetDriveMode,"ax",%progbits
 255              		.align	2
 256              		.global	knob_2_36_SetDriveMode
 257              		.thumb
 258              		.thumb_func
 259              		.type	knob_2_36_SetDriveMode, %function
 260              	knob_2_36_SetDriveMode:
 261              	.LFB1:
  61:Generated_Source\PSoC5/knob_2_36.c **** }
  62:Generated_Source\PSoC5/knob_2_36.c **** 
  63:Generated_Source\PSoC5/knob_2_36.c **** 
  64:Generated_Source\PSoC5/knob_2_36.c **** /*******************************************************************************
  65:Generated_Source\PSoC5/knob_2_36.c **** * Function Name: knob_2_36_SetDriveMode
  66:Generated_Source\PSoC5/knob_2_36.c **** ****************************************************************************//**
  67:Generated_Source\PSoC5/knob_2_36.c **** *
  68:Generated_Source\PSoC5/knob_2_36.c **** * \brief Sets the drive mode for each of the Pins component's pins.
  69:Generated_Source\PSoC5/knob_2_36.c **** * 
  70:Generated_Source\PSoC5/knob_2_36.c **** * <b>Note</b> This affects all pins in the Pins component instance. Use the
  71:Generated_Source\PSoC5/knob_2_36.c **** * Per-Pin APIs if you wish to control individual pin's drive modes.
  72:Generated_Source\PSoC5/knob_2_36.c **** *
  73:Generated_Source\PSoC5/knob_2_36.c **** * \param mode
  74:Generated_Source\PSoC5/knob_2_36.c **** *  Mode for the selected signals. Valid options are documented in 
  75:Generated_Source\PSoC5/knob_2_36.c **** *  \ref driveMode.
  76:Generated_Source\PSoC5/knob_2_36.c **** *
  77:Generated_Source\PSoC5/knob_2_36.c **** * \return
  78:Generated_Source\PSoC5/knob_2_36.c **** *  None
ARM GAS  C:\Users\JEFFSN~1\AppData\Local\Temp\ccAcerIl.s 			page 17


  79:Generated_Source\PSoC5/knob_2_36.c **** *
  80:Generated_Source\PSoC5/knob_2_36.c **** * \sideeffect
  81:Generated_Source\PSoC5/knob_2_36.c **** *  If you use read-modify-write operations that are not atomic, the ISR can
  82:Generated_Source\PSoC5/knob_2_36.c **** *  cause corruption of this function. An ISR that interrupts this function 
  83:Generated_Source\PSoC5/knob_2_36.c **** *  and performs writes to the Pins component Drive Mode registers can cause 
  84:Generated_Source\PSoC5/knob_2_36.c **** *  corrupted port data. To avoid this issue, you should either use the Per-Pin
  85:Generated_Source\PSoC5/knob_2_36.c **** *  APIs (primary method) or disable interrupts around this function.
  86:Generated_Source\PSoC5/knob_2_36.c **** *
  87:Generated_Source\PSoC5/knob_2_36.c **** * \funcusage
  88:Generated_Source\PSoC5/knob_2_36.c **** *  \snippet knob_2_36_SUT.c usage_knob_2_36_SetDriveMode
  89:Generated_Source\PSoC5/knob_2_36.c **** *******************************************************************************/
  90:Generated_Source\PSoC5/knob_2_36.c **** void knob_2_36_SetDriveMode(uint8 mode)
  91:Generated_Source\PSoC5/knob_2_36.c **** {
 262              		.loc 1 91 0
 263              		.cfi_startproc
 264              		@ args = 0, pretend = 0, frame = 0
 265              		@ frame_needed = 0, uses_anonymous_args = 0
 266              		@ link register save eliminated.
 267              	.LVL3:
  92:Generated_Source\PSoC5/knob_2_36.c **** 	CyPins_SetPinDriveMode(knob_2_36_0, mode);
 268              		.loc 1 92 0
 269 0000 044A     		ldr	r2, .L5
 270 0002 1378     		ldrb	r3, [r2]	@ zero_extendqisi2
 271 0004 03F0F103 		and	r3, r3, #241
 272 0008 00F00E00 		and	r0, r0, #14
 273              	.LVL4:
 274 000c 1843     		orrs	r0, r0, r3
 275 000e 1070     		strb	r0, [r2]
 276 0010 7047     		bx	lr
 277              	.L6:
 278 0012 00BF     		.align	2
 279              	.L5:
 280 0014 1E500040 		.word	1073762334
 281              		.cfi_endproc
 282              	.LFE1:
 283              		.size	knob_2_36_SetDriveMode, .-knob_2_36_SetDriveMode
 284              		.section	.text.knob_2_36_Read,"ax",%progbits
 285              		.align	2
 286              		.global	knob_2_36_Read
 287              		.thumb
 288              		.thumb_func
 289              		.type	knob_2_36_Read, %function
 290              	knob_2_36_Read:
 291              	.LFB2:
  93:Generated_Source\PSoC5/knob_2_36.c **** }
  94:Generated_Source\PSoC5/knob_2_36.c **** 
  95:Generated_Source\PSoC5/knob_2_36.c **** 
  96:Generated_Source\PSoC5/knob_2_36.c **** /*******************************************************************************
  97:Generated_Source\PSoC5/knob_2_36.c **** * Function Name: knob_2_36_Read
  98:Generated_Source\PSoC5/knob_2_36.c **** ****************************************************************************//**
  99:Generated_Source\PSoC5/knob_2_36.c **** *
 100:Generated_Source\PSoC5/knob_2_36.c **** * \brief Reads the associated physical port (pin status register) and masks 
 101:Generated_Source\PSoC5/knob_2_36.c **** *  the required bits according to the width and bit position of the component
 102:Generated_Source\PSoC5/knob_2_36.c **** *  instance. 
 103:Generated_Source\PSoC5/knob_2_36.c **** *
 104:Generated_Source\PSoC5/knob_2_36.c **** * The pin's status register returns the current logic level present on the 
 105:Generated_Source\PSoC5/knob_2_36.c **** * physical pin.
ARM GAS  C:\Users\JEFFSN~1\AppData\Local\Temp\ccAcerIl.s 			page 18


 106:Generated_Source\PSoC5/knob_2_36.c **** *
 107:Generated_Source\PSoC5/knob_2_36.c **** * \return 
 108:Generated_Source\PSoC5/knob_2_36.c **** *  The current value for the pins in the component as a right justified number.
 109:Generated_Source\PSoC5/knob_2_36.c **** *
 110:Generated_Source\PSoC5/knob_2_36.c **** * \funcusage
 111:Generated_Source\PSoC5/knob_2_36.c **** *  \snippet knob_2_36_SUT.c usage_knob_2_36_Read  
 112:Generated_Source\PSoC5/knob_2_36.c **** *******************************************************************************/
 113:Generated_Source\PSoC5/knob_2_36.c **** uint8 knob_2_36_Read(void)
 114:Generated_Source\PSoC5/knob_2_36.c **** {
 292              		.loc 1 114 0
 293              		.cfi_startproc
 294              		@ args = 0, pretend = 0, frame = 0
 295              		@ frame_needed = 0, uses_anonymous_args = 0
 296              		@ link register save eliminated.
 115:Generated_Source\PSoC5/knob_2_36.c ****     return (knob_2_36_PS & knob_2_36_MASK) >> knob_2_36_SHIFT;
 297              		.loc 1 115 0
 298 0000 024B     		ldr	r3, .L8
 299 0002 1878     		ldrb	r0, [r3]	@ zero_extendqisi2
 116:Generated_Source\PSoC5/knob_2_36.c **** }
 300              		.loc 1 116 0
 301 0004 C0F38010 		ubfx	r0, r0, #6, #1
 302 0008 7047     		bx	lr
 303              	.L9:
 304 000a 00BF     		.align	2
 305              	.L8:
 306 000c 31510040 		.word	1073762609
 307              		.cfi_endproc
 308              	.LFE2:
 309              		.size	knob_2_36_Read, .-knob_2_36_Read
 310              		.section	.text.knob_2_36_ReadDataReg,"ax",%progbits
 311              		.align	2
 312              		.global	knob_2_36_ReadDataReg
 313              		.thumb
 314              		.thumb_func
 315              		.type	knob_2_36_ReadDataReg, %function
 316              	knob_2_36_ReadDataReg:
 317              	.LFB3:
 117:Generated_Source\PSoC5/knob_2_36.c **** 
 118:Generated_Source\PSoC5/knob_2_36.c **** 
 119:Generated_Source\PSoC5/knob_2_36.c **** /*******************************************************************************
 120:Generated_Source\PSoC5/knob_2_36.c **** * Function Name: knob_2_36_ReadDataReg
 121:Generated_Source\PSoC5/knob_2_36.c **** ****************************************************************************//**
 122:Generated_Source\PSoC5/knob_2_36.c **** *
 123:Generated_Source\PSoC5/knob_2_36.c **** * \brief Reads the associated physical port's data output register and masks 
 124:Generated_Source\PSoC5/knob_2_36.c **** *  the correct bits according to the width and bit position of the component 
 125:Generated_Source\PSoC5/knob_2_36.c **** *  instance. 
 126:Generated_Source\PSoC5/knob_2_36.c **** *
 127:Generated_Source\PSoC5/knob_2_36.c **** * The data output register controls the signal applied to the physical pin in 
 128:Generated_Source\PSoC5/knob_2_36.c **** * conjunction with the drive mode parameter. This is not the same as the 
 129:Generated_Source\PSoC5/knob_2_36.c **** * preferred knob_2_36_Read() API because the 
 130:Generated_Source\PSoC5/knob_2_36.c **** * knob_2_36_ReadDataReg() reads the data register instead of the status 
 131:Generated_Source\PSoC5/knob_2_36.c **** * register. For output pins this is a useful function to determine the value 
 132:Generated_Source\PSoC5/knob_2_36.c **** * just written to the pin.
 133:Generated_Source\PSoC5/knob_2_36.c **** *
 134:Generated_Source\PSoC5/knob_2_36.c **** * \return 
 135:Generated_Source\PSoC5/knob_2_36.c **** *  The current value of the data register masked and shifted into a right 
 136:Generated_Source\PSoC5/knob_2_36.c **** *  justified number for the component instance.
ARM GAS  C:\Users\JEFFSN~1\AppData\Local\Temp\ccAcerIl.s 			page 19


 137:Generated_Source\PSoC5/knob_2_36.c **** *
 138:Generated_Source\PSoC5/knob_2_36.c **** * \funcusage
 139:Generated_Source\PSoC5/knob_2_36.c **** *  \snippet knob_2_36_SUT.c usage_knob_2_36_ReadDataReg 
 140:Generated_Source\PSoC5/knob_2_36.c **** *******************************************************************************/
 141:Generated_Source\PSoC5/knob_2_36.c **** uint8 knob_2_36_ReadDataReg(void)
 142:Generated_Source\PSoC5/knob_2_36.c **** {
 318              		.loc 1 142 0
 319              		.cfi_startproc
 320              		@ args = 0, pretend = 0, frame = 0
 321              		@ frame_needed = 0, uses_anonymous_args = 0
 322              		@ link register save eliminated.
 143:Generated_Source\PSoC5/knob_2_36.c ****     return (knob_2_36_DR & knob_2_36_MASK) >> knob_2_36_SHIFT;
 323              		.loc 1 143 0
 324 0000 024B     		ldr	r3, .L11
 325 0002 1878     		ldrb	r0, [r3]	@ zero_extendqisi2
 144:Generated_Source\PSoC5/knob_2_36.c **** }
 326              		.loc 1 144 0
 327 0004 C0F38010 		ubfx	r0, r0, #6, #1
 328 0008 7047     		bx	lr
 329              	.L12:
 330 000a 00BF     		.align	2
 331              	.L11:
 332 000c 30510040 		.word	1073762608
 333              		.cfi_endproc
 334              	.LFE3:
 335              		.size	knob_2_36_ReadDataReg, .-knob_2_36_ReadDataReg
 336              		.text
 337              	.Letext0:
 338              		.file 2 "Generated_Source\\PSoC5\\cytypes.h"