ARM GAS  C:\Users\JEFFSN~1\AppData\Local\Temp\ccwDlZAs.s 			page 1


   1              		.syntax unified
   2              		.cpu cortex-m3
   3              		.fpu softvfp
   4              		.eabi_attribute 20, 1
   5              		.eabi_attribute 21, 1
   6              		.eabi_attribute 23, 3
   7              		.eabi_attribute 24, 1
   8              		.eabi_attribute 25, 1
   9              		.eabi_attribute 26, 1
  10              		.eabi_attribute 30, 2
  11              		.eabi_attribute 34, 1
  12              		.eabi_attribute 18, 4
  13              		.thumb
  14              		.syntax unified
  15              		.file	"MISO_1.c"
  16              		.text
  17              	.Ltext0:
  18              		.section	.gnu.lto_.profile.a80cd24c,"",%progbits
  19 0000 789C6361 		.ascii	"x\234ca`d`a`\000\222\022\"\000\000\256\0007"
  19      60646061 
  19      60009212 
  19      220000AE 
  19      0037
  20              		.text
  21              		.section	.gnu.lto_.icf.a80cd24c,"",%progbits
  22 0000 789C6361 		.ascii	"x\234ca`d\000\001)\006\004`a\270\374ho\033'\343\315"
  22      60640001 
  22      29060460 
  22      61B8FC68 
  22      6F1B27E3 
  23 0015 EF1D2738 		.ascii	"\357\035'8\231\236n\231<\225\227\271\361\342\336s<\014"
  23      999E6E99 
  23      3C9597B9 
  23      F1E2DE73 
  23      3C0C
  24 0027 00A8690C 		.ascii	"\000\250i\014\013"
  24      0B
  25              		.text
  26              		.section	.gnu.lto_.jmpfuncs.a80cd24c,"",%progbits
  27 0000 789C6361 		.ascii	"x\234ca`d\000\001!\006\004`a`dd\254g\004\021L\014\014"
  27      60640001 
  27      21060460 
  27      61606464 
  27      AC670411 
  28 0017 CC401100 		.ascii	"\314@\021\000\016\"\001&"
  28      0E220126 
  29              		.text
  30              		.section	.gnu.lto_.inline.a80cd24c,"",%progbits
  31 0000 789C6361 		.ascii	"x\234ca`d\000\201$\006\004`a`\340`gdd\340\000J1s\034"
  31      60640081 
  31      24060460 
  31      6160E060 
  31      676464E0 
  32 0019 B063605B 		.ascii	"\260c`[ \317\304\300t\201\237\005$\313\210O\222\211"
  32      20CFC4C0 
  32      74819F05 
  32      24CB884F 
ARM GAS  C:\Users\JEFFSN~1\AppData\Local\Temp\ccwDlZAs.s 			page 2


  32      9289
  33 002b 818D9591 		.ascii	"\201\215\225\221\201\211\355\203\036D\034\010\2301\205"
  33      8189ED83 
  33      1E441C08 
  33      983185
  34 003a 1800EEF5 		.ascii	"\030\000\356\365\012\002"
  34      0A02
  35              		.text
  36              		.section	.gnu.lto_.pureconst.a80cd24c,"",%progbits
  37 0000 789C6361 		.ascii	"x\234ca`d\340d```a\220b\224b\222b\226\002\000\002\261"
  37      6064E064 
  37      60606061 
  37      90629462 
  37      92629602 
  38 0017 0081     		.ascii	"\000\201"
  39              		.text
  40              		.section	.gnu.lto_MISO_1_Write.a80cd24c,"",%progbits
  41 0000 789C5550 		.ascii	"x\234UPMK\033Q\024\275\347\275L\022j\253?\240Y\004D"
  41      4D4B1B51 
  41      14BDE7BD 
  41      4C126AAB 
  41      3FA05904 
  42 0015 249BD222 		.ascii	"$\233\322\"\375\003\272\020\027Ri\266\001\011\351,\204"
  42      FD03BA10 
  42      175269B6 
  42      0109E92C 
  42      84
  43 0026 B68246B7 		.ascii	"\266\202F\267\2761\231\010\256\262QW*X\304h\353Ww\205"
  43      BE319908 
  43      AEB25157 
  43      2A58C468 
  43      EB577785 
  44 003a 42875975 		.ascii	"B\207Yu\323v\343\252\224R\\L\241\253\024\015\221:u\274"
  44      D376E3AA 
  44      94525C4C 
  44      A1AB140D 
  44      913A75BC 
  45 004e 77C6853E 		.ascii	"w\306\205>x\363\336\234w\316\271\347\336\024\201d)E"
  45      78F3DE9C 
  45      77CEB9E7 
  45      DE148164 
  45      2945
  46 0060 34C4E743 		.ascii	"4\304\347C\336\320\004\325\374J\344d\025 \027\223\005"
  46      DED004D5 
  46      FC4AE464 
  46      15201793 
  46      05
  47 0071 2D282CA0 		.ascii	"-(,\240\243\376+\370K\301\007U\3301\274~moh\323\362"
  47      A3FE2BF8 
  47      4BC10755 
  47      D831BC7E 
  47      6D6F68D3 
  48 0086 E06AA248 		.ascii	"\340j\242H\305N\204\035\024\230\365\373\343\322\011"
  48      C54E841D 
  48      1498F5FB 
  48      E3D209
  49 0095 743F88EF 		.ascii	"t?\210\357\015\277\323\356\031\3346f\321\230\263\222"
ARM GAS  C:\Users\JEFFSN~1\AppData\Local\Temp\ccwDlZAs.s 			page 3


  49      0DBFD3EE 
  49      19DC3666 
  49      D198B392 
  50 00a5 D1AE065A 		.ascii	"\321\256\006Z\320\254\300P\016\217s\304\000a\027\203"
  50      D0ACC050 
  50      0E8F73C4 
  50      00611783 
  51 00b5 42BEF87E 		.ascii	"B\276\370~r\320\253\013\261\260i\202\255\373\003oD\350"
  51      72D0AB0B 
  51      B1B06982 
  51      ADFB036F 
  51      44E8
  52 00c7 755FAD19 		.ascii	"u_\255\031\317\311\213v\357\266V\026SO\217\257V\036"
  52      CFC98B76 
  52      EFB65616 
  52      534F8FAF 
  52      561E
  53 00d9 A4EB922A 		.ascii	"\244\353\222*\217\267\030H\362\340\035\322\334!\004"
  53      8FB71848 
  53      F2E01DD2 
  53      DC2104
  54 00e8 397CEE99 		.ascii	"9|\356\231(\252\031\257cutVqQ\305\235\362C\012R\333"
  54      28AA19AF 
  54      63757456 
  54      7151C59D 
  54      F2430A52 
  55 00fd 12202D1F 		.ascii	"\022 -\037\2426oi\374/\317\205O\035\300\377\267\374"
  55      A2366F69 
  55      FC2FCF85 
  55      4F1DC0FF 
  55      B7FC
  56 010f 732D2376 		.ascii	"s-#v5-CXu\375o\231s\345j\035\007m\325\303P%\277\315"
  56      352D4358 
  56      75FD6F99 
  56      73E56A1D 
  56      076DD5C3 
  57 0127 2DC7A418 		.ascii	"-\307\244\030\372\022\035\205\275\233Xw\352<\236\024"
  57      FA121D85 
  57      BD9B5877 
  57      EA3C9E14 
  58 0137 0E90C33E 		.ascii	"\016\220\303>8.\016\261\011\012P\013\033?\220\030\352"
  58      382E0EB1 
  58      090A500B 
  58      1B3F9018 
  58      EA
  59 0148 C4F3F273 		.ascii	"\304\363\362s\360\251OL\200\210p\304\344S\250\270\003"
  59      F0A94F4C 
  59      808870C4 
  59      E453A8B8 
  59      03
  60 0159 0EC92C11 		.ascii	"\016\311,\021\265\033A\367&\206U\323R\347|\331\355j"
  60      B51B41F7 
  60      268655D3 
  60      52E77CD9 
  60      ED6A
  61 016b 5159C8E0 		.ascii	"QY\310\340\230E\314\272h\2047\326\211\273\305\240\277"
  61      9845CCBA 
ARM GAS  C:\Users\JEFFSN~1\AppData\Local\Temp\ccwDlZAs.s 			page 4


  61      688437D6 
  61      89BBC5A0 
  61      BF
  62 017c 1A437792 		.ascii	"\032Cw\2229\306\364\334\015\367\236\303\261\212\376"
  62      39C6F4DC 
  62      0DF79EC3 
  62      B18AFE
  63 018b 60D1BBB4 		.ascii	"`\321\273\264D\020\017\270\255 \203\340\261\344G\355"
  63      44100FB8 
  63      AD2083E0 
  63      B1E447ED 
  64 019b D7F64CB9 		.ascii	"\327\366L\271j\277\230,N\317\315T\354\322Dqz\344ii|"
  64      6ABF982C 
  64      4ECFCD54 
  64      ECD24471 
  64      7AE46969 
  65 01b0 ACF86CF2 		.ascii	"\254\370l\362\311\243\012Y\363\345\227s\366\275\331"
  65      C9A30A59 
  65      F3E59773 
  65      F6BDD9
  66 01bf 6AB93A55 		.ascii	"j\271:U\031\236\252\316^\003!\\\271\023"
  66      199EAACE 
  66      5E03215C 
  66      B913
  67              		.text
  68              		.section	.gnu.lto_MISO_1_SetDriveMode.a80cd24c,"",%progbits
  69 0000 789C7D51 		.ascii	"x\234}Q\317\213RQ\024>\337\275\317\3674\311\177`\\\010"
  69      CF8B5251 
  69      143EDFBD 
  69      CFF734C9 
  69      7F605C08 
  70 0014 B3103731 		.ascii	"\263\020711\364\027\014\024-\206\211\334:H\214oY\222"
  70      31F4170C 
  70      142D8689 
  70      DC3A488C 
  70      6F5992
  71 0027 D4DAAB4F 		.ascii	"\324\332\253O\011jQ1\344f\010\333\210\316hMQ\233v&\324"
  71      096A5131 
  71      E46608DB 
  71      88CE684D 
  71      519B7626 
  72 003c 269882A0 		.ascii	"&\230\202\240E\213\210\026\217!2tJ\012\313\354\234\367"
  72      458B8816 
  72      8F213274 
  72      4A0ACBEC 
  72      9CF7
  73 004e 66E1AACB 		.ascii	"f\341\252\313\273\347\307\307\367}\234s\237E 9\207\234"
  73      BBE7C7C7 
  73      F77D9C73 
  73      9F452039 
  73      879C
  74 0060 D29C97F8 		.ascii	"\322\234\227\370B\023\324\235\003\242JT\001R\230(\250"
  74      4213D49D 
  74      03A24A54 
  74      01529828 
  74      A8
  75 0071 AC50C644 		.ascii	"\254P\306D\315\024\0067\374\347*\3236|>\275\374\266"
ARM GAS  C:\Users\JEFFSN~1\AppData\Local\Temp\ccwDlZAs.s 			page 5


  75      CD140637 
  75      FCE72AD3 
  75      367C3EBD 
  75      FCB6
  76 0083 623A7DD4 		.ascii	"b:}\3245\321\\\005N\20462\314\372\376\264\265\035\327"
  76      35D15C05 
  76      4E843632 
  76      CCFAFEB4 
  76      B51DD7
  77 0096 CB20AEC7 		.ascii	"\313 \256\307\007\243\217\211t\313\230\2521w7\215\256"
  77      07A38F89 
  77      74CB98AA 
  77      3177378D 
  77      AE
  78 00a7 6BA003CD 		.ascii	"k\240\003\315\012\254&\261\222$\006\010\273H\013\371"
  78      0AAC26B1 
  78      92240608 
  78      BB480BF9 
  79 00b7 F393BFF7 		.ascii	"\363\223\277\367N\3325\261O\205\246\330\203-c\356_\354"
  79      4EDA35B1 
  79      4F85A6D8 
  79      832D63EE 
  79      5FEC
  80 00c9 9BF9DC33 		.ascii	"\233\371\3343\375\237\366\213\251\035W,S\232\203\266"
  80      FD9FF68B 
  80      A91D572C 
  80      539A83B6 
  81 00d9 2444200E 		.ascii	"$D \016\266\224\216\204\250\204\230p\210F|e\221\261"
  81      B6948E84 
  81      A8849870 
  81      88467C65 
  81      91B1
  82 00eb 5292B58F 		.ascii	"R\222\265\217\301\364\246\277c\211\263\247e\251F}\360"
  82      C1F4A6BF 
  82      6389B3A7 
  82      65A9467D 
  82      F0
  83 00fc C6F9A1EA 		.ascii	"\306\371\241\352\332\012&~\273\375\365\235\016\333\333"
  83      DA0A267E 
  83      BBFDF59D 
  83      0EDBDB
  84 010b 0F2AC662 		.ascii	"\017*\306b\350\331\353\311\360D\023\367+5^7\202\036"
  84      E8D9EBC9 
  84      F04413F7 
  84      2B355E37 
  84      821E
  85 011d 92E822C9 		.ascii	"\222\350\"\311\323=D\023\344\243z\344\204v\232\035\271"
  85      D33D4413 
  85      E4A37AE4 
  85      84769A1D 
  85      B9
  86 012e F7FED861 		.ascii	"\367\376\330ao1\304\372\017\257n\315bb\251q\025\217"
  86      6F31C4FA 
  86      0FAF6ECD 
  86      6262A971 
  86      158F
  87 0140 58B920E1 		.ascii	"X\271 \341/\262(q\030b\311\360}\267\247CI\002\373\201"
ARM GAS  C:\Users\JEFFSN~1\AppData\Local\Temp\ccwDlZAs.s 			page 6


  87      2FB22871 
  87      1862C9F0 
  87      7DB7A743 
  87      4902FB81 
  88 0154 C4FB754C 		.ascii	"\304\373uL\211\006\306\316\242K\214Q\356\007\015H\377"
  88      8906C6CE 
  88      A24B8C51 
  88      EE070D48 
  88      FF
  89 0165 BF911FF3 		.ascii	"\277\221\037\363\310\314\247/\250\366\177\237\025v\360"
  89      C8CCA72F 
  89      A8F67F9F 
  89      1576F0
  90 0174 EB460AF2 		.ascii	"\353F\012\362<\374X\251s\356\025\267t\351\232[\310g"
  90      3CFC58A9 
  90      73EE15B7 
  90      74E99A5B 
  90      C867
  91 0186 8BD74B5B 		.ascii	"\213\327K[n\356B\266\270v&\267~>\273\221?}j\213\254"
  91      6EEE42B6 
  91      B87626B7 
  91      7E3EBB91 
  91      3F7D6A8B 
  92 019b CBC582FB 		.ascii	"\313\305\202\373\017\340\343\246-"
  92      0FE0E3A6 
  92      2D
  93              		.text
  94              		.section	.gnu.lto_MISO_1_Read.a80cd24c,"",%progbits
  95 0000 789C354F 		.ascii	"x\2345O\277KBQ\024>\337\275\317\367D\350/\310A\332\\"
  95      BF4B4251 
  95      143EDFBD 
  95      CFF744E8 
  95      2FC841DA 
  96 0015 A288205A 		.ascii	"\242\210 Z\203\242!\212\034Z\004\011{k\202\324\354\325"
  96      83A2218A 
  96      1C5A0409 
  96      7B6B82D4 
  96      ECD5
  97 0027 E72B8886 		.ascii	"\347+\210\206\032\252\251\202 4+\244%\032M(\212\240"
  97      1AAAA982 
  97      20342BA4 
  97      251A4D28 
  97      8AA0
  98 0039 A6A22922 		.ascii	"\246\242)\"\342\015Me\206 \246\235\333\253\003\367\234"
  98      E20D4D65 
  98      8620A69D 
  98      DBAB03F7 
  98      9C
  99 004a 7BCFFD7E 		.ascii	"{\317\375~\234c\020H\307\014\227\036\256\335| \011b"
  99      9C631048 
  99      C70C971E 
  99      AEDD7C20 
  99      0962
 100 005c ED96281B 		.ascii	"\355\226(\033\024\200\276\250 (#\220\301\227\370\026"
 100      1480BEA8 
 100      20282390 
 100      C197F816 
ARM GAS  C:\Users\JEFFSN~1\AppData\Local\Temp\ccwDlZAs.s 			page 7


 101 006c B8695CAD 		.ascii	"\270i\\\255\206\242\005\245r\352y\2779\264U\254\300"
 101      86A205A5 
 101      72EA79BF 
 101      39B455AC 
 101      C0
 102 007d 95441D41 		.ascii	"\225D\035A\030\010\243/\254%\012\210\022C_N\332\033"
 102      1808A32F 
 102      AC250A88 
 102      12435F4E 
 102      DA1B
 103 008f 5D665E71 		.ascii	"]f^qD4\200\177\2120\265ey\272\242:\035GU\356\255\363"
 103      4434807F 
 103      8A30B565 
 103      79BAA23A 
 103      1D4755EE 
 104 00a5 47CB02B9 		.ascii	"G\313\002\271\222}9\031\234D@'\223\264,\2753M\017\361"
 104      927D3919 
 104      9C444027 
 104      93B42CBD 
 104      334D0FF1 
 105 00b9 2184AED2 		.ascii	"!\204\256\322C\265\271\362\2643\254\225\034)\331e\323"
 105      43B5B9F2 
 105      B433AC95 
 105      1C29D965 
 105      D3
 106 00ca ADDE5975 		.ascii	"\255\336Yu\341J\011mz\361\220\3774\374\347\372^V\031"
 106      E14A096D 
 106      7AF190FF 
 106      34FCE7FA 
 106      5E5619
 107 00dd DC2A9D95 		.ascii	"\334*\235\225\333\330\305v6\317\243\032(!\214\003\360"
 107      DBD8C576 
 107      36CFA31A 
 107      28218C03 
 107      F0
 108 00ee A038E42E 		.ascii	"\2408\344.ypZ\243\344H\370r\247\336\365eH\363\001\005"
 108      79705AA3 
 108      E448F872 
 108      A7DEF565 
 108      48F30105 
 109 0102 1C31CE43 		.ascii	"\0341\316C\256\266\334\022\276\243\301@M\251-\325\015"
 109      AEB6DC12 
 109      BEA3C140 
 109      4DA92DD5 
 109      0D
 110 0113 BF13E026 		.ascii	"\277\023\340&\363\352+nCj\236\200\205\343\177\332+|"
 110      F3EA2B6E 
 110      436A9E80 
 110      85E37FDA 
 110      2B7C
 111 0125 90C6D11B 		.ascii	"\220\306\321\033\376DL\372\335\014z#\336/2f\317\333"
 111      FE444CFA 
 111      DD0C7A23 
 111      DE2F3266 
 111      CFDB
 112 0137 E9D9057B 		.ascii	"\351\331\005{.\021K-\246\223v|*\226\032\031\214O\214"
 112      2E114B2D 
ARM GAS  C:\Users\JEFFSN~1\AppData\Local\Temp\ccwDlZAs.s 			page 8


 112      A693767C 
 112      2A961A19 
 112      8C4F8C
 113 014a C72613FD 		.ascii	"\307&\023\375\275I\372\001\375_{\325"
 113      BD49FA01 
 113      FD5F7BD5 
 114              		.text
 115              		.section	.gnu.lto_MISO_1_ReadDataReg.a80cd24c,"",%progbits
 116 0000 789C354F 		.ascii	"x\2345O;K\003A\020\236o\367r\011\007\372\007L!viD\021"
 116      3B4B0341 
 116      109E6FF7 
 116      720907FA 
 116      074C2176 
 117 0017 0B6D05C5 		.ascii	"\013m\005\305B\024S\330\004\202\304k\015\004\255\263"
 117      421453D8 
 117      0482C46B 
 117      0D04ADB3 
 118 0027 C9E51482 		.ascii	"\311\345\024\202E\032\265\222\200 I|\2406vBL!\212\370"
 118      451AB592 
 118      8020497C 
 118      A0367642 
 118      4C218AF8 
 119 003b F8092272 		.ascii	"\370\011\"r\205\225\206H@\316\234\263\236\016\354\314"
 119      85958648 
 119      40CE9CB3 
 119      9E0EECCC 
 120 004b EEECF798 		.ascii	"\356\354\367\2301\010\244c\211\313\020\327\001>\220"
 120      3108A463 
 120      89CB10D7 
 120      013E90
 121 005a 04517920 		.ascii	"\004Qy *\304\004\240/*\006\312\013\344\361)\276\005"
 121      2AC404A0 
 121      2F2A06CA 
 121      0BE4F129 
 121      BE05
 122 006c EEBA375B 		.ascii	"\356\2727[V\242\246TQ=\037\324&v\353M\270\222(\020\204"
 122      56A2A654 
 122      513D1FD4 
 122      2676EB4D 
 122      B8922810 
 123 0081 B13846E2 		.ascii	"\2618F\342Z\242\206\0041\364\345\274\267\335g\226\024"
 123      5AA28604 
 123      31F4E5BC 
 123      B7DD6796 
 123      14
 124 0092 C7A006F0 		.ascii	"\307\240\006\360O\035\246\266<]l\252 pT\363\322\272"
 124      4F1DA6B6 
 124      3C5D6CAA 
 124      207054F3 
 124      D2BA
 125 00a4 7AB2A220 		.ascii	"z\262\242 W\262/'\203\223\210\350d\222\226\245w\246"
 125      57B22F27 
 125      839388E8 
 125      649296A5 
 125      77A6
 126 00b6 E9213E84 		.ascii	"\351!>\204\320Uzh}\225{\215I\255\344H\311.;n\3531\332"
 126      D0557A68 
ARM GAS  C:\Users\JEFFSN~1\AppData\Local\Temp\ccwDlZAs.s 			page 9


 126      7D957B8D 
 126      49ADE448 
 126      C92E3B6E 
 127 00cd 11AE94D0 		.ascii	"\021\256\224\320\246\365\222\357\213\360Y\331/(\203"
 127      A6F592EF 
 127      8BF059D9 
 127      2F2883
 128 00dc 5BF7C199 		.ascii	"[\367\301\231\337_\305^\241\304\243\0328D\034\015\360"
 128      DF5FC55E 
 128      A1C4A31A 
 128      38441C0D 
 128      F0
 129 00ed A0384215 		.ascii	"\2408B\025\344\301\361\247\311\221\010\345.\274\333"
 129      E4C1F1A7 
 129      C99108E5 
 129      2EBCDB
 130 00fc 6B4BF301 		.ascii	"kK\363\001\005\0343\316C\261\275\351\213\320\321`\240"
 130      051C33CE 
 130      43B1BDE9 
 130      8BD0D160 
 130      A0
 131 010d A6B4373A 		.ascii	"\246\2647:F\330\211p\223y\235\262\333\225\232'\020\305"
 131      46D88970 
 131      93799DB2 
 131      DB959A27 
 131      10C5
 132 011f C93FED15 		.ascii	"\311?\355\025!H\343\350\015\177\"&\375n\006\275\021"
 132      2148E3E8 
 132      0D7F2226 
 132      FD6E06BD 
 132      11
 133 0130 EF373863 		.ascii	"\35778c\257\332\271\3455{%\235\314\256\3472vj!\231\235"
 133      AFDAB9E5 
 133      357B259D 
 133      CCAEE732 
 133      766A2199 
 134 0145 1A4FCDCD 		.ascii	"\032O\315\315&\347\323\243\303\031\372\001\371\027|"
 134      26E7D3A3 
 134      C319FA01 
 134      F9177C
 135 0154 19       		.ascii	"\031"
 136              		.text
 137              		.section	.gnu.lto_.symbol_nodes.a80cd24c,"",%progbits
 138 0000 789C6361 		.ascii	"x\234ca`dpc\000\002&\206z\006\206\011\347\030@\324\256"
 138      60647063 
 138      00022686 
 138      7A068609 
 138      E71840D4 
 139 0015 0645A000 		.ascii	"\006E\240\000c=#\252\000S=\023\252\000s=3\212\000\003"
 139      633D23AA 
 139      00533D13 
 139      AA00733D 
 139      338A0003 
 140 0029 0026B60F 		.ascii	"\000&\266\017<"
 140      3C
 141              		.text
 142              		.section	.gnu.lto_.refs.a80cd24c,"",%progbits
ARM GAS  C:\Users\JEFFSN~1\AppData\Local\Temp\ccwDlZAs.s 			page 10


 143 0000 789C6361 		.ascii	"x\234ca`\004B \000\000\0009\000\007"
 143      60044220 
 143      00000039 
 143      0007
 144              		.text
 145              		.section	.gnu.lto_.decls.a80cd24c,"",%progbits
 146 0000 789C8D53 		.ascii	"x\234\215S]H\024Q\024\276gf\\m\3344,b\037\026\332|\362"
 146      5D481451 
 146      14BE6766 
 146      5C6DDC34 
 146      2C621F16 
 147 0017 694922F0 		.ascii	"iI\"\360!2P\222\036\314P\264\027AV\035\314\027\215m"
 147      21325092 
 147      1ECC50B4 
 147      1741561D 
 147      CC178D6D 
 148 002b 0D7CBBBA 		.ascii	"\015|\273\272F?\006)\245\251\011Z\017\245\271\271\226"
 148      463F0629 
 148      A5A9095A 
 148      0FA5B9B9 
 148      96
 149 003c 3FED6EFE 		.ascii	"?\355n\376l\206&\201\240\010B\031\264\244>H\006\353"
 149      6C862681 
 149      A0084219 
 149      B4A43E48 
 149      06EB
 150 004e 4F91846D 		.ascii	"O\221\204m\347\336\231i\026\333\300\303\234\231s\356"
 150      E7DE9969 
 150      16DBC0C3 
 150      9C9973EE 
 151 005e 3DDF77BE 		.ascii	"=\337w\276{fF\"@\230eJ\204\264\341\323\212i\004-\016"
 151      7B664622 
 151      4098654A 
 151      84B4E1D3 
 151      8A69042D 
 152 0073 E3226218 		.ascii	"\343\"b\030n\223A\364at\037z\200\374kl\337\244\341\372"
 152      6E9341F4 
 152      61741F7A 
 152      80FC6B6C 
 152      DFA4E1FA 
 153 0087 1917FA04 		.ascii	"\031\027\372\004\372\030z\236V\003Z\335^\033\216\201"
 153      FA187A9E 
 153      56035ADD 
 153      5E1B8E81 
 154 0097 9D8CC2EB 		.ascii	"\235\214\302\353\330\341\030X\246'.\012\227\027\003"
 154      D8E11858 
 154      A6272E0A 
 154      971703
 155 00a6 E78B810B 		.ascii	"\347\213\201\013\354\003\027\353\234\273\002D\272\206"
 155      EC0317EB 
 155      9CBB0244 
 155      BA86
 156 00b4 EE262CC1 		.ascii	"\356&,\301\007\020\2116@\002\240\336\201;Q\235\247\030"
 156      07108936 
 156      4002A0DE 
 156      813B519D 
 156      A718
ARM GAS  C:\Users\JEFFSN~1\AppData\Local\Temp\ccwDlZAs.s 			page 11


 157 00c6 08440DF4 		.ascii	"\010D\015\364\245\277F\264\022A\017\0152~ix\210\350"
 157      A5BF46B4 
 157      12410F0D 
 157      327E6978 
 157      88E8
 158 00d8 C6490C76 		.ascii	"\306I\014v\320@j\256\353\326@ \030\015@MuD\024\337\036"
 158      D0406AAE 
 158      EBD64020 
 158      180D404D 
 158      754414DF 
 159 00ed 45BA66BD 		.ascii	"E\272f\275\015\021\364C\177\011\326\255\231D\001X\374"
 159      0D11F443 
 159      7F09D6AD 
 159      99440158 
 159      FC
 160 00fe 79A7E79C 		.ascii	"y\247\347\234\335C\321\232(\025\216\031\223\361^_\351"
 160      DD43D19A 
 160      28158E19 
 160      93F15E5F 
 160      E9
 161 010f 4DD816C0 		.ascii	"M\330\026\300*C\004X\276\356\3379\250\346l\273\275y"
 161      2A430458 
 161      BEEEDF39 
 161      A8E66CBB 
 161      BD79
 162 0121 F977A268 		.ascii	"\371w\242ha\261\260\260\334\267&A\232\374\204\321\204"
 162      61B1B0B0 
 162      DCB72641 
 162      9AFC84D1 
 162      84
 163 0132 7657CEF8 		.ascii	"vW\316\370)=\004\375 \203\007D\350\005;\323`\225\361"
 163      293D04FD 
 163      20830744 
 163      E8053BD3 
 163      6095F1
 164 0145 7E93D27A 		.ascii	"~\223\322z\032~LM\026\002'\255p\302J\3409\2441NV\005"
 164      1A7E4C4D 
 164      160227AD 
 164      70C24AE0 
 164      39A4314E 
 165 015b 7D608567 		.ascii	"}`\205g`e\374\253\017\272\276\232$\224\314yJ%\2666\337"
 165      6065FCAB 
 165      0FBABE9A 
 165      2494CC79 
 165      4A25B636 
 166 0170 30D029A2 		.ascii	"0\320)\242\204\024\031$L7f;\226\2230=\"\203\015SO\340"
 166      84141924 
 166      4C37663B 
 166      9693303D 
 166      22830D53 
 167 0186 D3BAC9D2 		.ascii	"\323\272\311\322\312\217\342\2466\011\212\216\302\013"
 167      CA8FE2A6 
 167      36098A8E 
 167      C20B
 168 0194 241C4042 		.ascii	"$\034@B\002/\301\202w/H\352\351\306}\033\341\344\324"
 168      022FC182 
 168      772F48EA 
ARM GAS  C:\Users\JEFFSN~1\AppData\Local\Temp\ccwDlZAs.s 			page 12


 168      E9C67D1B 
 168      E1E4D4
 169 01a7 6EDA3D40 		.ascii	"n\332=@C\315\323\247[\335t\006q6V\006=\206\350\036\366"
 169      43CDD3A7 
 169      5BDD7406 
 169      71365606 
 169      3D86E81E 
 170 01bc 5D10780A 		.ascii	"]\020x\012K8\303AHE\344\275\033?\277\313\242\203\017"
 170      4B38C341 
 170      4845E4BD 
 170      1B3FBFCB 
 170      A2830F
 171 01cf 21BCB91A 		.ascii	"!\274\271\032JPY\202\333\323f\332TG\351Y\3161dp\014"
 171      4A505982 
 171      DBD366DA 
 171      5447E959 
 171      CE316470 
 172 01e4 45730C73 		.ascii	"Es\014s\216\315\217S\235 \326p\216\271\306)wr\264lv"
 172      8ECD8F53 
 172      9D20D670 
 172      8EB9C629 
 172      7772B46C 
 173 01f9 5E43F72B 		.ascii	"^C\367+\256\273T\223\355~\353\375u@k\270\360Nl\247\301"
 173      AEBB5493 
 173      ED7EEBFD 
 173      75406BB8 
 173      F04E6CA7 
 174 020e 06C409AC 		.ascii	"\006\304\011\254\012F\214\226#\321-}\274\345\235\037"
 174      0A468C96 
 174      23D12D7D 
 174      BCE59D1F 
 175 021e 73EE24B1 		.ascii	"s\356$\261\016x\317\255\306\271P\274F\023x\257\353f"
 175      0E78CFAD 
 175      C6B950BC 
 175      461378AF 
 175      EB66
 176 0230 247E83C4 		.ascii	"$~\203\304\037M\022\340$\333\015[\213&\031_\242{\177"
 176      1F4D12E0 
 176      24DB0D5B 
 176      8B26195F 
 176      A27B7F
 177 0243 2F7176ED 		.ascii	"/qv\355Q$^\274\317\233\012\203-\355-\361 \247\305\200"
 177      51245EBC 
 177      CF9B0A83 
 177      2DED2DF1 
 177      20A7C580 
 178 0257 8FC7806B 		.ascii	"\217\307\200k\037\223\247\260\371\026;\341\030Ne\324"
 178      1F93A7B0 
 178      F9163BE1 
 178      184E65D4 
 179 0267 10F71A64 		.ascii	"\020\367\032du\"Cs\337\274q\346\333\354\273\302\361"
 179      75224373 
 179      DFBC71E6 
 179      DBECBBC2 
 179      F1
 180 0278 A5CC24F1 		.ascii	"\245\314$\361Jc~\023`\346\277\000>w\005qt\361a\247\210"
 180      4A637E13 
ARM GAS  C:\Users\JEFFSN~1\AppData\Local\Temp\ccwDlZAs.s 			page 13


 180      60E6BF00 
 180      3E770571 
 180      74F161A7 
 181 028d 7BEC923B 		.ascii	"{\354\222;(J\241\363\000\223H\306\223p&\217\3312\015"
 181      284AA1F3 
 181      009348C6 
 181      9370268F 
 181      D9320D
 182 02a0 D753535B 		.ascii	"\327SS[\222.\221\360\015\002AD\276Ab\236\232s\317\027"
 182      922E91F0 
 182      0D024144 
 182      BE41629E 
 182      9A73CF17 
 183 02b4 E495A497 		.ascii	"\344\225\244\227\\rV\272\224\204\234\013\205\266\254"
 183      5C7256BA 
 183      94849C0B 
 183      85B6AC
 184 02c3 F4741257 		.ascii	"\364t\022WSY\345\3128\236\243T)N\207K)/)\250\256q\226"
 184      5359E5CA 
 184      389EA354 
 184      294E874B 
 184      292F29A8 
 185 02da 29C5170B 		.ascii	")\305\027\013\252\263N\025\227\325\272j\257(W\355\227"
 185      AAB34E15 
 185      97D5BA6A 
 185      AF2857ED 
 185      97
 186 02eb 89ED3F15 		.ascii	"\211\355?\025*\251\275\214\034\326\350\013\024W\266"
 186      2AA9BD8C 
 186      1CD6E80B 
 186      1457B6
 187 02fa B3F29A92 		.ascii	"\263\362\232\222[]\256$jk\371\212\243<%*\316v\270\034"
 187      5B5DAE24 
 187      6A6BF98A 
 187      A33C252A 
 187      CE76B81C 
 188 030e F94A85E4 		.ascii	"\371J\205\344T*2\376\000\342\353b\343"
 188      542A32FE 
 188      00E2EB62 
 188      E3
 189              		.text
 190              		.section	.gnu.lto_.symtab.a80cd24c,"",%progbits
 191 0000 4D49534F 		.ascii	"MISO_1_Write\000"
 191      5F315F57 
 191      72697465 
 191      00
 192 000d 00       		.ascii	"\000"
 193 000e 00       		.ascii	"\000"
 194 000f 00       		.ascii	"\000"
 195 0010 00000000 		.ascii	"\000\000\000\000\000\000\000\000"
 195      00000000 
 196 0018 B3000000 		.ascii	"\263\000\000\000"
 197 001c 4D49534F 		.ascii	"MISO_1_SetDriveMode\000"
 197      5F315F53 
 197      65744472 
 197      6976654D 
 197      6F646500 
ARM GAS  C:\Users\JEFFSN~1\AppData\Local\Temp\ccwDlZAs.s 			page 14


 198 0030 00       		.ascii	"\000"
 199 0031 00       		.ascii	"\000"
 200 0032 00       		.ascii	"\000"
 201 0033 00000000 		.ascii	"\000\000\000\000\000\000\000\000"
 201      00000000 
 202 003b B5000000 		.ascii	"\265\000\000\000"
 203 003f 4D49534F 		.ascii	"MISO_1_Read\000"
 203      5F315F52 
 203      65616400 
 204 004b 00       		.ascii	"\000"
 205 004c 00       		.ascii	"\000"
 206 004d 00       		.ascii	"\000"
 207 004e 00000000 		.ascii	"\000\000\000\000\000\000\000\000"
 207      00000000 
 208 0056 B8000000 		.ascii	"\270\000\000\000"
 209 005a 4D49534F 		.ascii	"MISO_1_ReadDataReg\000"
 209      5F315F52 
 209      65616444 
 209      61746152 
 209      656700
 210 006d 00       		.ascii	"\000"
 211 006e 00       		.ascii	"\000"
 212 006f 00       		.ascii	"\000"
 213 0070 00000000 		.ascii	"\000\000\000\000\000\000\000\000"
 213      00000000 
 214 0078 BA000000 		.ascii	"\272\000\000\000"
 215              		.text
 216              		.section	.gnu.lto_.opts,"",%progbits
 217 0000 272D666D 		.ascii	"'-fmath-errno' '-fsigned-zeros' '-ftrapping-math' '"
 217      6174682D 
 217      6572726E 
 217      6F272027 
 217      2D667369 
 218 0033 2D666E6F 		.ascii	"-fno-trapv' '-fno-openmp' '-fno-openacc' '-mcpu=cor"
 218      2D747261 
 218      70762720 
 218      272D666E 
 218      6F2D6F70 
 219 0066 7465782D 		.ascii	"tex-m3' '-mthumb' '-g' '-O3' '-ffunction-sections' "
 219      6D332720 
 219      272D6D74 
 219      68756D62 
 219      2720272D 
 220 0099 272D6666 		.ascii	"'-ffat-lto-objects' '-finline-functions' '-flto'\000"
 220      61742D6C 
 220      746F2D6F 
 220      626A6563 
 220      74732720 
 221              		.text
 222              		.cfi_sections	.debug_frame
 223              		.section	.text.MISO_1_Write,"ax",%progbits
 224              		.align	2
 225              		.global	MISO_1_Write
 226              		.thumb
 227              		.thumb_func
 228              		.type	MISO_1_Write, %function
 229              	MISO_1_Write:
ARM GAS  C:\Users\JEFFSN~1\AppData\Local\Temp\ccwDlZAs.s 			page 15


 230              	.LFB0:
 231              		.file 1 "Generated_Source\\PSoC5\\MISO_1.c"
   1:Generated_Source\PSoC5/MISO_1.c **** /*******************************************************************************
   2:Generated_Source\PSoC5/MISO_1.c **** * File Name: MISO_1.c  
   3:Generated_Source\PSoC5/MISO_1.c **** * Version 2.20
   4:Generated_Source\PSoC5/MISO_1.c **** *
   5:Generated_Source\PSoC5/MISO_1.c **** * Description:
   6:Generated_Source\PSoC5/MISO_1.c **** *  This file contains API to enable firmware control of a Pins component.
   7:Generated_Source\PSoC5/MISO_1.c **** *
   8:Generated_Source\PSoC5/MISO_1.c **** * Note:
   9:Generated_Source\PSoC5/MISO_1.c **** *
  10:Generated_Source\PSoC5/MISO_1.c **** ********************************************************************************
  11:Generated_Source\PSoC5/MISO_1.c **** * Copyright 2008-2015, Cypress Semiconductor Corporation.  All rights reserved.
  12:Generated_Source\PSoC5/MISO_1.c **** * You may use this file only in accordance with the license, terms, conditions, 
  13:Generated_Source\PSoC5/MISO_1.c **** * disclaimers, and limitations in the end user license agreement accompanying 
  14:Generated_Source\PSoC5/MISO_1.c **** * the software package with which this file was provided.
  15:Generated_Source\PSoC5/MISO_1.c **** *******************************************************************************/
  16:Generated_Source\PSoC5/MISO_1.c **** 
  17:Generated_Source\PSoC5/MISO_1.c **** #include "cytypes.h"
  18:Generated_Source\PSoC5/MISO_1.c **** #include "MISO_1.h"
  19:Generated_Source\PSoC5/MISO_1.c **** 
  20:Generated_Source\PSoC5/MISO_1.c **** /* APIs are not generated for P15[7:6] on PSoC 5 */
  21:Generated_Source\PSoC5/MISO_1.c **** #if !(CY_PSOC5A &&\
  22:Generated_Source\PSoC5/MISO_1.c **** 	 MISO_1__PORT == 15 && ((MISO_1__MASK & 0xC0) != 0))
  23:Generated_Source\PSoC5/MISO_1.c **** 
  24:Generated_Source\PSoC5/MISO_1.c **** 
  25:Generated_Source\PSoC5/MISO_1.c **** /*******************************************************************************
  26:Generated_Source\PSoC5/MISO_1.c **** * Function Name: MISO_1_Write
  27:Generated_Source\PSoC5/MISO_1.c **** ****************************************************************************//**
  28:Generated_Source\PSoC5/MISO_1.c **** *
  29:Generated_Source\PSoC5/MISO_1.c **** * \brief Writes the value to the physical port (data output register), masking
  30:Generated_Source\PSoC5/MISO_1.c **** *  and shifting the bits appropriately. 
  31:Generated_Source\PSoC5/MISO_1.c **** *
  32:Generated_Source\PSoC5/MISO_1.c **** * The data output register controls the signal applied to the physical pin in 
  33:Generated_Source\PSoC5/MISO_1.c **** * conjunction with the drive mode parameter. This function avoids changing 
  34:Generated_Source\PSoC5/MISO_1.c **** * other bits in the port by using the appropriate method (read-modify-write or
  35:Generated_Source\PSoC5/MISO_1.c **** * bit banding).
  36:Generated_Source\PSoC5/MISO_1.c **** *
  37:Generated_Source\PSoC5/MISO_1.c **** * <b>Note</b> This function should not be used on a hardware digital output pin 
  38:Generated_Source\PSoC5/MISO_1.c **** * as it is driven by the hardware signal attached to it.
  39:Generated_Source\PSoC5/MISO_1.c **** *
  40:Generated_Source\PSoC5/MISO_1.c **** * \param value
  41:Generated_Source\PSoC5/MISO_1.c **** *  Value to write to the component instance.
  42:Generated_Source\PSoC5/MISO_1.c **** *
  43:Generated_Source\PSoC5/MISO_1.c **** * \return 
  44:Generated_Source\PSoC5/MISO_1.c **** *  None 
  45:Generated_Source\PSoC5/MISO_1.c **** *
  46:Generated_Source\PSoC5/MISO_1.c **** * \sideeffect
  47:Generated_Source\PSoC5/MISO_1.c **** *  If you use read-modify-write operations that are not atomic; the Interrupt 
  48:Generated_Source\PSoC5/MISO_1.c **** *  Service Routines (ISR) can cause corruption of this function. An ISR that 
  49:Generated_Source\PSoC5/MISO_1.c **** *  interrupts this function and performs writes to the Pins component data 
  50:Generated_Source\PSoC5/MISO_1.c **** *  register can cause corrupted port data. To avoid this issue, you should 
  51:Generated_Source\PSoC5/MISO_1.c **** *  either use the Per-Pin APIs (primary method) or disable interrupts around 
  52:Generated_Source\PSoC5/MISO_1.c **** *  this function.
  53:Generated_Source\PSoC5/MISO_1.c **** *
  54:Generated_Source\PSoC5/MISO_1.c **** * \funcusage
  55:Generated_Source\PSoC5/MISO_1.c **** *  \snippet MISO_1_SUT.c usage_MISO_1_Write
ARM GAS  C:\Users\JEFFSN~1\AppData\Local\Temp\ccwDlZAs.s 			page 16


  56:Generated_Source\PSoC5/MISO_1.c **** *******************************************************************************/
  57:Generated_Source\PSoC5/MISO_1.c **** void MISO_1_Write(uint8 value)
  58:Generated_Source\PSoC5/MISO_1.c **** {
 232              		.loc 1 58 0
 233              		.cfi_startproc
 234              		@ args = 0, pretend = 0, frame = 0
 235              		@ frame_needed = 0, uses_anonymous_args = 0
 236              		@ link register save eliminated.
 237              	.LVL0:
  59:Generated_Source\PSoC5/MISO_1.c ****     uint8 staticBits = (MISO_1_DR & (uint8)(~MISO_1_MASK));
 238              		.loc 1 59 0
 239 0000 044A     		ldr	r2, .L2
 240 0002 1378     		ldrb	r3, [r2]	@ zero_extendqisi2
 241              	.LVL1:
  60:Generated_Source\PSoC5/MISO_1.c ****     MISO_1_DR = staticBits | ((uint8)(value << MISO_1_SHIFT) & MISO_1_MASK);
 242              		.loc 1 60 0
 243 0004 03F07F03 		and	r3, r3, #127
 244              	.LVL2:
 245 0008 43EAC010 		orr	r0, r3, r0, lsl #7
 246              	.LVL3:
 247 000c C0B2     		uxtb	r0, r0
 248 000e 1070     		strb	r0, [r2]
 249 0010 7047     		bx	lr
 250              	.L3:
 251 0012 00BF     		.align	2
 252              	.L2:
 253 0014 10510040 		.word	1073762576
 254              		.cfi_endproc
 255              	.LFE0:
 256              		.size	MISO_1_Write, .-MISO_1_Write
 257              		.section	.text.MISO_1_SetDriveMode,"ax",%progbits
 258              		.align	2
 259              		.global	MISO_1_SetDriveMode
 260              		.thumb
 261              		.thumb_func
 262              		.type	MISO_1_SetDriveMode, %function
 263              	MISO_1_SetDriveMode:
 264              	.LFB1:
  61:Generated_Source\PSoC5/MISO_1.c **** }
  62:Generated_Source\PSoC5/MISO_1.c **** 
  63:Generated_Source\PSoC5/MISO_1.c **** 
  64:Generated_Source\PSoC5/MISO_1.c **** /*******************************************************************************
  65:Generated_Source\PSoC5/MISO_1.c **** * Function Name: MISO_1_SetDriveMode
  66:Generated_Source\PSoC5/MISO_1.c **** ****************************************************************************//**
  67:Generated_Source\PSoC5/MISO_1.c **** *
  68:Generated_Source\PSoC5/MISO_1.c **** * \brief Sets the drive mode for each of the Pins component's pins.
  69:Generated_Source\PSoC5/MISO_1.c **** * 
  70:Generated_Source\PSoC5/MISO_1.c **** * <b>Note</b> This affects all pins in the Pins component instance. Use the
  71:Generated_Source\PSoC5/MISO_1.c **** * Per-Pin APIs if you wish to control individual pin's drive modes.
  72:Generated_Source\PSoC5/MISO_1.c **** *
  73:Generated_Source\PSoC5/MISO_1.c **** * \param mode
  74:Generated_Source\PSoC5/MISO_1.c **** *  Mode for the selected signals. Valid options are documented in 
  75:Generated_Source\PSoC5/MISO_1.c **** *  \ref driveMode.
  76:Generated_Source\PSoC5/MISO_1.c **** *
  77:Generated_Source\PSoC5/MISO_1.c **** * \return
  78:Generated_Source\PSoC5/MISO_1.c **** *  None
  79:Generated_Source\PSoC5/MISO_1.c **** *
ARM GAS  C:\Users\JEFFSN~1\AppData\Local\Temp\ccwDlZAs.s 			page 17


  80:Generated_Source\PSoC5/MISO_1.c **** * \sideeffect
  81:Generated_Source\PSoC5/MISO_1.c **** *  If you use read-modify-write operations that are not atomic, the ISR can
  82:Generated_Source\PSoC5/MISO_1.c **** *  cause corruption of this function. An ISR that interrupts this function 
  83:Generated_Source\PSoC5/MISO_1.c **** *  and performs writes to the Pins component Drive Mode registers can cause 
  84:Generated_Source\PSoC5/MISO_1.c **** *  corrupted port data. To avoid this issue, you should either use the Per-Pin
  85:Generated_Source\PSoC5/MISO_1.c **** *  APIs (primary method) or disable interrupts around this function.
  86:Generated_Source\PSoC5/MISO_1.c **** *
  87:Generated_Source\PSoC5/MISO_1.c **** * \funcusage
  88:Generated_Source\PSoC5/MISO_1.c **** *  \snippet MISO_1_SUT.c usage_MISO_1_SetDriveMode
  89:Generated_Source\PSoC5/MISO_1.c **** *******************************************************************************/
  90:Generated_Source\PSoC5/MISO_1.c **** void MISO_1_SetDriveMode(uint8 mode)
  91:Generated_Source\PSoC5/MISO_1.c **** {
 265              		.loc 1 91 0
 266              		.cfi_startproc
 267              		@ args = 0, pretend = 0, frame = 0
 268              		@ frame_needed = 0, uses_anonymous_args = 0
 269              		@ link register save eliminated.
 270              	.LVL4:
  92:Generated_Source\PSoC5/MISO_1.c **** 	CyPins_SetPinDriveMode(MISO_1_0, mode);
 271              		.loc 1 92 0
 272 0000 044A     		ldr	r2, .L5
 273 0002 00F00E00 		and	r0, r0, #14
 274              	.LVL5:
 275 0006 1378     		ldrb	r3, [r2]	@ zero_extendqisi2
 276 0008 03F0F103 		and	r3, r3, #241
 277 000c 1843     		orrs	r0, r0, r3
 278 000e 1070     		strb	r0, [r2]
 279 0010 7047     		bx	lr
 280              	.L6:
 281 0012 00BF     		.align	2
 282              	.L5:
 283 0014 0F500040 		.word	1073762319
 284              		.cfi_endproc
 285              	.LFE1:
 286              		.size	MISO_1_SetDriveMode, .-MISO_1_SetDriveMode
 287              		.section	.text.MISO_1_Read,"ax",%progbits
 288              		.align	2
 289              		.global	MISO_1_Read
 290              		.thumb
 291              		.thumb_func
 292              		.type	MISO_1_Read, %function
 293              	MISO_1_Read:
 294              	.LFB2:
  93:Generated_Source\PSoC5/MISO_1.c **** }
  94:Generated_Source\PSoC5/MISO_1.c **** 
  95:Generated_Source\PSoC5/MISO_1.c **** 
  96:Generated_Source\PSoC5/MISO_1.c **** /*******************************************************************************
  97:Generated_Source\PSoC5/MISO_1.c **** * Function Name: MISO_1_Read
  98:Generated_Source\PSoC5/MISO_1.c **** ****************************************************************************//**
  99:Generated_Source\PSoC5/MISO_1.c **** *
 100:Generated_Source\PSoC5/MISO_1.c **** * \brief Reads the associated physical port (pin status register) and masks 
 101:Generated_Source\PSoC5/MISO_1.c **** *  the required bits according to the width and bit position of the component
 102:Generated_Source\PSoC5/MISO_1.c **** *  instance. 
 103:Generated_Source\PSoC5/MISO_1.c **** *
 104:Generated_Source\PSoC5/MISO_1.c **** * The pin's status register returns the current logic level present on the 
 105:Generated_Source\PSoC5/MISO_1.c **** * physical pin.
 106:Generated_Source\PSoC5/MISO_1.c **** *
ARM GAS  C:\Users\JEFFSN~1\AppData\Local\Temp\ccwDlZAs.s 			page 18


 107:Generated_Source\PSoC5/MISO_1.c **** * \return 
 108:Generated_Source\PSoC5/MISO_1.c **** *  The current value for the pins in the component as a right justified number.
 109:Generated_Source\PSoC5/MISO_1.c **** *
 110:Generated_Source\PSoC5/MISO_1.c **** * \funcusage
 111:Generated_Source\PSoC5/MISO_1.c **** *  \snippet MISO_1_SUT.c usage_MISO_1_Read  
 112:Generated_Source\PSoC5/MISO_1.c **** *******************************************************************************/
 113:Generated_Source\PSoC5/MISO_1.c **** uint8 MISO_1_Read(void)
 114:Generated_Source\PSoC5/MISO_1.c **** {
 295              		.loc 1 114 0
 296              		.cfi_startproc
 297              		@ args = 0, pretend = 0, frame = 0
 298              		@ frame_needed = 0, uses_anonymous_args = 0
 299              		@ link register save eliminated.
 115:Generated_Source\PSoC5/MISO_1.c ****     return (MISO_1_PS & MISO_1_MASK) >> MISO_1_SHIFT;
 300              		.loc 1 115 0
 301 0000 014B     		ldr	r3, .L8
 302 0002 1878     		ldrb	r0, [r3]	@ zero_extendqisi2
 116:Generated_Source\PSoC5/MISO_1.c **** }
 303              		.loc 1 116 0
 304 0004 C009     		lsrs	r0, r0, #7
 305 0006 7047     		bx	lr
 306              	.L9:
 307              		.align	2
 308              	.L8:
 309 0008 11510040 		.word	1073762577
 310              		.cfi_endproc
 311              	.LFE2:
 312              		.size	MISO_1_Read, .-MISO_1_Read
 313              		.section	.text.MISO_1_ReadDataReg,"ax",%progbits
 314              		.align	2
 315              		.global	MISO_1_ReadDataReg
 316              		.thumb
 317              		.thumb_func
 318              		.type	MISO_1_ReadDataReg, %function
 319              	MISO_1_ReadDataReg:
 320              	.LFB3:
 117:Generated_Source\PSoC5/MISO_1.c **** 
 118:Generated_Source\PSoC5/MISO_1.c **** 
 119:Generated_Source\PSoC5/MISO_1.c **** /*******************************************************************************
 120:Generated_Source\PSoC5/MISO_1.c **** * Function Name: MISO_1_ReadDataReg
 121:Generated_Source\PSoC5/MISO_1.c **** ****************************************************************************//**
 122:Generated_Source\PSoC5/MISO_1.c **** *
 123:Generated_Source\PSoC5/MISO_1.c **** * \brief Reads the associated physical port's data output register and masks 
 124:Generated_Source\PSoC5/MISO_1.c **** *  the correct bits according to the width and bit position of the component 
 125:Generated_Source\PSoC5/MISO_1.c **** *  instance. 
 126:Generated_Source\PSoC5/MISO_1.c **** *
 127:Generated_Source\PSoC5/MISO_1.c **** * The data output register controls the signal applied to the physical pin in 
 128:Generated_Source\PSoC5/MISO_1.c **** * conjunction with the drive mode parameter. This is not the same as the 
 129:Generated_Source\PSoC5/MISO_1.c **** * preferred MISO_1_Read() API because the 
 130:Generated_Source\PSoC5/MISO_1.c **** * MISO_1_ReadDataReg() reads the data register instead of the status 
 131:Generated_Source\PSoC5/MISO_1.c **** * register. For output pins this is a useful function to determine the value 
 132:Generated_Source\PSoC5/MISO_1.c **** * just written to the pin.
 133:Generated_Source\PSoC5/MISO_1.c **** *
 134:Generated_Source\PSoC5/MISO_1.c **** * \return 
 135:Generated_Source\PSoC5/MISO_1.c **** *  The current value of the data register masked and shifted into a right 
 136:Generated_Source\PSoC5/MISO_1.c **** *  justified number for the component instance.
 137:Generated_Source\PSoC5/MISO_1.c **** *
ARM GAS  C:\Users\JEFFSN~1\AppData\Local\Temp\ccwDlZAs.s 			page 19


 138:Generated_Source\PSoC5/MISO_1.c **** * \funcusage
 139:Generated_Source\PSoC5/MISO_1.c **** *  \snippet MISO_1_SUT.c usage_MISO_1_ReadDataReg 
 140:Generated_Source\PSoC5/MISO_1.c **** *******************************************************************************/
 141:Generated_Source\PSoC5/MISO_1.c **** uint8 MISO_1_ReadDataReg(void)
 142:Generated_Source\PSoC5/MISO_1.c **** {
 321              		.loc 1 142 0
 322              		.cfi_startproc
 323              		@ args = 0, pretend = 0, frame = 0
 324              		@ frame_needed = 0, uses_anonymous_args = 0
 325              		@ link register save eliminated.
 143:Generated_Source\PSoC5/MISO_1.c ****     return (MISO_1_DR & MISO_1_MASK) >> MISO_1_SHIFT;
 326              		.loc 1 143 0
 327 0000 014B     		ldr	r3, .L11
 328 0002 1878     		ldrb	r0, [r3]	@ zero_extendqisi2
 144:Generated_Source\PSoC5/MISO_1.c **** }
 329              		.loc 1 144 0
 330 0004 C009     		lsrs	r0, r0, #7
 331 0006 7047     		bx	lr
 332              	.L12:
 333              		.align	2
 334              	.L11:
 335 0008 10510040 		.word	1073762576
 336              		.cfi_endproc
 337              	.LFE3:
 338              		.size	MISO_1_ReadDataReg, .-MISO_1_ReadDataReg
 339              		.text
 340              	.Letext0:
 341              		.file 2 "Generated_Source\\PSoC5\\cytypes.h"