ARM GAS  C:\Users\JEFFSN~1\AppData\Local\Temp\ccnbMyHy.s 			page 1


   1              		.syntax unified
   2              		.cpu cortex-m3
   3              		.fpu softvfp
   4              		.eabi_attribute 20, 1
   5              		.eabi_attribute 21, 1
   6              		.eabi_attribute 23, 3
   7              		.eabi_attribute 24, 1
   8              		.eabi_attribute 25, 1
   9              		.eabi_attribute 26, 1
  10              		.eabi_attribute 30, 1
  11              		.eabi_attribute 34, 1
  12              		.eabi_attribute 18, 4
  13              		.thumb
  14              		.syntax unified
  15              		.file	"MISO_2.c"
  16              		.text
  17              	.Ltext0:
  18              		.section	.gnu.lto_.profile.633107c7,"",%progbits
  19 0000 789C6361 		.ascii	"x\234ca`d`a`\000\222\022\"\000\000\256\0007"
  19      60646061 
  19      60009212 
  19      220000AE 
  19      0037
  20              		.text
  21              		.section	.gnu.lto_.inline.633107c7,"",%progbits
  22 0000 789C6361 		.ascii	"x\234ca`d\000\001?\006\004`a`\340`gd`\342\232\340\307"
  22      60640001 
  22      3F060460 
  22      6160E060 
  22      676460E2 
  23 0017 C0B6409E 		.ascii	"\300\266@\236\011$\306\210)\304\304\300\306\012\024"
  23      0924C688 
  23      29C4C4C0 
  23      C60A14
  24 0026 62FBA007 		.ascii	"b\373\240\007\027b\306\024b\000\0008\317\007\322"
  24      1762C614 
  24      62000038 
  24      CF07D2
  25              		.text
  26              		.section	.gnu.lto_.jmpfuncs.633107c7,"",%progbits
  27 0000 789C6361 		.ascii	"x\234ca`d\000\001>\006\004`\001b\240(\023\003\0033\220"
  27      60640001 
  27      3E060460 
  27      0162A028 
  27      13030333 
  28 0015 05000292 		.ascii	"\005\000\002\222\000\036"
  28      001E
  29              		.text
  30              		.section	.gnu.lto_.pureconst.633107c7,"",%progbits
  31 0000 789C6361 		.ascii	"x\234ca`d\340d```a\220b\224b\222b\226\002\000\002\261"
  31      6064E064 
  31      60606061 
  31      90629462 
  31      92629602 
  32 0017 0081     		.ascii	"\000\201"
  33              		.text
  34              		.section	.gnu.lto_MISO_2_Write.633107c7,"",%progbits
ARM GAS  C:\Users\JEFFSN~1\AppData\Local\Temp\ccnbMyHy.s 			page 2


  35 0000 789C5550 		.ascii	"x\234UPMK\033Q\024\275\347\275L\022\352G\177@\263\010"
  35      4D4B1B51 
  35      14BDE7BD 
  35      4C12EA47 
  35      7F40B308 
  36 0014 14916C8A 		.ascii	"\024\221l\212T\374\003u!]H\245\331\006$\304Y\010\255"
  36      54FC0375 
  36      215D48A5 
  36      D90624C4 
  36      5908AD
  37 0027 82C66E7D 		.ascii	"\202\306n}\2238\021\\\271Q\273\251JJ\320~\371\321]\241"
  37      9338115C 
  37      B951BBA9 
  37      4A4AD07E 
  37      F9D15DA1 
  38 003b E0302008 		.ascii	"\3400 \010B\273q%EJ\026#t\225RC\244~\304{g\\\350\203"
  38      42BB7125 
  38      454A1623 
  38      74955243 
  38      A47EC47B 
  39 0053 37EFCD79 		.ascii	"7\357\315y\347\234{\356\215\021H\226RD\375|>\342\015"
  39      E79C7BEE 
  39      8D114896 
  39      5244FD7C 
  39      3EE20D
  40 0066 4D508B3F 		.ascii	"MP\213?\210\234\244\002\344b\222\240Y\205Y4\325\225"
  40      889CA402 
  40      E46292A0 
  40      59855934 
  40      D595
  41 0078 823F1F7C 		.ascii	"\202?\037|S\231\015\303\353wmU\233M\017\256&j\253\320"
  41      53990DC3 
  41      EB776D55 
  41      9B4D0FAE 
  41      266AABD0 
  42 008c 89B0810C 		.ascii	"\211\260\201\014\263N\277\317\037A?\006\361\275\342"
  42      B34EBFCF 
  42      1F413F06 
  42      F1BDE2
  43 009b 371B1DBD 		.ascii	"7\033\035\2755cJ\306\374\313\031\355j`\023\232\025\350"
  43      35634AC6 
  43      FCCB19ED 
  43      6A60139A 
  43      15E8
  44 00ad 4FA12F45 		.ascii	"O\241/E\014\020>\240W\310\347\307G[\335:\023\012\027"
  44      0C103EA0 
  44      57C8E7C7 
  44      475BDD3A 
  44      130A17
  45 00c0 4D50EDEC 		.ascii	"MP\355\354y/B\257\365z\305xNZ\264\037\357je1\265\276"
  45      792F42AF 
  45      F57AC578 
  45      4E5AB41F 
  45      EF6A6531 
  46 00d6 7BBDD415 		.ascii	"{\275\324\025\237\223Ti|BO\224\007\237\021\347\016!"
  46      9F935469 
  46      7C424F94 
ARM GAS  C:\Users\JEFFSN~1\AppData\Local\Temp\ccnbMyHy.s 			page 3


  46      079F11E7 
  46      0E21
  47 00e8 C8F64BCF 		.ascii	"\310\366K\317\264\333e\3435\255\246N*.\252\270S~\210"
  47      B4DB65E3 
  47      35ADA64E 
  47      2A2EAAB8 
  47      537E88
  48 00fb 416A5B02 		.ascii	"Aj[\002\304\345C\324\340-\215\377\345\271\360\251\003"
  48      C4E543D4 
  48      E02D8DFF 
  48      E5B9F0A9 
  48      03
  49 010c F8FF174E 		.ascii	"\370\377\027NV\022bW\3262\204e\327\377\2318S\256\326"
  49      56126257 
  49      D6328465 
  49      D7FF9938 
  49      53AED6
  50 011f 61D0FDBD 		.ascii	"a\320\375\275\372[\025\375\256W\035\023c\350\360x\265"
  50      FA5B15FD 
  50      AE571D13 
  50      63E8F078 
  50      B5
  51 0130 D4BD8677 		.ascii	"\324\275\206w\316\034\217'\206-\244\360\005\034\027"
  51      CE1C8F27 
  51      862DA4F0 
  51      051C17
  52 013f DB580305 		.ascii	"\333X\003\005(_V~!2\324\221\347\305A\260\367PL\2006"
  52      285F567E 
  52      2132D491 
  52      E7C541B0 
  52      F7504C80 
  53 0154 6187C975 		.ascii	"a\207\311u\250\260\003\016\311,\0215*A\3536\206U\326"
  53      A8B0030E 
  53      C92C1135 
  53      2A41EB36 
  53      8655D6
  54 0167 52E76CC1 		.ascii	"R\347l\301miQYH`\227E\314:\257\\\336ZG\356\026\203\376"
  54      6D695159 
  54      48609745 
  54      CC3AAF5C 
  54      DE5A47EE 
  55 017e 7208DD4B 		.ascii	"r\010\335K\346\030\323q?\334W\016\307*\372\203\222w"
  55      E618D371 
  55      3FDC570E 
  55      C72AFA83 
  55      9277
  56 0190 6189201C 		.ascii	"a\211 \034pCA\006\301cI\017\331\023\366T\276h\217\215"
  56      70434106 
  56      C163490F 
  56      D913F654 
  56      BE688F8D 
  57 01a4 662767A6 		.ascii	"f'g\246\012vn$;98\220\033~\236}1\372\364I\201\2547\371"
  57      0A766E24 
  57      3B393890 
  57      1B7E9E7D 
  57      31FAF449 
  58 01bc 5733F683 		.ascii	"W3\366\203\351b\2768^x6^\234\276\001\005\365\267\230"
ARM GAS  C:\Users\JEFFSN~1\AppData\Local\Temp\ccnbMyHy.s 			page 4


  58      E962BE38 
  58      5E78365E 
  58      9CBE0105 
  58      F5B798
  59              		.text
  60              		.section	.gnu.lto_MISO_2_SetDriveMode.633107c7,"",%progbits
  61 0000 789C7D51 		.ascii	"x\234}QMk\023Q\024\275\347\275\311LB0\177\300,\002]"
  61      4D6B1351 
  61      14BDE7BD 
  61      C94C4230 
  61      7FC02C02 
  62 0015 846C4A50 		.ascii	"\204lJP\374\005\202\342B*\316\266\245\224t\226\032\032"
  62      FC0582E2 
  62      422ACEB6 
  62      A5947496 
  62      1A1A
  63 0027 749D972F 		.ascii	"t\235\227/\012\272Q\304\272(\222vQ\222\266\351\207\270"
  63      0ABA51C4 
  63      BA289276 
  63      5192B6E9 
  63      87B8
  64 0039 72970E28 		.ascii	"r\227\016(\270IWf\341B\244\205\021\004%\361\003ml\215"
  64      B8495766 
  64      E142A485 
  64      110425F1 
  64      036D6C8D 
  65 004d F7CEB8C8 		.ascii	"\367\316\270\310\252\217y\367\343p\316\341\3367\026"
  65      AA8F79F7 
  65      E370CEE1 
  65      DE3716
  66 005c 81E47CE2 		.ascii	"\201\344|\342\224\345|\221/4A=\352\021U\342\012\220"
  66      94E57C91 
  66      2F34413D 
  66      EA1155E2 
  66      0A90
  67 006e C2C44165 		.ascii	"\302\304Ae\2052~\2523\005\1779x\245r-\303\347\343\353"
  67      85327EAA 
  67      33057F39 
  67      78A5722D 
  67      C3E7E3EB 
  68 0082 AF79D3EE 		.ascii	"\257y\323\356\242\241\211\306*t\"\264\220c\326\367\227"
  68      A2A189C6 
  68      2A7422B4 
  68      9063D6F7 
  68      97
  69 0093 1B4F927A 		.ascii	"\033O\222z\012\304\365\2607\370\220\312n\030S5\346\361"
  69      0AC4F5B0 
  69      37F890CA 
  69      6E185335 
  69      E6F1
  70 00a5 9CD10D0D 		.ascii	"\234\321\015\015\264\241Y\201\313i\344\323\304\000a"
  70      B4A15981 
  70      CB69E4D3 
  70      C40061
  71 00b4 1359211F 		.ascii	"\023Y!\037\275\370\373\364\202]\027\373Ld\212-\3302"
  71      BDF8FBF4 
  71      825D17FB 
ARM GAS  C:\Users\JEFFSN~1\AppData\Local\Temp\ccnbMyHy.s 			page 5


  71      4C648A2D 
  71      D832
  72 00c6 E6DEEDAE 		.ascii	"\346\336\355\256\031\217k\246\373\313>\030\331I\305"
  72      198F6BA6 
  72      FBCB3E18 
  72      D949C5
  73 00d5 32A53968 		.ascii	"2\2459hKB\014\342`K\351H\210KH\010\207h\300W\026\031"
  73      4B420CE2 
  73      604BE948 
  73      884B4808 
  73      8768C057 
  74 00eb 2A255907 		.ascii	"*%Y\007\360G\017\202UK\234kZ\226Zi\370\207\316\017\325"
  74      F0470F82 
  74      554B9C6B 
  74      5A965A69 
  74      F887CE0F 
  75 0100 D05638F1 		.ascii	"\320V8\361\351\333\276\033u\317\326*\306bd\375\335\311"
  75      E9DBBE1B 
  75      75CFD62A 
  75      C66264FD 
  75      DDC9
  76 0112 71AA89E7 		.ascii	"q\252\211\347\225:o\033C\007il#\315\303\355\240\011"
  76      953A6F1B 
  76      4307696C 
  76      23CDC3ED 
  76      A009
  77 0124 0A50FDE6 		.ascii	"\012P\375\346Dn\232\015\271\257\235\332Qo1\304\372\367"
  77      446E9A0D 
  77      B9AF9DDA 
  77      516F31C4 
  77      FAF7
  78 0136 6F1E9E25 		.ascii	"o\036\236%\304Rc\011\273\254\234\220\360\027\233\224"
  78      C4526309 
  78      BBAC9C90 
  78      F0179B94 
  79 0146 380CB1E4 		.ascii	"8\014\261\344K\177\273\243#I\012{\241\244\366\373?%"
  79      4B7FBBA3 
  79      23490A7B 
  79      A1A4F6FB 
  79      3F25
  80 0158 1E1A3B93 		.ascii	"\036\032;\223.\011F\271\367W \375y#\357\363\310\314"
  80      2E0946B9 
  80      F75720FD 
  80      7923EFF3 
  80      C8CC
  81 016a A7CFA876 		.ascii	"\247\317\250v\377\\\023v\370\347\006\012\362:\374V\231"
  81      FF5C1376 
  81      F8E7060A 
  81      F23AFC56 
  81      99
  82 017b EBDE5DAF 		.ascii	"\353\336]\257\264p\317[\234w\213\367K\005o\366\226["
  82      B470CF5B 
  82      9C778BF7 
  82      4B056FF6 
  82      965B
  83 018d BC7A65F6 		.ascii	"\274ze\366\346\015wf\376\322t\201\254;\305E\357\037"
  83      E60D7766 
ARM GAS  C:\Users\JEFFSN~1\AppData\Local\Temp\ccnbMyHy.s 			page 6


  83      FED27481 
  83      AC3BC545 
  83      EF1F
  84 019f 49B5A5E8 		.ascii	"I\265\245\350"
  85              		.text
  86              		.section	.gnu.lto_MISO_2_Read.633107c7,"",%progbits
  87 0000 789C354F 		.ascii	"x\2345O\275KBQ\024?\277{\237\357\211\320_\220\203\264"
  87      BD4B4251 
  87      143FBF7B 
  87      9FEF89D0 
  87      5F9083B4 
  88 0014 B9441441 		.ascii	"\271D\024A\264\006EC\0249\264\010\022\346\232 5{\365"
  88      B4064543 
  88      1439B408 
  88      12E69A20 
  88      357BF5
  89 0027 F914A4A1 		.ascii	"\371\024\244\241\245\002\241\244\"\264/\242\245\331"
  89      A502A1A4 
  89      22B42FA2 
  89      A5D9
  90 0035 1CA208AA 		.ascii	"\034\242\010\252%\010\202\210\21074\225\030\202Xvn\257"
  90      25088288 
  90      88373495 
  90      18825876 
  90      6EAF
  91 0047 0EDC73EE 		.ascii	"\016\334s\356=\367\367q\216A \035s\\\372\270\366\362"
  91      3DF7F771 
  91      8E41201D 
  91      735CFAB8 
  91      F6F2
  92 0059 812488D5 		.ascii	"\201$\210\325\033\242\214_\000\372\242\374\240\264@"
  92      1BA28C5F 
  92      00FAA2FC 
  92      A0B440
  93 0068 1A9FE24B 		.ascii	"\032\237\342K\340\272u\271\022\010W\224\312\252\347"
  93      E0BA75B9 
  93      12085794 
  93      CAAAE7
  94 0077 BDF6C846 		.ascii	"\275\366\310F\265\006G\022u\005a(\210\201\240\226\250"
  94      B5064712 
  94      75056128 
  94      8881A096 
  94      A8
  95 0088 204C0C7D 		.ascii	" L\014}9\375^\3531s\212#\244\001\374S\205\251-Ofk\252"
  95      39FD5EEB 
  95      31738A23 
  95      A401FC53 
  95      85A92D4F 
  96 009f DBB555ED 		.ascii	"\333\265U\355\336:\177\260,\220#\331\227\223\301I\370"
  96      DE3A7FB0 
  96      2C9023D9 
  96      9793C149 
  96      F8
  97 00b0 743249CB 		.ascii	"t2I\313\322;\323\364\020\037B\350*]\324\333\305\247"
  97      D23BD3F4 
  97      101F42E8 
  97      2A5DD4DB 
ARM GAS  C:\Users\JEFFSN~1\AppData\Local\Temp\ccnbMyHy.s 			page 7


  97      C5A7
  98 00c2 AD51AD64 		.ascii	"\255Q\255dK\311.\353N\375\326j\012GJh\323\302n\351\016"
  98      4BC92EEB 
  98      4EFDD66A 
  98      0A474A68 
  98      D3C26EE9 
  99 00d7 DE737B27 		.ascii	"\336s{'\243\014n\225\362\352\321,c3\223\343Q\015\034"
  99      A30C6E95 
  99      F2EAD12C 
  99      633393E3 
  99      510D1C
 100 00ea 20887DF0 		.ascii	" \210}\360\2408D\031\344\302\356\214\223-\341\311\235"
 100      A0384419 
 100      E4C2EE8C 
 100      932DE1C9 
 100      9D
 101 00fb B9571701 		.ascii	"\271W\027\001\315\007\024p\3048\027\331F\241#<G\203"
 101      CD071470 
 101      C43817D9 
 101      46A1233C 
 101      4783
 102 010d 819AD2C8 		.ascii	"\201\232\322\3107\015\257\343\343&\363\232E\247%5O\300"
 102      370DAFE3 
 102      E326F39A 
 102      45A72535 
 102      4FC0
 103 011f C2F13FED 		.ascii	"\302\361?\355\025\036H\343\350\015\177\"&\375n\006\275"
 103      151E48E3 
 103      E80D7F22 
 103      26FD6E06 
 103      BD
 104 0130 11EF179A 		.ascii	"\021\357\027\232H,&R\363K\211\205X$\271\234\212'\242"
 104      482C2652 
 104      F34B8985 
 104      5824B99C 
 104      8A27A2
 105 0143 3391E4D8 		.ascii	"3\221\344\330ptj22\035\033\354\217\323\0174\261z\326"
 105      70746A32 
 105      321D1BEC 
 105      8FD30F34 
 105      B17AD6
 106              		.text
 107              		.section	.gnu.lto_MISO_2_ReadDataReg.633107c7,"",%progbits
 108 0000 789C354F 		.ascii	"x\2345O9KCA\020\236o\367\345 \240\177\300\024b\227F"
 108      394B4341 
 108      109E6FF7 
 108      E520A07F 
 108      C0146297 
 109 0015 44B1D056 		.ascii	"D\261\320VP,D1\205M HLk h\235\315\361\024\202\205\215"
 109      502C4431 
 109      854D2048 
 109      4C6B2068 
 109      9DCDF114 
 110 002c 47A31141 		.ascii	"G\243\021A\222x 6vb\014(\212\240\326V\022\344\025V\032"
 110      92782036 
 110      76620C28 
 110      8AA0D656 
ARM GAS  C:\Users\JEFFSN~1\AppData\Local\Temp\ccnbMyHy.s 			page 8


 110      12E41556 
 111 0041 22018989 		.ascii	"\"\001\211\2113>\035\330\231\335\331\357\230\261\010"
 111      333E1DD8 
 111      99DDD9EF 
 111      98B108
 112 0050 2431C7A5 		.ascii	"$1\307\245\217k\017\037h\202Z\177 J\373\025 \027\343"
 112      8F6B0F1F 
 112      68825A7F 
 112      204AFB15 
 112      2017E3
 113 0063 07A51452 		.ascii	"\007\245\024R\370T\337\012\367\315\333\265@\250hL\306"
 113      F854DF0A 
 113      F7CDDBB5 
 113      40A8684C 
 113      C6
 114 0074 BC1C1447 		.ascii	"\274\034\024G\266J\025\330\232\250\243\010CA\014\004"
 114      B64A15D8 
 114      9AA8A308 
 114      43410C04 
 115 0084 45A28810 		.ascii	"E\242\210\0201\264v\326\336\350\362\346\014G\257\000"
 115      31B476D6 
 115      DEE8F2E6 
 115      0C47AF00 
 116 0094 F8A704AF 		.ascii	"\370\247\004\257X\236\316VL\247\2235\225\213\300\325"
 116      589ECE56 
 116      4CA79335 
 116      958BC0D5 
 117 00a4 53C007B2 		.ascii	"S\300\007\2625\373r\2628)\217$/\211,\2753M\206\370P"
 117      35FB72B2 
 117      38298F24 
 117      2F892CBD 
 117      334D86F8 
 118 00b9 4AAA7650 		.ascii	"J\252vP\375\312\267\313\243\242\224\325\232]6\355\352"
 118      FDCAB7CB 
 118      A3A294D5 
 118      9A5D36ED 
 118      EA
 119 00ca A3AFA16C 		.ascii	"\243\257\241l\255!\246\327\227\265m\345>\367\366\323"
 119      AD21A6D7 
 119      97B56DE5 
 119      3EF7F6D3 
 120 00da C692919F 		.ascii	"\306\222\221\237w3\335\005\354\244s<\252\205C\004Q\006"
 120      7733DD05 
 120      ECA4733C 
 120      AA854304 
 120      5106
 121 00ec 0F8A2314 		.ascii	"\017\212#\024@\016\262\255q\312j\270r\347\316\335M@"
 121      400EB2AD 
 121      71CA6AB8 
 121      72E7CEDD 
 121      4D40
 122 00fe F880018E 		.ascii	"\370\200\001\216\031\347 S_m)\327\321b\240P\352+\015"
 122      19E72053 
 122      5F6D29D7 
 122      D162A050 
 122      EA2B0D
 123 0111 CBED78B8 		.ascii	"\313\355x\270\311\274F\336nj\341)\370p\362O{\205\013"
ARM GAS  C:\Users\JEFFSN~1\AppData\Local\Temp\ccnbMyHy.s 			page 9


 123      C9BC46DE 
 123      6E6AE129 
 123      F870F24F 
 123      7B850B
 124 0124 121CBDE1 		.ascii	"\022\034\275\341O\304K\277\233A6\342\375z'\342\213\361"
 124      4FC44BBF 
 124      9B4136E2 
 124      FD7A27E2 
 124      8BF1
 125 0136 E4FC527C 		.ascii	"\344\374R|!\032N,'c\361\310L816\034\231\232\014OG\007"
 125      211A4E2C 
 125      2763F1C8 
 125      4C383136 
 125      1C999A0C 
 126 014d FB63F403 		.ascii	"\373c\364\003b\034{Q"
 126      621C7B51 
 127              		.text
 128              		.section	.gnu.lto_.symbol_nodes.633107c7,"",%progbits
 129 0000 789C6361 		.ascii	"x\234ca`dpc\000\002&\206z\006\206\011\347\030@\324\252"
 129      60647063 
 129      00022686 
 129      7A068609 
 129      E71840D4 
 130 0015 0645A000 		.ascii	"\006E\240\000c=#\252\000S=\023\252\000s=3\212\000\003"
 130      633D23AA 
 130      00533D13 
 130      AA00733D 
 130      338A0003 
 131 0029 001ED60E 		.ascii	"\000\036\326\016\374"
 131      FC
 132              		.text
 133              		.section	.gnu.lto_.refs.633107c7,"",%progbits
 134 0000 789C6361 		.ascii	"x\234ca`\004B \000\000\0009\000\007"
 134      60044220 
 134      00000039 
 134      0007
 135              		.text
 136              		.section	.gnu.lto_.decls.633107c7,"",%progbits
 137 0000 789C8D92 		.ascii	"x\234\215\222QHSQ\030\307\317w\357\335\264\353\254\260"
 137      51485351 
 137      18C7CF77 
 137      EFDDB4EB 
 137      ACB0
 138 0012 883D0C5A 		.ascii	"\210=\014Z>\3714\262\010|\220\012\224\254\0073\034\332"
 138      3EF934B2 
 138      087C900A 
 138      94AC0733 
 138      1CDA
 139 0024 8B20532F 		.ascii	"\213 S/&\204\306\232\201oGg\240\365\242\221\226\"f="
 139      2684C69A 
 139      816F4767 
 139      A0F5A291 
 139      9622663D 
 140 0038 94E6524B 		.ascii	"\224\346RK\247n5\235Y\032\202\240\214\202PPP!Kb\221"
 140      A76E359D 
 140      591A82A0 
 140      8C825050 
ARM GAS  C:\Users\JEFFSN~1\AppData\Local\Temp\ccnbMyHy.s 			page 10


 140      50214B62 
 141 004d 2F3ED8FA 		.ascii	"/>\330\372\316\331\275\336[-\360\203s\317\371\316\371"
 141      CED9BDDE 
 141      5B2DF083 
 141      73CFF9CE 
 141      F9
 142 005e FEBFEF3B 		.ascii	"\376\277\357;\337=\022\001\302,[\"\344!\3166tch&\\\027"
 142      DF3D1201 
 142      C22C5B22 
 142      E421CE36 
 142      74636826 
 143 0074 13DDF098 		.ascii	"\023\335\360\230\014\343\360\343\030\307\021$\377\032"
 143      0CE3F0E3 
 143      18C71124 
 143      FF1A
 144 0082 3B37ABBA 		.ascii	";7\253\272\001\306\3021\211#\204\243@\215\0015\356o"
 144      01C6C231 
 144      892384A3 
 144      408D0135 
 144      EE6F
 145 0094 F327D086 		.ascii	"\363'\320\206\015zM\353O\240e\365\230\014\272\202\004"
 145      0D7A4DEB 
 145      4FA065F5 
 145      980CBA82 
 145      04
 146 00a5 BAF104BA 		.ascii	"\272\361\004\272\340>t\211\356\271+@\327T\367\264i\011"
 146      E03E7489 
 146      EEB92B40 
 146      D754F7B4 
 146      6909
 147 00b7 3E0310E0 		.ascii	">\003\020\340F\324>\022\266\243\316l\001qG\320x\240"
 147      46D43E12 
 147      B6A3CE6C 
 147      017147D0 
 147      78A0
 148 00c9 05692978 		.ascii	"\005i)x8\020\201\307\357\355kq{9c\232\351[\260gZ$\374"
 148      381081C7 
 148      EFED6B71 
 148      7B39639A 
 148      E95BB067 
 149 00e0 096554DD 		.ascii	"\011eT\335E_\320\005\006\236Z\275\232\037\214i9Z\324"
 149      455FD005 
 149      069E5ABD 
 149      9A1F8C69 
 149      395AD4
 150 00f3 2E1DDAB8 		.ascii	".\035\332\270Ge\021\231\270^\331\351\275\340\360Q\264"
 150      47651199 
 150      B85ED9E9 
 150      BDE0F051 
 150      B4
 151 0104 164A85E3 		.ascii	"\026J\205\343zg\006o\257\367%o\013`\223!\006\314\337"
 151      7A67066F 
 151      AFF7256F 
 151      0B609321 
 151      06CCDF
 152 0117 0AECA4C6 		.ascii	"\012\354\244\306}v\334\321\272\366+E\264\262\265\020"
 152      7D76DCD1 
ARM GAS  C:\Users\JEFFSN~1\AppData\Local\Temp\ccnbMyHy.s 			page 11


 152      BAF62B45 
 152      B4B2B510 
 153 0127 59EBDF94 		.ascii	"Y\353\337\224 C~\3120\253\273\353g\003\224\036\206\001"
 153      20437ECA 
 153      30ABBBEB 
 153      6703941E 
 153      8601
 154 0139 90C10722 		.ascii	"\220\301\007\"\364\201\203U`\223\361\333Di\003\215>"
 154      F4818355 
 154      6093F1DB 
 154      4469038D 
 154      3E
 155 014a A1662B81 		.ascii	"\241f+\201\32368i#\360\0022\030\223EA?\330\3409\330"
 155      D3363869 
 155      23F00232 
 155      18934541 
 155      3FD8E039 
 156 015f 187FE3C1 		.ascii	"\030\177\343\301\243of\011\333\3159e\022\333[l\034\352"
 156      A36F6609 
 156      DBCD3965 
 156      12DB5B6C 
 156      1CEA
 157 0171 12B18434 		.ascii	"\022\261\2044\031$t\177\314w\256\035D\367\250\014vt"
 157      1924747F 
 157      CC77AE1D 
 157      44F7A80C 
 157      7674
 158 0183 7DC1E52D 		.ascii	"}\301\345-\263\265\235_\305K\355\022\024\037\203\227"
 158      B3B59D5F 
 158      C54BED12 
 158      141F8397 
 159 0193 081C4220 		.ascii	"\010\034B \201W`\305\357 H\361\333mu\317-\013\351=\264"
 159      815760C5 
 159      EF2048F1 
 159      DB6D75CF 
 159      2D0BE93D 
 160 01a8 6788AEB6 		.ascii	"g\210\256\266\316d\267{\351\007\324\331Y\030\364\352"
 160      CE64B77B 
 160      E907D4D9 
 160      5918F4EA 
 161 01b8 45E3924D 		.ascii	"E\343\222M\317`\011\033:\014\351\254y~\272p@t\361&|"
 161      CF60091B 
 161      3A0CE9AC 
 161      797EBA70 
 161      4074F126 
 162 01cd EC9A8EA5 		.ascii	"\354\232\216\245\306)\341\355\031\013m\251\247\364<"
 162      C629E1ED 
 162      190B6DA9 
 162      A7F43C
 163 01dc 678CE88C 		.ascii	"g\214\350\214\021#\303\317\031\023+!d\324r\306\302\335"
 163      1123C3CF 
 163      19132B21 
 163      64D472C6 
 163      C2DD
 164 01ee F7DE43C6 		.ascii	"\367\336C\306\262\331}\365\272\307x\335ej\331\263c_"
 164      B2D97DF5 
 164      BAC778DD 
ARM GAS  C:\Users\JEFFSN~1\AppData\Local\Temp\ccnbMyHy.s 			page 12


 164      656AD9B3 
 164      635F
 165 0200 FCB29A30 		.ascii	"\374\262\23202+v\320p#\352\004\026\005\243z\312Qc\312"
 165      322B76D0 
 165      7023EA04 
 165      1605A37A 
 165      CA5163CA 
 166 0214 719E7234 		.ascii	"q\236r4\342k\226\305z\3409\233\243_\257\253\224\340"
 166      E26B96C5 
 166      7AE0399B 
 166      A35FAFAB 
 166      94E0
 167 0226 9C563663 		.ascii	"\234V6c\004tF\300\310\010r\306v\343\317Of\031\377\241"
 167      047446C0 
 167      C80872C6 
 167      76E3CF4F 
 167      6619FFA1 
 168 023a 777FFF70 		.ascii	"w\177\377p~\363q,I\274\317s\012\303m\035mI g$\220O$"
 168      7EF3712C 
 168      49BCCF73 
 168      0AC36D1D 
 168      6D492067 
 169 0252 90AB6FC9 		.ascii	"\220\253o\311W\324\332\314.\030\302\246\274\321\213"
 169      57D4DACC 
 169      2E18C2A6 
 169      BCD18B
 170 0261 7B0D72BC 		.ascii	"{\015r\274!}\337\247\303`\271\303\236\025v/\355\"\017"
 170      217DDFA7 
 170      C360B9C3 
 170      9E15762F 
 170      ED220F
 171 0274 D4BB3709 		.ascii	"\324\2737\011\026\376\374q\336\025\304w\221\301I\031"
 171      16FEFC71 
 171      DE15C477 
 171      91C14919 
 172 0284 641BE039 		.ascii	"d\033\34094\261\004\321\006C\035\004\302\014\013Sx\374"
 172      34B104D1 
 172      06431D04 
 172      C20C0B53 
 172      78FC
 173 0296 16E59D94 		.ascii	"\026\345\235\224\305,\002\337\346N\364\034_\363\217"
 173      C52C02DF 
 173      E64EF41C 
 173      5FF38F
 174 02a5 25FF92B3 		.ascii	"%\377\222\263\240\364T\351Uw\225GI\316\273\\d\317\311"
 174      A0F454E9 
 174      55779547 
 174      49CEBB5C 
 174      64CFC9
 175 02b8 CC24A6DA 		.ascii	"\314$\246\332\252jO\326\211<\245Zq\273<JE\251\263\246"
 175      AA6A4FD6 
 175      893CA55A 
 175      71BB3C4A 
 175      45A9B3A6 
 176 02cc D65DAE94 		.ascii	"\326]\256\224\\q\326\344\234))\257\363\324\335Pn:\256"
 176      5C71D6E4 
 176      9C2929AF 
ARM GAS  C:\Users\JEFFSN~1\AppData\Local\Temp\ccnbMyHy.s 			page 13


 176      F3D4DD50 
 176      6E3AAE
 177 02df 11FB7F22 		.ascii	"\021\373\177\"\342PG99\242\342\235\212'\327]uK\311\257"
 177      E2504739 
 177      39A2E29D 
 177      8A27D75D 
 177      754BC9AF 
 178 02f3 A95052D4 		.ascii	"\251PR\324\275B\305U\221fX\347\272<\256B\245Rr+\225"
 178      BD42C555 
 178      916658E7 
 178      BA3CAE42 
 178      A552722B 
 179 0308 59BF01B0 		.ascii	"Y\277\001\260}`\027"
 179      7D6017
 180              		.text
 181              		.section	.gnu.lto_.symtab.633107c7,"",%progbits
 182 0000 4D49534F 		.ascii	"MISO_2_Write\000"
 182      5F325F57 
 182      72697465 
 182      00
 183 000d 00       		.ascii	"\000"
 184 000e 00       		.ascii	"\000"
 185 000f 00       		.ascii	"\000"
 186 0010 00000000 		.ascii	"\000\000\000\000\000\000\000\000"
 186      00000000 
 187 0018 B3000000 		.ascii	"\263\000\000\000"
 188 001c 4D49534F 		.ascii	"MISO_2_SetDriveMode\000"
 188      5F325F53 
 188      65744472 
 188      6976654D 
 188      6F646500 
 189 0030 00       		.ascii	"\000"
 190 0031 00       		.ascii	"\000"
 191 0032 00       		.ascii	"\000"
 192 0033 00000000 		.ascii	"\000\000\000\000\000\000\000\000"
 192      00000000 
 193 003b B5000000 		.ascii	"\265\000\000\000"
 194 003f 4D49534F 		.ascii	"MISO_2_Read\000"
 194      5F325F52 
 194      65616400 
 195 004b 00       		.ascii	"\000"
 196 004c 00       		.ascii	"\000"
 197 004d 00       		.ascii	"\000"
 198 004e 00000000 		.ascii	"\000\000\000\000\000\000\000\000"
 198      00000000 
 199 0056 B8000000 		.ascii	"\270\000\000\000"
 200 005a 4D49534F 		.ascii	"MISO_2_ReadDataReg\000"
 200      5F325F52 
 200      65616444 
 200      61746152 
 200      656700
 201 006d 00       		.ascii	"\000"
 202 006e 00       		.ascii	"\000"
 203 006f 00       		.ascii	"\000"
 204 0070 00000000 		.ascii	"\000\000\000\000\000\000\000\000"
 204      00000000 
 205 0078 BA000000 		.ascii	"\272\000\000\000"
ARM GAS  C:\Users\JEFFSN~1\AppData\Local\Temp\ccnbMyHy.s 			page 14


 206              		.text
 207              		.section	.gnu.lto_.opts,"",%progbits
 208 0000 272D666D 		.ascii	"'-fmath-errno' '-fsigned-zeros' '-ftrapping-math' '"
 208      6174682D 
 208      6572726E 
 208      6F272027 
 208      2D667369 
 209 0033 2D666E6F 		.ascii	"-fno-trapv' '-fno-strict-overflow' '-fno-openmp' '-"
 209      2D747261 
 209      70762720 
 209      272D666E 
 209      6F2D7374 
 210 0066 666E6F2D 		.ascii	"fno-openacc' '-mcpu=cortex-m3' '-mthumb' '-g' '-Og'"
 210      6F70656E 
 210      61636327 
 210      20272D6D 
 210      6370753D 
 211 0099 20272D66 		.ascii	" '-ffunction-sections' '-ffat-lto-objects' '-finlin"
 211      66756E63 
 211      74696F6E 
 211      2D736563 
 211      74696F6E 
 212 00cc 652D6675 		.ascii	"e-functions' '-flto'\000"
 212      6E637469 
 212      6F6E7327 
 212      20272D66 
 212      6C746F27 
 213              		.text
 214              		.cfi_sections	.debug_frame
 215              		.section	.text.MISO_2_Write,"ax",%progbits
 216              		.align	2
 217              		.global	MISO_2_Write
 218              		.thumb
 219              		.thumb_func
 220              		.type	MISO_2_Write, %function
 221              	MISO_2_Write:
 222              	.LFB0:
 223              		.file 1 "Generated_Source\\PSoC5\\MISO_2.c"
   1:Generated_Source\PSoC5/MISO_2.c **** /*******************************************************************************
   2:Generated_Source\PSoC5/MISO_2.c **** * File Name: MISO_2.c  
   3:Generated_Source\PSoC5/MISO_2.c **** * Version 2.20
   4:Generated_Source\PSoC5/MISO_2.c **** *
   5:Generated_Source\PSoC5/MISO_2.c **** * Description:
   6:Generated_Source\PSoC5/MISO_2.c **** *  This file contains API to enable firmware control of a Pins component.
   7:Generated_Source\PSoC5/MISO_2.c **** *
   8:Generated_Source\PSoC5/MISO_2.c **** * Note:
   9:Generated_Source\PSoC5/MISO_2.c **** *
  10:Generated_Source\PSoC5/MISO_2.c **** ********************************************************************************
  11:Generated_Source\PSoC5/MISO_2.c **** * Copyright 2008-2015, Cypress Semiconductor Corporation.  All rights reserved.
  12:Generated_Source\PSoC5/MISO_2.c **** * You may use this file only in accordance with the license, terms, conditions, 
  13:Generated_Source\PSoC5/MISO_2.c **** * disclaimers, and limitations in the end user license agreement accompanying 
  14:Generated_Source\PSoC5/MISO_2.c **** * the software package with which this file was provided.
  15:Generated_Source\PSoC5/MISO_2.c **** *******************************************************************************/
  16:Generated_Source\PSoC5/MISO_2.c **** 
  17:Generated_Source\PSoC5/MISO_2.c **** #include "cytypes.h"
  18:Generated_Source\PSoC5/MISO_2.c **** #include "MISO_2.h"
  19:Generated_Source\PSoC5/MISO_2.c **** 
ARM GAS  C:\Users\JEFFSN~1\AppData\Local\Temp\ccnbMyHy.s 			page 15


  20:Generated_Source\PSoC5/MISO_2.c **** /* APIs are not generated for P15[7:6] on PSoC 5 */
  21:Generated_Source\PSoC5/MISO_2.c **** #if !(CY_PSOC5A &&\
  22:Generated_Source\PSoC5/MISO_2.c **** 	 MISO_2__PORT == 15 && ((MISO_2__MASK & 0xC0) != 0))
  23:Generated_Source\PSoC5/MISO_2.c **** 
  24:Generated_Source\PSoC5/MISO_2.c **** 
  25:Generated_Source\PSoC5/MISO_2.c **** /*******************************************************************************
  26:Generated_Source\PSoC5/MISO_2.c **** * Function Name: MISO_2_Write
  27:Generated_Source\PSoC5/MISO_2.c **** ****************************************************************************//**
  28:Generated_Source\PSoC5/MISO_2.c **** *
  29:Generated_Source\PSoC5/MISO_2.c **** * \brief Writes the value to the physical port (data output register), masking
  30:Generated_Source\PSoC5/MISO_2.c **** *  and shifting the bits appropriately. 
  31:Generated_Source\PSoC5/MISO_2.c **** *
  32:Generated_Source\PSoC5/MISO_2.c **** * The data output register controls the signal applied to the physical pin in 
  33:Generated_Source\PSoC5/MISO_2.c **** * conjunction with the drive mode parameter. This function avoids changing 
  34:Generated_Source\PSoC5/MISO_2.c **** * other bits in the port by using the appropriate method (read-modify-write or
  35:Generated_Source\PSoC5/MISO_2.c **** * bit banding).
  36:Generated_Source\PSoC5/MISO_2.c **** *
  37:Generated_Source\PSoC5/MISO_2.c **** * <b>Note</b> This function should not be used on a hardware digital output pin 
  38:Generated_Source\PSoC5/MISO_2.c **** * as it is driven by the hardware signal attached to it.
  39:Generated_Source\PSoC5/MISO_2.c **** *
  40:Generated_Source\PSoC5/MISO_2.c **** * \param value
  41:Generated_Source\PSoC5/MISO_2.c **** *  Value to write to the component instance.
  42:Generated_Source\PSoC5/MISO_2.c **** *
  43:Generated_Source\PSoC5/MISO_2.c **** * \return 
  44:Generated_Source\PSoC5/MISO_2.c **** *  None 
  45:Generated_Source\PSoC5/MISO_2.c **** *
  46:Generated_Source\PSoC5/MISO_2.c **** * \sideeffect
  47:Generated_Source\PSoC5/MISO_2.c **** *  If you use read-modify-write operations that are not atomic; the Interrupt 
  48:Generated_Source\PSoC5/MISO_2.c **** *  Service Routines (ISR) can cause corruption of this function. An ISR that 
  49:Generated_Source\PSoC5/MISO_2.c **** *  interrupts this function and performs writes to the Pins component data 
  50:Generated_Source\PSoC5/MISO_2.c **** *  register can cause corrupted port data. To avoid this issue, you should 
  51:Generated_Source\PSoC5/MISO_2.c **** *  either use the Per-Pin APIs (primary method) or disable interrupts around 
  52:Generated_Source\PSoC5/MISO_2.c **** *  this function.
  53:Generated_Source\PSoC5/MISO_2.c **** *
  54:Generated_Source\PSoC5/MISO_2.c **** * \funcusage
  55:Generated_Source\PSoC5/MISO_2.c **** *  \snippet MISO_2_SUT.c usage_MISO_2_Write
  56:Generated_Source\PSoC5/MISO_2.c **** *******************************************************************************/
  57:Generated_Source\PSoC5/MISO_2.c **** void MISO_2_Write(uint8 value)
  58:Generated_Source\PSoC5/MISO_2.c **** {
 224              		.loc 1 58 0
 225              		.cfi_startproc
 226              		@ args = 0, pretend = 0, frame = 0
 227              		@ frame_needed = 0, uses_anonymous_args = 0
 228              		@ link register save eliminated.
 229              	.LVL0:
  59:Generated_Source\PSoC5/MISO_2.c ****     uint8 staticBits = (MISO_2_DR & (uint8)(~MISO_2_MASK));
 230              		.loc 1 59 0
 231 0000 044A     		ldr	r2, .L2
 232 0002 1378     		ldrb	r3, [r2]	@ zero_extendqisi2
 233 0004 03F07F03 		and	r3, r3, #127
 234              	.LVL1:
  60:Generated_Source\PSoC5/MISO_2.c ****     MISO_2_DR = staticBits | ((uint8)(value << MISO_2_SHIFT) & MISO_2_MASK);
 235              		.loc 1 60 0
 236 0008 C001     		lsls	r0, r0, #7
 237              	.LVL2:
 238 000a C0B2     		uxtb	r0, r0
 239 000c 1843     		orrs	r0, r0, r3
ARM GAS  C:\Users\JEFFSN~1\AppData\Local\Temp\ccnbMyHy.s 			page 16


 240 000e 1070     		strb	r0, [r2]
 241 0010 7047     		bx	lr
 242              	.L3:
 243 0012 00BF     		.align	2
 244              	.L2:
 245 0014 20510040 		.word	1073762592
 246              		.cfi_endproc
 247              	.LFE0:
 248              		.size	MISO_2_Write, .-MISO_2_Write
 249              		.section	.text.MISO_2_SetDriveMode,"ax",%progbits
 250              		.align	2
 251              		.global	MISO_2_SetDriveMode
 252              		.thumb
 253              		.thumb_func
 254              		.type	MISO_2_SetDriveMode, %function
 255              	MISO_2_SetDriveMode:
 256              	.LFB1:
  61:Generated_Source\PSoC5/MISO_2.c **** }
  62:Generated_Source\PSoC5/MISO_2.c **** 
  63:Generated_Source\PSoC5/MISO_2.c **** 
  64:Generated_Source\PSoC5/MISO_2.c **** /*******************************************************************************
  65:Generated_Source\PSoC5/MISO_2.c **** * Function Name: MISO_2_SetDriveMode
  66:Generated_Source\PSoC5/MISO_2.c **** ****************************************************************************//**
  67:Generated_Source\PSoC5/MISO_2.c **** *
  68:Generated_Source\PSoC5/MISO_2.c **** * \brief Sets the drive mode for each of the Pins component's pins.
  69:Generated_Source\PSoC5/MISO_2.c **** * 
  70:Generated_Source\PSoC5/MISO_2.c **** * <b>Note</b> This affects all pins in the Pins component instance. Use the
  71:Generated_Source\PSoC5/MISO_2.c **** * Per-Pin APIs if you wish to control individual pin's drive modes.
  72:Generated_Source\PSoC5/MISO_2.c **** *
  73:Generated_Source\PSoC5/MISO_2.c **** * \param mode
  74:Generated_Source\PSoC5/MISO_2.c **** *  Mode for the selected signals. Valid options are documented in 
  75:Generated_Source\PSoC5/MISO_2.c **** *  \ref driveMode.
  76:Generated_Source\PSoC5/MISO_2.c **** *
  77:Generated_Source\PSoC5/MISO_2.c **** * \return
  78:Generated_Source\PSoC5/MISO_2.c **** *  None
  79:Generated_Source\PSoC5/MISO_2.c **** *
  80:Generated_Source\PSoC5/MISO_2.c **** * \sideeffect
  81:Generated_Source\PSoC5/MISO_2.c **** *  If you use read-modify-write operations that are not atomic, the ISR can
  82:Generated_Source\PSoC5/MISO_2.c **** *  cause corruption of this function. An ISR that interrupts this function 
  83:Generated_Source\PSoC5/MISO_2.c **** *  and performs writes to the Pins component Drive Mode registers can cause 
  84:Generated_Source\PSoC5/MISO_2.c **** *  corrupted port data. To avoid this issue, you should either use the Per-Pin
  85:Generated_Source\PSoC5/MISO_2.c **** *  APIs (primary method) or disable interrupts around this function.
  86:Generated_Source\PSoC5/MISO_2.c **** *
  87:Generated_Source\PSoC5/MISO_2.c **** * \funcusage
  88:Generated_Source\PSoC5/MISO_2.c **** *  \snippet MISO_2_SUT.c usage_MISO_2_SetDriveMode
  89:Generated_Source\PSoC5/MISO_2.c **** *******************************************************************************/
  90:Generated_Source\PSoC5/MISO_2.c **** void MISO_2_SetDriveMode(uint8 mode)
  91:Generated_Source\PSoC5/MISO_2.c **** {
 257              		.loc 1 91 0
 258              		.cfi_startproc
 259              		@ args = 0, pretend = 0, frame = 0
 260              		@ frame_needed = 0, uses_anonymous_args = 0
 261              		@ link register save eliminated.
 262              	.LVL3:
  92:Generated_Source\PSoC5/MISO_2.c **** 	CyPins_SetPinDriveMode(MISO_2_0, mode);
 263              		.loc 1 92 0
 264 0000 044A     		ldr	r2, .L5
ARM GAS  C:\Users\JEFFSN~1\AppData\Local\Temp\ccnbMyHy.s 			page 17


 265 0002 1378     		ldrb	r3, [r2]	@ zero_extendqisi2
 266 0004 03F0F103 		and	r3, r3, #241
 267 0008 00F00E00 		and	r0, r0, #14
 268              	.LVL4:
 269 000c 1843     		orrs	r0, r0, r3
 270 000e 1070     		strb	r0, [r2]
 271 0010 7047     		bx	lr
 272              	.L6:
 273 0012 00BF     		.align	2
 274              	.L5:
 275 0014 17500040 		.word	1073762327
 276              		.cfi_endproc
 277              	.LFE1:
 278              		.size	MISO_2_SetDriveMode, .-MISO_2_SetDriveMode
 279              		.section	.text.MISO_2_Read,"ax",%progbits
 280              		.align	2
 281              		.global	MISO_2_Read
 282              		.thumb
 283              		.thumb_func
 284              		.type	MISO_2_Read, %function
 285              	MISO_2_Read:
 286              	.LFB2:
  93:Generated_Source\PSoC5/MISO_2.c **** }
  94:Generated_Source\PSoC5/MISO_2.c **** 
  95:Generated_Source\PSoC5/MISO_2.c **** 
  96:Generated_Source\PSoC5/MISO_2.c **** /*******************************************************************************
  97:Generated_Source\PSoC5/MISO_2.c **** * Function Name: MISO_2_Read
  98:Generated_Source\PSoC5/MISO_2.c **** ****************************************************************************//**
  99:Generated_Source\PSoC5/MISO_2.c **** *
 100:Generated_Source\PSoC5/MISO_2.c **** * \brief Reads the associated physical port (pin status register) and masks 
 101:Generated_Source\PSoC5/MISO_2.c **** *  the required bits according to the width and bit position of the component
 102:Generated_Source\PSoC5/MISO_2.c **** *  instance. 
 103:Generated_Source\PSoC5/MISO_2.c **** *
 104:Generated_Source\PSoC5/MISO_2.c **** * The pin's status register returns the current logic level present on the 
 105:Generated_Source\PSoC5/MISO_2.c **** * physical pin.
 106:Generated_Source\PSoC5/MISO_2.c **** *
 107:Generated_Source\PSoC5/MISO_2.c **** * \return 
 108:Generated_Source\PSoC5/MISO_2.c **** *  The current value for the pins in the component as a right justified number.
 109:Generated_Source\PSoC5/MISO_2.c **** *
 110:Generated_Source\PSoC5/MISO_2.c **** * \funcusage
 111:Generated_Source\PSoC5/MISO_2.c **** *  \snippet MISO_2_SUT.c usage_MISO_2_Read  
 112:Generated_Source\PSoC5/MISO_2.c **** *******************************************************************************/
 113:Generated_Source\PSoC5/MISO_2.c **** uint8 MISO_2_Read(void)
 114:Generated_Source\PSoC5/MISO_2.c **** {
 287              		.loc 1 114 0
 288              		.cfi_startproc
 289              		@ args = 0, pretend = 0, frame = 0
 290              		@ frame_needed = 0, uses_anonymous_args = 0
 291              		@ link register save eliminated.
 115:Generated_Source\PSoC5/MISO_2.c ****     return (MISO_2_PS & MISO_2_MASK) >> MISO_2_SHIFT;
 292              		.loc 1 115 0
 293 0000 014B     		ldr	r3, .L8
 294 0002 1878     		ldrb	r0, [r3]	@ zero_extendqisi2
 116:Generated_Source\PSoC5/MISO_2.c **** }
 295              		.loc 1 116 0
 296 0004 C009     		lsrs	r0, r0, #7
 297 0006 7047     		bx	lr
ARM GAS  C:\Users\JEFFSN~1\AppData\Local\Temp\ccnbMyHy.s 			page 18


 298              	.L9:
 299              		.align	2
 300              	.L8:
 301 0008 21510040 		.word	1073762593
 302              		.cfi_endproc
 303              	.LFE2:
 304              		.size	MISO_2_Read, .-MISO_2_Read
 305              		.section	.text.MISO_2_ReadDataReg,"ax",%progbits
 306              		.align	2
 307              		.global	MISO_2_ReadDataReg
 308              		.thumb
 309              		.thumb_func
 310              		.type	MISO_2_ReadDataReg, %function
 311              	MISO_2_ReadDataReg:
 312              	.LFB3:
 117:Generated_Source\PSoC5/MISO_2.c **** 
 118:Generated_Source\PSoC5/MISO_2.c **** 
 119:Generated_Source\PSoC5/MISO_2.c **** /*******************************************************************************
 120:Generated_Source\PSoC5/MISO_2.c **** * Function Name: MISO_2_ReadDataReg
 121:Generated_Source\PSoC5/MISO_2.c **** ****************************************************************************//**
 122:Generated_Source\PSoC5/MISO_2.c **** *
 123:Generated_Source\PSoC5/MISO_2.c **** * \brief Reads the associated physical port's data output register and masks 
 124:Generated_Source\PSoC5/MISO_2.c **** *  the correct bits according to the width and bit position of the component 
 125:Generated_Source\PSoC5/MISO_2.c **** *  instance. 
 126:Generated_Source\PSoC5/MISO_2.c **** *
 127:Generated_Source\PSoC5/MISO_2.c **** * The data output register controls the signal applied to the physical pin in 
 128:Generated_Source\PSoC5/MISO_2.c **** * conjunction with the drive mode parameter. This is not the same as the 
 129:Generated_Source\PSoC5/MISO_2.c **** * preferred MISO_2_Read() API because the 
 130:Generated_Source\PSoC5/MISO_2.c **** * MISO_2_ReadDataReg() reads the data register instead of the status 
 131:Generated_Source\PSoC5/MISO_2.c **** * register. For output pins this is a useful function to determine the value 
 132:Generated_Source\PSoC5/MISO_2.c **** * just written to the pin.
 133:Generated_Source\PSoC5/MISO_2.c **** *
 134:Generated_Source\PSoC5/MISO_2.c **** * \return 
 135:Generated_Source\PSoC5/MISO_2.c **** *  The current value of the data register masked and shifted into a right 
 136:Generated_Source\PSoC5/MISO_2.c **** *  justified number for the component instance.
 137:Generated_Source\PSoC5/MISO_2.c **** *
 138:Generated_Source\PSoC5/MISO_2.c **** * \funcusage
 139:Generated_Source\PSoC5/MISO_2.c **** *  \snippet MISO_2_SUT.c usage_MISO_2_ReadDataReg 
 140:Generated_Source\PSoC5/MISO_2.c **** *******************************************************************************/
 141:Generated_Source\PSoC5/MISO_2.c **** uint8 MISO_2_ReadDataReg(void)
 142:Generated_Source\PSoC5/MISO_2.c **** {
 313              		.loc 1 142 0
 314              		.cfi_startproc
 315              		@ args = 0, pretend = 0, frame = 0
 316              		@ frame_needed = 0, uses_anonymous_args = 0
 317              		@ link register save eliminated.
 143:Generated_Source\PSoC5/MISO_2.c ****     return (MISO_2_DR & MISO_2_MASK) >> MISO_2_SHIFT;
 318              		.loc 1 143 0
 319 0000 014B     		ldr	r3, .L11
 320 0002 1878     		ldrb	r0, [r3]	@ zero_extendqisi2
 144:Generated_Source\PSoC5/MISO_2.c **** }
 321              		.loc 1 144 0
 322 0004 C009     		lsrs	r0, r0, #7
 323 0006 7047     		bx	lr
 324              	.L12:
 325              		.align	2
 326              	.L11:
ARM GAS  C:\Users\JEFFSN~1\AppData\Local\Temp\ccnbMyHy.s 			page 19


 327 0008 20510040 		.word	1073762592
 328              		.cfi_endproc
 329              	.LFE3:
 330              		.size	MISO_2_ReadDataReg, .-MISO_2_ReadDataReg
 331              		.text
 332              	.Letext0:
 333              		.file 2 "Generated_Source\\PSoC5\\cytypes.h"