ARM GAS  C:\Users\JEFFSN~1\AppData\Local\Temp\cc9QeCZE.s 			page 1


   1              		.syntax unified
   2              		.cpu cortex-m3
   3              		.fpu softvfp
   4              		.eabi_attribute 20, 1
   5              		.eabi_attribute 21, 1
   6              		.eabi_attribute 23, 3
   7              		.eabi_attribute 24, 1
   8              		.eabi_attribute 25, 1
   9              		.eabi_attribute 26, 1
  10              		.eabi_attribute 30, 2
  11              		.eabi_attribute 34, 1
  12              		.eabi_attribute 18, 4
  13              		.thumb
  14              		.syntax unified
  15              		.file	"MOSI_2.c"
  16              		.text
  17              	.Ltext0:
  18              		.section	.gnu.lto_.profile.f743b405,"",%progbits
  19 0000 789C6361 		.ascii	"x\234ca`d`a`\000\222\222\242\000\000\261\0009"
  19      60646061 
  19      60009292 
  19      A20000B1 
  19      0039
  20              		.text
  21              		.section	.gnu.lto_.icf.f743b405,"",%progbits
  22 0000 789C6361 		.ascii	"x\234ca`d\000\001I\006\004`a8x\352\330[\026\306\277"
  22      60640001 
  22      49060460 
  22      613878EA 
  22      D85B16C6 
  23 0015 9FA61D64 		.ascii	"\237\246\035dbz{n\302OF\346\266\215\3338\031\000\245"
  23      627A7B6E 
  23      C24F46E6 
  23      B68DDB38 
  23      1900A5
  24 0028 190BEE   		.ascii	"\031\013\356"
  25              		.text
  26              		.section	.gnu.lto_.jmpfuncs.f743b405,"",%progbits
  27 0000 789C6361 		.ascii	"x\234ca`d\000\001!\006\004`a`dd\254g\004\021L\014\014"
  27      60640001 
  27      21060460 
  27      61606464 
  27      AC670411 
  28 0017 CC401100 		.ascii	"\314@\021\000\016\"\001&"
  28      0E220126 
  29              		.text
  30              		.section	.gnu.lto_.inline.f743b405,"",%progbits
  31 0000 789C6361 		.ascii	"x\234ca`d\000\201$\006\004`a`\340\344`dd\340\000J1s"
  31      60640081 
  31      24060460 
  31      6160E0E4 
  31      606464E0 
  32 0018 1CB06360 		.ascii	"\034\260c`[ \317\304\300\262@\236\005$\013\024g\307"
  32      5B20CFC4 
  32      C0B2409E 
  32      05240B14 
  32      67C7
ARM GAS  C:\Users\JEFFSN~1\AppData\Local\Temp\cc9QeCZE.s 			page 2


  33 002a 9064BAC0 		.ascii	"\220d\272\300\017\226db`ced`b\373\240\007\021\007\002"
  33      0F966462 
  33      60636564 
  33      6062FBA0 
  33      07110702 
  34 003e 664C2106 		.ascii	"fL!\006\000\346\332\011\346"
  34      00E6DA09 
  34      E6
  35              		.text
  36              		.section	.gnu.lto_.pureconst.f743b405,"",%progbits
  37 0000 789C6361 		.ascii	"x\234ca`d\340d```a\220b\224b\222b\226\002\000\002\261"
  37      6064E064 
  37      60606061 
  37      90629462 
  37      92629602 
  38 0017 0081     		.ascii	"\000\201"
  39              		.text
  40              		.section	.gnu.lto_MOSI_2_Write.f743b405,"",%progbits
  41 0000 789C5551 		.ascii	"x\234UQMKTa\024>\317\373\336{\307\324\302\275\263\030"
  41      4D4B5461 
  41      143ECFFB 
  41      DE7BC7D4 
  41      C2BDB318 
  42 0014 08916911 		.ascii	"\010\221i\021\221\364\007j\021-\304h\266\0032Lw!h\202"
  42      91F4076A 
  42      112DC468 
  42      B603324C 
  42      77216882 
  43 0028 8E6D7DAF 		.ascii	"\216m}\257\363!\266r\223\263\361\003\024q\372\032\265"
  43      F321B672 
  43      93B3F103 
  43      1471FA1A 
  43      B5
  44 0039 40905A5C 		.ascii	"@\220Z\\\356\262\240\020\\E\205\270\270A\233&lPjj:\347"
  44      EEB2A010 
  44      5C4585B8 
  44      B8419B26 
  44      6C506A6A 
  45 004f DE59E481 		.ascii	"\336Y\344\201\367\343\236\373<\317y\316y-\002I\\QDC"
  45      F7E39EFB 
  45      3CCF79CE 
  45      792D0249 
  45      5C514443 
  46 0063 7CF6F382 		.ascii	"|\366\363\202&\250\305\367D^\227\002\344b\272@\263\012"
  46      26A8C5F7 
  46      445E9702 
  46      E462BA40 
  46      B30A
  47 0075 B368AA3F 		.ascii	"\263h\252?\012\301|\270\257\322[\206\343hsU\233\232"
  47      0AC17CB8 
  47      AFD25B86 
  47      E3687355 
  47      9B9A
  48 0087 8FB2266A 		.ascii	"\217\262&j\253H\211\260\2054\243\276\276\231?\204\276"
  48      AB4889B0 
  48      8534A3BE 
  48      BE993F84 
ARM GAS  C:\Users\JEFFSN~1\AppData\Local\Temp\cc9QeCZE.s 			page 3


  48      BE
  49 0098 0CE27B25 		.ascii	"\014\342{%h6z\0067\215\2313\346$ktY\0035hf`(\211kI\342"
  49      68367A06 
  49      378D9933 
  49      E6246B74 
  49      59033568 
  50 00b3 04E10906 		.ascii	"\004\341\011\006\005|\366\361\260~I\247#\342\242\011"
  50      057CF6F1 
  50      B07E49A7 
  50      23E2A209 
  51 00c3 D77B0736 		.ascii	"\327{\0076\204\350\237NT\215\357\245\204\373\364\177"
  51      84E89F4E 
  51      548DEFA5 
  51      84FBF47F 
  52 00d3 AE04438F 		.ascii	"\256\004C\217w\377>\276\350\224\304U\012\3170\020\373"
  52      77FF3EBE 
  52      E894C455 
  52      0ACF3010 
  52      FB
  53 00e4 C17338DC 		.ascii	"\301s8\334!$\263}\3177\355v\321\370M\273\251/(.\252"
  53      2124B37D 
  53      CF37ED76 
  53      D1F84DBB 
  53      A92F282E 
  54 00f9 B853FE61 		.ascii	"\270S\376aAj\333\222pdK\310F\324\340%\335\377PJN\035"
  54      416ADB92 
  54      70644BC8 
  54      46D4E025 
  54      DDFF504A 
  55 010f 22F8F5E8 		.ascii	"\"\370\365\350K5!\232E-\223X*\007\037\022?UY\353\310"
  55      4B35219A 
  55      452D9358 
  55      2A071F12 
  55      3F5559EB 
  56 0124 ED41ED73 		.ascii	"\355A\355s\265\363\351ox\306\342T}\357h\241w\015+^\211"
  56      B5F3E96F 
  56      78C6E254 
  56      7DEF68A1 
  56      770D2B5E 
  57 0139 6764A18E 		.ascii	"gd\241\216$^\200=c\033k\240\020\305V\345\023bA\035k"
  57      245E803D 
  57      631B6BA0 
  57      10C556E5 
  57      1362411D 
  58 014e AEBF5D09 		.ascii	"\256\277]\011\272E\004\370\016\3540\370\030*j\203\235"
  58      BA4504F8 
  58      0EEC30F8 
  58      182A6A83 
  58      9D
  59 015f 324A488D 		.ascii	"2JH\215Jx\332\261a\027\265\3249(\355,ka\331\260\260"
  59      4A78DAB1 
  59      6117B5D4 
  59      3928ED2C 
  59      6B61D9B0 
  60 0174 CBA448BA 		.ascii	"\313\244H\272\325\221\026\034\203^\237\264\336)\001"
  60      D591161C 
  60      835E9FB4 
ARM GAS  C:\Users\JEFFSN~1\AppData\Local\Temp\cc9QeCZE.s 			page 4


  60      DE2901
  61 0183 59E8C3CB 		.ascii	"Y\350\303\313\030t\346\304\220Dd\300\341T\260\024\261"
  61      1874E6C4 
  61      904464C0 
  61      E154B014 
  61      B1
  62 0194 CE99F78C 		.ascii	"\316\231\367\214\3519\357\377\025\373g\026}\303\234"
  62      E939EFFF 
  62      15FB6716 
  62      7DC39C
  63 01a3 FFDB1642 		.ascii	"\377\333\026B\364\020\015\005\231\025O.u\333}\340N\345"
  63      F4100D05 
  63      99154F2E 
  63      75DB7DE0 
  63      4EE5
  64 01b5 0AEEFDD1 		.ascii	"\012\356\375\321\314\344\314T\336\315\336\315L\336\272"
  64      CCE4CC54 
  64      DECDDECD 
  64      4CDEBA
  65 01c4 911D1EC9 		.ascii	"\221\035\036\311\334\031\275~5O\366\303\334\370\214"
  65      DC19BD7E 
  65      354FF6C3 
  65      DCF88C
  66 01d3 DB3D5DC8 		.ascii	"\333=]\310\025\306\3627\307\012\323\377\0000\361\302"
  66      15C6F237 
  66      C70AD3FF 
  66      0030F1C2 
  67 01e3 7B       		.ascii	"{"
  68              		.text
  69              		.section	.gnu.lto_MOSI_2_SetDriveMode.f743b405,"",%progbits
  70 0000 789C7D51 		.ascii	"x\234}QMK\033Q\024\275\347\275\311L\202\324?`\026\202"
  70      4D4B1B51 
  70      14BDE7BD 
  70      C94C82D4 
  70      3F601682 
  71 0014 8B904D09 		.ascii	"\213\220M\011\225\376\202\202\322\205\2644[%\210\231"
  71      95FE8282 
  71      D285B434 
  71      5B258899 
  72 0024 650D0D76 		.ascii	"e\015\015v\355\233| \330.\224\266n\212\350&$~+nt\027"
  72      ED9B7C20 
  72      D82E94B6 
  72      6E8AE826 
  72      247E2B6E 
  73 003a 03BA4CE9 		.ascii	"\003\272L\351\306\205\013)\"A\012m\223\252(Z\215\367"
  73      C6850B29 
  73      22410A6D 
  73      93AA285A 
  73      8DF7
  74 004c CEB8C8AA 		.ascii	"\316\270\310\252\217y\367\343p\316\341\3367\026\201"
  74      8F79F7E3 
  74      70CEE1DE 
  74      371681
  75 005b E49C718A 		.ascii	"\344\234q\212q\356\341\013MP3u\"/\254\000)L\0304\251"
  75      71EEE10B 
  75      4D503375 
  75      222FAC00 
ARM GAS  C:\Users\JEFFSN~1\AppData\Local\Temp\cc9QeCZE.s 			page 5


  75      294C1834 
  76 0070 30894B75 		.ascii	"0\211Ku\247P\233j\354\252x\331\360\371\261\377;a*U\024"
  76      A7509B6A 
  76      ECAA78D9 
  76      F0F9B1FF 
  76      3B612A55 
  77 0085 35515BF9 		.ascii	"5Q[\371N\2042\342\314:\337.}\352\322} \256[\365\346"
  77      4E8432E2 
  77      CC3ADF2E 
  77      7DEAD27D 
  77      20AE5BF5 
  78 009a 7177AC64 		.ascii	"qw\254dL\316\230\331\021\243\213\032\250@\263\002\375"
  78      4CCE98D9 
  78      11A38B1A 
  78      A840B302 
  78      FD
  79 00ab 5124A2C4 		.ascii	"Q$\242\304\000a\0111!\237l\335\177yb\027\304\27670\305"
  79      00610931 
  79      219F6CDD 
  79      7F796217 
  79      C4BE3730 
  80 00c0 326C1973 		.ascii	"2l\031s\343M\325\264\333yS\275\262\367n\354.\3052\245"
  80      E34DD5B4 
  80      DB7953BD 
  80      B2F76EEC 
  80      2EC532A5 
  81 00d4 39684B42 		.ascii	"9hKB\010\342`K\351H\010K\210\010\207\250\311W\026i)"
  81      08E2604B 
  81      E948084B 
  81      880887A8 
  81      C9571669 
  82 00e9 25593750 		.ascii	"%Y7P\273\231n|\265\3049\257e\251\271b\355\233s\241\212"
  82      BB996E7C 
  82      B5C439AF 
  82      65A9B962 
  82      ED9B73A1 
  83 00fe DAF227F6 		.ascii	"\332\362'\366\276\327\377 hO\027=c1\364\361~\347sh\001"
  83      BED7FF20 
  83      684F173D 
  83      6331F4F1 
  83      7EE77368 
  84 0113 F35E81D7 		.ascii	"\363^\201\327\015a\025Q\254 \312\323\255a\001\324@\356"
  84      0D611551 
  84      AC20CAD3 
  84      AD6101D4 
  84      40EE
  85 0125 AF13D869 		.ascii	"\257\023\330iv\344>\377\317\016z\213!\326\037\035|\270"
  85      76E43EFF 
  85      CF0E7A8B 
  85      21D61F1D 
  85      7CB8
  86 0137 8B88A5C6 		.ascii	"\213\210\245\306;\254\263\262C\302_\250S\3420\304\222"
  86      3BACB3B2 
  86      43C25FA8 
  86      53E230C4 
  86      92
  87 0148 5F872BAB 		.ascii	"_\207+\253:\220tc\303\227\344\257\037)a\337\330\351"
ARM GAS  C:\Users\JEFFSN~1\AppData\Local\Temp\cc9QeCZE.s 			page 6


  87      3A907463 
  87      C397E4AF 
  87      1F2961DF 
  87      D8E9
  88 015a 748930CA 		.ascii	"t\2110\312}m\016\322\377o\344M\036\231\371\364\023\271"
  88      7D6D0ED2 
  88      FF6FE44D 
  88      1E99F9F4 
  88      13B9
  89 016c EAED80B0 		.ascii	"\352\355\200\260\375_\327T\220\347\341\307\352\035t"
  89      FD5FD754 
  89      90E7E1C7 
  89      EA1D74
  90 017b C7DDECE8 		.ascii	"\307\335\354\350\204\233N%3\357\263c\356\360\353d\346"
  90      849B4E25 
  90      33EFB363 
  90      EEF0EB64 
  90      E6
  91 018c C5F3E1A1 		.ascii	"\305\363\341\241W\311\227\251gO\307\310z\233I\273\017"
  91      57C997A9 
  91      674FC7C8 
  91      7A9B49BB 
  91      0F
  92 019d 589FA54E 		.ascii	"X\237\245N"
  93              		.text
  94              		.section	.gnu.lto_MOSI_2_Read.f743b405,"",%progbits
  95 0000 789C354F 		.ascii	"x\2345O=HBQ\024>\337\275\257\367\244\010\332s\2206\227"
  95      3D484251 
  95      143EDFBD 
  95      AFF7A408 
  95      DA739036 
  96 0015 882288D6 		.ascii	"\210\"\210\326\240h\210\"\241I\220\260\267&H\315\276"
  96      A0688822 
  96      A14990B0 
  96      B72648CD 
  96      BE
  97 0026 E7F31544 		.ascii	"\347\363\025DC\015\325\2229D\250\225T\223\253\272\024"
  97      430DD592 
  97      3944A895 
  97      5493ABBA 
  97      14
  98 0037 144541D0 		.ascii	"\024EA\320\024\021\341\320db\004b\331\271=;p\317\271"
  98      1411E1D0 
  98      64620462 
  98      D9B93D3B 
  98      70CFB9
  99 004a F7DCEFE7 		.ascii	"\367\334\357\347\034\215@*\026\270\014p\355\347\003"
  99      1C8D402A 
  99      16B80C70 
  99      EDE703
 100 0059 49105BB7 		.ascii	"I\020[\267D\266O\000\352b\371@\011\201\004>\305\267"
 100      44B64F00 
 100      EA62F940 
 100      0981043E 
 100      C5B7
 101 006b C0F5D7D5 		.ascii	"\300\365\327\325fw0kYI\353\345\2509\266\227+\301\225"
 101      6677306B 
ARM GAS  C:\Users\JEFFSN~1\AppData\Local\Temp\cc9QeCZE.s 			page 7


 101      5949EBE5 
 101      A839B697 
 101      2BC195
 102 007e 446D4118 		.ascii	"DmA\030\361c\310\257$\262\010\022C_/~vz\365\224\305"
 102      F163C8AF 
 102      24B20812 
 102      435F2F7E 
 102      767AF594 
 103 0093 115000FE 		.ascii	"\021P\000\376\311AW\226g\363%\253\335v\254\322\243Q"
 103      C9415796 
 103      67F325AB 
 103      DD76ACD2 
 103      A351
 104 00a5 7E320C90 		.ascii	"~2\014\220+\331\227\223\306It\251\244\223\222\245\032"
 104      2BD99793 
 104      C64974A9 
 104      A49392A5 
 104      1A
 105 00b6 D3D4101F 		.ascii	"\323\324\020\037B\250*\253\25047\236\017\306\225\222"
 105      42A82AAB 
 105      A834379E 
 105      0FC69592 
 106 00c6 2325BBEC 		.ascii	"#%\273\354\272\225;\243!\\)\241L\363\333\305z\347Y>"
 106      BA953BA3 
 106      215C29A1 
 106      4CF3DBC5 
 106      7AE7593E 
 107 00da B42D8D5B 		.ascii	"\264-\215[v\261pid\220\266S<\252\206c\370\221\007\017"
 107      76B17069 
 107      6490B653 
 107      3CAA8663 
 107      F891070F 
 108 00ee 8A136440 		.ascii	"\212\023d@U8\255Ir$<\271\207\332M\272G\361\201>\234"
 108      5538AD49 
 108      72243CB9 
 108      87DA4DBA 
 108      47F1813E 
 109 0103 32AC8A64 		.ascii	"2\254\212d}\275%<C\215q\212Q_kh^\247\213\233L\273O\235"
 109      7DBD253C 
 109      438D718A 
 109      515F6B68 
 109      5EA78B9B 
 110 011b EF4B4513 		.ascii	"\357KE\023\320P\370\247\275\301\003)\034\275\243#\242"
 110      D050F8A7 
 110      BDC10329 
 110      1CBDA323 
 110      A2
 111 012c D3DF6250 		.ascii	"\323\337bP\013\361z\201)s\331\214/\256\230K\221Pl5\036"
 111      0BF17A81 
 111      2973D98C 
 111      2FAE984B 
 111      91506C35 
 112 0141 35C373A1 		.ascii	"5\303s\241\330\304hxf64\035\031\036\214\322/\010\351"
 112      D8C46878 
 112      6636341D 
 112      191E8CD2 
 112      2F08E9
ARM GAS  C:\Users\JEFFSN~1\AppData\Local\Temp\cc9QeCZE.s 			page 8


 113 0154 7AB1     		.ascii	"z\261"
 114              		.text
 115              		.section	.gnu.lto_MOSI_2_ReadDataReg.f743b405,"",%progbits
 116 0000 789C354F 		.ascii	"x\2345O=HBQ\024>\337\275/\025+h\317A\332\\\"\212\206"
 116      3D484251 
 116      143EDFBD 
 116      2F152B68 
 116      CF41DA5C 
 117 0017 5A83A221 		.ascii	"Z\203\242!\212\204&A\302\336\232 5\373\374yE\321\320"
 117      8A842641 
 117      C2DE9A20 
 117      35FBFC79 
 117      45D1D0
 118 002a 522E8943 		.ascii	"R.\211C\204\332\177K[`NA\321\337\036H\204C\223\211\021"
 118      84DA7F4B 
 118      5B604E41 
 118      D1DF1E48 
 118      84439389 
 119 003f 8469E7F4 		.ascii	"\204i\347\364\354\300=\347\336s\277\237s\014\002I,p"
 119      ECC03DE7 
 119      DE73BF9F 
 119      730C0249 
 119      2C70
 120 0051 19E0DACF 		.ascii	"\031\340\332\317\007\232\240\266\357\211\022\036\005"
 120      079AA0B6 
 120      EF89121E 
 120      05
 121 005e C8C5F280 		.ascii	"\310\305\362\200\342\012q|\252\037\205\333\257\233-"
 121      E20A717C 
 121      AA1F85DB 
 121      AF9B2D
 122 006d 6F206F59 		.ascii	"o oYI\253r\220\037\313\024J\2605Q[\021F|\030\362\211"
 122      49AB7290 
 122      1FCB144A 
 122      B035515B 
 122      11467C18 
 123 0083 441E0162 		.ascii	"D\036\001b\350\353Ek\247\327\225\2668\374\002\340\237"
 123      E8EB456B 
 123      A7D795B6 
 123      38FC02E0 
 123      9F
 124 0094 025C6279 		.ascii	"\002\\by6_\262\332\355\224U\272\362^?z\335 [\263/'\203"
 124      365FB2DA 
 124      ED9455BA 
 124      F25E3F7A 
 124      DD205BB3 
 125 00ab 93EA92E4 		.ascii	"\223\352\222\344\"\221\245\032\323d\210\017\245\244"
 125      2291A51A 
 125      D364880F 
 125      A5A4
 126 00b9 EA2ACADF 		.ascii	"\352*\312\337\233\255\342\270(\245\264f\227]\273\374"
 126      9BADE2B8 
 126      28A5B466 
 126      975DBBFC 
 127 00c9 E06E285B 		.ascii	"\340n([k\210\351S\341%\323y\226\366\023\226\301\255"
 127      6B88E953 
 127      E125D379 
ARM GAS  C:\Users\JEFFSN~1\AppData\Local\Temp\cc9QeCZE.s 			page 9


 127      96F61396 
 127      C1AD
 128 00db D3CBCA46 		.ascii	"\323\313\312FO\016\331D\232G5p\010\037\212\340Aq\204"
 128      4F0ED944 
 128      9A473570 
 128      081F8AE0 
 128      417184
 129 00ee 1CA88A54 		.ascii	"\034\250\212Ts\222R\032\216\334s\355.\333-|\240\017"
 129      7392521A 
 129      8EDC73ED 
 129      2EDB2D7C 
 129      A00F
 130 0100 C70CAB22 		.ascii	"\307\014\253\"Y_o*\307\320`\2340\352k\015\303\351tq"
 130      595F6F2A 
 130      C7D0609C 
 130      30EA6B0D 
 130      C3E97471 
 131 0114 536CD3E7 		.ascii	"Sl\323\347{Zh\012\006N\376iop@\202\243wtD\\\364\267"
 131      7B5A680A 
 131      064EFE69 
 131      6F704082 
 131      A3777444 
 132 012b 1864215E 		.ascii	"\030d!^\317?e.\233\261\305\025s)\034\214\256\306\"f"
 132      CF3F652E 
 132      9BB1C515 
 132      73291C8C 
 132      AEC62266 
 133 013f 682E189D 		.ascii	"h.\030\235\030\015\315\314\006\247\303\303\203\021\372"
 133      180DCDCC 
 133      06A7C3C3 
 133      8311FA
 134 014e 05C5737A 		.ascii	"\005\305sz\237"
 134      9F
 135              		.text
 136              		.section	.gnu.lto_.symbol_nodes.f743b405,"",%progbits
 137 0000 789C6361 		.ascii	"x\234ca`dpc\000\002&\206z\006\206\011\347\030@\324\256"
 137      60647063 
 137      00022686 
 137      7A068609 
 137      E71840D4 
 138 0015 0645A000 		.ascii	"\006E\240\000c=#\252\000S=\023\252\000s=3\212\000\003"
 138      633D23AA 
 138      00533D13 
 138      AA00733D 
 138      338A0003 
 139 0029 0026B60F 		.ascii	"\000&\266\017<"
 139      3C
 140              		.text
 141              		.section	.gnu.lto_.refs.f743b405,"",%progbits
 142 0000 789C6361 		.ascii	"x\234ca`\004B \000\000\0009\000\007"
 142      60044220 
 142      00000039 
 142      0007
 143              		.text
 144              		.section	.gnu.lto_.decls.f743b405,"",%progbits
 145 0000 789C8D53 		.ascii	"x\234\215S]H\024Q\024\276gfv\265q\263\260\210}Xh\025"
 145      5D481451 
ARM GAS  C:\Users\JEFFSN~1\AppData\Local\Temp\cc9QeCZE.s 			page 10


 145      14BE6766 
 145      76B571B3 
 145      B0887D58 
 146 0016 029F248B 		.ascii	"\002\237$\213\300\207\376@Iz0C\321^\004Yu0_4\2665\360"
 146      C087FE40 
 146      497A3043 
 146      D15E0459 
 146      75305F34 
 147 002d EDAA2BF4 		.ascii	"\355\252+\364\363\220B\232\232\242E\351\232\233Z\273"
 147      F390429A 
 147      9AA245E9 
 147      9A9B5ABB 
 148 003d ABEEA6B9 		.ascii	"\253\356\246\271I\232\004\202\"Xa\220\240\005\222\205"
 148      499A0482 
 148      22586190 
 148      A0059285 
 149 004d 92043ED8 		.ascii	"\222\004>\330v\356\235\231f\261\015<\314\2319\347\336"
 149      76EE9D99 
 149      66B10D3C 
 149      CC9939E7 
 149      DE
 150 005e F37DE7BB 		.ascii	"\363}\347\273gf$\002\204\331\031\211\220V|\3320\215"
 150      67662402 
 150      84D91989 
 150      90567CDA 
 150      308D
 151 0070 A099302E 		.ascii	"\240\2310.$\206\3416\361\241\007\320G\321C\344_c\373"
 151      2486E136 
 151      F1A107D0 
 151      47D143E4 
 151      5F63FB
 152 0083 660D37C0 		.ascii	"f\0157\300\270\320'\320\307\321s\265\032\320\352v[ "
 152      B8D027D0 
 152      C7D173B5 
 152      1AD0EA76 
 152      5B20
 153 0095 0676320A 		.ascii	"\006v2\012\257c\0031\260L\217)\012\227\033\0037\032"
 153      AF630331 
 153      B04C8F29 
 153      0A971B03 
 153      371A
 154 00a7 0317DA03 		.ascii	"\003\027\332\003.\3269w\004\210t\371\357\306/\301G\020"
 154      2ED63977 
 154      048874F9 
 154      EFC62FC1 
 154      4710
 155 00b9 89364002 		.ascii	"\2116@\002\240\336\201;Q\235\247\030\010D\015\364\245"
 155      A0DE813B 
 155      519DA718 
 155      08440DF4 
 155      A5
 156 00ca BF46B412 		.ascii	"\277F\264\022A\017\0152~ix\210\350\306I\014v\320@j\256"
 156      410F0D32 
 156      7E697888 
 156      E8C6490C 
 156      76D0406A 
 157 00df EBD64020 		.ascii	"\353\326@ \030\015@MuD\024\337.E\272f\275\015\021\364"
ARM GAS  C:\Users\JEFFSN~1\AppData\Local\Temp\cc9QeCZE.s 			page 11


 157      180D404D 
 157      754414DF 
 157      2E45BA66 
 157      BD0D11F4 
 158 00f3 437F7833 		.ascii	"C\177x3\221,\012\300\302\317\333\236\013i^\212\326H"
 158      912C0AC0 
 158      C2CFDB9E 
 158      0B695E8A 
 158      D648
 159 0105 A970D418 		.ascii	"\251p\324\030\314`\303j_\374\226\0006\031\"\300\362"
 159      CC60C36A 
 159      5FFC9600 
 159      361922C0 
 159      F2
 160 0116 F5E0F67E 		.ascii	"\365\340\366~5g\333mM+\277\023D+\213\205\205\225\376"
 160      3567DB6D 
 160      4D2BBF13 
 160      442B8B85 
 160      8595FE
 161 0129 350952E5 		.ascii	"5\011R\345\036F\263\274\263z6H\351A\030\000\031\274"
 161      1E46B3BC 
 161      B37A3648 
 161      E9411800 
 161      19BC
 162 013b 20421FA4 		.ascii	" B\037\2441\0116\031\3577)\255\243\033\217\250\331J"
 162      31093619 
 162      EF3729AD 
 162      A31B8FA8 
 162      D94A
 163 014d E0A40D8E 		.ascii	"\340\244\015\216\333\010<\203T\306\311\252\240\037l"
 163      DB083C83 
 163      54C6C9AA 
 163      A01F6C
 164 015c F0146C8C 		.ascii	"\360\024l\214\377\313\375\256of\011\025s\236\022\211"
 164      FFCBFDAE 
 164      6F660915 
 164      739E1289 
 165 016c ADCDBB87 		.ascii	"\255\315\273\207:D\224\220$\203\204\351\346l\373J\""
 165      3A449490 
 165      248384E9 
 165      E66CFB4A 
 165      22
 166 017d A68765B0 		.ascii	"\246\207e\260c\352\015}Z7[[\370Q\352\251]\202\302#\360"
 166      63EA0D7D 
 166      5A375B5B 
 166      F851EAA9 
 166      5D82C223 
 167 0192 1C098790 		.ascii	"\034\011\207\220\220\300\013\260\342}\020$\365t\275"
 167      90C00BB0 
 167      E27D1024 
 167      F574BD
 168 01a1 F7BE7A4D 		.ascii	"\367\276zM)\335\264{\210.7M\237n\251\2473\210\263\263"
 168      29DDB47B 
 168      882E374D 
 168      9F6EA9A7 
 168      3388B3B3 
 169 01b5 32F018A2 		.ascii	"2\360\030\242=\354\263 \320\013K8B\037\244 r\252\355"
ARM GAS  C:\Users\JEFFSN~1\AppData\Local\Temp\cc9QeCZE.s 			page 12


 169      3DECB320 
 169      D00B4B38 
 169      421FA420 
 169      72AAED
 170 01c8 576FA2E8 		.ascii	"Wo\242\350\340C\350|\3349\275Oe\011oM[hc-\245\3479\207"
 170      E043E87C 
 170      DC39BD4F 
 170      65096F4D 
 170      5B68632D 
 171 01e0 DFE0F047 		.ascii	"\337\340\360Gs\0048G\337\373'#f\261\232s\314\335\231"
 171      73043847 
 171      DFFB2723 
 171      66B19A73 
 171      CCDD99
 172 01f3 AA3F102D 		.ascii	"\252?\020-\233\235\327\320=\302u\227h\262\347\334\036"
 172      9B9DD7D0 
 172      3DC27597 
 172      68B2E7DC 
 172      1E
 173 0204 AAC90E2F 		.ascii	"\252\311\016/\274\025\333h\330\2158\201U\301\260\321"
 173      BC15DB68 
 173      D88D3881 
 173      55C1B0D1 
 174 0214 7238BAE5 		.ascii	"r8\272\345(o\031\364m\376\220\304Z\340=\033z\002\307"
 174      286F19F4 
 174      6DFE90C4 
 174      5AE03D1B 
 174      7A02C7
 175 0227 3496D03B 		.ascii	"4\226\320;]6\343\010\032\034\301h\216\020\347\330r\377"
 175      5D36E308 
 175      1A1CC168 
 175      8E10E7D8 
 175      72FF
 176 0239 5C34CBF8 		.ascii	"\\4\313\370\016\353\367\366\016g\327\036F\342\304{\274"
 176      0EEBF7F6 
 176      0E67D71E 
 176      46E2C47B 
 176      BC
 177 024a A7E06B6E 		.ascii	"\247\340knk\216\00395\006\374U\014\270\366-y\013\232"
 177      6B8E0339 
 177      3506FC55 
 177      0CB8F62D 
 177      790B9A
 178 025d 6EB1038E 		.ascii	"n\261\003\216\343P\306\014q/AV\007\342\237\373>h\262"
 178      E350C60C 
 178      712F4156 
 178      07E29FFB 
 178      3E68B2
 179 0270 DC669F15 		.ascii	"\334f\237\025N/i&\221W\032\343\233\000\013\377\001\360"
 179      4E2F6926 
 179      91571AE3 
 179      9B000BFF 
 179      01F0
 180 0282 B9238863 		.ascii	"\271#\210c\213\017:D\334c\227\334NQ\012\235\007\230"
 180      8B0F3A44 
 180      DC6397DC 
 180      4E510A9D 
ARM GAS  C:\Users\JEFFSN~1\AppData\Local\Temp\cc9QeCZE.s 			page 13


 180      0798
 181 0294 44329E6C 		.ascii	"D2\236l\234\3431[\246\033u\324\334\232\250K$|\203@\030"
 181      9CE3315B 
 181      A61B75D4 
 181      DC9AA84B 
 181      247C8340 
 182 02a9 91AF9198 		.ascii	"\221\257\221\230\247\226\234\334\374\213\305'\212\257"
 182      A7969CDC 
 182      FC8BC527 
 182      8AAF
 183 02b7 382B5C4A 		.ascii	"8+\\J|\366\245\002{fz:1UWT\2722\222\263\225J\305\351"
 183      7CF6A502 
 183      7B667A3A 
 183      31555754 
 183      BA3292B3 
 184 02cf 702965C5 		.ascii	"p)e\305\371U\325\316R\245\350r~U\346\251\242\322\032"
 184      F955D5CE 
 184      52A5E872 
 184      7E55E6A9 
 184      A2D21A
 185 02e2 57CD35E5 		.ascii	"W\3155\345z\332Ub\377O\205J\232VJ\016i\364\371\212+"
 185      7ADA5562 
 185      FF4F854A 
 185      9A564A0E 
 185      69F4F98A 
 186 02f7 CB597143 		.ascii	"\313YqC\311\251*S\022\264\265<\305Q\226\024\025g9\\"
 186      C9A92A53 
 186      12B4B53C 
 186      C5519614 
 186      1567395C 
 187 030b 8E3CA55C 		.ascii	"\216<\245\\r*\345\031\177\000\036\205_*"
 187      722AE519 
 187      7F001E85 
 187      5F2A
 188              		.text
 189              		.section	.gnu.lto_.symtab.f743b405,"",%progbits
 190 0000 4D4F5349 		.ascii	"MOSI_2_Write\000"
 190      5F325F57 
 190      72697465 
 190      00
 191 000d 00       		.ascii	"\000"
 192 000e 00       		.ascii	"\000"
 193 000f 00       		.ascii	"\000"
 194 0010 00000000 		.ascii	"\000\000\000\000\000\000\000\000"
 194      00000000 
 195 0018 B3000000 		.ascii	"\263\000\000\000"
 196 001c 4D4F5349 		.ascii	"MOSI_2_SetDriveMode\000"
 196      5F325F53 
 196      65744472 
 196      6976654D 
 196      6F646500 
 197 0030 00       		.ascii	"\000"
 198 0031 00       		.ascii	"\000"
 199 0032 00       		.ascii	"\000"
 200 0033 00000000 		.ascii	"\000\000\000\000\000\000\000\000"
 200      00000000 
 201 003b B5000000 		.ascii	"\265\000\000\000"
ARM GAS  C:\Users\JEFFSN~1\AppData\Local\Temp\cc9QeCZE.s 			page 14


 202 003f 4D4F5349 		.ascii	"MOSI_2_Read\000"
 202      5F325F52 
 202      65616400 
 203 004b 00       		.ascii	"\000"
 204 004c 00       		.ascii	"\000"
 205 004d 00       		.ascii	"\000"
 206 004e 00000000 		.ascii	"\000\000\000\000\000\000\000\000"
 206      00000000 
 207 0056 B8000000 		.ascii	"\270\000\000\000"
 208 005a 4D4F5349 		.ascii	"MOSI_2_ReadDataReg\000"
 208      5F325F52 
 208      65616444 
 208      61746152 
 208      656700
 209 006d 00       		.ascii	"\000"
 210 006e 00       		.ascii	"\000"
 211 006f 00       		.ascii	"\000"
 212 0070 00000000 		.ascii	"\000\000\000\000\000\000\000\000"
 212      00000000 
 213 0078 BA000000 		.ascii	"\272\000\000\000"
 214              		.text
 215              		.section	.gnu.lto_.opts,"",%progbits
 216 0000 272D666D 		.ascii	"'-fmath-errno' '-fsigned-zeros' '-ftrapping-math' '"
 216      6174682D 
 216      6572726E 
 216      6F272027 
 216      2D667369 
 217 0033 2D666E6F 		.ascii	"-fno-trapv' '-fno-openmp' '-fno-openacc' '-mcpu=cor"
 217      2D747261 
 217      70762720 
 217      272D666E 
 217      6F2D6F70 
 218 0066 7465782D 		.ascii	"tex-m3' '-mthumb' '-g' '-O3' '-ffunction-sections' "
 218      6D332720 
 218      272D6D74 
 218      68756D62 
 218      2720272D 
 219 0099 272D6666 		.ascii	"'-ffat-lto-objects' '-finline-functions' '-flto'\000"
 219      61742D6C 
 219      746F2D6F 
 219      626A6563 
 219      74732720 
 220              		.text
 221              		.cfi_sections	.debug_frame
 222              		.section	.text.MOSI_2_Write,"ax",%progbits
 223              		.align	2
 224              		.global	MOSI_2_Write
 225              		.thumb
 226              		.thumb_func
 227              		.type	MOSI_2_Write, %function
 228              	MOSI_2_Write:
 229              	.LFB0:
 230              		.file 1 "Generated_Source\\PSoC5\\MOSI_2.c"
   1:Generated_Source\PSoC5/MOSI_2.c **** /*******************************************************************************
   2:Generated_Source\PSoC5/MOSI_2.c **** * File Name: MOSI_2.c  
   3:Generated_Source\PSoC5/MOSI_2.c **** * Version 2.20
   4:Generated_Source\PSoC5/MOSI_2.c **** *
ARM GAS  C:\Users\JEFFSN~1\AppData\Local\Temp\cc9QeCZE.s 			page 15


   5:Generated_Source\PSoC5/MOSI_2.c **** * Description:
   6:Generated_Source\PSoC5/MOSI_2.c **** *  This file contains API to enable firmware control of a Pins component.
   7:Generated_Source\PSoC5/MOSI_2.c **** *
   8:Generated_Source\PSoC5/MOSI_2.c **** * Note:
   9:Generated_Source\PSoC5/MOSI_2.c **** *
  10:Generated_Source\PSoC5/MOSI_2.c **** ********************************************************************************
  11:Generated_Source\PSoC5/MOSI_2.c **** * Copyright 2008-2015, Cypress Semiconductor Corporation.  All rights reserved.
  12:Generated_Source\PSoC5/MOSI_2.c **** * You may use this file only in accordance with the license, terms, conditions, 
  13:Generated_Source\PSoC5/MOSI_2.c **** * disclaimers, and limitations in the end user license agreement accompanying 
  14:Generated_Source\PSoC5/MOSI_2.c **** * the software package with which this file was provided.
  15:Generated_Source\PSoC5/MOSI_2.c **** *******************************************************************************/
  16:Generated_Source\PSoC5/MOSI_2.c **** 
  17:Generated_Source\PSoC5/MOSI_2.c **** #include "cytypes.h"
  18:Generated_Source\PSoC5/MOSI_2.c **** #include "MOSI_2.h"
  19:Generated_Source\PSoC5/MOSI_2.c **** 
  20:Generated_Source\PSoC5/MOSI_2.c **** /* APIs are not generated for P15[7:6] on PSoC 5 */
  21:Generated_Source\PSoC5/MOSI_2.c **** #if !(CY_PSOC5A &&\
  22:Generated_Source\PSoC5/MOSI_2.c **** 	 MOSI_2__PORT == 15 && ((MOSI_2__MASK & 0xC0) != 0))
  23:Generated_Source\PSoC5/MOSI_2.c **** 
  24:Generated_Source\PSoC5/MOSI_2.c **** 
  25:Generated_Source\PSoC5/MOSI_2.c **** /*******************************************************************************
  26:Generated_Source\PSoC5/MOSI_2.c **** * Function Name: MOSI_2_Write
  27:Generated_Source\PSoC5/MOSI_2.c **** ****************************************************************************//**
  28:Generated_Source\PSoC5/MOSI_2.c **** *
  29:Generated_Source\PSoC5/MOSI_2.c **** * \brief Writes the value to the physical port (data output register), masking
  30:Generated_Source\PSoC5/MOSI_2.c **** *  and shifting the bits appropriately. 
  31:Generated_Source\PSoC5/MOSI_2.c **** *
  32:Generated_Source\PSoC5/MOSI_2.c **** * The data output register controls the signal applied to the physical pin in 
  33:Generated_Source\PSoC5/MOSI_2.c **** * conjunction with the drive mode parameter. This function avoids changing 
  34:Generated_Source\PSoC5/MOSI_2.c **** * other bits in the port by using the appropriate method (read-modify-write or
  35:Generated_Source\PSoC5/MOSI_2.c **** * bit banding).
  36:Generated_Source\PSoC5/MOSI_2.c **** *
  37:Generated_Source\PSoC5/MOSI_2.c **** * <b>Note</b> This function should not be used on a hardware digital output pin 
  38:Generated_Source\PSoC5/MOSI_2.c **** * as it is driven by the hardware signal attached to it.
  39:Generated_Source\PSoC5/MOSI_2.c **** *
  40:Generated_Source\PSoC5/MOSI_2.c **** * \param value
  41:Generated_Source\PSoC5/MOSI_2.c **** *  Value to write to the component instance.
  42:Generated_Source\PSoC5/MOSI_2.c **** *
  43:Generated_Source\PSoC5/MOSI_2.c **** * \return 
  44:Generated_Source\PSoC5/MOSI_2.c **** *  None 
  45:Generated_Source\PSoC5/MOSI_2.c **** *
  46:Generated_Source\PSoC5/MOSI_2.c **** * \sideeffect
  47:Generated_Source\PSoC5/MOSI_2.c **** *  If you use read-modify-write operations that are not atomic; the Interrupt 
  48:Generated_Source\PSoC5/MOSI_2.c **** *  Service Routines (ISR) can cause corruption of this function. An ISR that 
  49:Generated_Source\PSoC5/MOSI_2.c **** *  interrupts this function and performs writes to the Pins component data 
  50:Generated_Source\PSoC5/MOSI_2.c **** *  register can cause corrupted port data. To avoid this issue, you should 
  51:Generated_Source\PSoC5/MOSI_2.c **** *  either use the Per-Pin APIs (primary method) or disable interrupts around 
  52:Generated_Source\PSoC5/MOSI_2.c **** *  this function.
  53:Generated_Source\PSoC5/MOSI_2.c **** *
  54:Generated_Source\PSoC5/MOSI_2.c **** * \funcusage
  55:Generated_Source\PSoC5/MOSI_2.c **** *  \snippet MOSI_2_SUT.c usage_MOSI_2_Write
  56:Generated_Source\PSoC5/MOSI_2.c **** *******************************************************************************/
  57:Generated_Source\PSoC5/MOSI_2.c **** void MOSI_2_Write(uint8 value)
  58:Generated_Source\PSoC5/MOSI_2.c **** {
 231              		.loc 1 58 0
 232              		.cfi_startproc
 233              		@ args = 0, pretend = 0, frame = 0
ARM GAS  C:\Users\JEFFSN~1\AppData\Local\Temp\cc9QeCZE.s 			page 16


 234              		@ frame_needed = 0, uses_anonymous_args = 0
 235              		@ link register save eliminated.
 236              	.LVL0:
  59:Generated_Source\PSoC5/MOSI_2.c ****     uint8 staticBits = (MOSI_2_DR & (uint8)(~MOSI_2_MASK));
 237              		.loc 1 59 0
 238 0000 044A     		ldr	r2, .L2
  60:Generated_Source\PSoC5/MOSI_2.c ****     MOSI_2_DR = staticBits | ((uint8)(value << MOSI_2_SHIFT) & MOSI_2_MASK);
 239              		.loc 1 60 0
 240 0002 0001     		lsls	r0, r0, #4
 241              	.LVL1:
  59:Generated_Source\PSoC5/MOSI_2.c ****     uint8 staticBits = (MOSI_2_DR & (uint8)(~MOSI_2_MASK));
 242              		.loc 1 59 0
 243 0004 1378     		ldrb	r3, [r2]	@ zero_extendqisi2
 244              	.LVL2:
 245              		.loc 1 60 0
 246 0006 00F01000 		and	r0, r0, #16
 247 000a 03F0EF03 		and	r3, r3, #239
 248              	.LVL3:
 249 000e 1843     		orrs	r0, r0, r3
 250 0010 1070     		strb	r0, [r2]
 251 0012 7047     		bx	lr
 252              	.L3:
 253              		.align	2
 254              	.L2:
 255 0014 C0510040 		.word	1073762752
 256              		.cfi_endproc
 257              	.LFE0:
 258              		.size	MOSI_2_Write, .-MOSI_2_Write
 259              		.section	.text.MOSI_2_SetDriveMode,"ax",%progbits
 260              		.align	2
 261              		.global	MOSI_2_SetDriveMode
 262              		.thumb
 263              		.thumb_func
 264              		.type	MOSI_2_SetDriveMode, %function
 265              	MOSI_2_SetDriveMode:
 266              	.LFB1:
  61:Generated_Source\PSoC5/MOSI_2.c **** }
  62:Generated_Source\PSoC5/MOSI_2.c **** 
  63:Generated_Source\PSoC5/MOSI_2.c **** 
  64:Generated_Source\PSoC5/MOSI_2.c **** /*******************************************************************************
  65:Generated_Source\PSoC5/MOSI_2.c **** * Function Name: MOSI_2_SetDriveMode
  66:Generated_Source\PSoC5/MOSI_2.c **** ****************************************************************************//**
  67:Generated_Source\PSoC5/MOSI_2.c **** *
  68:Generated_Source\PSoC5/MOSI_2.c **** * \brief Sets the drive mode for each of the Pins component's pins.
  69:Generated_Source\PSoC5/MOSI_2.c **** * 
  70:Generated_Source\PSoC5/MOSI_2.c **** * <b>Note</b> This affects all pins in the Pins component instance. Use the
  71:Generated_Source\PSoC5/MOSI_2.c **** * Per-Pin APIs if you wish to control individual pin's drive modes.
  72:Generated_Source\PSoC5/MOSI_2.c **** *
  73:Generated_Source\PSoC5/MOSI_2.c **** * \param mode
  74:Generated_Source\PSoC5/MOSI_2.c **** *  Mode for the selected signals. Valid options are documented in 
  75:Generated_Source\PSoC5/MOSI_2.c **** *  \ref driveMode.
  76:Generated_Source\PSoC5/MOSI_2.c **** *
  77:Generated_Source\PSoC5/MOSI_2.c **** * \return
  78:Generated_Source\PSoC5/MOSI_2.c **** *  None
  79:Generated_Source\PSoC5/MOSI_2.c **** *
  80:Generated_Source\PSoC5/MOSI_2.c **** * \sideeffect
  81:Generated_Source\PSoC5/MOSI_2.c **** *  If you use read-modify-write operations that are not atomic, the ISR can
ARM GAS  C:\Users\JEFFSN~1\AppData\Local\Temp\cc9QeCZE.s 			page 17


  82:Generated_Source\PSoC5/MOSI_2.c **** *  cause corruption of this function. An ISR that interrupts this function 
  83:Generated_Source\PSoC5/MOSI_2.c **** *  and performs writes to the Pins component Drive Mode registers can cause 
  84:Generated_Source\PSoC5/MOSI_2.c **** *  corrupted port data. To avoid this issue, you should either use the Per-Pin
  85:Generated_Source\PSoC5/MOSI_2.c **** *  APIs (primary method) or disable interrupts around this function.
  86:Generated_Source\PSoC5/MOSI_2.c **** *
  87:Generated_Source\PSoC5/MOSI_2.c **** * \funcusage
  88:Generated_Source\PSoC5/MOSI_2.c **** *  \snippet MOSI_2_SUT.c usage_MOSI_2_SetDriveMode
  89:Generated_Source\PSoC5/MOSI_2.c **** *******************************************************************************/
  90:Generated_Source\PSoC5/MOSI_2.c **** void MOSI_2_SetDriveMode(uint8 mode)
  91:Generated_Source\PSoC5/MOSI_2.c **** {
 267              		.loc 1 91 0
 268              		.cfi_startproc
 269              		@ args = 0, pretend = 0, frame = 0
 270              		@ frame_needed = 0, uses_anonymous_args = 0
 271              		@ link register save eliminated.
 272              	.LVL4:
  92:Generated_Source\PSoC5/MOSI_2.c **** 	CyPins_SetPinDriveMode(MOSI_2_0, mode);
 273              		.loc 1 92 0
 274 0000 044A     		ldr	r2, .L5
 275 0002 00F00E00 		and	r0, r0, #14
 276              	.LVL5:
 277 0006 1378     		ldrb	r3, [r2]	@ zero_extendqisi2
 278 0008 03F0F103 		and	r3, r3, #241
 279 000c 1843     		orrs	r0, r0, r3
 280 000e 1070     		strb	r0, [r2]
 281 0010 7047     		bx	lr
 282              	.L6:
 283 0012 00BF     		.align	2
 284              	.L5:
 285 0014 64500040 		.word	1073762404
 286              		.cfi_endproc
 287              	.LFE1:
 288              		.size	MOSI_2_SetDriveMode, .-MOSI_2_SetDriveMode
 289              		.section	.text.MOSI_2_Read,"ax",%progbits
 290              		.align	2
 291              		.global	MOSI_2_Read
 292              		.thumb
 293              		.thumb_func
 294              		.type	MOSI_2_Read, %function
 295              	MOSI_2_Read:
 296              	.LFB2:
  93:Generated_Source\PSoC5/MOSI_2.c **** }
  94:Generated_Source\PSoC5/MOSI_2.c **** 
  95:Generated_Source\PSoC5/MOSI_2.c **** 
  96:Generated_Source\PSoC5/MOSI_2.c **** /*******************************************************************************
  97:Generated_Source\PSoC5/MOSI_2.c **** * Function Name: MOSI_2_Read
  98:Generated_Source\PSoC5/MOSI_2.c **** ****************************************************************************//**
  99:Generated_Source\PSoC5/MOSI_2.c **** *
 100:Generated_Source\PSoC5/MOSI_2.c **** * \brief Reads the associated physical port (pin status register) and masks 
 101:Generated_Source\PSoC5/MOSI_2.c **** *  the required bits according to the width and bit position of the component
 102:Generated_Source\PSoC5/MOSI_2.c **** *  instance. 
 103:Generated_Source\PSoC5/MOSI_2.c **** *
 104:Generated_Source\PSoC5/MOSI_2.c **** * The pin's status register returns the current logic level present on the 
 105:Generated_Source\PSoC5/MOSI_2.c **** * physical pin.
 106:Generated_Source\PSoC5/MOSI_2.c **** *
 107:Generated_Source\PSoC5/MOSI_2.c **** * \return 
 108:Generated_Source\PSoC5/MOSI_2.c **** *  The current value for the pins in the component as a right justified number.
ARM GAS  C:\Users\JEFFSN~1\AppData\Local\Temp\cc9QeCZE.s 			page 18


 109:Generated_Source\PSoC5/MOSI_2.c **** *
 110:Generated_Source\PSoC5/MOSI_2.c **** * \funcusage
 111:Generated_Source\PSoC5/MOSI_2.c **** *  \snippet MOSI_2_SUT.c usage_MOSI_2_Read  
 112:Generated_Source\PSoC5/MOSI_2.c **** *******************************************************************************/
 113:Generated_Source\PSoC5/MOSI_2.c **** uint8 MOSI_2_Read(void)
 114:Generated_Source\PSoC5/MOSI_2.c **** {
 297              		.loc 1 114 0
 298              		.cfi_startproc
 299              		@ args = 0, pretend = 0, frame = 0
 300              		@ frame_needed = 0, uses_anonymous_args = 0
 301              		@ link register save eliminated.
 115:Generated_Source\PSoC5/MOSI_2.c ****     return (MOSI_2_PS & MOSI_2_MASK) >> MOSI_2_SHIFT;
 302              		.loc 1 115 0
 303 0000 024B     		ldr	r3, .L8
 304 0002 1878     		ldrb	r0, [r3]	@ zero_extendqisi2
 116:Generated_Source\PSoC5/MOSI_2.c **** }
 305              		.loc 1 116 0
 306 0004 C0F30010 		ubfx	r0, r0, #4, #1
 307 0008 7047     		bx	lr
 308              	.L9:
 309 000a 00BF     		.align	2
 310              	.L8:
 311 000c C1510040 		.word	1073762753
 312              		.cfi_endproc
 313              	.LFE2:
 314              		.size	MOSI_2_Read, .-MOSI_2_Read
 315              		.section	.text.MOSI_2_ReadDataReg,"ax",%progbits
 316              		.align	2
 317              		.global	MOSI_2_ReadDataReg
 318              		.thumb
 319              		.thumb_func
 320              		.type	MOSI_2_ReadDataReg, %function
 321              	MOSI_2_ReadDataReg:
 322              	.LFB3:
 117:Generated_Source\PSoC5/MOSI_2.c **** 
 118:Generated_Source\PSoC5/MOSI_2.c **** 
 119:Generated_Source\PSoC5/MOSI_2.c **** /*******************************************************************************
 120:Generated_Source\PSoC5/MOSI_2.c **** * Function Name: MOSI_2_ReadDataReg
 121:Generated_Source\PSoC5/MOSI_2.c **** ****************************************************************************//**
 122:Generated_Source\PSoC5/MOSI_2.c **** *
 123:Generated_Source\PSoC5/MOSI_2.c **** * \brief Reads the associated physical port's data output register and masks 
 124:Generated_Source\PSoC5/MOSI_2.c **** *  the correct bits according to the width and bit position of the component 
 125:Generated_Source\PSoC5/MOSI_2.c **** *  instance. 
 126:Generated_Source\PSoC5/MOSI_2.c **** *
 127:Generated_Source\PSoC5/MOSI_2.c **** * The data output register controls the signal applied to the physical pin in 
 128:Generated_Source\PSoC5/MOSI_2.c **** * conjunction with the drive mode parameter. This is not the same as the 
 129:Generated_Source\PSoC5/MOSI_2.c **** * preferred MOSI_2_Read() API because the 
 130:Generated_Source\PSoC5/MOSI_2.c **** * MOSI_2_ReadDataReg() reads the data register instead of the status 
 131:Generated_Source\PSoC5/MOSI_2.c **** * register. For output pins this is a useful function to determine the value 
 132:Generated_Source\PSoC5/MOSI_2.c **** * just written to the pin.
 133:Generated_Source\PSoC5/MOSI_2.c **** *
 134:Generated_Source\PSoC5/MOSI_2.c **** * \return 
 135:Generated_Source\PSoC5/MOSI_2.c **** *  The current value of the data register masked and shifted into a right 
 136:Generated_Source\PSoC5/MOSI_2.c **** *  justified number for the component instance.
 137:Generated_Source\PSoC5/MOSI_2.c **** *
 138:Generated_Source\PSoC5/MOSI_2.c **** * \funcusage
 139:Generated_Source\PSoC5/MOSI_2.c **** *  \snippet MOSI_2_SUT.c usage_MOSI_2_ReadDataReg 
ARM GAS  C:\Users\JEFFSN~1\AppData\Local\Temp\cc9QeCZE.s 			page 19


 140:Generated_Source\PSoC5/MOSI_2.c **** *******************************************************************************/
 141:Generated_Source\PSoC5/MOSI_2.c **** uint8 MOSI_2_ReadDataReg(void)
 142:Generated_Source\PSoC5/MOSI_2.c **** {
 323              		.loc 1 142 0
 324              		.cfi_startproc
 325              		@ args = 0, pretend = 0, frame = 0
 326              		@ frame_needed = 0, uses_anonymous_args = 0
 327              		@ link register save eliminated.
 143:Generated_Source\PSoC5/MOSI_2.c ****     return (MOSI_2_DR & MOSI_2_MASK) >> MOSI_2_SHIFT;
 328              		.loc 1 143 0
 329 0000 024B     		ldr	r3, .L11
 330 0002 1878     		ldrb	r0, [r3]	@ zero_extendqisi2
 144:Generated_Source\PSoC5/MOSI_2.c **** }
 331              		.loc 1 144 0
 332 0004 C0F30010 		ubfx	r0, r0, #4, #1
 333 0008 7047     		bx	lr
 334              	.L12:
 335 000a 00BF     		.align	2
 336              	.L11:
 337 000c C0510040 		.word	1073762752
 338              		.cfi_endproc
 339              	.LFE3:
 340              		.size	MOSI_2_ReadDataReg, .-MOSI_2_ReadDataReg
 341              		.text
 342              	.Letext0:
 343              		.file 2 "Generated_Source\\PSoC5\\cytypes.h"