ARM GAS  C:\Users\JEFFSN~1\AppData\Local\Temp\ccIiZwah.s 			page 1


   1              		.syntax unified
   2              		.cpu cortex-m3
   3              		.fpu softvfp
   4              		.eabi_attribute 20, 1
   5              		.eabi_attribute 21, 1
   6              		.eabi_attribute 23, 3
   7              		.eabi_attribute 24, 1
   8              		.eabi_attribute 25, 1
   9              		.eabi_attribute 26, 1
  10              		.eabi_attribute 30, 2
  11              		.eabi_attribute 34, 1
  12              		.eabi_attribute 18, 4
  13              		.thumb
  14              		.syntax unified
  15              		.file	"MOSI_1.c"
  16              		.text
  17              	.Ltext0:
  18              		.section	.gnu.lto_.profile.807c9b86,"",%progbits
  19 0000 789C6361 		.ascii	"x\234ca`d`a`\000\222\222\242\000\000\261\0009"
  19      60646061 
  19      60009292 
  19      A20000B1 
  19      0039
  20              		.text
  21              		.section	.gnu.lto_.icf.807c9b86,"",%progbits
  22 0000 789C6361 		.ascii	"x\234ca`d\000\001)\006\004`a\350\374?\341\033\007\343"
  22      60640001 
  22      29060460 
  22      61E8FC3F 
  22      E11B07E3 
  23 0014 95B3978E 		.ascii	"\225\263\227\21612\335\\\361s\"+\363\2529\037\02732"
  23      3132DD5C 
  23      F173222B 
  23      F3AA391F 
  23      173332
  24 0027 0000ACEA 		.ascii	"\000\000\254\352\014e"
  24      0C65
  25              		.text
  26              		.section	.gnu.lto_.jmpfuncs.807c9b86,"",%progbits
  27 0000 789C6361 		.ascii	"x\234ca`d\000\001!\006\004`a`dd\254g\004\021L\014\014"
  27      60640001 
  27      21060460 
  27      61606464 
  27      AC670411 
  28 0017 CC401100 		.ascii	"\314@\021\000\016\"\001&"
  28      0E220126 
  29              		.text
  30              		.section	.gnu.lto_.inline.807c9b86,"",%progbits
  31 0000 789C6361 		.ascii	"x\234ca`d\000\201$\006\004`a`\340\344`dd\340\000J1s"
  31      60640081 
  31      24060460 
  31      6160E0E4 
  31      606464E0 
  32 0018 1CB06360 		.ascii	"\034\260c`[ \317\304\300\262@\236\005$\013\024g\307"
  32      5B20CFC4 
  32      C0B2409E 
  32      05240B14 
ARM GAS  C:\Users\JEFFSN~1\AppData\Local\Temp\ccIiZwah.s 			page 2


  32      67C7
  33 002a 9064BAC0 		.ascii	"\220d\272\300\017\226db`ced`b\373\240\007\021\007\002"
  33      0F966462 
  33      60636564 
  33      6062FBA0 
  33      07110702 
  34 003e 664C2106 		.ascii	"fL!\006\000\346\332\011\346"
  34      00E6DA09 
  34      E6
  35              		.text
  36              		.section	.gnu.lto_.pureconst.807c9b86,"",%progbits
  37 0000 789C6361 		.ascii	"x\234ca`d\340d```a\220b\224b\222b\226\002\000\002\261"
  37      6064E064 
  37      60606061 
  37      90629462 
  37      92629602 
  38 0017 0081     		.ascii	"\000\201"
  39              		.text
  40              		.section	.gnu.lto_MOSI_1_Write.807c9b86,"",%progbits
  41 0000 789C5551 		.ascii	"x\234UQ\337K\024Q\024>\337\2753\263\326\252\377@\373"
  41      DF4B1451 
  41      143EDFBD 
  41      33B3D6AA 
  41      FF40FB
  42 0013 B010224B 		.ascii	"\260\020\"K\020\205\364\017\324C\364 F\373\272 \313"
  42      1085F40F 
  42      D443F420 
  42      46FBBA20 
  42      CB
  43 0024 360F4225 		.ascii	"6\017B%\350\332\253w\034w%C\360%\367\311\004E\334R\327"
  43      E8DAAB77 
  43      1C772543 
  43      F025F7C9 
  43      0445DC52 
  44 0039 34088AA0 		.ascii	"4\010\212\240a\376\200\"\260\227\250\020\211\011z\332"
  44      61FE8022 
  44      B097A810 
  44      89097ADA 
  45 0049 A84D4B6B 		.ascii	"\250MKk;gf\037\362\300\3751g\276\357;\3379\327\"\220"
  45      3B67661F 
  45      F2C0FD31 
  45      67BEEF3B 
  45      DF39D722 
  46 005e C4394534 		.ascii	"\3049E4\300\347\031^\320\0045\377\232\310\353R\200\\"
  46      C0E7195E 
  46      D00435FF 
  46      9AC8EB52 
  46      805C
  47 0070 4C176852 		.ascii	"L\027hRa\022-\365G!\234\211\236\253\334\232\341\330"
  47      61122DF5 
  47      47219C89 
  47      9EABDC9A 
  47      E1D8
  48 0082 5B7DA84D 		.ascii	"[}\250M=@E\023\265U\254DXC\216Q_^\316\354B\237\005\361"
  48      3D404513 
  48      B555AC44 
  48      58438E51 
ARM GAS  C:\Users\JEFFSN~1\AppData\Local\Temp\ccIiZwah.s 			page 3


  48      5F5ECEEC 
  49 009a BD1AB69A 		.ascii	"\275\032\266\232\351\376Uc\246\214\371^0\272\242\201"
  49      E9FE5563 
  49      A68CF95E 
  49      30BAA281 
  50 00aa 3A343330 		.ascii	":430\220\301\205\014q\202\360\010\375\002>|\277\333"
  50      90C1850C 
  50      7182F008 
  50      FD023E7C 
  50      BFDB
  51 00bc E8D5B998 		.ascii	"\350\325\271\2308o\242\345\356\276\025!\006\007\267"
  51      386FA2E5 
  51      EEBE1521 
  51      0607B7
  52 00cb 6B26F0B2 		.ascii	"k&\360\262\302}\374?W\202\241\373\333\177\037\3648\323"
  52      C27DFC3F 
  52      5782A1FB 
  52      DB7F1FF4 
  52      38D3
  53 00dd E22A8B75 		.ascii	"\342*\213u\364%~\260\001\207;\204d\266n\004\246\335"
  53      F4257EB0 
  53      01873B84 
  53      64B66E04 
  53      A6DD
  54 00ef F64DD0B2 		.ascii	"\366M\320\262[\372\224\342\242\212;\345\037\026\244"
  54      5BFA94E2 
  54      A28A3BE5 
  54      1F16A4
  55 00fe B62D0947 		.ascii	"\266-\011G\266\224lDM^\322\3757\245\344\324\021\302"
  55      B6946C44 
  55      4D5ED2FD 
  55      37A5E4D4 
  55      11C2
  56 0110 DFB39F6A 		.ascii	"\337\263\237j)\321\364\265Lb\241\022\276I\375P\025\255"
  56      29D1F4B5 
  56      4C62A112 
  56      BE49FD50 
  56      15AD
  57 0122 63B76FEB 		.ascii	"c\267o\353\037k\235\317`\3053\026\247\032\317\366\356"
  57      1F6B9DCF 
  57      60C53316 
  57      A71ACFF6 
  57      EE
  58 0133 752F61D1 		.ascii	"u/a\321\233\346\031Yh \203M\260gla\011\024\301?\256"
  58      9BE61959 
  58      6820834D 
  58      B0676C61 
  58      0914C13F 
  59 0148 7E4022A8 		.ascii	"~@\"\250\023\315\373\277v\336\365\210\010\360\012x\302"
  59      13CDFBBF 
  59      76DEF588 
  59      08F00A78 
  59      C2
  60 0159 E07DA8B8 		.ascii	"\340}\250\270\015v\312(!5\253\321A\307\206\355k\251"
  60      0D76CA28 
  60      2135ABD1 
  60      41C786ED 
ARM GAS  C:\Users\JEFFSN~1\AppData\Local\Temp\ccIiZwah.s 			page 4


  60      6BA9
  61 016b F3F968F3 		.ascii	"\363\371h\363E\257\260l\006n3)\226>\356H\013\216A\313"
  61      45AFB06C 
  61      066E3329 
  61      963EEE48 
  61      0B8E41CB 
  62 017f 3FFDB9B4 		.ascii	"?\375\271\264\200,\004\204\235\004u\350$\230T\354\300"
  62      802C0484 
  62      9D0475E8 
  62      249854EC 
  62      C0
  63 0190 E154B810 		.ascii	"\341T\270\020\323N\270\367\214I\237l\340)7\300,\372"
  63      D34EB8F7 
  63      8C499F6C 
  63      E02937C0 
  63      2CFA
  64 01a2 8AA9E0C8 		.ascii	"\212\251\340\310\026B\374\022M\005\031\026\217.{\325"
  64      1642FC12 
  64      4D051916 
  64      8F2E7BD5 
  65 01b2 BDE38E15 		.ascii	"\275\343\216\025\313\356\315\341\374\350\304X\311-\\"
  65      CBEECDE1 
  65      FCE8C458 
  65      C92D5C
  66 01c1 CF8F5EB9 		.ascii	"\317\217^\271T\030\034\312_\033\276x\276D\366\335\342"
  66      54181CCA 
  66      5F1BBE78 
  66      BE44F6DD 
  66      E2
  67 01d2 AD09F7F4 		.ascii	"\255\011\367\364x\271X\036)]\036)\217\377\003S\235\303"
  67      78B9581E 
  67      295D1E29 
  67      8FFF0353 
  67      9DC3
  68 01e4 2C       		.ascii	","
  69              		.text
  70              		.section	.gnu.lto_MOSI_1_SetDriveMode.807c9b86,"",%progbits
  71 0000 789C7D51 		.ascii	"x\234}Q\273J+Q\024\335\353\234\311L\202\350\017\334"
  71      BB4A2B51 
  71      14DDEB9C 
  71      C94C82E8 
  71      0FDC
  72 0012 148245B0 		.ascii	"\024\202E\260\021E\374\002A\261\020\305\264\212\210"
  72      1145FC02 
  72      41B110C5 
  72      B48A88
  73 0021 4EA941D1 		.ascii	"N\251A\321\332\223\304 h\243\\\264\021Q\220\340\373"
  73      DA93C420 
  73      68A35CB4 
  73      115190E0 
  73      FB
  74 0032 85367631 		.ascii	"\2056v1\240\225hga!b1\210\240\304\027\276\215{\317\334"
  74      A0956867 
  74      61216231 
  74      88A0C417 
  74      BE8D7BCF 
  75 0047 22D53DCC 		.ascii	"\"\325=\314\331\217\305Z\213\275\317X\004\222s\303)"
ARM GAS  C:\Users\JEFFSN~1\AppData\Local\Temp\ccIiZwah.s 			page 5


  75      D98FC55A 
  75      8BBDCF58 
  75      049273C3 
  75      29
  76 0058 C6F90F5F 		.ascii	"\306\371\017_h\202\232:%J\206\025 \205\011\203F\025"
  76      68829A3A 
  76      254A8615 
  76      20850983 
  76      4615
  77 006a 46F1A2BE 		.ascii	"F\361\242\276\025\362\343\336\201\252^6|\256\216\356"
  77      15F2E3DE 
  77      81AA5E36 
  77      7CAE8EEE 
  78 007a 6BCD4A0E 		.ascii	"k\315J\016\031MTT\276\023a\031\325\314z\332\313\376"
  78      194D5454 
  78      BE136119 
  78      D5CC7ADA 
  78      CBFE
  79 008c 2DD35520 		.ascii	"-\323U \256\037N\013\227\025\261\2541)c\246\273\214"
  79      AE1F4E0B 
  79      9715B1AC 
  79      312963A6 
  79      BB8C
  80 009e CE686005 		.ascii	"\316h`\005\232\025\250\217\2426J\014\020V\021\023\362"
  80      9A15A88F 
  80      A2364A0C 
  80      10561113 
  80      F2
  81 00af F5EECF4C 		.ascii	"\365\356\317L\271=&\366\225\201)\326`\313\230\333\035"
  81      B93D26F6 
  81      958129D6 
  81      60CB98DB 
  81      1D
  82 00c0 39532CA6 		.ascii	"9S,\246M\356\325>\374\260\313\024\313\224\346\240-\011"
  82      4DEED53E 
  82      FCB0CB14 
  82      CB94E6A0 
  82      2D09
  83 00d2 2188832D 		.ascii	"!\210\203-\245#!,!\"\034\242\002_Y\344A)\311\332C\376"
  83      A523212C 
  83      21221CA2 
  83      025F59E4 
  83      4129C9DA 
  84 00e8 63C29BB3 		.ascii	"c\302\233\263\3049\255e\251\331L\376\314yV\031m\371"
  84      C439AD65 
  84      A9D94CFE 
  84      CC795619 
  84      6DF9
  85 00fa 13FF2497 		.ascii	"\023\377$\227\336u\320z\213Ic1tr\223\335/_\300|r\214"
  85      DE75D07A 
  85      8B496331 
  85      747293DD 
  85      2F5FC07C 
  86 0110 D70D6103 		.ascii	"\327\015a\003Q\254#\312\323mb\001\344!\365\350\004v"
  86      51AC23CA 
  86      D36D6201 
  86      E421F5E8 
ARM GAS  C:\Users\JEFFSN~1\AppData\Local\Temp\ccIiZwah.s 			page 6


  86      0476
  87 0122 9A1DB94F 		.ascii	"\232\035\271O\177\331Ao1\304\372\213\343\311\357\210"
  87      7FD9416F 
  87      31C4FA8B 
  87      E3C9EF88 
  88 0132 586A0C62 		.ascii	"Xj\014b\213\225%\022\376B\245\022\207!\226\334\235\257"
  88      8B952512 
  88      FE42A512 
  88      872196DC 
  88      9DAF
  89 0144 6FE84052 		.ascii	"o\350@R\201m_\222~\373G\011\373\306N\251K\204Q\356\363"
  89      816D5F92 
  89      7EFB4709 
  89      FBC64EA9 
  89      4B8451EE 
  90 0159 B390FE7F 		.ascii	"\263\220\376\177#\357\360\310\314\247[\244r\237M\302"
  90      23EFF0C8 
  90      CCA75BA4 
  90      729F4DC2 
  91 0169 F67F5D41 		.ascii	"\366\177]AA\236\207\037\253\262\331\035p\207z\206\335"
  91      419E871F 
  91      ABB2D91D 
  91      70877A86 
  91      DD
  92 017a BEEE7862 		.ascii	"\276\356xbd\250\327\355l\217'\032\033:[\333\342-\335"
  92      64A8D7ED 
  92      6C8F271A 
  92      1B3A5BDB 
  92      E22DDD
  93 018d 7535BD64 		.ascii	"u5\275d\365'\372\334_\306%\245\333"
  93      F527FADC 
  93      5FC625A5 
  93      DB
  94              		.text
  95              		.section	.gnu.lto_MOSI_1_Read.807c9b86,"",%progbits
  96 0000 789C354F 		.ascii	"x\2345O\277KBQ\024>\337\275O\237\004\366\017\344\020"
  96      BF4B4251 
  96      143EDFBD 
  96      4F9F04F6 
  96      0FE410
  97 0013 6D2E5144 		.ascii	"m.QD\020\255A\321\020E\016-\202\204\2755Aj\366=\237"
  97      10AD41D1 
  97      10450E2D 
  97      8284BD35 
  97      416AF63D 
  98 0028 AF201A6A 		.ascii	"\257 \032j\250\246r\210P3\211\246\007MO\227\202\240"
  98      A8A67288 
  98      503389A6 
  98      074D4F97 
  98      82A0
  99 003a A6A02922 		.ascii	"\246\240)\"\304\241!J\214\300,;\267g\007\3569\367\236"
  99      C4A1214A 
  99      8CC02C3B 
  99      B76707EE 
  99      39F79E
 100 004d FBFD3847 		.ascii	"\373\3758G#\220\212%.C\\\007\370@\022\304\316-\221\025"
 100      23908A25 
ARM GAS  C:\Users\JEFFSN~1\AppData\Local\Temp\ccIiZwah.s 			page 7


 100      2E435C07 
 100      F84012C4 
 100      CE2D9115 
 101 0061 1280BA98 		.ascii	"\022\200\272\230!PF \203\017\361-p\363y\275\335\027"
 101      21504620 
 101      830FF12D 
 101      70F379BD 
 101      DD17
 102 0073 2D9866D6 		.ascii	"-\230f\326|:iO\034\024=8\222\250+\010c\021\214D\224"
 102      7C3A694F 
 102      1C143D38 
 102      92A82B08 
 102      63118C44 
 103 0088 44015162 		.ascii	"D\001Qb\350\363\305\317^8\23039\006\025\200\177\212"
 103      E8F3C5CF 
 103      5E389833 
 103      39061580 
 103      7F8A
 104 009a 082ACBF3 		.ascii	"\010*\313\363E\317\354vm\323\273\327\253\017\272\016"
 104      45CFEC76 
 104      6DD3BBD7 
 104      AB0FBA0E 
 105 00aa 7224FB72 		.ascii	"r$\373r\3228\211\200JAR\262\364\30645\304\273\020\252"
 105      D2388980 
 105      4A4152B2 
 105      F4C63435 
 105      C4BB10AA 
 106 00be CA066AED 		.ascii	"\312\006j\355\255\307\243I\245dK\311.\373N\355No\011"
 106      ADC7A349 
 106      A5644BC9 
 106      2EFB4EED 
 106      4E6F09
 107 00d1 474A28D3 		.ascii	"GJ(\323\322\256\333\354=\253\307\226\251q\313r+Wz\036"
 107      D2AEDBEC 
 107      3DABC796 
 107      A971CB72 
 107      2B577A1E 
 108 00e5 87568E47 		.ascii	"\207V\216G\325p\212\010J\340AQF\036\324\200\335\231"
 108      D5708A08 
 108      4AE04151 
 108      461ED480 
 108      DD99
 109 00f7 265BC297 		.ascii	"&[\302\227s_\313nX\361\001\217p\306\270\006\262\315"
 109      735FCB6E 
 109      58F1018F 
 109      70C6B806 
 109      B2CD
 110 0109 CD8EF01D 		.ascii	"\315\216\360\0355\006*Js\243\245\371\235\0007\231W\377"
 110      35062A4A 
 110      73A3A5F9 
 110      9D003799 
 110      57FF
 111 011b AA5CF62B 		.ascii	"\252\\\366+\236\340\025+\377\264:|\220\302\321\013z"
 111      9EE0152B 
 111      FFB43A7C 
 111      90C2D10B 
 111      7A
ARM GAS  C:\Users\JEFFSN~1\AppData\Local\Temp\ccIiZwah.s 			page 8


 112 012c 2241FADB 		.ascii	"\"A\372\333\014j#\336op\306X5\322\313k\306J\"\226ZO"
 112      0C6A23DE 
 112      6F70C658 
 112      35D2CB6B 
 112      C64A2296 
 113 0142 278DF842 		.ascii	"'\215\370B,55\036\237\233\217\315&F\207\223\364\013"
 113      2C35351E 
 113      9F9B8FCD 
 113      26468793 
 113      F40B
 114 0154 E7747BF1 		.ascii	"\347t{\361"
 115              		.text
 116              		.section	.gnu.lto_MOSI_1_ReadDataReg.807c9b86,"",%progbits
 117 0000 789C354F 		.ascii	"x\2345O\275KBQ\024?\277{\237O\221\354\037\310A\332\\"
 117      BD4B4251 
 117      143FBF7B 
 117      9F4F91EC 
 117      1FC841DA 
 118 0015 A288865A 		.ascii	"\242\210\206Z\203\242!\212\034Z\004\011{k\202\324\354"
 118      83A2218A 
 118      1C5A0409 
 118      7B6B82D4 
 118      EC
 119 0026 D3E72B8A 		.ascii	"\323\347+\212\206\226r\012\207\0105\263hI\010\202\227"
 119      8696720A 
 119      870835B3 
 119      68490882 
 119      97
 120 0037 5310F4F1 		.ascii	"S\020\364\361\007\004\022\342\320\020%FP\246\235\333"
 120      070412E2 
 120      D0102546 
 120      50A69DDB 
 121 0047 AB03F79C 		.ascii	"\253\003\367\234{\317\375}\234\243\021H\305\"\227A\256"
 121      7BCFFD7D 
 121      9CA31148 
 121      C5229741 
 121      AE
 122 0058 037C2009 		.ascii	"\003| \011b\347\226(\355\023\200\272\230>PJ \205w\361"
 122      62E79628 
 122      ED1380BA 
 122      983E504A 
 122      208577F1 
 123 006c 2D70F371 		.ascii	"-p\363q\275\355\017\027L3c\326\017\013\343\271\242\003"
 123      BDED0F17 
 123      4C3363D6 
 123      0F0BE3B9 
 123      A203
 124 007e 5B12F504 		.ascii	"[\022\365\004a4\210\341\240\222( L\014}:\353\356\006"
 124      613488E1 
 124      A0922820 
 124      4C0C7D3A 
 124      EBEE06
 125 0091 F4ACC911 		.ascii	"\364\254\311\021R\000\376)BW\226\247\013\216\331\353"
 125      5200FE29 
 125      425796A7 
 125      0B8ED9EB 
 126 00a1 59A673E9 		.ascii	"Y\246s\351\277\272\367{A\266d_N\032'\341QI'%K\257LS"
ARM GAS  C:\Users\JEFFSN~1\AppData\Local\Temp\ccIiZwah.s 			page 9


 126      BFBAF77B 
 126      41B6645F 
 126      4E1A27E1 
 126      51492725 
 127 00b9 43BC09A1 		.ascii	"C\274\011\241\252l\242\366\271\325-M(%KJv\331\263kw"
 127      AA6CA2F6 
 127      B9D52D4D 
 127      28254B4A 
 127      76D9B36B 
 128 00ce DEB6B0A5 		.ascii	"\336\266\260\245\2042}(>\346\376\236\316A\332\324\270"
 128      84327D28 
 128      3EE6FE9E 
 128      CE41DAD4 
 128      B8
 129 00df 75725EDF 		.ascii	"ur^\337\354\313c?\235\345Q5\034!\210\022xP\224\221\007"
 129      ECCB633F 
 129      9DE55135 
 129      1C218812 
 129      78509491 
 130 00f4 356175A6 		.ascii	"5au\246\310\222p\345\252/\345j@\361\001\207p\314\270"
 130      C89270E5 
 130      AA2FE56A 
 130      40F10187 
 130      70CCB8
 131 0107 2632AD8D 		.ascii	"&2\255\215\216p\0355\006*Jk\275\255\271\035\0177\231"
 131      8E701D35 
 131      062A4A6B 
 131      BDADB91D 
 131      0F3799
 132 011a D7F8AA5C 		.ascii	"\327\370\252\\\364+\236\340\025+\377\264\006\\\220\302"
 132      F42B9EE0 
 132      152BFFB4 
 132      065C90C2 
 133 012a D133FE44 		.ascii	"\3213\376Dt\372\335\014j#\336/4m\254\030\311\245Uc9"
 133      74FADD0C 
 133      6A23DE2F 
 133      346DAC18 
 133      C9A55563 
 134 013f 1649AC25 		.ascii	"\026I\254%\343Ft>\222\230\034\213\316\316Efb#Cq\372"
 134      E346743E 
 134      92981C8B 
 134      CECE4566 
 134      62234371 
 135 0154 01A3FB7B 		.ascii	"\001\243\373{\337"
 135      DF
 136              		.text
 137              		.section	.gnu.lto_.symbol_nodes.807c9b86,"",%progbits
 138 0000 789C6361 		.ascii	"x\234ca`dpc\000\002&\206z\006\206\011\347\030@\324\256"
 138      60647063 
 138      00022686 
 138      7A068609 
 138      E71840D4 
 139 0015 0645A000 		.ascii	"\006E\240\000c=#\252\000S=\023\252\000s=3\212\000\003"
 139      633D23AA 
 139      00533D13 
 139      AA00733D 
 139      338A0003 
ARM GAS  C:\Users\JEFFSN~1\AppData\Local\Temp\ccIiZwah.s 			page 10


 140 0029 0026B60F 		.ascii	"\000&\266\017<"
 140      3C
 141              		.text
 142              		.section	.gnu.lto_.refs.807c9b86,"",%progbits
 143 0000 789C6361 		.ascii	"x\234ca`\004B \000\000\0009\000\007"
 143      60044220 
 143      00000039 
 143      0007
 144              		.text
 145              		.section	.gnu.lto_.decls.807c9b86,"",%progbits
 146 0000 789C8D53 		.ascii	"x\234\215S]H\024Q\024\276gfv\225q\323\260\010\037\226"
 146      5D481451 
 146      14BE6766 
 146      769571D3 
 146      B0081F96 
 147 0014 DA7CF269 		.ascii	"\332|\362iI\"\360!,P\222\036\314\320\262\027AV\035\314"
 147      4922F021 
 147      2C50921E 
 147      CCD0B217 
 147      41561DCC 
 148 0028 178D6D0D 		.ascii	"\027\215m\015|\273\272+dA)\244\251\011ZAi\232\273\345"
 148      7CBBBA2B 
 148      644129A4 
 148      A9095A41 
 148      699ABBE5 
 149 003c 6AEEFA9B 		.ascii	"j\356\372\233\224I (\202\020\006)\366\203d\260\241I"
 149      94492028 
 149      82100629 
 149      F68364B0 
 149      A149
 150 004e 06B69D7B 		.ascii	"\006\266\235{g\246\031l\003\017sf\316\271\367|\337\371"
 150      67A6196C 
 150      030F7366 
 150      CEB9F77C 
 150      DFF9
 151 0060 EE991989 		.ascii	"\356\231\031\211\000a\226)\021\322\212O;\246Q4\013\306"
 151      00619629 
 151      11D28A4F 
 151      3BA65134 
 151      0BC6
 152 0072 85C430DC 		.ascii	"\205\3040\334&\003\350\203\350\303\350a\362\257\261"
 152      2603E883 
 152      E8C3E861 
 152      F2AFB1
 153 0081 7DAB86EB 		.ascii	"}\253\206\353g\\\350\023\350c\350yZ\015hu\273m0\006"
 153      675CE813 
 153      E863E879 
 153      5A0D6875 
 153      BB6D3006 
 154 0095 76CA84D7 		.ascii	"v\312\204\327\261\2031\260L\217\305\204\313\213\201"
 154      B18331B0 
 154      4C8FC584 
 154      CB8B81
 155 00a4 1B8E810B 		.ascii	"\033\216\201\013\357\001\027\353\234;\002D;\203\267"
 155      EF0117EB 
 155      9C3B0244 
 155      3B83B7
ARM GAS  C:\Users\JEFFSN~1\AppData\Local\Temp\ccIiZwah.s 			page 11


 156 00b3 E397E01D 		.ascii	"\343\227\340\035\210D\033 \001P\357\300\235\250\316"
 156      88441B20 
 156      0150EFC0 
 156      9DA8CE
 157 00c2 530C04A2 		.ascii	"S\014\004\242\006\372\322_#Z\211\240\207\006\031\277"
 157      06FAD25F 
 157      235A89A0 
 157      870619BF 
 158 00d2 343C4475 		.ascii	"4<Du\343$\006;h 5\327uk \020\214\006\240\246:\302\304"
 158      E324063B 
 158      682035D7 
 158      756B2010 
 158      8C06A0A6 
 159 00e9 B74B91AE 		.ascii	"\267K\221\256YoC\004\375\320\017##\237eQ\000\026\177"
 159      596F4304 
 159      FDD00F23 
 159      239F6551 
 159      00167F
 160 00fc D8EE3EE3 		.ascii	"\330\356>\343\354\243h\215\224\012G\214\311\370\353"
 160      ECA3688D 
 160      940A478C 
 160      C9F8EB
 161 010b 3FF6C46F 		.ascii	"?\366\304o\012`\227!\012,_\017m\357Ss\266\335\326\264"
 161      0A609721 
 161      0A2C5F0F 
 161      6DEF5373 
 161      B6DDD6B4 
 162 011f FA3B414C 		.ascii	"\372;ALa\261\260\260\332\273&A\232\374\210\321,\357"
 162      61B1B0B0 
 162      DABB2641 
 162      9AFC88D1 
 162      2CEF
 163 0131 04324394 		.ascii	"\0042C\224\356\207~\220\241\017D\350\001'\323`\227\361"
 163      EE877E90 
 163      A10F44E8 
 163      0127D360 
 163      97F1
 164 0143 7E9DD23A 		.ascii	"~\235\322:\032y@\255)\004\216\333\341\230\235\300SH"
 164      1A7940AD 
 164      29048EDB 
 164      E1989DC0 
 164      5348
 165 0155 639CAC0A 		.ascii	"c\234\254\012z\301\016O\300\316\370?\335\355\374j\225"
 165      7AC10E4F 
 165      C0CEF83F 
 165      DDEDFC6A 
 165      95
 166 0166 5032E729 		.ascii	"P2\347)\221\330\332\274/\320!\242\204d\031$L\277\317"
 166      91D8DABC 
 166      2FD021A2 
 166      84641924 
 166      4CBFCF
 167 0179 B6AF2662 		.ascii	"\266\257&bzP\006\007\246}\341\367\353\326\224\026~\024"
 167      7A500607 
 167      A67DE1F7 
 167      EBD69416 
 167      7E14
ARM GAS  C:\Users\JEFFSN~1\AppData\Local\Temp\ccIiZwah.s 			page 12


 168 018b 2F754850 		.ascii	"/uHPx\010\236!a\000\011\011<\207\024\274\373ARO\267"
 168      78089E21 
 168      61000909 
 168      3C8714BC 
 168      FB41524F 
 169 01a0 1C1E9F85 		.ascii	"\034\036\237\205\324.\332\025\240\313M\323'[\274t\006"
 169      D42EDA15 
 169      A0CB4DD3 
 169      275BBC74 
 169      06
 170 01b1 710E5606 		.ascii	"q\016V\006\335\206\350n\366]\020x\014K8\303\001HE\344"
 170      DD86E86E 
 170      F65D1078 
 170      0C4B38C3 
 170      014845E4 
 171 01c5 CC9799C3 		.ascii	"\314\227\231\303\242\213\317`\343\307V\203\244\222L"
 171      A28BCF60 
 171      E3C75683 
 171      A4924C
 172 01d4 6E4EDB68 		.ascii	"nN\333hc-\245\2479E\320\240\010\232)\0069E\360\327\212"
 172      632DA5A7 
 172      3945D0A0 
 172      089A2906 
 172      3945F0D7 
 173 01e9 2F49ACE6 		.ascii	"/I\254\346\034s7_{\223\314\252\331q\015\331/\270\354"
 173      1C73375F 
 173      7B93CCAA 
 173      D9710DD9 
 173      2FB8EC
 174 01fc 124DF546 		.ascii	"\022M\365F\375\324\255\004\255\341\302\033\261\215N"
 174      FDD4AD04 
 174      ADE1C21B 
 174      B18D4E
 175 020b FA1027B0 		.ascii	"\372\020'\260*\0302Z\016\231[\016\363\226\323\336\336"
 175      2A18325A 
 175      0E995B0E 
 175      F396D3DE 
 175      DE
 176 021c 258B580B 		.ascii	"%\213X\013\274\347\212\177\353U\234F\023~\253\353f$"
 176      BCE78A7F 
 176      EB559C46 
 176      137EABEB 
 176      6624
 177 022e 21832464 		.ascii	"!\203$d&\011s\222M\337\306\242U\306w\350\335\333;\234"
 177      26097392 
 177      4DDFC6A2 
 177      55C677E8 
 177      DDDB3B9C 
 178 0242 5DBB1F8D 		.ascii	"]\273\037\215\023\357\360\246\302@s[s\034\310i1\340"
 178      13EFF0A6 
 178      C240735B 
 178      731CC869 
 178      31E0
 179 0254 E331E0DA 		.ascii	"\3431\340\332\267\364\363BS\003;\341\030Ne\324\0207"
 179      B7F4F342 
 179      53033BE1 
 179      184E65D4 
ARM GAS  C:\Users\JEFFSN~1\AppData\Local\Temp\ccIiZwah.s 			page 13


 179      1037
 180 0266 02B23A91 		.ascii	"\002\262:\221\340\3347\277\305v\203}V8\276\344\231D"
 180      E0DC37BF 
 180      C576837D 
 180      5638BEE4 
 180      9944
 181 0278 5E69CC6F 		.ascii	"^i\314o\002l\374\017\300\347\216 \216.\336\353\020q"
 181      026CFC0F 
 181      C0E78E20 
 181      8E2EDEEB 
 181      1071
 182 028a 8F5D723B 		.ascii	"\217]r;E)t\036`\012\311x\0229\305c\266L#u\324\332\232"
 182      4529741E 
 182      600AC978 
 182      1239C563 
 182      B64C2375 
 183 02a1 A84B247C 		.ascii	"\250K$|\203\300$\"_\"1Om\271y\005g\213\323\213/\271"
 183      83C02422 
 183      5F22314F 
 183      6DB97905 
 183      678BD38B 
 184 02b7 2B3C4A7C 		.ascii	"+<J|\316\271\213\216\254\364tb\251\256\250\364d\034"
 184      CEB98B8E 
 184      ACF47462 
 184      A9AEA8F4 
 184      641C
 185 02c9 CD512A15 		.ascii	"\315Q*\025\267\313\243\224\025\027TU\273K\225\242\363"
 185      B7CBA394 
 185      15175455 
 185      BB4B95A2 
 185      F3
 186 02da 05555927 		.ascii	"\005UY'\212Jk<5W\224\253\316\313\304\361\237\012\225"
 186      8A4A6B3C 
 186      355794AB 
 186      CECBC4F1 
 186      9F0A95
 187 02ed D4594A0E 		.ascii	"\324YJ\016h\364\005\212'\333]qM\311\255*S\022\264\265"
 187      68F4058A 
 187      27DB5D71 
 187      4DC9AD2A 
 187      5312B4B5 
 188 0301 7CC55596 		.ascii	"|\305U\226l\212\263]\036W\276R.\271\225\362\214?\225"
 188      6C8AB35D 
 188      1E57BE52 
 188      2EB995F2 
 188      8C3F95
 189 0314 8B6200   		.ascii	"\213b\000"
 190              		.text
 191              		.section	.gnu.lto_.symtab.807c9b86,"",%progbits
 192 0000 4D4F5349 		.ascii	"MOSI_1_Write\000"
 192      5F315F57 
 192      72697465 
 192      00
 193 000d 00       		.ascii	"\000"
 194 000e 00       		.ascii	"\000"
 195 000f 00       		.ascii	"\000"
 196 0010 00000000 		.ascii	"\000\000\000\000\000\000\000\000"
ARM GAS  C:\Users\JEFFSN~1\AppData\Local\Temp\ccIiZwah.s 			page 14


 196      00000000 
 197 0018 B3000000 		.ascii	"\263\000\000\000"
 198 001c 4D4F5349 		.ascii	"MOSI_1_SetDriveMode\000"
 198      5F315F53 
 198      65744472 
 198      6976654D 
 198      6F646500 
 199 0030 00       		.ascii	"\000"
 200 0031 00       		.ascii	"\000"
 201 0032 00       		.ascii	"\000"
 202 0033 00000000 		.ascii	"\000\000\000\000\000\000\000\000"
 202      00000000 
 203 003b B5000000 		.ascii	"\265\000\000\000"
 204 003f 4D4F5349 		.ascii	"MOSI_1_Read\000"
 204      5F315F52 
 204      65616400 
 205 004b 00       		.ascii	"\000"
 206 004c 00       		.ascii	"\000"
 207 004d 00       		.ascii	"\000"
 208 004e 00000000 		.ascii	"\000\000\000\000\000\000\000\000"
 208      00000000 
 209 0056 B8000000 		.ascii	"\270\000\000\000"
 210 005a 4D4F5349 		.ascii	"MOSI_1_ReadDataReg\000"
 210      5F315F52 
 210      65616444 
 210      61746152 
 210      656700
 211 006d 00       		.ascii	"\000"
 212 006e 00       		.ascii	"\000"
 213 006f 00       		.ascii	"\000"
 214 0070 00000000 		.ascii	"\000\000\000\000\000\000\000\000"
 214      00000000 
 215 0078 BA000000 		.ascii	"\272\000\000\000"
 216              		.text
 217              		.section	.gnu.lto_.opts,"",%progbits
 218 0000 272D666D 		.ascii	"'-fmath-errno' '-fsigned-zeros' '-ftrapping-math' '"
 218      6174682D 
 218      6572726E 
 218      6F272027 
 218      2D667369 
 219 0033 2D666E6F 		.ascii	"-fno-trapv' '-fno-openmp' '-fno-openacc' '-mcpu=cor"
 219      2D747261 
 219      70762720 
 219      272D666E 
 219      6F2D6F70 
 220 0066 7465782D 		.ascii	"tex-m3' '-mthumb' '-g' '-O3' '-ffunction-sections' "
 220      6D332720 
 220      272D6D74 
 220      68756D62 
 220      2720272D 
 221 0099 272D6666 		.ascii	"'-ffat-lto-objects' '-finline-functions' '-flto'\000"
 221      61742D6C 
 221      746F2D6F 
 221      626A6563 
 221      74732720 
 222              		.text
 223              		.cfi_sections	.debug_frame
ARM GAS  C:\Users\JEFFSN~1\AppData\Local\Temp\ccIiZwah.s 			page 15


 224              		.section	.text.MOSI_1_Write,"ax",%progbits
 225              		.align	2
 226              		.global	MOSI_1_Write
 227              		.thumb
 228              		.thumb_func
 229              		.type	MOSI_1_Write, %function
 230              	MOSI_1_Write:
 231              	.LFB0:
 232              		.file 1 "Generated_Source\\PSoC5\\MOSI_1.c"
   1:Generated_Source\PSoC5/MOSI_1.c **** /*******************************************************************************
   2:Generated_Source\PSoC5/MOSI_1.c **** * File Name: MOSI_1.c  
   3:Generated_Source\PSoC5/MOSI_1.c **** * Version 2.20
   4:Generated_Source\PSoC5/MOSI_1.c **** *
   5:Generated_Source\PSoC5/MOSI_1.c **** * Description:
   6:Generated_Source\PSoC5/MOSI_1.c **** *  This file contains API to enable firmware control of a Pins component.
   7:Generated_Source\PSoC5/MOSI_1.c **** *
   8:Generated_Source\PSoC5/MOSI_1.c **** * Note:
   9:Generated_Source\PSoC5/MOSI_1.c **** *
  10:Generated_Source\PSoC5/MOSI_1.c **** ********************************************************************************
  11:Generated_Source\PSoC5/MOSI_1.c **** * Copyright 2008-2015, Cypress Semiconductor Corporation.  All rights reserved.
  12:Generated_Source\PSoC5/MOSI_1.c **** * You may use this file only in accordance with the license, terms, conditions, 
  13:Generated_Source\PSoC5/MOSI_1.c **** * disclaimers, and limitations in the end user license agreement accompanying 
  14:Generated_Source\PSoC5/MOSI_1.c **** * the software package with which this file was provided.
  15:Generated_Source\PSoC5/MOSI_1.c **** *******************************************************************************/
  16:Generated_Source\PSoC5/MOSI_1.c **** 
  17:Generated_Source\PSoC5/MOSI_1.c **** #include "cytypes.h"
  18:Generated_Source\PSoC5/MOSI_1.c **** #include "MOSI_1.h"
  19:Generated_Source\PSoC5/MOSI_1.c **** 
  20:Generated_Source\PSoC5/MOSI_1.c **** /* APIs are not generated for P15[7:6] on PSoC 5 */
  21:Generated_Source\PSoC5/MOSI_1.c **** #if !(CY_PSOC5A &&\
  22:Generated_Source\PSoC5/MOSI_1.c **** 	 MOSI_1__PORT == 15 && ((MOSI_1__MASK & 0xC0) != 0))
  23:Generated_Source\PSoC5/MOSI_1.c **** 
  24:Generated_Source\PSoC5/MOSI_1.c **** 
  25:Generated_Source\PSoC5/MOSI_1.c **** /*******************************************************************************
  26:Generated_Source\PSoC5/MOSI_1.c **** * Function Name: MOSI_1_Write
  27:Generated_Source\PSoC5/MOSI_1.c **** ****************************************************************************//**
  28:Generated_Source\PSoC5/MOSI_1.c **** *
  29:Generated_Source\PSoC5/MOSI_1.c **** * \brief Writes the value to the physical port (data output register), masking
  30:Generated_Source\PSoC5/MOSI_1.c **** *  and shifting the bits appropriately. 
  31:Generated_Source\PSoC5/MOSI_1.c **** *
  32:Generated_Source\PSoC5/MOSI_1.c **** * The data output register controls the signal applied to the physical pin in 
  33:Generated_Source\PSoC5/MOSI_1.c **** * conjunction with the drive mode parameter. This function avoids changing 
  34:Generated_Source\PSoC5/MOSI_1.c **** * other bits in the port by using the appropriate method (read-modify-write or
  35:Generated_Source\PSoC5/MOSI_1.c **** * bit banding).
  36:Generated_Source\PSoC5/MOSI_1.c **** *
  37:Generated_Source\PSoC5/MOSI_1.c **** * <b>Note</b> This function should not be used on a hardware digital output pin 
  38:Generated_Source\PSoC5/MOSI_1.c **** * as it is driven by the hardware signal attached to it.
  39:Generated_Source\PSoC5/MOSI_1.c **** *
  40:Generated_Source\PSoC5/MOSI_1.c **** * \param value
  41:Generated_Source\PSoC5/MOSI_1.c **** *  Value to write to the component instance.
  42:Generated_Source\PSoC5/MOSI_1.c **** *
  43:Generated_Source\PSoC5/MOSI_1.c **** * \return 
  44:Generated_Source\PSoC5/MOSI_1.c **** *  None 
  45:Generated_Source\PSoC5/MOSI_1.c **** *
  46:Generated_Source\PSoC5/MOSI_1.c **** * \sideeffect
  47:Generated_Source\PSoC5/MOSI_1.c **** *  If you use read-modify-write operations that are not atomic; the Interrupt 
  48:Generated_Source\PSoC5/MOSI_1.c **** *  Service Routines (ISR) can cause corruption of this function. An ISR that 
ARM GAS  C:\Users\JEFFSN~1\AppData\Local\Temp\ccIiZwah.s 			page 16


  49:Generated_Source\PSoC5/MOSI_1.c **** *  interrupts this function and performs writes to the Pins component data 
  50:Generated_Source\PSoC5/MOSI_1.c **** *  register can cause corrupted port data. To avoid this issue, you should 
  51:Generated_Source\PSoC5/MOSI_1.c **** *  either use the Per-Pin APIs (primary method) or disable interrupts around 
  52:Generated_Source\PSoC5/MOSI_1.c **** *  this function.
  53:Generated_Source\PSoC5/MOSI_1.c **** *
  54:Generated_Source\PSoC5/MOSI_1.c **** * \funcusage
  55:Generated_Source\PSoC5/MOSI_1.c **** *  \snippet MOSI_1_SUT.c usage_MOSI_1_Write
  56:Generated_Source\PSoC5/MOSI_1.c **** *******************************************************************************/
  57:Generated_Source\PSoC5/MOSI_1.c **** void MOSI_1_Write(uint8 value)
  58:Generated_Source\PSoC5/MOSI_1.c **** {
 233              		.loc 1 58 0
 234              		.cfi_startproc
 235              		@ args = 0, pretend = 0, frame = 0
 236              		@ frame_needed = 0, uses_anonymous_args = 0
 237              		@ link register save eliminated.
 238              	.LVL0:
  59:Generated_Source\PSoC5/MOSI_1.c ****     uint8 staticBits = (MOSI_1_DR & (uint8)(~MOSI_1_MASK));
 239              		.loc 1 59 0
 240 0000 044A     		ldr	r2, .L2
  60:Generated_Source\PSoC5/MOSI_1.c ****     MOSI_1_DR = staticBits | ((uint8)(value << MOSI_1_SHIFT) & MOSI_1_MASK);
 241              		.loc 1 60 0
 242 0002 8001     		lsls	r0, r0, #6
 243              	.LVL1:
  59:Generated_Source\PSoC5/MOSI_1.c ****     uint8 staticBits = (MOSI_1_DR & (uint8)(~MOSI_1_MASK));
 244              		.loc 1 59 0
 245 0004 1378     		ldrb	r3, [r2]	@ zero_extendqisi2
 246              	.LVL2:
 247              		.loc 1 60 0
 248 0006 00F04000 		and	r0, r0, #64
 249 000a 03F0BF03 		and	r3, r3, #191
 250              	.LVL3:
 251 000e 1843     		orrs	r0, r0, r3
 252 0010 1070     		strb	r0, [r2]
 253 0012 7047     		bx	lr
 254              	.L3:
 255              		.align	2
 256              	.L2:
 257 0014 C0510040 		.word	1073762752
 258              		.cfi_endproc
 259              	.LFE0:
 260              		.size	MOSI_1_Write, .-MOSI_1_Write
 261              		.section	.text.MOSI_1_SetDriveMode,"ax",%progbits
 262              		.align	2
 263              		.global	MOSI_1_SetDriveMode
 264              		.thumb
 265              		.thumb_func
 266              		.type	MOSI_1_SetDriveMode, %function
 267              	MOSI_1_SetDriveMode:
 268              	.LFB1:
  61:Generated_Source\PSoC5/MOSI_1.c **** }
  62:Generated_Source\PSoC5/MOSI_1.c **** 
  63:Generated_Source\PSoC5/MOSI_1.c **** 
  64:Generated_Source\PSoC5/MOSI_1.c **** /*******************************************************************************
  65:Generated_Source\PSoC5/MOSI_1.c **** * Function Name: MOSI_1_SetDriveMode
  66:Generated_Source\PSoC5/MOSI_1.c **** ****************************************************************************//**
  67:Generated_Source\PSoC5/MOSI_1.c **** *
  68:Generated_Source\PSoC5/MOSI_1.c **** * \brief Sets the drive mode for each of the Pins component's pins.
ARM GAS  C:\Users\JEFFSN~1\AppData\Local\Temp\ccIiZwah.s 			page 17


  69:Generated_Source\PSoC5/MOSI_1.c **** * 
  70:Generated_Source\PSoC5/MOSI_1.c **** * <b>Note</b> This affects all pins in the Pins component instance. Use the
  71:Generated_Source\PSoC5/MOSI_1.c **** * Per-Pin APIs if you wish to control individual pin's drive modes.
  72:Generated_Source\PSoC5/MOSI_1.c **** *
  73:Generated_Source\PSoC5/MOSI_1.c **** * \param mode
  74:Generated_Source\PSoC5/MOSI_1.c **** *  Mode for the selected signals. Valid options are documented in 
  75:Generated_Source\PSoC5/MOSI_1.c **** *  \ref driveMode.
  76:Generated_Source\PSoC5/MOSI_1.c **** *
  77:Generated_Source\PSoC5/MOSI_1.c **** * \return
  78:Generated_Source\PSoC5/MOSI_1.c **** *  None
  79:Generated_Source\PSoC5/MOSI_1.c **** *
  80:Generated_Source\PSoC5/MOSI_1.c **** * \sideeffect
  81:Generated_Source\PSoC5/MOSI_1.c **** *  If you use read-modify-write operations that are not atomic, the ISR can
  82:Generated_Source\PSoC5/MOSI_1.c **** *  cause corruption of this function. An ISR that interrupts this function 
  83:Generated_Source\PSoC5/MOSI_1.c **** *  and performs writes to the Pins component Drive Mode registers can cause 
  84:Generated_Source\PSoC5/MOSI_1.c **** *  corrupted port data. To avoid this issue, you should either use the Per-Pin
  85:Generated_Source\PSoC5/MOSI_1.c **** *  APIs (primary method) or disable interrupts around this function.
  86:Generated_Source\PSoC5/MOSI_1.c **** *
  87:Generated_Source\PSoC5/MOSI_1.c **** * \funcusage
  88:Generated_Source\PSoC5/MOSI_1.c **** *  \snippet MOSI_1_SUT.c usage_MOSI_1_SetDriveMode
  89:Generated_Source\PSoC5/MOSI_1.c **** *******************************************************************************/
  90:Generated_Source\PSoC5/MOSI_1.c **** void MOSI_1_SetDriveMode(uint8 mode)
  91:Generated_Source\PSoC5/MOSI_1.c **** {
 269              		.loc 1 91 0
 270              		.cfi_startproc
 271              		@ args = 0, pretend = 0, frame = 0
 272              		@ frame_needed = 0, uses_anonymous_args = 0
 273              		@ link register save eliminated.
 274              	.LVL4:
  92:Generated_Source\PSoC5/MOSI_1.c **** 	CyPins_SetPinDriveMode(MOSI_1_0, mode);
 275              		.loc 1 92 0
 276 0000 044A     		ldr	r2, .L5
 277 0002 00F00E00 		and	r0, r0, #14
 278              	.LVL5:
 279 0006 1378     		ldrb	r3, [r2]	@ zero_extendqisi2
 280 0008 03F0F103 		and	r3, r3, #241
 281 000c 1843     		orrs	r0, r0, r3
 282 000e 1070     		strb	r0, [r2]
 283 0010 7047     		bx	lr
 284              	.L6:
 285 0012 00BF     		.align	2
 286              	.L5:
 287 0014 66500040 		.word	1073762406
 288              		.cfi_endproc
 289              	.LFE1:
 290              		.size	MOSI_1_SetDriveMode, .-MOSI_1_SetDriveMode
 291              		.section	.text.MOSI_1_Read,"ax",%progbits
 292              		.align	2
 293              		.global	MOSI_1_Read
 294              		.thumb
 295              		.thumb_func
 296              		.type	MOSI_1_Read, %function
 297              	MOSI_1_Read:
 298              	.LFB2:
  93:Generated_Source\PSoC5/MOSI_1.c **** }
  94:Generated_Source\PSoC5/MOSI_1.c **** 
  95:Generated_Source\PSoC5/MOSI_1.c **** 
ARM GAS  C:\Users\JEFFSN~1\AppData\Local\Temp\ccIiZwah.s 			page 18


  96:Generated_Source\PSoC5/MOSI_1.c **** /*******************************************************************************
  97:Generated_Source\PSoC5/MOSI_1.c **** * Function Name: MOSI_1_Read
  98:Generated_Source\PSoC5/MOSI_1.c **** ****************************************************************************//**
  99:Generated_Source\PSoC5/MOSI_1.c **** *
 100:Generated_Source\PSoC5/MOSI_1.c **** * \brief Reads the associated physical port (pin status register) and masks 
 101:Generated_Source\PSoC5/MOSI_1.c **** *  the required bits according to the width and bit position of the component
 102:Generated_Source\PSoC5/MOSI_1.c **** *  instance. 
 103:Generated_Source\PSoC5/MOSI_1.c **** *
 104:Generated_Source\PSoC5/MOSI_1.c **** * The pin's status register returns the current logic level present on the 
 105:Generated_Source\PSoC5/MOSI_1.c **** * physical pin.
 106:Generated_Source\PSoC5/MOSI_1.c **** *
 107:Generated_Source\PSoC5/MOSI_1.c **** * \return 
 108:Generated_Source\PSoC5/MOSI_1.c **** *  The current value for the pins in the component as a right justified number.
 109:Generated_Source\PSoC5/MOSI_1.c **** *
 110:Generated_Source\PSoC5/MOSI_1.c **** * \funcusage
 111:Generated_Source\PSoC5/MOSI_1.c **** *  \snippet MOSI_1_SUT.c usage_MOSI_1_Read  
 112:Generated_Source\PSoC5/MOSI_1.c **** *******************************************************************************/
 113:Generated_Source\PSoC5/MOSI_1.c **** uint8 MOSI_1_Read(void)
 114:Generated_Source\PSoC5/MOSI_1.c **** {
 299              		.loc 1 114 0
 300              		.cfi_startproc
 301              		@ args = 0, pretend = 0, frame = 0
 302              		@ frame_needed = 0, uses_anonymous_args = 0
 303              		@ link register save eliminated.
 115:Generated_Source\PSoC5/MOSI_1.c ****     return (MOSI_1_PS & MOSI_1_MASK) >> MOSI_1_SHIFT;
 304              		.loc 1 115 0
 305 0000 024B     		ldr	r3, .L8
 306 0002 1878     		ldrb	r0, [r3]	@ zero_extendqisi2
 116:Generated_Source\PSoC5/MOSI_1.c **** }
 307              		.loc 1 116 0
 308 0004 C0F38010 		ubfx	r0, r0, #6, #1
 309 0008 7047     		bx	lr
 310              	.L9:
 311 000a 00BF     		.align	2
 312              	.L8:
 313 000c C1510040 		.word	1073762753
 314              		.cfi_endproc
 315              	.LFE2:
 316              		.size	MOSI_1_Read, .-MOSI_1_Read
 317              		.section	.text.MOSI_1_ReadDataReg,"ax",%progbits
 318              		.align	2
 319              		.global	MOSI_1_ReadDataReg
 320              		.thumb
 321              		.thumb_func
 322              		.type	MOSI_1_ReadDataReg, %function
 323              	MOSI_1_ReadDataReg:
 324              	.LFB3:
 117:Generated_Source\PSoC5/MOSI_1.c **** 
 118:Generated_Source\PSoC5/MOSI_1.c **** 
 119:Generated_Source\PSoC5/MOSI_1.c **** /*******************************************************************************
 120:Generated_Source\PSoC5/MOSI_1.c **** * Function Name: MOSI_1_ReadDataReg
 121:Generated_Source\PSoC5/MOSI_1.c **** ****************************************************************************//**
 122:Generated_Source\PSoC5/MOSI_1.c **** *
 123:Generated_Source\PSoC5/MOSI_1.c **** * \brief Reads the associated physical port's data output register and masks 
 124:Generated_Source\PSoC5/MOSI_1.c **** *  the correct bits according to the width and bit position of the component 
 125:Generated_Source\PSoC5/MOSI_1.c **** *  instance. 
 126:Generated_Source\PSoC5/MOSI_1.c **** *
ARM GAS  C:\Users\JEFFSN~1\AppData\Local\Temp\ccIiZwah.s 			page 19


 127:Generated_Source\PSoC5/MOSI_1.c **** * The data output register controls the signal applied to the physical pin in 
 128:Generated_Source\PSoC5/MOSI_1.c **** * conjunction with the drive mode parameter. This is not the same as the 
 129:Generated_Source\PSoC5/MOSI_1.c **** * preferred MOSI_1_Read() API because the 
 130:Generated_Source\PSoC5/MOSI_1.c **** * MOSI_1_ReadDataReg() reads the data register instead of the status 
 131:Generated_Source\PSoC5/MOSI_1.c **** * register. For output pins this is a useful function to determine the value 
 132:Generated_Source\PSoC5/MOSI_1.c **** * just written to the pin.
 133:Generated_Source\PSoC5/MOSI_1.c **** *
 134:Generated_Source\PSoC5/MOSI_1.c **** * \return 
 135:Generated_Source\PSoC5/MOSI_1.c **** *  The current value of the data register masked and shifted into a right 
 136:Generated_Source\PSoC5/MOSI_1.c **** *  justified number for the component instance.
 137:Generated_Source\PSoC5/MOSI_1.c **** *
 138:Generated_Source\PSoC5/MOSI_1.c **** * \funcusage
 139:Generated_Source\PSoC5/MOSI_1.c **** *  \snippet MOSI_1_SUT.c usage_MOSI_1_ReadDataReg 
 140:Generated_Source\PSoC5/MOSI_1.c **** *******************************************************************************/
 141:Generated_Source\PSoC5/MOSI_1.c **** uint8 MOSI_1_ReadDataReg(void)
 142:Generated_Source\PSoC5/MOSI_1.c **** {
 325              		.loc 1 142 0
 326              		.cfi_startproc
 327              		@ args = 0, pretend = 0, frame = 0
 328              		@ frame_needed = 0, uses_anonymous_args = 0
 329              		@ link register save eliminated.
 143:Generated_Source\PSoC5/MOSI_1.c ****     return (MOSI_1_DR & MOSI_1_MASK) >> MOSI_1_SHIFT;
 330              		.loc 1 143 0
 331 0000 024B     		ldr	r3, .L11
 332 0002 1878     		ldrb	r0, [r3]	@ zero_extendqisi2
 144:Generated_Source\PSoC5/MOSI_1.c **** }
 333              		.loc 1 144 0
 334 0004 C0F38010 		ubfx	r0, r0, #6, #1
 335 0008 7047     		bx	lr
 336              	.L12:
 337 000a 00BF     		.align	2
 338              	.L11:
 339 000c C0510040 		.word	1073762752
 340              		.cfi_endproc
 341              	.LFE3:
 342              		.size	MOSI_1_ReadDataReg, .-MOSI_1_ReadDataReg
 343              		.text
 344              	.Letext0:
 345              		.file 2 "Generated_Source\\PSoC5\\cytypes.h"