ARM GAS  C:\Users\JEFFSN~1\AppData\Local\Temp\ccdFOqdR.s 			page 1


   1              		.syntax unified
   2              		.cpu cortex-m3
   3              		.fpu softvfp
   4              		.eabi_attribute 20, 1
   5              		.eabi_attribute 21, 1
   6              		.eabi_attribute 23, 3
   7              		.eabi_attribute 24, 1
   8              		.eabi_attribute 25, 1
   9              		.eabi_attribute 26, 1
  10              		.eabi_attribute 30, 2
  11              		.eabi_attribute 34, 1
  12              		.eabi_attribute 18, 4
  13              		.thumb
  14              		.syntax unified
  15              		.file	"SCLK_2.c"
  16              		.text
  17              	.Ltext0:
  18              		.section	.gnu.lto_.profile.47c716a,"",%progbits
  19 0000 789C6361 		.ascii	"x\234ca`d`a`\000\222\222\242\000\000\261\0009"
  19      60646061 
  19      60009292 
  19      A20000B1 
  19      0039
  20              		.text
  21              		.section	.gnu.lto_.icf.47c716a,"",%progbits
  22 0000 789C6361 		.ascii	"x\234ca`d\000\001I\006\004`aX\362\343\252\004\343\257"
  22      60640001 
  22      49060460 
  22      6158F2E3 
  22      AA04E3AF 
  23 0014 F3973EB2 		.ascii	"\363\227>\2622\035\336\272\347\010#\363\255o\017O\263"
  23      321DDEBA 
  23      E70823F3 
  23      AD6F0F4F 
  23      B3
  24 0025 300000A6 		.ascii	"0\000\000\246\222\014\274"
  24      920CBC
  25              		.text
  26              		.section	.gnu.lto_.jmpfuncs.47c716a,"",%progbits
  27 0000 789C6361 		.ascii	"x\234ca`d\000\001!\006\004`a`dd\254g\004\021L\014\014"
  27      60640001 
  27      21060460 
  27      61606464 
  27      AC670411 
  28 0017 CC401100 		.ascii	"\314@\021\000\016\"\001&"
  28      0E220126 
  29              		.text
  30              		.section	.gnu.lto_.inline.47c716a,"",%progbits
  31 0000 789C6361 		.ascii	"x\234ca`d\000\201$\006\004`a`\340\344`dd\340\000J1s"
  31      60640081 
  31      24060460 
  31      6160E0E4 
  31      606464E0 
  32 0018 1CB06360 		.ascii	"\034\260c`[ \317\304\300\262@\236\005$\013\024g\307"
  32      5B20CFC4 
  32      C0B2409E 
  32      05240B14 
ARM GAS  C:\Users\JEFFSN~1\AppData\Local\Temp\ccdFOqdR.s 			page 2


  32      67C7
  33 002a 9064BAC0 		.ascii	"\220d\272\300\017\226db`ced`b\373\240\007\021\007\002"
  33      0F966462 
  33      60636564 
  33      6062FBA0 
  33      07110702 
  34 003e 664C2106 		.ascii	"fL!\006\000\346\332\011\346"
  34      00E6DA09 
  34      E6
  35              		.text
  36              		.section	.gnu.lto_.pureconst.47c716a,"",%progbits
  37 0000 789C6361 		.ascii	"x\234ca`d\340d```a\220b\224b\222b\226\002\000\002\261"
  37      6064E064 
  37      60606061 
  37      90629462 
  37      92629602 
  38 0017 0081     		.ascii	"\000\201"
  39              		.text
  40              		.section	.gnu.lto_SCLK_2_Write.47c716a,"",%progbits
  41 0000 789C5551 		.ascii	"x\234UQMk\023Q\024\275\347\275\231Im\242\177\300,\002"
  41      4D6B1351 
  41      14BDE7BD 
  41      99496DA2 
  41      7FC02C02 
  42 0014 524ABA10 		.ascii	"RJ\272\020\261\370\007\354\302\205.\304l\003%\304Y\024"
  42      B1F807EC 
  42      C2852EC4 
  42      6C0325C4 
  42      5914
  43 0026 AA853675 		.ascii	"\252\2056u\3337M\223\240\253n\332\254\264`-\215_\251"
  43      DB374D93 
  43      A0AB6EDA 
  43      ACB4602D 
  43      8D5FA9
  44 0039 6D41A828 		.ascii	"mA\250(\014\263s\323\242t%~\224,F\324MDC\213F\343\275"
  44      0CB373D3 
  44      A274257E 
  44      942C46D4 
  44      4D44438B 
  45 0050 3359D80B 		.ascii	"3Y\330\013\357c\356\234s\356\271\367Y\004\222\030QD"
  45      EF63EE9C 
  45      73EEB9F7 
  45      59049218 
  45      5144
  46 0062 A37C9EE6 		.ascii	"\243|\236\346\005MP\213\273D\336\200\002\344b\006@s"
  46      054D508B 
  46      BB44DE80 
  46      02E46206 
  46      4073
  47 0074 0A73E8A8 		.ascii	"\012s\350\250?\012A-\334Q\331u\303q\260vO\233\206\217"
  47      3F0A412D 
  47      DC51D975 
  47      C371B076 
  47      4F9B868F 
  48 0088 8A26EAA9 		.ascii	"\212&\352\251H\211\260\216,\243>\277\254\355C\237\001"
  48      4889B08E 
  48      2CA33EBF 
ARM GAS  C:\Users\JEFFSN~1\AppData\Local\Temp\ccdFOqdR.s 			page 3


  48      ACED439F 
  48      01
  49 0099 F1BD1A74 		.ascii	"\361\275\032t\332\311\3415c\346\215\371\2217\272\242"
  49      DAC9E135 
  49      63E68DF9 
  49      9137BAA2 
  50 00a9 81063433 		.ascii	"\201\006430\232\306\2714q\202\360\020\303\002>z\267"
  50      309AC6B9 
  50      347182F0 
  50      10C3023E 
  50      7AB7
  51 00bb DF3CA5B3 		.ascii	"\337<\245\263\021q\321\204\367SC\253B\364\017o\324\215"
  51      1171D184 
  51      F75343AB 
  51      42F40F6F 
  51      D48D
  52 00cd EF6584FB 		.ascii	"\357e\204\373\350\177\256\004C[\233\177\227N:\013\342"
  52      E87FAE04 
  52      435B9B7F 
  52      974E3A0B 
  52      E2
  53 00de 2A83C718 		.ascii	"*\203\307\030\212\375\340\011\034\356\020\222\331\270"
  53      8AFDE009 
  53      1CEE1092 
  53      D9B8
  54 00ec E69B5EAF 		.ascii	"\346\233^\257l\374\216\335\321'\024\027U\334)\377\260"
  54      6CFC8EDD 
  54      D1271417 
  54      55DC29FF 
  54      B0
  55 00fd 20B56D49 		.ascii	" \265mI8\262%d#j\363\222\356\277+%\247\016\021\374\272"
  55      38B22564 
  55      236AF392 
  55      EEBF2B25 
  55      A70E11FC 
  56 0112 F3B19E10 		.ascii	"\363\261\236\020\315\262\226I,W\202\275\304OU\321:r"
  56      CDB29649 
  56      2C5782BD 
  56      C44F55D1 
  56      3A72
  57 0124 FBA6F1A1 		.ascii	"\373\246\361\241\336\377\364W=cq\252\371\374\340vj\005"
  57      DEFFF457 
  57      3D6371AA 
  57      F9FCE076 
  57      6A05
  58 0136 77BD059E 		.ascii	"w\275\005\236\221\205&\322x\012\366\214\015\254\200"
  58      918526D2 
  58      780AF68C 
  58      0DAC80
  59 0145 4294BBD5 		.ascii	"B\224\273\325\367\210\005u\254\371\355m\313O\212\010"
  59      F7880575 
  59      ACF9ED6D 
  59      CB4F8A08 
  60 0155 F00978C6 		.ascii	"\360\011x\306\340\026T\324\006;e\224\220\332\325\360"
  60      E01654D4 
  60      063B6594 
  60      90DAD5F0 
ARM GAS  C:\Users\JEFFSN~1\AppData\Local\Temp\ccdFOqdR.s 			page 4


  61 0165 B06FC32E 		.ascii	"\260o\303.k\251\363\372\301\213nJX6ll2)\222\356\366"
  61      6BA9F3FA 
  61      C18B6E4A 
  61      58366C6C 
  61      322992EE 
  62 017a A505C7A0 		.ascii	"\245\005\307\240\332\027\363\312\022\220\205\014\266"
  62      DA17F3CA 
  62      1290850C 
  62      B6
  63 0187 62D09113 		.ascii	"b\320\221\023C\022\221\001\207S\301r\304:f\3363&y\334"
  63      43129101 
  63      8753C172 
  63      C43A66DE 
  63      332679DC 
  64 019b FF36FB67 		.ascii	"\3776\373g\026}\305\274\377\333\026B\364\020m\005\231"
  64      167DC5BC 
  64      FFDB1642 
  64      F4106D05 
  64      99
  65 01ac 154F2E73 		.ascii	"\025O.s\311\275\351N\027J\356\365\361\334\324\354t\321"
  65      C9BDE94E 
  65      174AEEF5 
  65      F1DCD4EC 
  65      74D1
  66 01be CD5FCD4D 		.ascii	"\315_\315M\215]\310\347\306\256\\\036?\177\266H\366"
  66      8D5DC8E7 
  66      C6AE5C1E 
  66      3F7FB648 
  66      F6
  67 01cf ADC2E4AC 		.ascii	"\255\302\344\254;8S*\224&\212\027'J3\377\000\253\000"
  67      3B38532A 
  67      94268A17 
  67      274A33FF 
  67      00AB00
  68 01e2 C2CB     		.ascii	"\302\313"
  69              		.text
  70              		.section	.gnu.lto_SCLK_2_SetDriveMode.47c716a,"",%progbits
  71 0000 789C7D51 		.ascii	"x\234}QMK\033Q\024\275\347\275\311\314\004i\376\200"
  71      4D4B1B51 
  71      14BDE7BD 
  71      C9CC0469 
  71      FE80
  72 0012 59045C84 		.ascii	"Y\004\\\204l$\264\364\027\010\272\320\205\230mDDg\251"
  72      6C24B4F4 
  72      1708BAD0 
  72      85986D44 
  72      4467A9
  73 0025 A1D2AE7D 		.ascii	"\241\322\256}I\014\005\273QDA$D\027\022\277\243\270"
  73      490C05BB 
  73      51444124 
  73      441712BF 
  73      A3B8
  74 0037 722331A0 		.ascii	"r#1\240\313t\327E\027\245\024\032J\241\022\255bI\233"
  74      CB74D745 
  74      17A5141A 
  74      4AA112AD 
  74      62499B
ARM GAS  C:\Users\JEFFSN~1\AppData\Local\Temp\ccdFOqdR.s 			page 5


  75 004a C67B675C 		.ascii	"\306{g\\d\345c\336\3758\234s\270\367\215E 9?8\3059\367"
  75      64E563DE 
  75      FD389C73 
  75      B8F78D45 
  75      20393F38 
  76 0061 F28526A8 		.ascii	"\362\205&\250\245:Q\326U\200\024\306\005\315+\314\343"
  76      A53A51D6 
  76      558014C6 
  76      05CD2BCC 
  76      E3
  77 0072 5EB5156A 		.ascii	"^\265\025j\357\033g*Q6|\276^^'\315N\025\005M\324Q\276"
  77      EF1B672A 
  77      51367CBE 
  77      5E5E27CD 
  77      4E15054D 
  78 0089 13A18C04 		.ascii	"\023\241\214\004\263~\237n\257\364\350>\020\3277\365"
  78      B37E9F6E 
  78      AFF4E83E 
  78      10D737F5 
  79 0099 E697487C 		.ascii	"\346\227H|\333\230\2341\313\343F\0274\260\003\315\012"
  79      DB989C31 
  79      CBE34617 
  79      34B003CD 
  79      0A
  80 00aa BC8A2219 		.ascii	"\274\212\"\031%\006\010\273\210\013\371\333\311\377"
  80      250608BB 
  80      880BF9DB 
  80      C9FF
  81 00b8 D517F682 		.ascii	"\325\027\366\202\330\307\002S\354\301\2261+cU\323\351"
  81      D8C70253 
  81      ECC19631 
  81      2B6355D3 
  81      E9
  82 00c9 E44DF5C1 		.ascii	"\344M\365\301\276h\331=\212eJs\320\226\204\020\304\301"
  82      BE68D93D 
  82      8A654A73 
  82      D0968410 
  82      C4C1
  83 00db 96D291E0 		.ascii	"\226\322\221\340J\010\013\207\250\311W\026\271QJ\262"
  83      4A080B87 
  83      A8C95716 
  83      B9514AB2 
  84 00eb 6EA0D65A 		.ascii	"n\240\326ZllX\342\234\327\262\324Z\241\366\321\271S"
  84      6C6C58E2 
  84      9CD7B2D4 
  84      5AA1F6D1 
  84      B953
  85 00fd 056DF913 		.ascii	"\005m\371\023\037\026\313[n\320~\337\314\032\213\241"
  85      1F16CB5B 
  85      6ED07EDF 
  85      CC1A8BA1 
  86 010d F279713D 		.ascii	"\362yq=RB1\273\300\353\206p\200(\366\021\345\351\016"
  86      524231BB 
  86      C0EB8670 
  86      8028F611 
  86      E5E90E
  87 0120 51023590 		.ascii	"Q\0025\220\273u\002;\315\216\334\347\377\331Ao1\304"
ARM GAS  C:\Users\JEFFSN~1\AppData\Local\Temp\ccdFOqdR.s 			page 6


  87      BB75023B 
  87      CD8EDCE7 
  87      FFD9416F 
  87      31C4
  88 0132 FACF571F 		.ascii	"\372\317W\037\332a\261\324x\203#VvI\370\013uK\034\206"
  88      DA61B1D4 
  88      78832356 
  88      7649F80B 
  88      754B1C86 
  89 0146 58F2EBD3 		.ascii	"X\362\353\323\376\201\016$\021T|I\376\317\023\305\365"
  89      FE810E24 
  89      11547C49 
  89      FECF13C5 
  89      F5
  90 0157 8D9D6E97 		.ascii	"\215\235n\2270\243\334\327\326 \375s#\037\363\310\314"
  90      30A3DCD7 
  90      D620FD73 
  90      231FF3C8 
  90      CC
  91 0168 A79FC855 		.ascii	"\247\237\310U\377\016\012\333\377uM\005y\036~\254\330"
  91      FF0E0ADB 
  91      FF754D05 
  91      791E7EAC 
  91      D8
  92 0179 9037EBCD 		.ascii	"\2207\353\315M\276\365\246'R\231wsS^z4\225\031x\235"
  92      4DBEF5A6 
  92      27529977 
  92      73535E7A 
  92      34951978 
  93 018e 4E0D8C0C 		.ascii	"N\015\214\014O\274\354\237\"k&3\355=\002\213\001\244"
  93      4FBCEC9F 
  93      226B2633 
  93      ED3D028B 
  93      01A4
  94 01a0 6A       		.ascii	"j"
  95              		.text
  96              		.section	.gnu.lto_SCLK_2_Read.47c716a,"",%progbits
  97 0000 789C354F 		.ascii	"x\2345O\277KBQ\024>\337\275\317\367$\252\177 \007is"
  97      BF4B4251 
  97      143EDFBD 
  97      CFF724AA 
  97      7F200769 
  98 0015 89288268 		.ascii	"\211(\202h\025j\250!\022\232\004\011{k\202\324\354{"
  98      156AA821 
  98      129A0409 
  98      7B6B82D4 
  98      EC7B
  99 0027 3E5F4134 		.ascii	">_A4\324PAP\016\025j%\321$4\251KETS\320\024Q\341\320"
  99      D4504150 
  99      0E156A25 
  99      D12434A9 
  99      4B455453 
 100 0040 94620462 		.ascii	"\224b\004b\331\271\275:p\317\271\367\334\357\3079\032"
 100      D9B9BD3A 
 100      70CFB9F7 
 100      DCEFC739 
 100      1A
ARM GAS  C:\Users\JEFFSN~1\AppData\Local\Temp\ccdFOqdR.s 			page 7


 101 0051 8154CC72 		.ascii	"\201T\314r\351\347\332\307\007\222 \326o\211l\277\000"
 101      E9E7DAC7 
 101      079220D6 
 101      6F896CBF 
 101      00
 102 0062 D4C5F283 		.ascii	"\324\305\362\203R\002)|\210/\201\353\317\313\265\256"
 102      5202297C 
 102      882F81EB 
 102      CFCBB5AE 
 103 0072 50CEB2D2 		.ascii	"P\316\262\322\326\323akt;_\206+\211:\2020\034\300`@"
 103      D6D3616B 
 103      743B5F86 
 103      2B893A82 
 103      301CC060 
 104 0087 49E41022 		.ascii	"I\344\020\"\206>\237}o\366\350\031\213#\250\000\374"
 104      863E9F7D 
 104      6FF6E819 
 104      8B23A800 
 104      FC
 105 0098 9387AE2C 		.ascii	"\223\207\256,Og\312V\247\343X\345{\243\362`\030 W\262"
 105      4F67CA56 
 105      A7E358E5 
 105      7BA3F260 
 105      182057B2 
 106 00ac 2F278D93 		.ascii	"/'\215\223\360\251\244\223\222\245w\246\251!\352B\250"
 106      F0A9A493 
 106      92A577A6 
 106      A921EA42 
 106      A8
 107 00bd 2A6BA8B6 		.ascii	"*k\250\266V\037\367\306\224\222#%\273l\271\325;\243"
 107      561FF7C6 
 107      94922325 
 107      BB6CB9D5 
 107      3BA3
 108 00cf 295C29A1 		.ascii	")\\)\241L\013\033\245\306\337\263\262o[\032\267\354"
 108      4C0B1BA5 
 108      C6DFB3B2 
 108      6F5B1AB7 
 108      EC
 109 00e0 52F1C2C8 		.ascii	"R\361\302\310b\327\316\360\250\032\216\020@\001<(\216"
 109      62D7CEF0 
 109      A81A8E10 
 109      40013C28 
 109      8E
 110 00f1 9105D5E0 		.ascii	"\221\005\325\340\264\307\311\221\360\344\3527;/\275"
 110      B4C7C991 
 110      F0E4EA37 
 110      3B2FBD
 111 0100 8A0F0471 		.ascii	"\212\017\004q\302\260\032\322\215\225\266\360\0145\306"
 111      C2B01AD2 
 111      8D95B6F0 
 111      0C35C6
 112 010f 294663B9 		.ascii	")Fc\271\251y\035\0377\231vup\336\356V4\001\037\212\377"
 112      A9791D1F 
 112      37997675 
 112      70DEEE56 
 112      34011F8A 
ARM GAS  C:\Users\JEFFSN~1\AppData\Local\Temp\ccdFOqdR.s 			page 8


 113 0124 B4577820 		.ascii	"\264Wx \205\2437\374\211\350\364\273\030\324B\274^p"
 113      85A337FC 
 113      89E8F4BB 
 113      18D442BC 
 113      5E70
 114 0136 C25C3093 		.ascii	"\302\\0\223s\213\346|,\222XJ\306\315\350t$\021\036\211"
 114      738BE67C 
 114      2C92584A 
 114      C6CDE874 
 114      24111E89 
 115 014a 46C25393 		.ascii	"F\302S\223\261\241\2018\375\000Ly{U"
 115      B1A18138 
 115      FD004C79 
 115      7B55
 116              		.text
 117              		.section	.gnu.lto_SCLK_2_ReadDataReg.47c716a,"",%progbits
 118 0000 789C354F 		.ascii	"x\2345O\275KBQ\024?\277{\237O\021\353\037\310A\332\\"
 118      BD4B4251 
 118      143FBF7B 
 118      9F4F11EB 
 118      1FC841DA 
 119 0015 228A865A 		.ascii	"\"\212\206Z\205\032j\210\204&A\302\336\232 5\373\364"
 119      851A6A88 
 119      842641C2 
 119      DE9A2035 
 119      FBF4
 120 0027 F98AA2A1 		.ascii	"\371\212\242\241\245\204 \034*\324>ii\010\202\227S\021"
 120      A584201C 
 120      2AD43E69 
 120      69088297 
 120      5311
 121 0039 7DFD0181 		.ascii	"}\375\001\201T84\245\030A\230vn\317\016\334s\356=\367"
 121      543834A5 
 121      18419876 
 121      6ECF0EDC 
 121      73EE3DF7 
 122 004d F7718E46 		.ascii	"\367q\216F \025\263\\\372\271\366\361\201$\210\215{"
 122      2015B35C 
 122      FAB9F6F1 
 122      8124888D 
 122      7B
 123 005e A28C4F00 		.ascii	"\242\214O\000\352b\372@i\2014>\305\217\300\355\327\365"
 123      EA62FA40 
 123      6981343E 
 123      C58FC0ED 
 123      D7F5
 124 0070 BA3F5C34 		.ascii	"\272?\\4\315\254Y\335/\216\346K\016lI\324\021\204\341"
 124      CDAC59DD 
 124      2F8EE64B 
 124      0E6C49D4 
 124      1184E1
 125 0083 2006834A 		.ascii	" \006\203J\242\21001\364\345\254\275\331\243\347L\216"
 125      A2883031 
 125      F4E5ACBD 
 125      D9A3E74C 
 125      8E
 126 0094 9002F04F 		.ascii	"\220\002\360O\011\272\262<\235q\314N\3072\235K\377\325"
ARM GAS  C:\Users\JEFFSN~1\AppData\Local\Temp\ccdFOqdR.s 			page 9


 126      09BAB23C 
 126      9D71CC4E 
 126      C7329D4B 
 126      FFD5
 127 00a6 A3DF0BB2 		.ascii	"\243\337\013\262%\373r\3228\011\217J:)Y\372`\232\032"
 127      25FB72D2 
 127      38098F4A 
 127      3A2959FA 
 127      609A1A
 128 00b9 A22E84AA 		.ascii	"\242.\204\252\262\206\312\367Z\273<\246\224,)\331e\313"
 128      B286CAF7 
 128      5ABB3CA6 
 128      942C29D9 
 128      65CB
 129 00cb AE3C789B 		.ascii	"\256<x\233\302\226\022\312\364\251\364\234\357>\235"
 129      C29612CA 
 129      F4A9F49C 
 129      EF3E9D
 130 00da DD8CA971 		.ascii	"\335\214\251q\353\344\274\272\032(`'\223\343Q5\034 "
 130      EBE4BCBA 
 130      1A286027 
 130      93E35135 
 130      1C20
 131 00ec 88327850 		.ascii	"\2102xP\034\242\000\252\301j\215\223%\341\312\325\357"
 131      1CA200AA 
 131      C16A8D93 
 131      25E1CAD5 
 131      EF
 132 00fd B65F7B15 		.ascii	"\266_{\025\037\010\341\210a5d\033+-\341\032j\214S\214"
 132      1F08E188 
 132      6135641B 
 132      2B2DE11A 
 132      6A8C538C 
 133 0111 C6725373 		.ascii	"\306rSs;\036n2\355f\357\242\025P4\001\017\216\377io"
 133      3B1E6E32 
 133      ED66EFA2 
 133      15503401 
 133      0F8EFF69 
 134 0126 70410A47 		.ascii	"pA\012G\357\350\212\350\364\267\030\324B\274^h\302X"
 134      EFE88AE8 
 134      F4B718D4 
 134      42BC5E68 
 134      C258
 135 0138 3052738B 		.ascii	"0Rs\213\306|<\232\\J%\214\330t4\031\031\211E#S\223\361"
 135      C67C3C9A 
 135      5C4A258C 
 135      D8743419 
 135      19894523 
 136 014f A18104FD 		.ascii	"\241\201\004\375\002\011\022{C"
 136      0209127B 
 136      43
 137              		.text
 138              		.section	.gnu.lto_.symbol_nodes.47c716a,"",%progbits
 139 0000 789C6361 		.ascii	"x\234ca`dpc\000\002&\206z\006\206\011\347\030@\324\256"
 139      60647063 
 139      00022686 
 139      7A068609 
ARM GAS  C:\Users\JEFFSN~1\AppData\Local\Temp\ccdFOqdR.s 			page 10


 139      E71840D4 
 140 0015 0645A000 		.ascii	"\006E\240\000c=#\252\000S=\023\252\000s=3\212\000\003"
 140      633D23AA 
 140      00533D13 
 140      AA00733D 
 140      338A0003 
 141 0029 0026B60F 		.ascii	"\000&\266\017<"
 141      3C
 142              		.text
 143              		.section	.gnu.lto_.refs.47c716a,"",%progbits
 144 0000 789C6361 		.ascii	"x\234ca`\004B \000\000\0009\000\007"
 144      60044220 
 144      00000039 
 144      0007
 145              		.text
 146              		.section	.gnu.lto_.decls.47c716a,"",%progbits
 147 0000 789C8D53 		.ascii	"x\234\215S]H\024Q\024\276gfv]\306\315\302\"|Xh\363\311"
 147      5D481451 
 147      14BE6766 
 147      765DC6CD 
 147      C2227C58 
 148 0017 27C922F0 		.ascii	"'\311\"\360!,P\362\241\037\303E{\021d\325\301|\321\330"
 148      212C50F2 
 148      A11FC345 
 148      7B1164D5 
 148      C17CD1D8 
 149 002b D6C0B7AB 		.ascii	"\326\300\267\253k\321\317C\012Z\256\011\376\004\345"
 149      6BD1CF43 
 149      0A5AAE09 
 149      FE04E5
 150 003a BF96BBE6 		.ascii	"\277\226\273\346n\232&d\022\010\212!\204I\202\006-\231"
 150      6E9A2664 
 150      12088A21 
 150      84498206 
 150      2D99
 151 004c 29492065 		.ascii	")I e\333\271wf\232\3016\3600g\346\234{\317\367\235\357"
 151      DBB97766 
 151      9AC136F0 
 151      3067E69C 
 151      7BCFF79D 
 152 0061 9E999108 		.ascii	"\236\231\221\010\020f\031\022!M\370t`\032E\263`\234"
 152      10661912 
 152      214DF874 
 152      601A45B3 
 152      609C
 153 0073 4F0CC36D 		.ascii	"O\014\303m2\204\036D\037A\017\223\177\215\355[5\\?\343"
 153      32841E44 
 153      1F410F93 
 153      7F8DED5B 
 153      355C3FE3 
 154 0087 421F471F 		.ascii	"B\037G\037C\317\321j@\253\333m\301\030\330I\023^\307"
 154      43CFD16A 
 154      40ABDB6D 
 154      C118D849 
 154      135EC7
 155 009a 06636099 		.ascii	"\006c`\231\036\213\011\227\023\0037\022\003\027\336"
 155      1E8B0997 
ARM GAS  C:\Users\JEFFSN~1\AppData\Local\Temp\ccdFOqdR.s 			page 11


 155      13033712 
 155      0317DE
 156 00a9 032ED639 		.ascii	"\003.\3269w\004\210\266\006\356\331\026\341=\210D\033"
 156      770488B6 
 156      06EED916 
 156      E13D8844 
 156      1B
 157 00ba 200150EF 		.ascii	" \001P\357\300\235\250\316S\014\004\242\006\372\322"
 157      C09DA8CE 
 157      530C04A2 
 157      06FAD2
 158 00c9 5F235A89 		.ascii	"_#Z\211\240\207\006\031\2774<Du\343$\006;h 5\327uk "
 158      A0870619 
 158      BF343C44 
 158      75E32406 
 158      3B682035 
 159 00e1 108C06A0 		.ascii	"\020\214\006\240\246:\302\304\267K\221\256YoC\004\375"
 159      A63AC2C4 
 159      B74B91AE 
 159      596F4304 
 159      FD
 160 00f2 D06BDD81 		.ascii	"\320k\335\201w\026Q\000\026\177\334\356<\233\332K\321"
 160      77165100 
 160      167FDCEE 
 160      3C9BDA4B 
 160      D1
 161 0103 EA28158E 		.ascii	"\352(\025\216\030\223\031\270\261\332e\333\022\300!"
 161      189319B8 
 161      B1DA65DB 
 161      12C021
 162 0112 431458BE 		.ascii	"C\024X\276\026\332\336\247\346l\333_\277\362;^Lb\261"
 162      16DADEA7 
 162      E66CDB5F 
 162      BFF23B5E 
 162      4C62B1
 163 0125 30BFD213 		.ascii	"0\277\322\023\221 E~\314h\226wV3B\224\036\200~\220\241"
 163      9120457E 
 163      CC689677 
 163      56334294 
 163      1E807E90 
 164 013a 1744E882 		.ascii	"\027D\350\202T\246\301!\343\375\026\2455t\243\203Z\223"
 164      54A6C121 
 164      E3FD16A5 
 164      3574A383 
 164      5A93
 165 014c 089C70C0 		.ascii	"\010\234p\3001\007\201>Ha\234\254\012z\300\001\335\340"
 165      3107813E 
 165      48619CAC 
 165      0A7AC001 
 165      DDE0
 166 015e 60FC9F1E 		.ascii	"`\374\237\036\264~\261J(\231\363\024Ilm\256v\260ED\011"
 166      B47EB14A 
 166      2899F314 
 166      496C6DAE 
 166      76B04544 
 167 0173 89324898 		.ascii	"\2112H\230n\3164\257$`zH\006'\246\275\341\017k\326\244"
 167      6ECE34AF 
ARM GAS  C:\Users\JEFFSN~1\AppData\Local\Temp\ccdFOqdR.s 			page 12


 167      24607A48 
 167      0627A6BD 
 167      E10F6BD6 
 168 0188 FBFC283E 		.ascii	"\373\374(>\352\224 \3770<E\302A$$\360\014\222\360>\000"
 168      EA9420FF 
 168      303C45C2 
 168      412424F0 
 168      0C92F03E 
 169 019d 927ABAA5 		.ascii	"\222z\272\245>\372\010\222\333h\333 ]\256\237:u\337"
 169      3EFA0892 
 169      DB68DB20 
 169      5DAE9F3A 
 169      75DF
 170 01af 47A711E7 		.ascii	"G\247\021\347de\320i\210\356d\337\005\201'\260\2103"
 170      6465D069 
 170      88EE64DF 
 170      058127B0 
 170      8833
 171 01c1 1C826444 		.ascii	"\034\202dDF\326\333\327\343E7\037\302\267\365\351*\225"
 171      46D6DBD7 
 171      E345371F 
 171      C2B7F5E9 
 171      2A95
 172 01d3 64626BCA 		.ascii	"dbk\312N\353\252)=\303)\002\006E\300L\021\344\024?\033"
 172      4EEBAA29 
 172      3DC32902 
 172      0645C04C 
 172      11E4143F 
 173 01e8 7EF459C5 		.ascii	"~\364Y\305JN1{\367\265o\277Y5;\256!\3739\227]\244\251"
 173      4A4E317B 
 173      F7B56FBF 
 173      59353BAE 
 173      21FB3997 
 174 01ff DE5C9E69 		.ascii	"\336\\\236i\261i\015\347\337\210~:Q\2138\201U\301\260"
 174      B1690DE7 
 174      DF887E3A 
 174      518B3881 
 174      55C1B0
 175 0212 D172D8DC 		.ascii	"\321r\330\334r\204\267\364\177\336\271i\021\253\201"
 175      7284B7F4 
 175      7FDEB969 
 175      11AB81
 176 0221 F7FCB514 		.ascii	"\367\374\265\024\351\260j4\341\267\272nF\0222HBf\222"
 176      E9B06A34 
 176      E1B7BA6E 
 176      46123248 
 176      426692
 177 0234 3027D9AA 		.ascii	"0'\331\252\375\276`\225\361\035\372\366\366\016g\"\355"
 177      FDBE6095 
 177      F11DFAF6 
 177      F60E6722 
 177      ED
 178 0245 D138B181 		.ascii	"\3218\261\2017\025\206\032\375\215q \247\304\200\277"
 178      3715861A 
 178      FD8D7120 
 178      A7C480BF 
 179 0255 8C01D7BE 		.ascii	"\214\001\327\276\245\336\274\372\333\354\204c8\225Q"
ARM GAS  C:\Users\JEFFSN~1\AppData\Local\Temp\ccdFOqdR.s 			page 13


 179      A5DEBCFA 
 179      DBEC8463 
 179      389551
 180 0264 43DC0B90 		.ascii	"C\334\013\220\325\211\004f\277\016X\354w\330g\205\343"
 180      D5890466 
 180      BF0E58EC 
 180      77D86785 
 180      E3
 181 0275 4B9C4EE0 		.ascii	"K\234N\340\225\306\374\306\301\316\377\000|\356\010"
 181      95C6FCC6 
 181      C1CEFF00 
 181      7CEE08
 182 0284 E2E8C2C3 		.ascii	"\342\350\302\303\026\021\367\330%7S\224B\347\000&\221"
 182      1611F7D8 
 182      25375394 
 182      42E70026 
 182      91
 183 0295 8C271BA7 		.ascii	"\214'\033\247y\314\226\351F\015\2656%\350\022\011\337"
 183      79CC96E9 
 183      460DB536 
 183      25E81209 
 183      DF
 184 02a6 203081C8 		.ascii	" 0\201\310WH\314S\273+\363\374\271\302\343\205\227="
 184      5748CC53 
 184      BB2BF3FC 
 184      B9C2E385 
 184      973D
 185 02b8 655EC596 		.ascii	"e^\305\226}1\317\231\231\226F,\225e\345\336\364\243"
 185      7D31CF99 
 185      9996462C 
 185      9565E5DE 
 185      F4A3
 186 02ca D94AB9E2 		.ascii	"\331J\271\342q{\225\222BWE\245\247X)\270\344\252\310"
 186      717B9592 
 186      425745A5 
 186      A75829B8 
 186      E4AAC8
 187 02dd 3C59505C 		.ascii	"<YP\\\345\255\272\252\\K\275B\234\377\251PIS\213\311"
 187      E5ADBAAA 
 187      5C4BBD42 
 187      9CFFA950 
 187      49538BC9 
 188 02f1 418DDEA5 		.ascii	"A\215\336\245x\263<e\327\225\013\025%J\274\266\226\253"
 188      78B33C65 
 188      D7950B15 
 188      254ABCB6 
 188      96AB
 189 0303 B84B124D 		.ascii	"\270K\022Mq\226\333\353\316UJ%\217R\232\376\007R\260"
 189      7196DBEB 
 189      CE554A25 
 189      8F529AFE 
 189      0752B0
 190 0316 6286     		.ascii	"b\206"
 191              		.text
 192              		.section	.gnu.lto_.symtab.47c716a,"",%progbits
 193 0000 53434C4B 		.ascii	"SCLK_2_Write\000"
 193      5F325F57 
ARM GAS  C:\Users\JEFFSN~1\AppData\Local\Temp\ccdFOqdR.s 			page 14


 193      72697465 
 193      00
 194 000d 00       		.ascii	"\000"
 195 000e 00       		.ascii	"\000"
 196 000f 00       		.ascii	"\000"
 197 0010 00000000 		.ascii	"\000\000\000\000\000\000\000\000"
 197      00000000 
 198 0018 B3000000 		.ascii	"\263\000\000\000"
 199 001c 53434C4B 		.ascii	"SCLK_2_SetDriveMode\000"
 199      5F325F53 
 199      65744472 
 199      6976654D 
 199      6F646500 
 200 0030 00       		.ascii	"\000"
 201 0031 00       		.ascii	"\000"
 202 0032 00       		.ascii	"\000"
 203 0033 00000000 		.ascii	"\000\000\000\000\000\000\000\000"
 203      00000000 
 204 003b B5000000 		.ascii	"\265\000\000\000"
 205 003f 53434C4B 		.ascii	"SCLK_2_Read\000"
 205      5F325F52 
 205      65616400 
 206 004b 00       		.ascii	"\000"
 207 004c 00       		.ascii	"\000"
 208 004d 00       		.ascii	"\000"
 209 004e 00000000 		.ascii	"\000\000\000\000\000\000\000\000"
 209      00000000 
 210 0056 B8000000 		.ascii	"\270\000\000\000"
 211 005a 53434C4B 		.ascii	"SCLK_2_ReadDataReg\000"
 211      5F325F52 
 211      65616444 
 211      61746152 
 211      656700
 212 006d 00       		.ascii	"\000"
 213 006e 00       		.ascii	"\000"
 214 006f 00       		.ascii	"\000"
 215 0070 00000000 		.ascii	"\000\000\000\000\000\000\000\000"
 215      00000000 
 216 0078 BA000000 		.ascii	"\272\000\000\000"
 217              		.text
 218              		.section	.gnu.lto_.opts,"",%progbits
 219 0000 272D666D 		.ascii	"'-fmath-errno' '-fsigned-zeros' '-ftrapping-math' '"
 219      6174682D 
 219      6572726E 
 219      6F272027 
 219      2D667369 
 220 0033 2D666E6F 		.ascii	"-fno-trapv' '-fno-openmp' '-fno-openacc' '-mcpu=cor"
 220      2D747261 
 220      70762720 
 220      272D666E 
 220      6F2D6F70 
 221 0066 7465782D 		.ascii	"tex-m3' '-mthumb' '-g' '-O3' '-ffunction-sections' "
 221      6D332720 
 221      272D6D74 
 221      68756D62 
 221      2720272D 
 222 0099 272D6666 		.ascii	"'-ffat-lto-objects' '-finline-functions' '-flto'\000"
ARM GAS  C:\Users\JEFFSN~1\AppData\Local\Temp\ccdFOqdR.s 			page 15


 222      61742D6C 
 222      746F2D6F 
 222      626A6563 
 222      74732720 
 223              		.text
 224              		.cfi_sections	.debug_frame
 225              		.section	.text.SCLK_2_Write,"ax",%progbits
 226              		.align	2
 227              		.global	SCLK_2_Write
 228              		.thumb
 229              		.thumb_func
 230              		.type	SCLK_2_Write, %function
 231              	SCLK_2_Write:
 232              	.LFB0:
 233              		.file 1 "Generated_Source\\PSoC5\\SCLK_2.c"
   1:Generated_Source\PSoC5/SCLK_2.c **** /*******************************************************************************
   2:Generated_Source\PSoC5/SCLK_2.c **** * File Name: SCLK_2.c  
   3:Generated_Source\PSoC5/SCLK_2.c **** * Version 2.20
   4:Generated_Source\PSoC5/SCLK_2.c **** *
   5:Generated_Source\PSoC5/SCLK_2.c **** * Description:
   6:Generated_Source\PSoC5/SCLK_2.c **** *  This file contains API to enable firmware control of a Pins component.
   7:Generated_Source\PSoC5/SCLK_2.c **** *
   8:Generated_Source\PSoC5/SCLK_2.c **** * Note:
   9:Generated_Source\PSoC5/SCLK_2.c **** *
  10:Generated_Source\PSoC5/SCLK_2.c **** ********************************************************************************
  11:Generated_Source\PSoC5/SCLK_2.c **** * Copyright 2008-2015, Cypress Semiconductor Corporation.  All rights reserved.
  12:Generated_Source\PSoC5/SCLK_2.c **** * You may use this file only in accordance with the license, terms, conditions, 
  13:Generated_Source\PSoC5/SCLK_2.c **** * disclaimers, and limitations in the end user license agreement accompanying 
  14:Generated_Source\PSoC5/SCLK_2.c **** * the software package with which this file was provided.
  15:Generated_Source\PSoC5/SCLK_2.c **** *******************************************************************************/
  16:Generated_Source\PSoC5/SCLK_2.c **** 
  17:Generated_Source\PSoC5/SCLK_2.c **** #include "cytypes.h"
  18:Generated_Source\PSoC5/SCLK_2.c **** #include "SCLK_2.h"
  19:Generated_Source\PSoC5/SCLK_2.c **** 
  20:Generated_Source\PSoC5/SCLK_2.c **** /* APIs are not generated for P15[7:6] on PSoC 5 */
  21:Generated_Source\PSoC5/SCLK_2.c **** #if !(CY_PSOC5A &&\
  22:Generated_Source\PSoC5/SCLK_2.c **** 	 SCLK_2__PORT == 15 && ((SCLK_2__MASK & 0xC0) != 0))
  23:Generated_Source\PSoC5/SCLK_2.c **** 
  24:Generated_Source\PSoC5/SCLK_2.c **** 
  25:Generated_Source\PSoC5/SCLK_2.c **** /*******************************************************************************
  26:Generated_Source\PSoC5/SCLK_2.c **** * Function Name: SCLK_2_Write
  27:Generated_Source\PSoC5/SCLK_2.c **** ****************************************************************************//**
  28:Generated_Source\PSoC5/SCLK_2.c **** *
  29:Generated_Source\PSoC5/SCLK_2.c **** * \brief Writes the value to the physical port (data output register), masking
  30:Generated_Source\PSoC5/SCLK_2.c **** *  and shifting the bits appropriately. 
  31:Generated_Source\PSoC5/SCLK_2.c **** *
  32:Generated_Source\PSoC5/SCLK_2.c **** * The data output register controls the signal applied to the physical pin in 
  33:Generated_Source\PSoC5/SCLK_2.c **** * conjunction with the drive mode parameter. This function avoids changing 
  34:Generated_Source\PSoC5/SCLK_2.c **** * other bits in the port by using the appropriate method (read-modify-write or
  35:Generated_Source\PSoC5/SCLK_2.c **** * bit banding).
  36:Generated_Source\PSoC5/SCLK_2.c **** *
  37:Generated_Source\PSoC5/SCLK_2.c **** * <b>Note</b> This function should not be used on a hardware digital output pin 
  38:Generated_Source\PSoC5/SCLK_2.c **** * as it is driven by the hardware signal attached to it.
  39:Generated_Source\PSoC5/SCLK_2.c **** *
  40:Generated_Source\PSoC5/SCLK_2.c **** * \param value
  41:Generated_Source\PSoC5/SCLK_2.c **** *  Value to write to the component instance.
  42:Generated_Source\PSoC5/SCLK_2.c **** *
ARM GAS  C:\Users\JEFFSN~1\AppData\Local\Temp\ccdFOqdR.s 			page 16


  43:Generated_Source\PSoC5/SCLK_2.c **** * \return 
  44:Generated_Source\PSoC5/SCLK_2.c **** *  None 
  45:Generated_Source\PSoC5/SCLK_2.c **** *
  46:Generated_Source\PSoC5/SCLK_2.c **** * \sideeffect
  47:Generated_Source\PSoC5/SCLK_2.c **** *  If you use read-modify-write operations that are not atomic; the Interrupt 
  48:Generated_Source\PSoC5/SCLK_2.c **** *  Service Routines (ISR) can cause corruption of this function. An ISR that 
  49:Generated_Source\PSoC5/SCLK_2.c **** *  interrupts this function and performs writes to the Pins component data 
  50:Generated_Source\PSoC5/SCLK_2.c **** *  register can cause corrupted port data. To avoid this issue, you should 
  51:Generated_Source\PSoC5/SCLK_2.c **** *  either use the Per-Pin APIs (primary method) or disable interrupts around 
  52:Generated_Source\PSoC5/SCLK_2.c **** *  this function.
  53:Generated_Source\PSoC5/SCLK_2.c **** *
  54:Generated_Source\PSoC5/SCLK_2.c **** * \funcusage
  55:Generated_Source\PSoC5/SCLK_2.c **** *  \snippet SCLK_2_SUT.c usage_SCLK_2_Write
  56:Generated_Source\PSoC5/SCLK_2.c **** *******************************************************************************/
  57:Generated_Source\PSoC5/SCLK_2.c **** void SCLK_2_Write(uint8 value)
  58:Generated_Source\PSoC5/SCLK_2.c **** {
 234              		.loc 1 58 0
 235              		.cfi_startproc
 236              		@ args = 0, pretend = 0, frame = 0
 237              		@ frame_needed = 0, uses_anonymous_args = 0
 238              		@ link register save eliminated.
 239              	.LVL0:
  59:Generated_Source\PSoC5/SCLK_2.c ****     uint8 staticBits = (SCLK_2_DR & (uint8)(~SCLK_2_MASK));
 240              		.loc 1 59 0
 241 0000 044A     		ldr	r2, .L2
  60:Generated_Source\PSoC5/SCLK_2.c ****     SCLK_2_DR = staticBits | ((uint8)(value << SCLK_2_SHIFT) & SCLK_2_MASK);
 242              		.loc 1 60 0
 243 0002 4001     		lsls	r0, r0, #5
 244              	.LVL1:
  59:Generated_Source\PSoC5/SCLK_2.c ****     uint8 staticBits = (SCLK_2_DR & (uint8)(~SCLK_2_MASK));
 245              		.loc 1 59 0
 246 0004 1378     		ldrb	r3, [r2]	@ zero_extendqisi2
 247              	.LVL2:
 248              		.loc 1 60 0
 249 0006 00F02000 		and	r0, r0, #32
 250 000a 03F0DF03 		and	r3, r3, #223
 251              	.LVL3:
 252 000e 1843     		orrs	r0, r0, r3
 253 0010 1070     		strb	r0, [r2]
 254 0012 7047     		bx	lr
 255              	.L3:
 256              		.align	2
 257              	.L2:
 258 0014 C0510040 		.word	1073762752
 259              		.cfi_endproc
 260              	.LFE0:
 261              		.size	SCLK_2_Write, .-SCLK_2_Write
 262              		.section	.text.SCLK_2_SetDriveMode,"ax",%progbits
 263              		.align	2
 264              		.global	SCLK_2_SetDriveMode
 265              		.thumb
 266              		.thumb_func
 267              		.type	SCLK_2_SetDriveMode, %function
 268              	SCLK_2_SetDriveMode:
 269              	.LFB1:
  61:Generated_Source\PSoC5/SCLK_2.c **** }
  62:Generated_Source\PSoC5/SCLK_2.c **** 
ARM GAS  C:\Users\JEFFSN~1\AppData\Local\Temp\ccdFOqdR.s 			page 17


  63:Generated_Source\PSoC5/SCLK_2.c **** 
  64:Generated_Source\PSoC5/SCLK_2.c **** /*******************************************************************************
  65:Generated_Source\PSoC5/SCLK_2.c **** * Function Name: SCLK_2_SetDriveMode
  66:Generated_Source\PSoC5/SCLK_2.c **** ****************************************************************************//**
  67:Generated_Source\PSoC5/SCLK_2.c **** *
  68:Generated_Source\PSoC5/SCLK_2.c **** * \brief Sets the drive mode for each of the Pins component's pins.
  69:Generated_Source\PSoC5/SCLK_2.c **** * 
  70:Generated_Source\PSoC5/SCLK_2.c **** * <b>Note</b> This affects all pins in the Pins component instance. Use the
  71:Generated_Source\PSoC5/SCLK_2.c **** * Per-Pin APIs if you wish to control individual pin's drive modes.
  72:Generated_Source\PSoC5/SCLK_2.c **** *
  73:Generated_Source\PSoC5/SCLK_2.c **** * \param mode
  74:Generated_Source\PSoC5/SCLK_2.c **** *  Mode for the selected signals. Valid options are documented in 
  75:Generated_Source\PSoC5/SCLK_2.c **** *  \ref driveMode.
  76:Generated_Source\PSoC5/SCLK_2.c **** *
  77:Generated_Source\PSoC5/SCLK_2.c **** * \return
  78:Generated_Source\PSoC5/SCLK_2.c **** *  None
  79:Generated_Source\PSoC5/SCLK_2.c **** *
  80:Generated_Source\PSoC5/SCLK_2.c **** * \sideeffect
  81:Generated_Source\PSoC5/SCLK_2.c **** *  If you use read-modify-write operations that are not atomic, the ISR can
  82:Generated_Source\PSoC5/SCLK_2.c **** *  cause corruption of this function. An ISR that interrupts this function 
  83:Generated_Source\PSoC5/SCLK_2.c **** *  and performs writes to the Pins component Drive Mode registers can cause 
  84:Generated_Source\PSoC5/SCLK_2.c **** *  corrupted port data. To avoid this issue, you should either use the Per-Pin
  85:Generated_Source\PSoC5/SCLK_2.c **** *  APIs (primary method) or disable interrupts around this function.
  86:Generated_Source\PSoC5/SCLK_2.c **** *
  87:Generated_Source\PSoC5/SCLK_2.c **** * \funcusage
  88:Generated_Source\PSoC5/SCLK_2.c **** *  \snippet SCLK_2_SUT.c usage_SCLK_2_SetDriveMode
  89:Generated_Source\PSoC5/SCLK_2.c **** *******************************************************************************/
  90:Generated_Source\PSoC5/SCLK_2.c **** void SCLK_2_SetDriveMode(uint8 mode)
  91:Generated_Source\PSoC5/SCLK_2.c **** {
 270              		.loc 1 91 0
 271              		.cfi_startproc
 272              		@ args = 0, pretend = 0, frame = 0
 273              		@ frame_needed = 0, uses_anonymous_args = 0
 274              		@ link register save eliminated.
 275              	.LVL4:
  92:Generated_Source\PSoC5/SCLK_2.c **** 	CyPins_SetPinDriveMode(SCLK_2_0, mode);
 276              		.loc 1 92 0
 277 0000 044A     		ldr	r2, .L5
 278 0002 00F00E00 		and	r0, r0, #14
 279              	.LVL5:
 280 0006 1378     		ldrb	r3, [r2]	@ zero_extendqisi2
 281 0008 03F0F103 		and	r3, r3, #241
 282 000c 1843     		orrs	r0, r0, r3
 283 000e 1070     		strb	r0, [r2]
 284 0010 7047     		bx	lr
 285              	.L6:
 286 0012 00BF     		.align	2
 287              	.L5:
 288 0014 65500040 		.word	1073762405
 289              		.cfi_endproc
 290              	.LFE1:
 291              		.size	SCLK_2_SetDriveMode, .-SCLK_2_SetDriveMode
 292              		.section	.text.SCLK_2_Read,"ax",%progbits
 293              		.align	2
 294              		.global	SCLK_2_Read
 295              		.thumb
 296              		.thumb_func
ARM GAS  C:\Users\JEFFSN~1\AppData\Local\Temp\ccdFOqdR.s 			page 18


 297              		.type	SCLK_2_Read, %function
 298              	SCLK_2_Read:
 299              	.LFB2:
  93:Generated_Source\PSoC5/SCLK_2.c **** }
  94:Generated_Source\PSoC5/SCLK_2.c **** 
  95:Generated_Source\PSoC5/SCLK_2.c **** 
  96:Generated_Source\PSoC5/SCLK_2.c **** /*******************************************************************************
  97:Generated_Source\PSoC5/SCLK_2.c **** * Function Name: SCLK_2_Read
  98:Generated_Source\PSoC5/SCLK_2.c **** ****************************************************************************//**
  99:Generated_Source\PSoC5/SCLK_2.c **** *
 100:Generated_Source\PSoC5/SCLK_2.c **** * \brief Reads the associated physical port (pin status register) and masks 
 101:Generated_Source\PSoC5/SCLK_2.c **** *  the required bits according to the width and bit position of the component
 102:Generated_Source\PSoC5/SCLK_2.c **** *  instance. 
 103:Generated_Source\PSoC5/SCLK_2.c **** *
 104:Generated_Source\PSoC5/SCLK_2.c **** * The pin's status register returns the current logic level present on the 
 105:Generated_Source\PSoC5/SCLK_2.c **** * physical pin.
 106:Generated_Source\PSoC5/SCLK_2.c **** *
 107:Generated_Source\PSoC5/SCLK_2.c **** * \return 
 108:Generated_Source\PSoC5/SCLK_2.c **** *  The current value for the pins in the component as a right justified number.
 109:Generated_Source\PSoC5/SCLK_2.c **** *
 110:Generated_Source\PSoC5/SCLK_2.c **** * \funcusage
 111:Generated_Source\PSoC5/SCLK_2.c **** *  \snippet SCLK_2_SUT.c usage_SCLK_2_Read  
 112:Generated_Source\PSoC5/SCLK_2.c **** *******************************************************************************/
 113:Generated_Source\PSoC5/SCLK_2.c **** uint8 SCLK_2_Read(void)
 114:Generated_Source\PSoC5/SCLK_2.c **** {
 300              		.loc 1 114 0
 301              		.cfi_startproc
 302              		@ args = 0, pretend = 0, frame = 0
 303              		@ frame_needed = 0, uses_anonymous_args = 0
 304              		@ link register save eliminated.
 115:Generated_Source\PSoC5/SCLK_2.c ****     return (SCLK_2_PS & SCLK_2_MASK) >> SCLK_2_SHIFT;
 305              		.loc 1 115 0
 306 0000 024B     		ldr	r3, .L8
 307 0002 1878     		ldrb	r0, [r3]	@ zero_extendqisi2
 116:Generated_Source\PSoC5/SCLK_2.c **** }
 308              		.loc 1 116 0
 309 0004 C0F34010 		ubfx	r0, r0, #5, #1
 310 0008 7047     		bx	lr
 311              	.L9:
 312 000a 00BF     		.align	2
 313              	.L8:
 314 000c C1510040 		.word	1073762753
 315              		.cfi_endproc
 316              	.LFE2:
 317              		.size	SCLK_2_Read, .-SCLK_2_Read
 318              		.section	.text.SCLK_2_ReadDataReg,"ax",%progbits
 319              		.align	2
 320              		.global	SCLK_2_ReadDataReg
 321              		.thumb
 322              		.thumb_func
 323              		.type	SCLK_2_ReadDataReg, %function
 324              	SCLK_2_ReadDataReg:
 325              	.LFB3:
 117:Generated_Source\PSoC5/SCLK_2.c **** 
 118:Generated_Source\PSoC5/SCLK_2.c **** 
 119:Generated_Source\PSoC5/SCLK_2.c **** /*******************************************************************************
 120:Generated_Source\PSoC5/SCLK_2.c **** * Function Name: SCLK_2_ReadDataReg
ARM GAS  C:\Users\JEFFSN~1\AppData\Local\Temp\ccdFOqdR.s 			page 19


 121:Generated_Source\PSoC5/SCLK_2.c **** ****************************************************************************//**
 122:Generated_Source\PSoC5/SCLK_2.c **** *
 123:Generated_Source\PSoC5/SCLK_2.c **** * \brief Reads the associated physical port's data output register and masks 
 124:Generated_Source\PSoC5/SCLK_2.c **** *  the correct bits according to the width and bit position of the component 
 125:Generated_Source\PSoC5/SCLK_2.c **** *  instance. 
 126:Generated_Source\PSoC5/SCLK_2.c **** *
 127:Generated_Source\PSoC5/SCLK_2.c **** * The data output register controls the signal applied to the physical pin in 
 128:Generated_Source\PSoC5/SCLK_2.c **** * conjunction with the drive mode parameter. This is not the same as the 
 129:Generated_Source\PSoC5/SCLK_2.c **** * preferred SCLK_2_Read() API because the 
 130:Generated_Source\PSoC5/SCLK_2.c **** * SCLK_2_ReadDataReg() reads the data register instead of the status 
 131:Generated_Source\PSoC5/SCLK_2.c **** * register. For output pins this is a useful function to determine the value 
 132:Generated_Source\PSoC5/SCLK_2.c **** * just written to the pin.
 133:Generated_Source\PSoC5/SCLK_2.c **** *
 134:Generated_Source\PSoC5/SCLK_2.c **** * \return 
 135:Generated_Source\PSoC5/SCLK_2.c **** *  The current value of the data register masked and shifted into a right 
 136:Generated_Source\PSoC5/SCLK_2.c **** *  justified number for the component instance.
 137:Generated_Source\PSoC5/SCLK_2.c **** *
 138:Generated_Source\PSoC5/SCLK_2.c **** * \funcusage
 139:Generated_Source\PSoC5/SCLK_2.c **** *  \snippet SCLK_2_SUT.c usage_SCLK_2_ReadDataReg 
 140:Generated_Source\PSoC5/SCLK_2.c **** *******************************************************************************/
 141:Generated_Source\PSoC5/SCLK_2.c **** uint8 SCLK_2_ReadDataReg(void)
 142:Generated_Source\PSoC5/SCLK_2.c **** {
 326              		.loc 1 142 0
 327              		.cfi_startproc
 328              		@ args = 0, pretend = 0, frame = 0
 329              		@ frame_needed = 0, uses_anonymous_args = 0
 330              		@ link register save eliminated.
 143:Generated_Source\PSoC5/SCLK_2.c ****     return (SCLK_2_DR & SCLK_2_MASK) >> SCLK_2_SHIFT;
 331              		.loc 1 143 0
 332 0000 024B     		ldr	r3, .L11
 333 0002 1878     		ldrb	r0, [r3]	@ zero_extendqisi2
 144:Generated_Source\PSoC5/SCLK_2.c **** }
 334              		.loc 1 144 0
 335 0004 C0F34010 		ubfx	r0, r0, #5, #1
 336 0008 7047     		bx	lr
 337              	.L12:
 338 000a 00BF     		.align	2
 339              	.L11:
 340 000c C0510040 		.word	1073762752
 341              		.cfi_endproc
 342              	.LFE3:
 343              		.size	SCLK_2_ReadDataReg, .-SCLK_2_ReadDataReg
 344              		.text
 345              	.Letext0:
 346              		.file 2 "Generated_Source\\PSoC5\\cytypes.h"