ARM GAS  C:\Users\JEFFSN~1\AppData\Local\Temp\ccOG6sjg.s 			page 1


   1              		.syntax unified
   2              		.cpu cortex-m3
   3              		.fpu softvfp
   4              		.eabi_attribute 20, 1
   5              		.eabi_attribute 21, 1
   6              		.eabi_attribute 23, 3
   7              		.eabi_attribute 24, 1
   8              		.eabi_attribute 25, 1
   9              		.eabi_attribute 26, 1
  10              		.eabi_attribute 30, 2
  11              		.eabi_attribute 34, 1
  12              		.eabi_attribute 18, 4
  13              		.thumb
  14              		.syntax unified
  15              		.file	"SDA_1.c"
  16              		.text
  17              	.Ltext0:
  18              		.section	.gnu.lto_.profile.47c64c5,"",%progbits
  19 0000 789C6361 		.ascii	"x\234ca`d`a`\000\222\222\242\000\000\261\0009"
  19      60646061 
  19      60009292 
  19      A20000B1 
  19      0039
  20              		.text
  21              		.section	.gnu.lto_.icf.47c64c5,"",%progbits
  22 0000 789C6361 		.ascii	"x\234ca`d\000\001)\006\004`a\330\272\263\361=?\343\343"
  22      60640001 
  22      29060460 
  22      61D8BAB3 
  22      F13D3FE3 
  23 0015 8625BFD9 		.ascii	"\206%\277\331\231\226>|s\212\213\371\315\255\253/\330"
  23      99963E7C 
  23      738A8BF9 
  23      CDADAB2F 
  23      D8
  24 0026 1800AAC4 		.ascii	"\030\000\252\304\014\357"
  24      0CEF
  25              		.text
  26              		.section	.gnu.lto_.jmpfuncs.47c64c5,"",%progbits
  27 0000 789C6361 		.ascii	"x\234ca`d\000\001!\006\004`a`dd\254g\004\021L\014\014"
  27      60640001 
  27      21060460 
  27      61606464 
  27      AC670411 
  28 0017 CC401100 		.ascii	"\314@\021\000\016\"\001&"
  28      0E220126 
  29              		.text
  30              		.section	.gnu.lto_.inline.47c64c5,"",%progbits
  31 0000 789C6361 		.ascii	"x\234ca`d\000\201$\006\004`a`\340\344`dd\340\000J1s"
  31      60640081 
  31      24060460 
  31      6160E0E4 
  31      606464E0 
  32 0018 1CB06360 		.ascii	"\034\260c`[ \317\304\300\262@\236\005$\013\024g\307"
  32      5B20CFC4 
  32      C0B2409E 
  32      05240B14 
ARM GAS  C:\Users\JEFFSN~1\AppData\Local\Temp\ccOG6sjg.s 			page 2


  32      67C7
  33 002a 9064BAC0 		.ascii	"\220d\272\300\017\226db`ced`b\373\240\007\021\007\002"
  33      0F966462 
  33      60636564 
  33      6062FBA0 
  33      07110702 
  34 003e 664C2106 		.ascii	"fL!\006\000\346\332\011\346"
  34      00E6DA09 
  34      E6
  35              		.text
  36              		.section	.gnu.lto_.pureconst.47c64c5,"",%progbits
  37 0000 789C6361 		.ascii	"x\234ca`d\340d```a\220b\224b\222b\226\002\000\002\261"
  37      6064E064 
  37      60606061 
  37      90629462 
  37      92629602 
  38 0017 0081     		.ascii	"\000\201"
  39              		.text
  40              		.section	.gnu.lto_SDA_1_Write.47c64c5,"",%progbits
  41 0000 789C5551 		.ascii	"x\234UQMk\023Q\024\275\347\275\231Il\253\177\300@\213"
  41      4D6B1351 
  41      14BDE7BD 
  41      99496CAB 
  41      7FC0408B 
  42 0014 506A5D88 		.ascii	"Pj]\210\037\370\003\374\000\267\322l\003%\304Y\024\324"
  42      1FF803FC 
  42      00B7D26C 
  42      0325C459 
  42      14D4
  43 0026 429BBAED 		.ascii	"B\233\272\355\233\246\231b\351\242\033\233\225\006,"
  43      9BA69962 
  43      E9A21B9B 
  43      95062C
  44 0035 A5A91FA9 		.ascii	"\245\251\037\251U\021\204.\206Ap\247(]\211J\351b\012"
  44      5511842E 
  44      864170A7 
  44      285D894A 
  44      E9620A
  45 0048 82904283 		.ascii	"\202\220B\203E\255\361\3367Y\330\013\357c\356\234s\356"
  45      45ADF1DE 
  45      3759D80B 
  45      EF63EE9C 
  45      73EE
  46 005a B9F73904 		.ascii	"\271\3679\004\2228\243\210.\360y\222\0274A-\276'\012"
  46      9238A388 
  46      2EF07992 
  46      1734412D 
  46      BE270A
  47 006d B20A908B 		.ascii	"\262\012\220\213\311\202\246\025\246\321V\207\012\361"
  47      C982A615 
  47      A6D15687 
  47      0AF1
  48 007b 5CF2460D 		.ascii	"\\\362F\015\257\032\216\355\225\207\3324\"T5QGY%\302"
  48      AF1A8EED 
  48      9587DA34 
  48      22543551 
  48      475925C2 
ARM GAS  C:\Users\JEFFSN~1\AppData\Local\Temp\ccOG6sjg.s 			page 3


  49 008f 2A8619B5 		.ascii	"*\206\031\265\2739\267\005}\012\304\3670n\267z\207V"
  49      BB39B705 
  49      7D0AC4F7 
  49      306EB77A 
  49      8756
  50 00a1 8C993166 		.ascii	"\214\2311f\257`tU\003\015hf\340b\016\347r\304\011\302"
  50      AF607455 
  50      030D6866 
  50      E0620EE7 
  50      72C409C2 
  51 00b5 1A86047C 		.ascii	"\032\206\004|\360y\253yB\237\266\304E\223<\352\033\\"
  51      F079AB79 
  51      429FB6C4 
  51      45933CEA 
  51      1B5C
  52 00c7 1662F4F3 		.ascii	"\026b\364\363v\315D\301\200p\037\377\317\225`\350\316"
  52      76CD44C1 
  52      80701FFF 
  52      CF9560E8 
  52      CE
  53 00d8 C6DFFBC7 		.ascii	"\306\337\373\307\275Yq5\200'\030L\375\340)<\356\020"
  53      BD597135 
  53      8027184C 
  53      FDE0293C 
  53      EE10
  54 00ea 92591F89 		.ascii	"\222Y\037\211L\247S1Q\333m\353c\212\213*\356\224\177"
  54      4CA75331 
  54      51DB6DEB 
  54      638A8B2A 
  54      EE947F
  55 00fd 3890DAAE 		.ascii	"8\220\332\256$<\3312\262\021\265xI\367{J\311\251\023"
  55      243CD932 
  55      B211B578 
  55      49F77B4A 
  55      C9A913
  56 0110 C4BFE6BF 		.ascii	"\304\277\346\277\3252\242Y\3212\211\245j\374!\263\257"
  56      D532A259 
  56      D13289A5 
  56      6AFC21B3 
  56      AF
  57 0121 AA5A5BB7 		.ascii	"\252Z[\267\037\033_k\335\317h90\016\247\232\257\267"
  57      1F1B5F6B 
  57      DDCF6839 
  57      300EA79A 
  57      AFB7
  58 0133 EFF5D5F1 		.ascii	"\357\365\325\361 \230\345\0319h\"\207g`\317XG\035\224"
  58      2098E519 
  58      39682287 
  58      6760CF58 
  58      471D94
  59 0146 A0F227FC 		.ascii	"\240\362'\374\202TP\247\232\301\217\360SVD\200C\340"
  59      825450A7 
  59      9AC18FF0 
  59      53564480 
  59      43E0
  60 0158 398377A0 		.ascii	"9\203w\240l\033\354\224QBj\205\311n\327\206[\321R\347"
  60      6C1BEC94 
ARM GAS  C:\Users\JEFFSN~1\AppData\Local\Temp\ccOG6sjg.s 			page 4


  60      51426A85 
  60      C96ED786 
  60      5BD152E7 
  61 016c D5DB77A1 		.ascii	"\325\333w\241e\271\0006\230d\245\367\273\322\202c\320"
  61      65B90036 
  61      9864A5F7 
  61      BBD28263 
  61      D0
  62 017d 667D61AD 		.ascii	"f}a\255G@\016+\276HA\007^\012\311X\003\036\247\342%"
  62      47400E2B 
  62      BE484107 
  62      5E0AC958 
  62      031EA7E2 
  63 0192 CB3A623E 		.ascii	"\313:b>0\246\367\250\377\227\354\237Y\364\0353\321o"
  63      30A6F7A8 
  63      FF97EC9F 
  63      59F41D33 
  63      D16F
  64 01a4 5708F621 		.ascii	"W\010\366!Z\0122+\236\\\377u\377\216?Q,\3737G\363\343"
  64      5A0A322B 
  64      9E5CFF75 
  64      FF8E3F51 
  64      2CFB3747 
  65 01ba 531325BF 		.ascii	"S\023%\277p#?~\365R!\177\355\362\350\371\263%r\357\026"
  65      70233F7E 
  65      F552217F 
  65      EDF2E8F9 
  65      B32572EF 
  66 01cf 6F4DF93D 		.ascii	"oM\371=\223\345by\254te\254<\371\017\343\303\301>"
  66      93E56279 
  66      AC7465AC 
  66      3CF90FE3 
  66      C3C13E
  67              		.text
  68              		.section	.gnu.lto_SDA_1_SetDriveMode.47c64c5,"",%progbits
  69 0000 789C7D51 		.ascii	"x\234}QM+DQ\030~\237s\356\334;\223\370\003\246\310\202"
  69      4D2B4451 
  69      187E9F73 
  69      EEDC3B93 
  69      F803A6C8 
  70 0015 6C44F203 		.ascii	"lD\362\003Dle\266S\232\270K&b\355\314\214I\261Qb#\215"
  70      446C65B6 
  70      539AB84B 
  70      2662EDCC 
  70      8C49B151 
  71 002c CDE4DB90 		.ascii	"\315\344\333\220\225\262\030S,\331YX\010\213Q\212\306"
  71      95B21853 
  71      2CD95958 
  71      088B518A 
  71      C6
  72 003d 57E46BBC 		.ascii	"W\344k\274\357\275\026\263r\272\347\375xz\236\247\367"
  72      EFBD16B3 
  72      72BAE7FD 
  72      787A9EA7 
  72      F7
  73 004e 3DD72290 		.ascii	"=\327\"\220\234[N\215\234k\371B\023\324\334)Q\"\250"
  73      9C5B4E8D 
ARM GAS  C:\Users\JEFFSN~1\AppData\Local\Temp\ccOG6sjg.s 			page 5


  73      9C6BF942 
  73      13D4DC29 
  73      5122A8
  74 0061 00294C10 		.ascii	"\000)L\0204\2510\211W\365\255P\230.\036\250\346U\303"
  74      34A93089 
  74      57F5AD50 
  74      982E1EA8 
  74      E655C3
  75 0074 E7EAF8A1 		.ascii	"\347\352\370\241\325\254\345\221\326De\3459\021V\321"
  75      D5ACE591 
  75      D64465E5 
  75      391156D1 
  76 0084 CCACE7FD 		.ascii	"\314\254\347\375\354|\225n\000q\375xZ\272\254i\312\032"
  76      EC7C956E 
  76      0071FD78 
  76      5ABAAC69 
  76      CA1A
  77 0096 9334A61C 		.ascii	"\2234\246\0345:\255\2015hV\240=\214\32601@XG\223\220"
  77      353AAD81 
  77      356856A0 
  77      3D8CD630 
  77      31405847 
  78 00ac 6FF67E16 		.ascii	"o\366~\026\252\355)\261\257\367M\261\001[\306\314\365"
  78      AAED29B1 
  78      AFF74DB1 
  78      015BC6CC 
  78      F5
  79 00bd E74DB99C 		.ascii	"\347M\271\2342\3717\373\350\303\256R,S\232\203\266$"
  79      32F937FB 
  79      E8C3AE52 
  79      2C539A83 
  79      B624
  80 00cf 04200EB6 		.ascii	"\004 \016\266\224\216\204\240\204\220p\210J|e\221G\245"
  80      948E84A0 
  80      84907088 
  80      4A7C6591 
  80      47A5
  81 00e1 24EB220A 		.ascii	"$\353\"\012\0373\305%K\234SZ\226ZL\027\316\234\027\225"
  81      1F33C525 
  81      4B9C535A 
  81      965A4C17 
  81      CE9C1795 
  82 00f5 D69637F1 		.ascii	"\326\2267\361\302\315}\314\357\256W\022\306b$\271}\230"
  82      C2CD7DCC 
  82      EFAE5712 
  82      C66224B9 
  82      7D98
  83 0107 A9CE6039 		.ascii	"\251\316`91\305\333\006\260\20506\021\346\341\266\221"
  83      31C5DB06 
  83      B0853036 
  83      11E6E1B6 
  83      91
  84 0118 0115917C 		.ascii	"\001\025\221|r|7\315\206\334\247\276l\277\267\030b\375"
  84      727C37CD 
  84      86DCA7BE 
  84      6CBFB718 
  84      62FD
ARM GAS  C:\Users\JEFFSN~1\AppData\Local\Temp\ccOG6sjg.s 			page 6


  85 012a C5C9EC77 		.ascii	"\305\311\354wH,5F\261\303\312\012\011\177\201J\211\303"
  85      482C3546 
  85      B1C3CA0A 
  85      097F814A 
  85      89C3
  86 013c 104BEECF 		.ascii	"\020K\356\3177\267\264/\251A\316\223\244\336\377(A\317"
  86      37B7B42F 
  86      A941CE93 
  86      A4DEFF28 
  86      41CF
  87 014e D8A97409 		.ascii	"\330\251t\0111\312}a\021\322\3777\362.\217\314|\272"
  87      31CA7D61 
  87      11D2FF37 
  87      F22E8FCC 
  87      7CBA
  88 0160 4332FFD9 		.ascii	"C2\377\331#l\357\317\225\024\344u\370\255\352z\335\021"
  88      236CEFCF 
  88      9514E475 
  88      F8ADEA7A 
  88      DD11
  89 0172 772C36EE 		.ascii	"w,6\356\016\015D\342\023c\203n\264/\022\357\352\210"
  89      0E0D44E2 
  89      1363836E 
  89      B42F12EF 
  89      EA88
  90 0184 46BA3B07 		.ascii	"F\272;\007\332Z\006\311\032\216\017\271\277e\002\244"
  90      DA5A06C9 
  90      1A8E0FB9 
  90      BF6502A4 
  91 0194 80       		.ascii	"\200"
  92              		.text
  93              		.section	.gnu.lto_SDA_1_Read.47c64c5,"",%progbits
  94 0000 789C3550 		.ascii	"x\2345P\317K\002A\024~\337\314\272+A\364\007$TG/QD\020"
  94      CF4B0241 
  94      147EDFCC 
  94      BA2B41F4 
  94      07245447 
  95 0018 DDA2A86B 		.ascii	"\335\242\250k$t\022$l\257\011Rgw]\327 :\324\241:\225"
  95      24741224 
  95      6CAF0952 
  95      67775DD7 
  95      203AD4A1 
  96 002e 8708B592 		.ascii	"\207\010\265\222\010\002\257\253\024\006A\235\202N\021"
  96      0802AFAB 
  96      1406419D 
  96      824E11
  97 003d 211E3A95 		.ascii	"!\036:\225\030\202T\333\233\264\201yo\346\315\367\343"
  97      188254DB 
  97      9BB48179 
  97      6FE6CDF7 
  97      E3
  98 004e BDD108A4 		.ascii	"\275\321\010\244\3262\247\021\316\203\274!\011b\347"
  98      D632A711 
  98      CE83BC21 
  98      0962E7
  99 005d 9EC80E0A 		.ascii	"\236\310\016\012@\035\254 (%\220\302\247\370\026\270"
  99      401DAC20 
ARM GAS  C:\Users\JEFFSN~1\AppData\Local\Temp\ccOG6sjg.s 			page 7


  99      282590C2 
  99      A7F816B8 
 100 006d 6BDF6EF7 		.ascii	"k\337n\367\205\363\226\225\266^N:S\007\005\017\256$"
 100      85F39695 
 100      B65E4E3A 
 100      5307050F 
 100      AE24
 101 007f F2056122 		.ascii	"\362\005a\"\204\261\220\222\310#L\014}\275\374\331\353"
 101      84B19092 
 101      C8234C0C 
 101      7DBDFCD9 
 101      EB
 102 0090 D73316AF 		.ascii	"\3273\026\257a\005\340\227\002tey\261\344Y\276\357X"
 102      6105E097 
 102      02746579 
 102      B1E459BE 
 102      EF58
 103 00a2 DEA35179 		.ascii	"\336\243Qy2\014\220+\331\227\203\306A\004T\320I\311"
 103      320C902B 
 103      D99783C6 
 103      410454D0 
 103      49C9
 104 00b4 D23BD354 		.ascii	"\322;\323T\023\037B\250,\033\250v\266\236\217\246\225"
 104      131F42A8 
 104      2C1BA876 
 104      B69E8FA6 
 104      95
 105 00c5 922325BB 		.ascii	"\222#%\273\354\273\325\007\243%\\)\241L\213\273\345"
 105      ECBBD507 
 105      A3255C29 
 105      A14C8BBB 
 105      E5
 106 00d6 66EF5A39 		.ascii	"f\357Z9\266-\215Kv\271T3r8\2643\334\252\206S\204P\004"
 106      B62D8D4B 
 106      76B95433 
 106      7238B433 
 106      DCAA8653 
 107 00ed 378A33E4 		.ascii	"7\2123\344@\0158_\363\344Ht\345n\374\2667\240\370\200"
 107      400D385F 
 107      F3E44874 
 107      E56EFCB6 
 107      37A0F880 
 108 0101 C039C31A 		.ascii	"\3009\303\032H77[\242k\2501N1\232\331\272\326\255\004"
 108      4837375B 
 108      A26BA831 
 108      4E319AD9 
 108      BAD6AD04 
 109 0115 B8C8B4AB 		.ascii	"\270\310\264\253\353Z6\250h\374i(\375\323\352\350\202"
 109      EB5A36A8 
 109      68FC6928 
 109      FDD3EAE8 
 109      82
 110 0126 148EDED0 		.ascii	"\024\216\336\320\023\321\351o0\250\201x\274\241\005"
 110      13D1E96F 
 110      30A88178 
 110      BCA105
 111 0135 73CD4CAE 		.ascii	"s\315L\256\254\233\253\261Hb#\0317\243\213\221\304\354"
ARM GAS  C:\Users\JEFFSN~1\AppData\Local\Temp\ccOG6sjg.s 			page 8


 111      AC9BABB1 
 111      48622319 
 111      37A38B91 
 111      C4EC
 112 0147 64343237 		.ascii	"d427\023\033\037\215\323/\266\"z\242"
 112      131B1F8D 
 112      D32FB622 
 112      7AA2
 113              		.text
 114              		.section	.gnu.lto_SDA_1_ReadDataReg.47c64c5,"",%progbits
 115 0000 789C3550 		.ascii	"x\2345P;K\003A\020\236o\367\362 (\376\000\003j\231F"
 115      3B4B0341 
 115      109E6FF7 
 115      F22028FE 
 115      00036A99 
 116 0015 14B1D04E 		.ascii	"\024\261\320N\024m\305\200U H\274\326@\320:\233\\.\242"
 116      146DC580 
 116      552048BC 
 116      D640D03A 
 116      9B5C2EA2 
 117 0029 58D8682A 		.ascii	"X\330h*I!\222\304'\202\330\011gP\024\004\037?@\010\022"
 117      492192C4 
 117      2782D809 
 117      67501404 
 117      1F3F4008 
 118 003e 52586988 		.ascii	"RXi\210\004Ds\316z\272\2603\273\263\337cf\015\002\351"
 118      044473CE 
 118      7ABAB033 
 118      BBB3DF63 
 118      660D02E9 
 119 0052 35CF6980 		.ascii	"5\317i\200s/oH\202\330\274'\312\004\005\240\017*\010"
 119      732F6F48 
 119      82D8BC27 
 119      CA0405A0 
 119      0F2A08
 120 0065 4A0BA4F1 		.ascii	"J\013\244\361!\276\005\356\332\267\033\241HI\251\254"
 120      21BE05EE 
 120      DAB71BA1 
 120      4849A9AC 
 121 0075 AAED95C6 		.ascii	"\252\355\225\306\012e\007\266$r\005a$\214\241\260\226"
 121      0A6507B6 
 121      24720561 
 121      248CA1B0 
 121      96
 122 0086 2821420C 		.ascii	"(!B\014}9\355lu\373s\212W\277\006\360K\031~my2\347("
 122      7D39ED6C 
 122      75FB738A 
 122      57BF06F0 
 122      4B197E6D 
 123 009e D7B59473 		.ascii	"\327\265\224s\021\272|\014\005@\266d_\016\006\007\341"
 123      11BA7C0C 
 123      0540B664 
 123      5F0E0607 
 123      E1
 124 00af D3C14F5A 		.ascii	"\323\301OZ\226\336\230\246\233x\027Bg\331@\365s\275"
 124      96DE98A6 
 124      9B781742 
ARM GAS  C:\Users\JEFFSN~1\AppData\Local\Temp\ccOG6sjg.s 			page 9


 124      67D940F5 
 124      73BD
 125 00c1 5319D74A 		.ascii	"S\031\327J\226\224\354\262mW\037\002-aK\011m\372T~."
 125      9694ECB2 
 125      6D571F02 
 125      2D614B09 
 125      6DFA547E 
 126 00d6 FC5D9DDD 		.ascii	"\374]\235\335\2142\270t|^[\353*b'\223\343V\015\354#"
 126      8C32B874 
 126      7C5E5BEB 
 126      2A622793 
 126      E3560DEC 
 127 00eb 8C0AB851 		.ascii	"\214\012\270Q\034\240\010j\300\372\232&K\302\223\273"
 127      1CA0086A 
 127      C0FA9A26 
 127      4BC293BB 
 128 00fb 76DB4E8F 		.ascii	"v\333N\217\346\003\002\207\014k \333\\m\011\317\320"
 128      E6030287 
 128      0C6B20DB 
 128      5C6D09CF 
 128      D0
 129 010c 609C6634 		.ascii	"`\234f4\363u\303\253\370\270\310\264\263\253\233|P\323"
 129      F375C3AB 
 129      F8B8C8B4 
 129      B3AB9B7C 
 129      50D3
 130 011e F8D370F4 		.ascii	"\370\323p\364O\253\303\003i\034\275\342O\304O\277\203"
 130      4FABC303 
 130      691CBDE2 
 130      4FC44FBF 
 130      83
 131 012f 410FC4E3 		.ascii	"A\017\304\343\365\315\230Kfja\331\\\214G\223+\251\204"
 131      F5CD984B 
 131      666A61D9 
 131      5C8C4793 
 131      2BA984
 132 0142 199B8D26 		.ascii	"\031\233\215&'Gc\321\251\211\370\360`\202~\000r\315"
 132      274763D1 
 132      A989F8F0 
 132      60827E00 
 132      72CD
 133 0154 7A90     		.ascii	"z\220"
 134              		.text
 135              		.section	.gnu.lto_.symbol_nodes.47c64c5,"",%progbits
 136 0000 789C6361 		.ascii	"x\234ca`dpc\000\002&\206z\006\206\011\347\030@\324\256"
 136      60647063 
 136      00022686 
 136      7A068609 
 136      E71840D4 
 137 0015 0645A000 		.ascii	"\006E\240\000c=#\252\000S=\023\252\000s=3\212\000\003"
 137      633D23AA 
 137      00533D13 
 137      AA00733D 
 137      338A0003 
 138 0029 0026B60F 		.ascii	"\000&\266\017<"
 138      3C
 139              		.text
ARM GAS  C:\Users\JEFFSN~1\AppData\Local\Temp\ccOG6sjg.s 			page 10


 140              		.section	.gnu.lto_.refs.47c64c5,"",%progbits
 141 0000 789C6361 		.ascii	"x\234ca`\004B \000\000\0009\000\007"
 141      60044220 
 141      00000039 
 141      0007
 142              		.text
 143              		.section	.gnu.lto_.decls.47c64c5,"",%progbits
 144 0000 789C8D53 		.ascii	"x\234\215S]H\024Q\024\276gfv\225\321\266\222(\037\226"
 144      5D481451 
 144      14BE6766 
 144      7695D1B6 
 144      92281F96 
 145 0014 329F7C5A 		.ascii	"2\237|Z\022)|\351\017%\237\312p\321^\204e\325\301|\321"
 145      12297CE9 
 145      0F259FCA 
 145      70D15E84 
 145      65D5C17C 
 146 0029 D8D6C087 		.ascii	"\330\326\300\207\340\246\033\364\363\240\213\230\255"
 146      E0A61BF4 
 146      F3A08B98 
 146      AD
 147 0036 495A0FA9 		.ascii	"IZ\017\251\271\272\226\273\346n\376\203\025\205\240"
 147      B9BA96BB 
 147      E66EFE83 
 147      1585A0
 148 0045 09421824 		.ascii	"\011B\030$\250\240\244`$\205\210m\347\336\231q\026\333"
 148      A8A0A460 
 148      2485886D 
 148      E7DE9971 
 148      16DB
 149 0057 C0C39CD9 		.ascii	"\300\303\234\331s\356=\337w\276{\346\256D\2000;+\021"
 149      73EE3DDF 
 149      77BE7BE6 
 149      AE448030 
 149      3B2B11
 150 006a D288BF56 		.ascii	"\322\210\277VL\243h&\214\213\210a\270M\372\321C\350"
 150      4CA36826 
 150      8C8B8861 
 150      B84DFAD1 
 150      43E8
 151 007c 83E811F2 		.ascii	"\203\350\021\362\257\261}\263\206\353e\\\350\243\350"
 151      AFB17DB3 
 151      86EB655C 
 151      E8A3E8
 152 008b C3E8F95A 		.ascii	"\303\350\371Z\015hu{-\024\007;\021\203\327\261\2418"
 152      0D68757B 
 152      2D14073B 
 152      1183D7B1 
 152      A138
 153 009d 58A6C714 		.ascii	"X\246\307\024\203\313\217\203\033\214\203\213\354\003"
 153      83CB8F83 
 153      1B8C838B 
 153      EC03
 154 00ab 17EF9C3B 		.ascii	"\027\357\234;\002D\333\202\365\211\363\360\005D\242"
 154      0244DB82 
 154      F589F3F0 
 154      0544A2
ARM GAS  C:\Users\JEFFSN~1\AppData\Local\Temp\ccOG6sjg.s 			page 11


 155 00ba 0D9000A8 		.ascii	"\015\220\000\250o\340NT\347)\006\002Q\003}i\327\210"
 155      6FE04E54 
 155      E7290602 
 155      51037D69 
 155      D788
 156 00cc 5622E8A1 		.ascii	"V\"\350\241A\306\037\015\017Q\3358\211\301\016\032H"
 156      41C61F0D 
 156      0F51DD38 
 156      89C10E1A 
 156      48
 157 00dd CD75DD1A 		.ascii	"\315u\335\032\010\004\243\001\250\251\216\210\341\333"
 157      0804A301 
 157      A8A98E88 
 157      E1DB
 158 00eb A348D7AC 		.ascii	"\243H\327\254\267!\202~\350\361\221_=&Q\000\026\177"
 158      B721827E 
 158      E8F1915F 
 158      3D265100 
 158      167F
 159 00fd DBEABC64 		.ascii	"\333\352\274d\363S\264\006J\205\343\306d\002w\227\272"
 159      F353B406 
 159      4A85E3C6 
 159      64027797 
 159      BA
 160 010e 123705B0 		.ascii	"\0227\005\260\312\020\005\226\257\205\267\016\2509\333"
 160      CA100596 
 160      AF85B70E 
 160      A839DB
 161 011d F67917FF 		.ascii	"\366y\027\377$\211\307X,\314.v\257J\220!\277`4\013\333"
 161      2489C758 
 161      2CCC2E76 
 161      AF4A9021 
 161      BF60340B 
 162 0132 4BE7C294 		.ascii	"K\347\302\224\036\202^\220\301\017\"t\201\215i\260\312"
 162      1E825E90 
 162      C10F2274 
 162      818D69B0 
 162      CA
 163 0143 F8BE4769 		.ascii	"\370\276Gi-\335xN\315\251\004\262\254p\312J\240\007"
 163      2DDD784E 
 163      CDA904B2 
 163      AC70CA4A 
 163      A007
 164 0155 321827AB 		.ascii	"2\030'\253\202n\260\302K\2602\376\345\346\266\357f\011"
 164      826EB0C2 
 164      4BB032FE 
 164      E5E6B6EF 
 164      6609
 165 0167 25739E12 		.ascii	"%s\236\022\211\255\315x\372ZE\224\220\"\203\204\351"
 165      89ADCD78 
 165      FA5A4594 
 165      90228384 
 165      E9
 166 0178 8FA99645 		.ascii	"\217\251\226E\013\246GdH\303\324\037\371\272fN}\304"
 166      0BA64764 
 166      48C3D41F 
 166      F9BA664E 
ARM GAS  C:\Users\JEFFSN~1\AppData\Local\Temp\ccOG6sjg.s 			page 12


 166      7DC4
 167 018a 8F5247D3 		.ascii	"\217RG\323$(:\012\257\220\260\017\011\011\274\206T|"
 167      24283A0A 
 167      AF90B00F 
 167      0909BC86 
 167      547C
 168 019c 0740524F 		.ascii	"\007@RO\267\362\273\343Lz;m\357\243\013\321\345,\037"
 168      B7F2BBE3 
 168      4C7A3B6D 
 168      EFA30BD1 
 168      E52C1F
 169 01af 1DF3204C 		.ascii	"\035\363 L`U\320ih\356d\327\202@\007\314\343\010\373"
 169      6055D069 
 169      68EE64D7 
 169      824007CC 
 169      E308FB
 170 01c2 211D81EB 		.ascii	"!\035\201\353+~\277It\360\0314{\032\273\222T\226\261"
 170      2B7EBF49 
 170      74F01934 
 170      7B1ABB92 
 170      5496B1
 171 01d5 CD77C9B4 		.ascii	"\315w\311\264\341\016\245\0278G\320\340\010\306r\204"
 171      E10EA517 
 171      3847D0E0 
 171      08C67284 
 172 01e5 38C7A785 		.ascii	"8\307\247\205-\237Ytq\216\351\207\223u\007cU\263\343"
 172      2D9F5974 
 172      718EE987 
 172      93750763 
 172      55B3E3
 173 01f8 1AB2DF70 		.ascii	"\032\262\337p\331%\232\352\021\2577 j\015g\337\213\273"
 173      D9259AEA 
 173      11AF3720 
 173      6A0D67DF 
 173      8BBB
 174 020a B2B10A06 		.ascii	"\262\261\012\006\214\226\003\261-\007y\313\371\247\255"
 174      8C9603B1 
 174      2D0779CB 
 174      F9A7AD
 175 0219 BD16F136 		.ascii	"\275\026\3616o\271\375yt@\326X\"\037u\331\214#lp\204"
 175      6FB9FD79 
 175      7440D658 
 175      221F75D9 
 175      8C236C70 
 176 022e 6339229C 		.ascii	"c9\"\234c\323\363s\316,\343'\254\333\337'\234Z}\026"
 176      63D3F373 
 176      CE2CE327 
 176      ACDBDF27 
 176      9C5A7D16 
 177 0242 4D10EB81 		.ascii	"M\020\353\201\337\221\376&_S\002\310\031q\340#q\340"
 177      DF91FE26 
 177      5F5302C8 
 177      1971E023 
 177      71E0
 178 0254 DA55F217 		.ascii	"\332U\362\027z\357\263\003\016\343P\206\014qoAV\007"
 178      7AEFB303 
 178      0EE35086 
ARM GAS  C:\Users\JEFFSN~1\AppData\Local\Temp\ccOG6sjg.s 			page 13


 178      0C716F41 
 178      5607
 179 0266 129C5E0F 		.ascii	"\022\234^\017\230\222\037\260[\205\323K\371`\341\225"
 179      98921FB0 
 179      5B85D34B 
 179      F960E195 
 180 0276 C6F84621 		.ascii	"\306\370F!\231\377\001\360wG\020\207\346\236\264\212"
 180      99FF01F0 
 180      77471087 
 180      E69EB48A 
 181 0286 B8C71EB9 		.ascii	"\270\307\036\271\205\242\024:\0030\201d<\3318\317c\266"
 181      85A2143A 
 181      03308164 
 181      3CD938CF 
 181      63B6
 182 0298 4C376AA9 		.ascii	"L7j\251\371\261E\227H\370\006\2011D\216#1O\223\354\271"
 182      F9B14597 
 182      48F80681 
 182      31448E23 
 182      314F93EC 
 183 02ad 171D998E 		.ascii	"\027\035\231\216k\256\012\267\222\230w\2450-'3\223\230"
 183      6BAE0AB7 
 183      929877A5 
 183      302D2733 
 183      9398
 184 02bf AA2B2ADD 		.ascii	"\252+*\335\331'\363\224J\305\345t+e\016{U\265\253T)"
 184      D927F394 
 184      4AC5E574 
 184      2B650E7B 
 184      55B5AB54 
 185 02d4 BE6AAFCA 		.ascii	"\276j\257\3129]\\Z\343\256\271\241\334\264]''\376S\301"
 185      395D5C5A 
 185      E3AEB9A1 
 185      DCB45D27 
 185      27FE53C1 
 186 02e8 396DA524 		.ascii	"9m\245$E%\267+\356\\W\305-\345rU\231\"\253K\005\212"
 186      4525B72B 
 186      EE5C57C5 
 186      2DE57255 
 186      9922AB4B 
 187 02fe B3ECB011 		.ascii	"\263\354\260\021\346:\335\316\002\245\\r)\345\331\177"
 187      E63ADDCE 
 187      02A55C72 
 187      29E5D97F 
 188 030e 0123E55F 		.ascii	"\001#\345_6"
 188      36
 189              		.text
 190              		.section	.gnu.lto_.symtab.47c64c5,"",%progbits
 191 0000 5344415F 		.ascii	"SDA_1_Write\000"
 191      315F5772 
 191      69746500 
 192 000c 00       		.ascii	"\000"
 193 000d 00       		.ascii	"\000"
 194 000e 00       		.ascii	"\000"
 195 000f 00000000 		.ascii	"\000\000\000\000\000\000\000\000"
 195      00000000 
 196 0017 B3000000 		.ascii	"\263\000\000\000"
ARM GAS  C:\Users\JEFFSN~1\AppData\Local\Temp\ccOG6sjg.s 			page 14


 197 001b 5344415F 		.ascii	"SDA_1_SetDriveMode\000"
 197      315F5365 
 197      74447269 
 197      76654D6F 
 197      646500
 198 002e 00       		.ascii	"\000"
 199 002f 00       		.ascii	"\000"
 200 0030 00       		.ascii	"\000"
 201 0031 00000000 		.ascii	"\000\000\000\000\000\000\000\000"
 201      00000000 
 202 0039 B5000000 		.ascii	"\265\000\000\000"
 203 003d 5344415F 		.ascii	"SDA_1_Read\000"
 203      315F5265 
 203      616400
 204 0048 00       		.ascii	"\000"
 205 0049 00       		.ascii	"\000"
 206 004a 00       		.ascii	"\000"
 207 004b 00000000 		.ascii	"\000\000\000\000\000\000\000\000"
 207      00000000 
 208 0053 B8000000 		.ascii	"\270\000\000\000"
 209 0057 5344415F 		.ascii	"SDA_1_ReadDataReg\000"
 209      315F5265 
 209      61644461 
 209      74615265 
 209      6700
 210 0069 00       		.ascii	"\000"
 211 006a 00       		.ascii	"\000"
 212 006b 00       		.ascii	"\000"
 213 006c 00000000 		.ascii	"\000\000\000\000\000\000\000\000"
 213      00000000 
 214 0074 BA000000 		.ascii	"\272\000\000\000"
 215              		.text
 216              		.section	.gnu.lto_.opts,"",%progbits
 217 0000 272D666D 		.ascii	"'-fmath-errno' '-fsigned-zeros' '-ftrapping-math' '"
 217      6174682D 
 217      6572726E 
 217      6F272027 
 217      2D667369 
 218 0033 2D666E6F 		.ascii	"-fno-trapv' '-fno-openmp' '-fno-openacc' '-mcpu=cor"
 218      2D747261 
 218      70762720 
 218      272D666E 
 218      6F2D6F70 
 219 0066 7465782D 		.ascii	"tex-m3' '-mthumb' '-g' '-O3' '-ffunction-sections' "
 219      6D332720 
 219      272D6D74 
 219      68756D62 
 219      2720272D 
 220 0099 272D6666 		.ascii	"'-ffat-lto-objects' '-finline-functions' '-flto'\000"
 220      61742D6C 
 220      746F2D6F 
 220      626A6563 
 220      74732720 
 221              		.text
 222              		.cfi_sections	.debug_frame
 223              		.section	.text.SDA_1_Write,"ax",%progbits
 224              		.align	2
ARM GAS  C:\Users\JEFFSN~1\AppData\Local\Temp\ccOG6sjg.s 			page 15


 225              		.global	SDA_1_Write
 226              		.thumb
 227              		.thumb_func
 228              		.type	SDA_1_Write, %function
 229              	SDA_1_Write:
 230              	.LFB0:
 231              		.file 1 "Generated_Source\\PSoC5\\SDA_1.c"
   1:Generated_Source\PSoC5/SDA_1.c **** /*******************************************************************************
   2:Generated_Source\PSoC5/SDA_1.c **** * File Name: SDA_1.c  
   3:Generated_Source\PSoC5/SDA_1.c **** * Version 2.20
   4:Generated_Source\PSoC5/SDA_1.c **** *
   5:Generated_Source\PSoC5/SDA_1.c **** * Description:
   6:Generated_Source\PSoC5/SDA_1.c **** *  This file contains API to enable firmware control of a Pins component.
   7:Generated_Source\PSoC5/SDA_1.c **** *
   8:Generated_Source\PSoC5/SDA_1.c **** * Note:
   9:Generated_Source\PSoC5/SDA_1.c **** *
  10:Generated_Source\PSoC5/SDA_1.c **** ********************************************************************************
  11:Generated_Source\PSoC5/SDA_1.c **** * Copyright 2008-2015, Cypress Semiconductor Corporation.  All rights reserved.
  12:Generated_Source\PSoC5/SDA_1.c **** * You may use this file only in accordance with the license, terms, conditions, 
  13:Generated_Source\PSoC5/SDA_1.c **** * disclaimers, and limitations in the end user license agreement accompanying 
  14:Generated_Source\PSoC5/SDA_1.c **** * the software package with which this file was provided.
  15:Generated_Source\PSoC5/SDA_1.c **** *******************************************************************************/
  16:Generated_Source\PSoC5/SDA_1.c **** 
  17:Generated_Source\PSoC5/SDA_1.c **** #include "cytypes.h"
  18:Generated_Source\PSoC5/SDA_1.c **** #include "SDA_1.h"
  19:Generated_Source\PSoC5/SDA_1.c **** 
  20:Generated_Source\PSoC5/SDA_1.c **** /* APIs are not generated for P15[7:6] on PSoC 5 */
  21:Generated_Source\PSoC5/SDA_1.c **** #if !(CY_PSOC5A &&\
  22:Generated_Source\PSoC5/SDA_1.c **** 	 SDA_1__PORT == 15 && ((SDA_1__MASK & 0xC0) != 0))
  23:Generated_Source\PSoC5/SDA_1.c **** 
  24:Generated_Source\PSoC5/SDA_1.c **** 
  25:Generated_Source\PSoC5/SDA_1.c **** /*******************************************************************************
  26:Generated_Source\PSoC5/SDA_1.c **** * Function Name: SDA_1_Write
  27:Generated_Source\PSoC5/SDA_1.c **** ****************************************************************************//**
  28:Generated_Source\PSoC5/SDA_1.c **** *
  29:Generated_Source\PSoC5/SDA_1.c **** * \brief Writes the value to the physical port (data output register), masking
  30:Generated_Source\PSoC5/SDA_1.c **** *  and shifting the bits appropriately. 
  31:Generated_Source\PSoC5/SDA_1.c **** *
  32:Generated_Source\PSoC5/SDA_1.c **** * The data output register controls the signal applied to the physical pin in 
  33:Generated_Source\PSoC5/SDA_1.c **** * conjunction with the drive mode parameter. This function avoids changing 
  34:Generated_Source\PSoC5/SDA_1.c **** * other bits in the port by using the appropriate method (read-modify-write or
  35:Generated_Source\PSoC5/SDA_1.c **** * bit banding).
  36:Generated_Source\PSoC5/SDA_1.c **** *
  37:Generated_Source\PSoC5/SDA_1.c **** * <b>Note</b> This function should not be used on a hardware digital output pin 
  38:Generated_Source\PSoC5/SDA_1.c **** * as it is driven by the hardware signal attached to it.
  39:Generated_Source\PSoC5/SDA_1.c **** *
  40:Generated_Source\PSoC5/SDA_1.c **** * \param value
  41:Generated_Source\PSoC5/SDA_1.c **** *  Value to write to the component instance.
  42:Generated_Source\PSoC5/SDA_1.c **** *
  43:Generated_Source\PSoC5/SDA_1.c **** * \return 
  44:Generated_Source\PSoC5/SDA_1.c **** *  None 
  45:Generated_Source\PSoC5/SDA_1.c **** *
  46:Generated_Source\PSoC5/SDA_1.c **** * \sideeffect
  47:Generated_Source\PSoC5/SDA_1.c **** *  If you use read-modify-write operations that are not atomic; the Interrupt 
  48:Generated_Source\PSoC5/SDA_1.c **** *  Service Routines (ISR) can cause corruption of this function. An ISR that 
  49:Generated_Source\PSoC5/SDA_1.c **** *  interrupts this function and performs writes to the Pins component data 
  50:Generated_Source\PSoC5/SDA_1.c **** *  register can cause corrupted port data. To avoid this issue, you should 
ARM GAS  C:\Users\JEFFSN~1\AppData\Local\Temp\ccOG6sjg.s 			page 16


  51:Generated_Source\PSoC5/SDA_1.c **** *  either use the Per-Pin APIs (primary method) or disable interrupts around 
  52:Generated_Source\PSoC5/SDA_1.c **** *  this function.
  53:Generated_Source\PSoC5/SDA_1.c **** *
  54:Generated_Source\PSoC5/SDA_1.c **** * \funcusage
  55:Generated_Source\PSoC5/SDA_1.c **** *  \snippet SDA_1_SUT.c usage_SDA_1_Write
  56:Generated_Source\PSoC5/SDA_1.c **** *******************************************************************************/
  57:Generated_Source\PSoC5/SDA_1.c **** void SDA_1_Write(uint8 value)
  58:Generated_Source\PSoC5/SDA_1.c **** {
 232              		.loc 1 58 0
 233              		.cfi_startproc
 234              		@ args = 0, pretend = 0, frame = 0
 235              		@ frame_needed = 0, uses_anonymous_args = 0
 236              		@ link register save eliminated.
 237              	.LVL0:
  59:Generated_Source\PSoC5/SDA_1.c ****     uint8 staticBits = (SDA_1_DR & (uint8)(~SDA_1_MASK));
 238              		.loc 1 59 0
 239 0000 044A     		ldr	r2, .L2
  60:Generated_Source\PSoC5/SDA_1.c ****     SDA_1_DR = staticBits | ((uint8)(value << SDA_1_SHIFT) & SDA_1_MASK);
 240              		.loc 1 60 0
 241 0002 4000     		lsls	r0, r0, #1
 242              	.LVL1:
  59:Generated_Source\PSoC5/SDA_1.c ****     uint8 staticBits = (SDA_1_DR & (uint8)(~SDA_1_MASK));
 243              		.loc 1 59 0
 244 0004 1378     		ldrb	r3, [r2]	@ zero_extendqisi2
 245              	.LVL2:
 246              		.loc 1 60 0
 247 0006 00F00200 		and	r0, r0, #2
 248 000a 03F0FD03 		and	r3, r3, #253
 249              	.LVL3:
 250 000e 1843     		orrs	r0, r0, r3
 251 0010 1070     		strb	r0, [r2]
 252 0012 7047     		bx	lr
 253              	.L3:
 254              		.align	2
 255              	.L2:
 256 0014 C0510040 		.word	1073762752
 257              		.cfi_endproc
 258              	.LFE0:
 259              		.size	SDA_1_Write, .-SDA_1_Write
 260              		.section	.text.SDA_1_SetDriveMode,"ax",%progbits
 261              		.align	2
 262              		.global	SDA_1_SetDriveMode
 263              		.thumb
 264              		.thumb_func
 265              		.type	SDA_1_SetDriveMode, %function
 266              	SDA_1_SetDriveMode:
 267              	.LFB1:
  61:Generated_Source\PSoC5/SDA_1.c **** }
  62:Generated_Source\PSoC5/SDA_1.c **** 
  63:Generated_Source\PSoC5/SDA_1.c **** 
  64:Generated_Source\PSoC5/SDA_1.c **** /*******************************************************************************
  65:Generated_Source\PSoC5/SDA_1.c **** * Function Name: SDA_1_SetDriveMode
  66:Generated_Source\PSoC5/SDA_1.c **** ****************************************************************************//**
  67:Generated_Source\PSoC5/SDA_1.c **** *
  68:Generated_Source\PSoC5/SDA_1.c **** * \brief Sets the drive mode for each of the Pins component's pins.
  69:Generated_Source\PSoC5/SDA_1.c **** * 
  70:Generated_Source\PSoC5/SDA_1.c **** * <b>Note</b> This affects all pins in the Pins component instance. Use the
ARM GAS  C:\Users\JEFFSN~1\AppData\Local\Temp\ccOG6sjg.s 			page 17


  71:Generated_Source\PSoC5/SDA_1.c **** * Per-Pin APIs if you wish to control individual pin's drive modes.
  72:Generated_Source\PSoC5/SDA_1.c **** *
  73:Generated_Source\PSoC5/SDA_1.c **** * \param mode
  74:Generated_Source\PSoC5/SDA_1.c **** *  Mode for the selected signals. Valid options are documented in 
  75:Generated_Source\PSoC5/SDA_1.c **** *  \ref driveMode.
  76:Generated_Source\PSoC5/SDA_1.c **** *
  77:Generated_Source\PSoC5/SDA_1.c **** * \return
  78:Generated_Source\PSoC5/SDA_1.c **** *  None
  79:Generated_Source\PSoC5/SDA_1.c **** *
  80:Generated_Source\PSoC5/SDA_1.c **** * \sideeffect
  81:Generated_Source\PSoC5/SDA_1.c **** *  If you use read-modify-write operations that are not atomic, the ISR can
  82:Generated_Source\PSoC5/SDA_1.c **** *  cause corruption of this function. An ISR that interrupts this function 
  83:Generated_Source\PSoC5/SDA_1.c **** *  and performs writes to the Pins component Drive Mode registers can cause 
  84:Generated_Source\PSoC5/SDA_1.c **** *  corrupted port data. To avoid this issue, you should either use the Per-Pin
  85:Generated_Source\PSoC5/SDA_1.c **** *  APIs (primary method) or disable interrupts around this function.
  86:Generated_Source\PSoC5/SDA_1.c **** *
  87:Generated_Source\PSoC5/SDA_1.c **** * \funcusage
  88:Generated_Source\PSoC5/SDA_1.c **** *  \snippet SDA_1_SUT.c usage_SDA_1_SetDriveMode
  89:Generated_Source\PSoC5/SDA_1.c **** *******************************************************************************/
  90:Generated_Source\PSoC5/SDA_1.c **** void SDA_1_SetDriveMode(uint8 mode)
  91:Generated_Source\PSoC5/SDA_1.c **** {
 268              		.loc 1 91 0
 269              		.cfi_startproc
 270              		@ args = 0, pretend = 0, frame = 0
 271              		@ frame_needed = 0, uses_anonymous_args = 0
 272              		@ link register save eliminated.
 273              	.LVL4:
  92:Generated_Source\PSoC5/SDA_1.c **** 	CyPins_SetPinDriveMode(SDA_1_0, mode);
 274              		.loc 1 92 0
 275 0000 044A     		ldr	r2, .L5
 276 0002 00F00E00 		and	r0, r0, #14
 277              	.LVL5:
 278 0006 1378     		ldrb	r3, [r2]	@ zero_extendqisi2
 279 0008 03F0F103 		and	r3, r3, #241
 280 000c 1843     		orrs	r0, r0, r3
 281 000e 1070     		strb	r0, [r2]
 282 0010 7047     		bx	lr
 283              	.L6:
 284 0012 00BF     		.align	2
 285              	.L5:
 286 0014 61500040 		.word	1073762401
 287              		.cfi_endproc
 288              	.LFE1:
 289              		.size	SDA_1_SetDriveMode, .-SDA_1_SetDriveMode
 290              		.section	.text.SDA_1_Read,"ax",%progbits
 291              		.align	2
 292              		.global	SDA_1_Read
 293              		.thumb
 294              		.thumb_func
 295              		.type	SDA_1_Read, %function
 296              	SDA_1_Read:
 297              	.LFB2:
  93:Generated_Source\PSoC5/SDA_1.c **** }
  94:Generated_Source\PSoC5/SDA_1.c **** 
  95:Generated_Source\PSoC5/SDA_1.c **** 
  96:Generated_Source\PSoC5/SDA_1.c **** /*******************************************************************************
  97:Generated_Source\PSoC5/SDA_1.c **** * Function Name: SDA_1_Read
ARM GAS  C:\Users\JEFFSN~1\AppData\Local\Temp\ccOG6sjg.s 			page 18


  98:Generated_Source\PSoC5/SDA_1.c **** ****************************************************************************//**
  99:Generated_Source\PSoC5/SDA_1.c **** *
 100:Generated_Source\PSoC5/SDA_1.c **** * \brief Reads the associated physical port (pin status register) and masks 
 101:Generated_Source\PSoC5/SDA_1.c **** *  the required bits according to the width and bit position of the component
 102:Generated_Source\PSoC5/SDA_1.c **** *  instance. 
 103:Generated_Source\PSoC5/SDA_1.c **** *
 104:Generated_Source\PSoC5/SDA_1.c **** * The pin's status register returns the current logic level present on the 
 105:Generated_Source\PSoC5/SDA_1.c **** * physical pin.
 106:Generated_Source\PSoC5/SDA_1.c **** *
 107:Generated_Source\PSoC5/SDA_1.c **** * \return 
 108:Generated_Source\PSoC5/SDA_1.c **** *  The current value for the pins in the component as a right justified number.
 109:Generated_Source\PSoC5/SDA_1.c **** *
 110:Generated_Source\PSoC5/SDA_1.c **** * \funcusage
 111:Generated_Source\PSoC5/SDA_1.c **** *  \snippet SDA_1_SUT.c usage_SDA_1_Read  
 112:Generated_Source\PSoC5/SDA_1.c **** *******************************************************************************/
 113:Generated_Source\PSoC5/SDA_1.c **** uint8 SDA_1_Read(void)
 114:Generated_Source\PSoC5/SDA_1.c **** {
 298              		.loc 1 114 0
 299              		.cfi_startproc
 300              		@ args = 0, pretend = 0, frame = 0
 301              		@ frame_needed = 0, uses_anonymous_args = 0
 302              		@ link register save eliminated.
 115:Generated_Source\PSoC5/SDA_1.c ****     return (SDA_1_PS & SDA_1_MASK) >> SDA_1_SHIFT;
 303              		.loc 1 115 0
 304 0000 024B     		ldr	r3, .L8
 305 0002 1878     		ldrb	r0, [r3]	@ zero_extendqisi2
 116:Generated_Source\PSoC5/SDA_1.c **** }
 306              		.loc 1 116 0
 307 0004 C0F34000 		ubfx	r0, r0, #1, #1
 308 0008 7047     		bx	lr
 309              	.L9:
 310 000a 00BF     		.align	2
 311              	.L8:
 312 000c C1510040 		.word	1073762753
 313              		.cfi_endproc
 314              	.LFE2:
 315              		.size	SDA_1_Read, .-SDA_1_Read
 316              		.section	.text.SDA_1_ReadDataReg,"ax",%progbits
 317              		.align	2
 318              		.global	SDA_1_ReadDataReg
 319              		.thumb
 320              		.thumb_func
 321              		.type	SDA_1_ReadDataReg, %function
 322              	SDA_1_ReadDataReg:
 323              	.LFB3:
 117:Generated_Source\PSoC5/SDA_1.c **** 
 118:Generated_Source\PSoC5/SDA_1.c **** 
 119:Generated_Source\PSoC5/SDA_1.c **** /*******************************************************************************
 120:Generated_Source\PSoC5/SDA_1.c **** * Function Name: SDA_1_ReadDataReg
 121:Generated_Source\PSoC5/SDA_1.c **** ****************************************************************************//**
 122:Generated_Source\PSoC5/SDA_1.c **** *
 123:Generated_Source\PSoC5/SDA_1.c **** * \brief Reads the associated physical port's data output register and masks 
 124:Generated_Source\PSoC5/SDA_1.c **** *  the correct bits according to the width and bit position of the component 
 125:Generated_Source\PSoC5/SDA_1.c **** *  instance. 
 126:Generated_Source\PSoC5/SDA_1.c **** *
 127:Generated_Source\PSoC5/SDA_1.c **** * The data output register controls the signal applied to the physical pin in 
 128:Generated_Source\PSoC5/SDA_1.c **** * conjunction with the drive mode parameter. This is not the same as the 
ARM GAS  C:\Users\JEFFSN~1\AppData\Local\Temp\ccOG6sjg.s 			page 19


 129:Generated_Source\PSoC5/SDA_1.c **** * preferred SDA_1_Read() API because the 
 130:Generated_Source\PSoC5/SDA_1.c **** * SDA_1_ReadDataReg() reads the data register instead of the status 
 131:Generated_Source\PSoC5/SDA_1.c **** * register. For output pins this is a useful function to determine the value 
 132:Generated_Source\PSoC5/SDA_1.c **** * just written to the pin.
 133:Generated_Source\PSoC5/SDA_1.c **** *
 134:Generated_Source\PSoC5/SDA_1.c **** * \return 
 135:Generated_Source\PSoC5/SDA_1.c **** *  The current value of the data register masked and shifted into a right 
 136:Generated_Source\PSoC5/SDA_1.c **** *  justified number for the component instance.
 137:Generated_Source\PSoC5/SDA_1.c **** *
 138:Generated_Source\PSoC5/SDA_1.c **** * \funcusage
 139:Generated_Source\PSoC5/SDA_1.c **** *  \snippet SDA_1_SUT.c usage_SDA_1_ReadDataReg 
 140:Generated_Source\PSoC5/SDA_1.c **** *******************************************************************************/
 141:Generated_Source\PSoC5/SDA_1.c **** uint8 SDA_1_ReadDataReg(void)
 142:Generated_Source\PSoC5/SDA_1.c **** {
 324              		.loc 1 142 0
 325              		.cfi_startproc
 326              		@ args = 0, pretend = 0, frame = 0
 327              		@ frame_needed = 0, uses_anonymous_args = 0
 328              		@ link register save eliminated.
 143:Generated_Source\PSoC5/SDA_1.c ****     return (SDA_1_DR & SDA_1_MASK) >> SDA_1_SHIFT;
 329              		.loc 1 143 0
 330 0000 024B     		ldr	r3, .L11
 331 0002 1878     		ldrb	r0, [r3]	@ zero_extendqisi2
 144:Generated_Source\PSoC5/SDA_1.c **** }
 332              		.loc 1 144 0
 333 0004 C0F34000 		ubfx	r0, r0, #1, #1
 334 0008 7047     		bx	lr
 335              	.L12:
 336 000a 00BF     		.align	2
 337              	.L11:
 338 000c C0510040 		.word	1073762752
 339              		.cfi_endproc
 340              	.LFE3:
 341              		.size	SDA_1_ReadDataReg, .-SDA_1_ReadDataReg
 342              		.text
 343              	.Letext0:
 344              		.file 2 "Generated_Source\\PSoC5\\cytypes.h"