ARM GAS  C:\Users\JEFFSN~1\AppData\Local\Temp\cc6qS7ah.s 			page 1


   1              		.syntax unified
   2              		.cpu cortex-m3
   3              		.fpu softvfp
   4              		.eabi_attribute 20, 1
   5              		.eabi_attribute 21, 1
   6              		.eabi_attribute 23, 3
   7              		.eabi_attribute 24, 1
   8              		.eabi_attribute 25, 1
   9              		.eabi_attribute 26, 1
  10              		.eabi_attribute 30, 2
  11              		.eabi_attribute 34, 1
  12              		.eabi_attribute 18, 4
  13              		.thumb
  14              		.syntax unified
  15              		.file	"SleepTimer.c"
  16              		.text
  17              	.Ltext0:
  18              		.section	.gnu.lto_.profile.a80cba2f,"",%progbits
  19 0000 789C6361 		.ascii	"x\234ca`d`e`\000\222\237\031\003\000\003\251\001P"
  19      60646065 
  19      6000929F 
  19      19030003 
  19      A90150
  20              		.text
  21              		.section	.gnu.lto_.icf.a80cba2f,"",%progbits
  22 0000 789C6361 		.ascii	"x\234ca`d\000\001\027\006\004\340fxv\377\331\033\026"
  22      60640001 
  22      170604E0 
  22      667876FF 
  22      D91B16
  23 0013 C60F4BE6 		.ascii	"\306\017K\346\035baz\275\351\307R>\346]\375\335K\270"
  23      1D62617A 
  23      BDE9C752 
  23      3EE65DFD 
  23      DD4BB8
  24 0026 59D63D79 		.ascii	"Y\326=y\365\210\233u\327\254\015\313\231\330~\315\276"
  24      F5889B75 
  24      D7AC0DCB 
  24      99D87ECD 
  24      BE
  25 0037 D3C2C4BE 		.ascii	"\323\302\304\276\346\357\215\353l\034{z\237\235g\346"
  25      E6EF8DEB 
  25      6C1C7B7A 
  25      9F9D67E6 
  26 0047 9CB4EFEB 		.ascii	"\234\264\357\353\033~\256=\253\026Nde\000\000\274\241"
  26      1B7EAE3D 
  26      AB164E64 
  26      650000BC 
  26      A1
  27 0058 2233     		.ascii	"\"3"
  28              		.text
  29              		.section	.gnu.lto_.jmpfuncs.a80cba2f,"",%progbits
  30 0000 789C6361 		.ascii	"x\234ca`d\000\201t\006\004\340\002\021L@\314\010\004"
  30      60640081 
  30      740604E0 
  30      02114C40 
  30      CC0804
ARM GAS  C:\Users\JEFFSN~1\AppData\Local\Temp\cc6qS7ah.s 			page 2


  31 0013 F54C1036 		.ascii	"\365L\0206\003\0033\224\301\002\245YA\252\030\37721"
  31      03033394 
  31      C102A559 
  31      41AA18FF 
  31      3231
  32 0025 EE99DFB3 		.ascii	"\356\231\337\263\222\353\013S+3\003#\023\343rF\031\006"
  32      92EB0B53 
  32      2B330323 
  32      13E37246 
  32      1906
  33 0037 0636903C 		.ascii	"\0066\220<\007T\035'\310\030&\246J\250\321L\214\020"
  33      07541D27 
  33      C81826A6 
  33      4AA8D14C 
  33      8C10
  34 0049 350C00AA 		.ascii	"5\014\000\252\212\010_"
  34      8A085F
  35              		.text
  36              		.section	.gnu.lto_.inline.a80cba2f,"",%progbits
  37 0000 789C6361 		.ascii	"x\234ca`d\000\001\035\010\005\006\\\014\014\274r\214"
  37      60640001 
  37      1D080506 
  37      5C0C0CBC 
  37      728C
  38 0012 0C4C3C0F 		.ascii	"\014L<\017b\031\330\026\3103\201\304\230\270\241\004"
  38      6219D816 
  38      C83381C4 
  38      98B8A104 
  39 0022 E3043F46 		.ascii	"\343\004?F\006\016vF \001\324\302\314q\300\016\242\206"
  39      060E7646 
  39      2001D4C2 
  39      CC71C00E 
  39      A286
  40 0034 E9023F0B 		.ascii	"\351\002?\013X!\003\277$P/_O4\212^\2406\260\021\214"
  40      582103BF 
  40      24502F5F 
  40      4F348A5E 
  40      A036B011 
  41 0049 40C31998 		.ascii	"@\303\031\230\031\270\244\201j\330>\350aU\303\202_\232"
  41      19B8A481 
  41      6AD83EE8 
  41      6155C382 
  41      5F9A
  42 005b 95814B04 		.ascii	"\225\201K\004(\015\267\031f*X\015\003\033\003\2470H"
  42      280DB719 
  42      662A580D 
  42      031B03A7 
  42      3048
  43 006d F69709AA 		.ascii	"\366\227\011\252,\230\340\300o2'\003'/\232\311Pi.\006"
  43      2C98E0C0 
  43      6F322703 
  43      272F9AC9 
  43      50692E06 
  44 0081 363EA00C 		.ascii	"6>\240\014P\000&\301\314\003\262\215\001\000\212\345"
  44      500026C1 
  44      CC03B28D 
  44      01008AE5 
ARM GAS  C:\Users\JEFFSN~1\AppData\Local\Temp\cc6qS7ah.s 			page 3


  45 0091 1A7B     		.ascii	"\032{"
  46              		.text
  47              		.section	.gnu.lto_.pureconst.a80cba2f,"",%progbits
  48 0000 789C6361 		.ascii	"x\234ca`d\020e``\340b\220b\224b\222b\226b\221b\225b"
  48      60641065 
  48      6060E062 
  48      90629462 
  48      92629662 
  49 0018 93E090E2 		.ascii	"\223\340\220\342\224\342\222\000\000\016\371\001U"
  49      94E29200 
  49      000EF901 
  49      55
  50              		.text
  51              		.section	.gnu.lto_SleepTimer_Enable.part.0.a80cba2f,"",%progbits
  52 0000 789C7D91 		.ascii	"x\234}\221\277kTA\020\307\347\273\373\356\207\247Q\033"
  52      BF6B5441 
  52      10C7E7BB 
  52      FBEE87A7 
  52      511B
  53 0012 BB2B5218 		.ascii	"\273+R\030$\205\022\220\374\005\026\202\225x\226\001"
  53      24851290 
  53      FC051682 
  53      95789601 
  54 0022 91F88A80 		.ascii	"\221\370\212\200&\341qi\275}w\357\031\211\315I06\206"
  54      26E17169 
  54      BD7D77EF 
  54      1989CD49 
  54      303686
  55 0035 1416C945 		.ascii	"\024\026\311E\315\3454A\017\213<\016\322\244H\020\033"
  55      CDE53441 
  55      0F8B3C0E 
  55      D2A44810 
  55      1B
  56 0046 510392E2 		.ascii	"Q\003\222\342\010\"x\361\007\376\300\370\234y\013\""
  56      082278F1 
  56      07FEC0F8 
  56      9C790B22 
  57 0056 11B2B03B 		.ascii	"\021\262\260;\273\303\314g\276;\343\020H\326\244\"\352"
  57      BBC3CC67 
  57      BE3BE310 
  57      48D6A422 
  57      EA
  58 0067 677B9237 		.ascii	"g{\2227R\004\247\272\316\027\007*\261\012Z\254\237\325"
  58      5204A7BA 
  58      CE17072A 
  58      B10A5AAC 
  58      9FD5
  59 0079 805C4C16 		.ascii	"\200\\L\026Tr\224F\011_\325\256Bk\274\335T\275\263\206"
  59      54729446 
  59      095FD5AE 
  59      426BBCDD 
  59      54BDB386 
  60 008d D7BBD5B8 		.ascii	"\327\273\325\270\317\314E\0105Q\254\0226a\026\275\304"
  60      CFCC4508 
  60      3551AC12 
  60      366116BD 
  60      C4
ARM GAS  C:\Users\JEFFSN~1\AppData\Local\Temp\cc6qS7ah.s 			page 4


  61 009e 61939F36 		.ascii	"a\223\2376\237\245\365\011\310\375\365B5\310\365\334"
  61      9FA5F509 
  61      C8FDF542 
  61      35C8F5DC 
  62 00ae 37A66CA2 		.ascii	"7\246l\242\333k]wM\344w\207\214\237\203\3464\234\316"
  62      DB6B5D77 
  62      4DE47787 
  62      8C9F83E6 
  62      349CCE
  63 00c1 A32F9F24 		.ascii	"\243/\237$s\354V\343\367\235\256t \370n\324\320c\301"
  63      73EC56E3 
  63      F79DAE74 
  63      20F86ED4 
  63      D063C1
  64 00d4 98479AC5 		.ascii	"\230G\232\305C<\365\013\306\304q\305T?\037\303A\220"
  64      433CF50B 
  64      C6C471C5 
  64      543F1FC3 
  64      4190
  65 00e6 B814855A 		.ascii	"\270\024\205Zi9\0349Rr\020ux\313\017:\354e\253w\224"
  65      69391C39 
  65      52721075 
  65      78CB0F3A 
  65      EC65AB77 
  66 00fb 4AEC362A 		.ascii	"J\3546*\321\364D^\230\025\015\256\331l~x\223)\355\232"
  66      D1F4445E 
  66      98150DAE 
  66      D96C7E78 
  66      9329ED9A 
  67 010f 9BC61C0D 		.ascii	"\233\306\034\0155k\222R\017Pb\214C[\334\021\251\316"
  67      356B9252 
  67      0F50628C 
  67      435BDC11 
  67      A9CE
  68 0121 65389ADA 		.ascii	"e8\232\332h\375\234X\257Ua\323\245#Sak#\363E\205:\225"
  68      68FD9C58 
  68      AF5561D3 
  68      A5235361 
  68      6B23F345 
  69 0138 FCF6D7C6 		.ascii	"\374\366\327\306\374\323\234}\232\033\276q\330\325X"
  69      FCD39C7D 
  69      9A1BBE71 
  69      D8D558
  70 0147 B9F5F2C0 		.ascii	"\271\365\362\300\014\246\375\300\227\012i<B\036\017"
  70      0CA6FDC0 
  70      970A693C 
  70      421E0F
  71 0156 C19FC602 		.ascii	"\301\237\306\002f\004Z\371\236\266@m\231\253\361\267"
  71      66045AF9 
  71      9EB6406D 
  71      99ABF1B7 
  72 0166 E8884014 		.ascii	"\350\210@\024\227\257s$\327\235Jj\356\217[d\034C\254"
  72      97AF7324 
  72      D79D4A6A 
  72      EE8F5B64 
  72      1C43AC
  73 0179 CC76EDBA 		.ascii	"\314v\355\272\205\212\206\267\233\257\226\034+\253<"
ARM GAS  C:\Users\JEFFSN~1\AppData\Local\Temp\cc6qS7ah.s 			page 5


  73      858A86B7 
  73      9BAF961C 
  73      2BAB3C
  74 0188 6E65D59F 		.ascii	"ne\325\237/\177\314\375\313i\374\345<\336#+e!/\202\305"
  74      2F7FCCFD 
  74      CB69FCE5 
  74      3CDE232B 
  74      65212F82 
  75 019d 7BDACA72 		.ascii	"{\332\312r\360d\217\254}pK\211\254\024m#\210V\326\016"
  75      F0648FAC 
  75      7D704B89 
  75      AC146D23 
  75      8856D60E 
  76 01b1 4902FDD7 		.ascii	"I\002\375\327\370L\314\003\",s\343\271\323\241\316\362"
  76      F84CCC03 
  76      222C73E3 
  76      B9D3A1CE 
  76      F2
  77 01c2 E07778AC 		.ascii	"\340wx\2542\263\367(G?\316%y\262:<\"vs\370\361\263\356"
  77      32B3F728 
  77      473FCE25 
  77      79B23A3C 
  77      227673F8 
  78 01d9 B0EB5D2E 		.ascii	"\260\353].\272W.\025F\306\274Aw\340|a\344L\377@\341"
  78      BA572E15 
  78      46C6BC41 
  78      77E07C61 
  78      E44CFF40 
  79 01ee AAEB8E5E 		.ascii	"\252\353\216^\034\272\346z\247\006\351\360\320p\321"
  79      1CBAE67A 
  79      A706E9F0 
  79      D070D1
  80 01fd F5BCB1D1 		.ascii	"\365\274\261\321b\241\310\241\177\000H\335\354]"
  80      62A1C8A1 
  80      7F0048DD 
  80      EC5D
  81              		.text
  82              		.section	.gnu.lto_SleepTimer_SetInterval.part.1.a80cba2f,"",%progbits
  83 0000 789C7D91 		.ascii	"x\234}\221;K\003A\024\205\347\314L\3264>~@\012\013!"
  83      3B4B0341 
  83      1485E7CC 
  83      4CD6343E 
  83      7E400A0B 
  84 0015 58F840B1 		.ascii	"X\370@\261\263\263\260\025c\251H\320-\004_\004\265u"
  84      B3B3B015 
  84      63A948D0 
  84      2D045F04 
  84      B575
  85 0027 D6B80A36 		.ascii	"\326\270\0126\212\240\202 \332h\342\373\201\2156\206"
  85      8AA08220 
  85      DA68E2FB 
  85      818D3686 
  86 0037 D54A30FE 		.ascii	"\325J0\376\002E\024\202X\310\006\024D\324x\357\256\265"
  86      02451482 
  86      58C80614 
  86      44D478EF 
  86      AEB5
ARM GAS  C:\Users\JEFFSN~1\AppData\Local\Temp\cc6qS7ah.s 			page 6


  87 0049 0333E7EE 		.ascii	"\0033\347\356\345\334o\317\316j\001\301\313#i \255\243"
  87      E5DC6FCF 
  87      CE6A01C1 
  87      CB236920 
  87      ADA3
  88 005b 8D88805E 		.ascii	"\215\210\200^\310S\241!\003\225P\254NT\001\\\230(\304"
  88      C853A121 
  88      039550AC 
  88      4E54015C 
  88      9828C4
  89 006e A4960A93 		.ascii	"\244\226\012\223x\227\337\022\336l\341L\326f\014\255"
  89      7897DF12 
  89      DE6CE14C 
  89      D6660CAD 
  90 007e 87CD9326 		.ascii	"\207\315\223&\223\315\301UB\224d\300\026\310\240\226"
  90      93CDC155 
  90      429464C0 
  90      16C8A096 
  91 008e 5C77EEF9 		.ascii	"\\w\356\371UT\305!\250\336X\274\275\250\210o\0323e\314"
  91      5554C521 
  91      A8DE58BC 
  91      BDA8886F 
  91      1A3365CC 
  92 00a2 4A8F512E 		.ascii	"J\217Q.\221\263P4\201\346\030\032c\202\032\002\333\210"
  92      91B35034 
  92      81E6181A 
  92      63821A02 
  92      DB88
  93 00b4 B3F9F1F8 		.ascii	"\263\371\361\370g\251\334\232f|u\010\305\016,\016~\330"
  93      67A9DC9A 
  93      667C7508 
  93      C50E2C0E 
  93      7ED8
  94 00c6 694CA994 		.ascii	"iL\251\2246\013OqP&WI\311\007\301hTs\031\341C\010\237"
  94      360B4F71 
  94      50265749 
  94      C907C168 
  94      547319E1 
  95 00dd 3627F7A5 		.ascii	"6'\367\245fUE2\262\026\340}\316\025\362\255\014L+\320"
  95      66554532 
  95      B216E07D 
  95      CE15F2AD 
  95      0C4C2BD0 
  96 00f1 CB965DEF 		.ascii	"\313\226]\357\266\354M\272J\005Ao\016.O#\341\2433\353"
  96      B6EC4DBA 
  96      4A05416F 
  96      0E2E4F23 
  96      E1A333EB 
  97 0105 184DADB7 		.ascii	"\030M\255\267y\177\337Z\307\2323\355\230*Wi\354!\206"
  97      797FDF5A 
  97      C79A33ED 
  97      982A5769 
  97      EC2186
  98 0118 5DC428D6 		.ascii	"]\304(\326>\326!\012H\177\315\334\347W\021Be\310\275"
  98      3ED6210A 
  98      487FCDDC 
  98      E7571142 
ARM GAS  C:\Users\JEFFSN~1\AppData\Local\Temp\cc6qS7ah.s 			page 7


  98      65C8BD
  99 012b CE3EBF5A 		.ascii	"\316>\277Z\014\322\360\201\003\262\263\317\012=:\255"
  99      0CD2F081 
  99      03B2B3CF 
  99      0A3D3AAD 
 100 013b 1479F6B6 		.ascii	"\024y\366\266\212\271\312\320S\211\303\320\362\361g"
 100      8AB9CAD0 
 100      5389C3D0 
 100      F2F167
 101 014a 8904244D 		.ascii	"\211\004$M-o9 \377\237\344\210\222\320\020\335QQ\252"
 101      2D6F3920 
 101      FF9FE488 
 101      92D010DD 
 101      5151AA
 102 015d E0535F30 		.ascii	"\340S_0\225+&x2\370)\276\004\267\351^j\332\355a;\225"
 102      952B2678 
 102      32F829BE 
 102      04B7E95E 
 102      6ADAED61 
 103 0173 1CB3FB7B 		.ascii	"\034\263\373{\023#\343\251>\273\273#1\322\326\322\235"
 103      1323E3A9 
 103      3EBBBB23 
 103      31D2D6D2 
 103      9D
 104 0184 18B4EDD1 		.ascii	"\030\264\355\321\256\201!;U\337'\242\003\303cvj\"9\370"
 104      AE81213B 
 104      55DF27A2 
 104      03C36376 
 104      6A2239F8 
 105 0198 0BF527A5 		.ascii	"\013\365'\245\013"
 105      0B
 106              		.text
 107              		.section	.gnu.lto_SleepTimer_Enable.a80cba2f,"",%progbits
 108 0000 789C7D51 		.ascii	"x\234}Q\317KTQ\030\375\316\275of\336\0143\345\0370\014"
 108      CF4B5451 
 108      18FDCEBD 
 108      6F66DE0C 
 108      33E51F30 
 109 0015 2E927093 		.ascii	".\222p\223B\270\254MP\320*\232\226B\204\275\205P*\303"
 109      42B8AC4D 
 109      50D02A9A 
 109      964284BD 
 109      85502AC3 
 110 0029 B86DEEFC 		.ascii	"\270m\356\374x)\2661\"\333\024.Z8M\3458\246\325\220"
 110      7829B631 
 110      22DB142E 
 110      5A384DE5 
 110      38A6D590 
 111 003d D06BC08D 		.ascii	"\320k\300\215\213$rQ\226Q.\006\011!\215$\015\365\365"
 111      8B247251 
 111      96512E06 
 111      09218D24 
 111      0DF5F5
 112 0050 DD77A316 		.ascii	"\335w\243\026E\027\356\273\367}\357\234\363}\347<\213"
 112      4517EEBB 
 112      F77DEF9C 
 112      F37DE73C 
ARM GAS  C:\Users\JEFFSN~1\AppData\Local\Temp\cc6qS7ah.s 			page 8


 112      8B
 113 0061 407A4D0B 		.ascii	"@zM\013\242.>\217\361F\230 F_\022\345m!\344\\\212T\314"
 113      A22E3E8F 
 113      F1469820 
 113      465F12E5 
 113      6D21E45C 
 114 0078 5AEA2015 		.ascii	"Z\352 \025\227\010\3512,s\346\355\020\240/\312\006\345"
 114      9708E932 
 114      2C73E6ED 
 114      10A02FCA 
 114      06E5
 115 008a 84B442C8 		.ascii	"\204\264B\310aK\354\0114\206\232u\321>\241x}\234\367"
 115      614BEC09 
 115      34869A75 
 115      D13EA178 
 115      7D9CF7
 116 009d 3B55D983 		.ascii	";U\331\203+\211|\021\364\"L\240\235\030v\343\353\312"
 116      2B897C11 
 116      F4224CA0 
 116      9D1876E3 
 116      EBCA
 117 00af D3B03C0C 		.ascii	"\323\260<\014}_\236\034-\305\332\356*UP\336\365\205"
 117      7D5F9E1C 
 117      2DC5DAEE 
 117      2A5550DE 
 117      F585
 118 00c1 C42DE5E5 		.ascii	"\304-\345\345[]\011\224!\231\206\243It&\0032cWk\373"
 118      5B5D0994 
 118      219986A3 
 118      49742603 
 118      3263576B 
 119 00d6 3713E192 		.ascii	"7\023\341\222\226o\305=\264\031aT\020f3\320\225\352"
 119      966FC53D 
 119      B4196154 
 119      106633D0 
 119      95EA
 120 00e8 594FF97E 		.ascii	"YO\371~Qy~\344\305v,\016r\245\220\372\021!\375\331\326"
 120      51797EE4 
 120      C5762C0E 
 120      72A590FA 
 120      1121FDD9 
 121 00fd D7A87E10 		.ascii	"\327\250~\020m\360\326&6\205\320\247l\242\361c\344C"
 121      6DF0D626 
 121      3685D0A7 
 121      6CA2F163 
 121      E443
 122 010f F9B8962B 		.ascii	"\371\270\226+J\311\355\306\334\306b\344\233p\245\014"
 122      4AC9EDC6 
 122      DCC662E4 
 122      9B70A50C 
 123 011f 26DD5DAC 		.ascii	"&\335]\254<\211\231Wu5\257,.\325\236_{\035\035\307\235"
 123      3C899957 
 123      7535AF2C 
 123      2ED59E5F 
 123      7B1D1DC7 
 124 0134 7C897D5A 		.ascii	"|\211}Zx\200$\356\203\307\305C\214\203\232(\356\236"
 124      788024EE 
ARM GAS  C:\Users\JEFFSN~1\AppData\Local\Temp\cc6qS7ah.s 			page 9


 124      83C7C543 
 124      8C839A28 
 124      EE9E
 125 0146 A4A28491 		.ascii	"\244\242\204\221\233\367\277{\0075_@`\222a\237PZ.\246"
 125      9BF7BF7B 
 125      07355F40 
 125      6092619F 
 125      505A2EA6 
 126 015a 4C3F30A0 		.ascii	"L?0\240\272^\337I\030\000\241\012c{\223\347\237K\311"
 126      BA5EDF49 
 126      1800A10A 
 126      637B93E7 
 126      9F4BC9
 127 016d 35145B34 		.ascii	"5\024[4R\017R\257\257\277\213\344\366\324\260R-\256"
 127      520F52AF 
 127      AFBF8BE4 
 127      F6D4B052 
 127      2DAE
 128 017f 0CF942BB 		.ascii	"\014\371B\273\237B\216}\205\003\206EK\035\232\341\275"
 128      9F428E7D 
 128      85038645 
 128      4B1D9AE1 
 128      BD
 129 0190 1D491AF9 		.ascii	"\035I\032\371\310_\264\210\317\276\011\265\200f\323"
 129      C85FB488 
 129      CFBE09B5 
 129      8066D3
 130 019f 2ACFA473 		.ascii	"*\317\244s\344\220\030MA\030\373\225+\206m3\373\375"
 130      E490184D 
 130      4118FB95 
 130      2B866D33 
 130      FBFD
 131 01b1 CA9B19CB 		.ascii	"\312\233\031\313\270/\014\031\367\325g\263_b\177\334"
 131      B82F0C19 
 131      F7D567B3 
 131      5F627FDC 
 132 01c1 4FFF76FF 		.ascii	"O\377v\377\350\227\373\355\260\341G\215\304\253\322"
 132      E897FBED 
 132      B0E1478D 
 132      C4ABD2
 133 01d0 D46D69FC 		.ascii	"\324mi\374Y\230a$w\031\203\206\374Ol\226\305X\202\326"
 133      59986124 
 133      77198386 
 133      FC4F6C96 
 133      C55882D6 
 134 01e4 50F2B616 		.ascii	"P\362\266\026\342\377\016!\352sL\204\307\354\206\307"
 134      E2FF0E21 
 134      EA734C84 
 134      C7EC86C7 
 135 01f4 77652CC8 		.ascii	"we,\310!\024\374\330\317(x;\247\003\236^\033\034\027"
 135      2114FCD8 
 135      CF28783B 
 135      A7039E5E 
 135      1B1C17
 136 0207 97D9FCA1 		.ascii	"\227\331\374\241SN\237\223\271\220u.\236O\367\017fz"
 136      534E9F93 
 136      B990752E 
ARM GAS  C:\Users\JEFFSN~1\AppData\Local\Temp\cc6qS7ah.s 			page 10


 136      9E4FF70F 
 136      667A
 137 0219 9CEE33E9 		.ascii	"\234\3563\351\376\023]\335\351K\2163p\256\367\262\223"
 137      FE135DDD 
 137      E94B8E33 
 137      70AEF7B2 
 137      93
 138 022a 39D24307 		.ascii	"9\322C\007z\373\262N&38\220Mg\031\372\023\257H\372\242"
 138      7AFBB24E 
 138      26333890 
 138      4D6719FA 
 138      13AF48FA 
 139              		.text
 140              		.section	.gnu.lto_SleepTimer_Stop.a80cba2f,"",%progbits
 141 0000 789C7D90 		.ascii	"x\234}\220\277K[Q\024\307\317\367\336\227\227\220\240"
 141      BF4B5B51 
 141      14C7CFF7 
 141      DE979790 
 141      A0
 142 0011 38B998C1 		.ascii	"8\271\230\301A).\242\024\377\002\007\007\0271\035\003"
 142      41292EA2 
 142      14FF0207 
 142      0717311D 
 142      03
 143 0022 22FA06A1 		.ascii	"\"\372\006\241M\344\021\273\346\346\307C\261\213 \306"
 143      4DE411BB 
 143      E6E6C743 
 143      B18B20C6 
 144 0032 29387430 		.ascii	")8t0\376J\014(4\355\362\032p\012\264\233\365Gm\305A"
 144      FE4A0C28 
 144      34EDF21A 
 144      700AB49B 
 144      F5476DC5 
 145 0047 A414AAA5 		.ascii	"\244\024\252\245.jL\317}o\024<p\337\271\357\362=\237"
 145      2E6A4CCF 
 145      7D6F143C 
 145      70DFB9EF 
 145      F23D9F
 146 005a 73BEC720 		.ascii	"s\276\307 \220\216\037\234\2068w\361\201$\210\245/D"
 146      908E1F9C 
 146      863877F1 
 146      812488A5 
 146      2F44
 147 006c 999000F4 		.ascii	"\231\220\000\364E\205@i\2014nES\240>\177Y\023}\353\212"
 147      45854069 
 147      81346E45 
 147      53A03E7F 
 147      59137DEB 
 148 0081 E3FCE0E3 		.ascii	"\343\374\340\343\240*\271p$QKx$\302:\372\210e\313\177"
 148      A02AB970 
 148      24514B78 
 148      24C23AFA 
 148      8865CB7F 
 149 0095 CF3E98F2 		.ascii	"\317>\230\362\005\364\375\244\274\224\017\367\276W*"
 149      05F4FDA4 
 149      BC940FF7 
 149      BE572A
ARM GAS  C:\Users\JEFFSN~1\AppData\Local\Temp\cc6qS7ah.s 			page 11


 150 00a4 ABDCE346 		.ascii	"\253\334\343F\333\252r3\335\216\004J\220\\\206\227Q"
 150      DBAA7233 
 150      DD8E044A 
 150      905C8697 
 150      51
 151 00b5 0C44BD62 		.ascii	"\014D\275b\326^T\037W\332\314\274\306wc\003\275>\030"
 151      D65E541F 
 151      57DACCBC 
 151      C6776303 
 151      BD3E18
 152 00c8 9B307946 		.ascii	"\2330yF\350\227\312\270\253Z\255\234r\277E>?DB<.?\032"
 152      E897CAB8 
 152      AB5AAD9C 
 152      72BF453E 
 152      3F44423C 
 153 00df E44811D0 		.ascii	"\344H\021\320\037\242k>z\356\033!t\226W\310\271?\337"
 153      1FA26B3E 
 153      7AEE1B21 
 153      749657C8 
 153      B93FDF
 154 00f2 756A464E 		.ascii	"ujFNJ\356Q\253\375>\015\246\233jA\251\016G\362\014\032"
 154      4AEE51AB 
 154      FD3E0DA6 
 154      9B6A41A9 
 154      0E47F20C 
 155 0107 BD853497 		.ascii	"\275\2054\227\033t\001\341uc(\253\351\022\365\273\305"
 155      1B7401E1 
 155      756328AB 
 155      E912F5BB 
 155      C5
 156 0118 C3CA5BBF 		.ascii	"\303\312[\277\332\340\352\202S\377\032\374'\034\031"
 156      DAE0EA82 
 156      53FF1AFC 
 156      271C19
 157 0127 F0CC7D3F 		.ascii	"\360\314}?;\3323\374\337\354|FiE\345\323\376\237\360"
 157      3BDA33FC 
 157      DFEC7C46 
 157      6945E5D3 
 157      FE9FF0
 158 013a 1A8A993C 		.ascii	"\032\212\231<\257\306\304\016\242\330\006;D\031k`b\356"
 158      AFC6C40E 
 158      A2D8063B 
 158      44196B60 
 158      62EE
 159 014c C1F47101 		.ascii	"\301\364q\001\237xX<(D4\302\304=Pa)w-@k\236\243\355"
 159      9F78583C 
 159      284434C2 
 159      C43D5061 
 159      29772D40 
 160 0164 328D1974 		.ascii	"2\215\031t\205\274{\337\360\246\246'\356\202-\336\002"
 160      85BC7BDF 
 160      F0A6A627 
 160      EE822DDE 
 160      02
 161 0175 A1CAEED8 		.ascii	"\241\312\356\330\216#C\364\013Y\2679\352\251u\\\263"
 161      8E2343F4 
 161      0B59B739 
ARM GAS  C:\Users\JEFFSN~1\AppData\Local\Temp\cc6qS7ah.s 			page 12


 161      EAA9755C 
 161      B3
 162 0186 7BDE128B 		.ascii	"{\336\022\213zF\254\204eO\246\254\351\211Xr\316\236"
 162      7A46AC84 
 162      654FA6AC 
 162      E9895872 
 162      CE9E
 163 0198 B2E263B1 		.ascii	"\262\342c\261\344\360P<\366\332\262f_\315\274\261\354"
 163      E4F0503C 
 163      F6DAB266 
 163      5FCDBCB1 
 163      EC
 164 01a9 FE296A9F 		.ascii	"\376)j\237I\244,\333\236\233M\305R,\375\017\014B\263"
 164      49A42CDB 
 164      9E9B4DC5 
 164      522CFD0F 
 164      0C42B3
 165 01bc 82       		.ascii	"\202"
 166              		.text
 167              		.section	.gnu.lto_SleepTimer_EnableInt.a80cba2f,"",%progbits
 168 0000 789C7D90 		.ascii	"x\234}\220\273K$A\020\306\353\353\236\235\035\004\027"
 168      BB4B2441 
 168      10C6EBEB 
 168      9E9D1D04 
 168      17
 169 0011 2393DBC0 		.ascii	"#\223\333\300@\021\0239\021\377\002\203\313\344\270"
 169      40111339 
 169      11FF0283 
 169      CBE4B8
 170 0020 35144474 		.ascii	"5\024Dt\002\301\027\303j\272\275\217A1\020\341PA\020"
 170      02C117C3 
 170      6ABABD8F 
 170      413110E1 
 170      504110
 171 0033 0303DFAE 		.ascii	"\003\003\337\256\202\202\253\311\270\241\301\212\230"
 171      8282ABC9 
 171      B8A1C18A 
 171      98
 172 0040 9C8F0511 		.ascii	"\234\217\005\021|p\034\370@=\021t\255\236\011\005\013"
 172      7C701CF8 
 172      403D1174 
 172      AD9E0905 
 172      0B
 173 0051 7AAAA7F9 		.ascii	"z\252\247\371\352W\365\225A \035ENM\234\277\361\201"
 173      EA57F595 
 173      41201D45 
 173      4E4D9CBF 
 173      F181
 174 0063 2488F102 		.ascii	"$\210\361\002Q\322\022\200\276(\013\224\020H\340I\274"
 174      51D21280 
 174      BE280B94 
 174      1048E049 
 174      BC
 175 0074 09E487AF 		.ascii	"\011\344\207\257r\242n^q\234_^7\250\005\017\256$*\011"
 175      72A26E5E 
 175      719C5F5E 
 175      37A8050F 
ARM GAS  C:\Users\JEFFSN~1\AppData\Local\Temp\cc6qS7ah.s 			page 13


 175      AE242A09 
 176 0088 9F449847 		.ascii	"\237D\230G\035\261\354\367Cq\333\224\265\320\367\223"
 176      1DB1ECF7 
 176      4371DB94 
 176      B5D0F793 
 177 0098 B5F14C59 		.ascii	"\265\361LY\315\234R)\345\035\025\312\247\224\227\254"
 177      CD9C5229 
 177      E51D15CA 
 177      A79497AC 
 178 00a8 7225B000 		.ascii	"r%\260\000\311eh\214\342{\324/f\355\305\306\373D\271"
 178      C965688C 
 178      E27BD42F 
 178      66EDC5C6 
 178      FB44B9
 179 00bb 99D1F82A 		.ascii	"\231\321\370*,\242&\000c\011&\317\010\375\222\375\345"
 179      2CA22600 
 179      630926CF 
 179      08FD92FD 
 179      E5
 180 00cc A95229AD 		.ascii	"\251R)\255\274\303\310\336s\304\342q\371\321 W\212\220"
 180      BCC3C8DE 
 180      73C4E271 
 180      F9D12057 
 180      8A90
 181 00de FE10DDF1 		.ascii	"\376\020\335\361\321s\337\013\241\263\274A\332;\036"
 181      D173DF0B 
 181      A1B3BC41 
 181      DA3B1E
 182 00ed ABD48CB4 		.ascii	"\253\324\214\264\224\334#\227\373w\032N\274\251\021"
 182      94DC2397 
 182      FB771A4E 
 182      BCA911
 183 00fc A52A5CC9 		.ascii	"\245*\\\3113h\3642\022\\n\320\005\204\337\215\241\254"
 183      3368F432 
 183      125C6ED0 
 183      0584DF8D 
 183      A1AC
 184 010e A62BE45F 		.ascii	"\246+\344_G\337w\206\202j\203\253'\335\374A\370Q\270"
 184      47DF7786 
 184      826A83AB 
 184      27DDFC41 
 184      F851B8
 185 0121 32E49B3B 		.ascii	"2\344\233;+\376\3314\202\337\324pRiEvw\353\266l\026"
 185      2BFED934 
 185      82DFD470 
 185      52694576 
 185      77EBB66C 
 186 0136 33C90CAF 		.ascii	"3\311\014\257\306\304*\242X\001;\304\032f\301\304\364"
 186      C6C42AA2 
 186      58013BC4 
 186      1A66C1C4 
 186      F4
 187 0147 8B19E042 		.ascii	"\213\031\340B\001qz\367q?\244\021\002\026\262\254\344"
 187      01717AF7 
 187      713FA411 
 187      0216B2AC 
 187      E4
ARM GAS  C:\Users\JEFFSN~1\AppData\Local\Temp\cc6qS7ah.s 			page 14


 188 0158 A693D092 		.ascii	"\246\223\320\222\257`\353\014c\004\335 \343=\025\374"
 188      AF60EB0C 
 188      6304DD20 
 188      E33D15FC 
 189 0168 A1E993B9 		.ascii	"\241\351\223\271p\211\227@\330`s\354\306\225\026\375"
 189      70899740 
 189      D86073EC 
 189      C69516FD 
 190 0178 45CAFBDF 		.ascii	"E\312\373\337\342\253u\334\261y^\022\213\252\177\330"
 190      E2AB75DC 
 190      B1795E12 
 190      8BAA7FD8 
 191 0188 7DB6D311 		.ascii	"}\266\323\021\267\273\332c\375\203N\247\335\3663\326"
 191      B7BBDA63 
 191      FD834EA7 
 191      DDF633D6 
 192 0198 DFDCD416 		.ascii	"\337\334\324\026\353\261\355\201\326\356^\333\251\357"
 192      EBB1ED81 
 192      D6EE5EDB 
 192      A9EF
 193 01a6 A448775F 		.ascii	"\244Hw_\334v\234\301\201x,\316\322\017\314\006\2632"
 193      DC769CC1 
 193      81782CCE 
 193      D20FCC06 
 193      B332
 194              		.text
 195              		.section	.gnu.lto_SleepTimer_Init.a80cba2f,"",%progbits
 196 0000 789C6551 		.ascii	"x\234eQ\317k\023A\030\375\336\314\356&\204\006r\364"
 196      CF6B1341 
 196      18FDDECC 
 196      EE268406 
 196      72F4
 197 0012 104A0F16 		.ascii	"\020J\017\026)\210-\250\177\201`\257\305x,H\251{(\324"
 197      29882DA8 
 197      7F8160AF 
 197      C5782C48 
 197      A97B28D4 
 198 0026 5642F59A 		.ascii	"VB\365\232\331\354\256\025Q\360\242^\324\034\004\333"
 198      D9ECAE15 
 198      51F0A25E 
 198      D41C04DB 
 199 0036 FA2BADAD 		.ascii	"\372+\255\255\207\304\036\326\240=\211\342E\212\032"
 199      87C41ED6 
 199      A03D89E2 
 199      458A1A
 200 0045 D41E62D1 		.ascii	"\324\036b\321\202-\376\000\177\324\365\373v\361 \375"
 200      822DFE00 
 200      7FD4F5FB 
 200      76F120FD 
 201 0055 60766667 		.ascii	"`vfg\336\367\336\2337\026\201\244\366*\242~\236\017"
 201      DEF7DE9B 
 201      371681A4 
 201      F62AA27E 
 201      9E0F
 202 0067 F0804D50 		.ascii	"\360\200MP\027\237\021yY\245t\263\233L\316z\331O\246"
 202      179F1179 
 202      59A574B3 
ARM GAS  C:\Users\JEFFSN~1\AppData\Local\Temp\cc6qS7ah.s 			page 15


 202      9B4CCE7A 
 202      D94FA6
 203 007a 4BC34AB7 		.ascii	"K\303J\267-@\026&\013\252(m\241\202oj[\2415\335i\250"
 203      2D401626 
 203      0BAA286D 
 203      A1826F6A 
 203      5BA135DD 
 204 0090 BE19C3F5 		.ascii	"\276\031\303\365\356\311\247\0013\033!\324D\261J$\010"
 204      EEC9A701 
 204      331B21D4 
 204      44B14A24 
 204      08
 205 00a1 33E82386 		.ascii	"3\350#\206\255-\374\271\224w\002\201\365\244\207\230"
 205      AD2DFCB9 
 205      94770281 
 205      F5A48798 
 206 00b1 85233EEA 		.ascii	"\205#>\352G\"\023\307\276\211\336:\217\256g2\026\205"
 206      472213C7 
 206      BE89DE3A 
 206      8FAE6732 
 206      1685
 207 00c3 9ACDF087 		.ascii	"\232\315\360\207h\223q\242\271\245\224\314z\015\325"
 207      689371A2 
 207      B9A594CC 
 207      7A0DD5
 208 00d2 8290B5C3 		.ascii	"\202\220\265\303\346\343\254\336\003Y\257\376Z\376\236"
 208      E6E3ACDE 
 208      0359AFFE 
 208      5AFE9E
 209 00e1 EFBD614C 		.ascii	"\357\275aL\325D\3553\372\212\211\274\236P+\314A\263"
 209      D544ED33 
 209      FA8A89BC 
 209      9E502BCC 
 209      41B3
 210 00f3 0CF61731 		.ascii	"\014\366\0271PL\235\334B/\343\227k\347\347r_\225@\024"
 210      504C9DDC 
 210      422FE397 
 210      6BE7E772 
 210      5F954014 
 211 0107 6EA3481D 		.ascii	"n\243H\035\264~\236\353<\035\372\337\244\371p\301\226"
 211      B47E9EEB 
 211      3C1DFADF 
 211      A4F970C1 
 211      96
 212 0118 8EC466AC 		.ascii	"\216\304f\254\260\343\016\270\003\207I\357\302\361\265"
 212      B0E30EB8 
 212      038749EF 
 212      C2F1B5
 213 0127 C58797C3 		.ascii	"\305\207\227\303\326\363\214\360\352\004\373\246\275"
 213      D6F38CF0 
 213      EA04FBA6 
 213      BD
 214 0134 BA64A5BF 		.ascii	"\272d\245\277\325i\317\010\242\376\360\301\347\\\015"
 214      D569CF08 
 214      A2FEF0C1 
 214      E75C0D
 215 0143 D7BCC033 		.ascii	"\327\274\3003\205\220\023\254\243\210{\354\2000\217"
ARM GAS  C:\Users\JEFFSN~1\AppData\Local\Temp\cc6qS7ah.s 			page 16


 215      859013AC 
 215      A3887BEC 
 215      80308F
 216 0152 1AD888FF 		.ascii	"\032\330\210\377\3730\371\332N\011_\004\363W\2650\000"
 216      FB30F9DA 
 216      4E095F04 
 216      F357B530 
 216      00
 217 0163 161618F6 		.ascii	"\026\026\030\366\036\301+\177\361\346\256T\323\026\306"
 217      1EC12B7F 
 217      F1E6AE54 
 217      D316C6
 218 0172 8DC68F7C 		.ascii	"\215\306\217|\012!\334Gz\317-\245\251\331\255\327\021"
 218      0A21DC47 
 218      7ACF2DA5 
 218      A9D9ADD7 
 218      11
 219 0183 14042966 		.ascii	"\024\004)f\032\215\215\327\231\312\2669kD\330\216\225"
 219      1A8D8DD7 
 219      99CAB639 
 219      6B44D88E 
 219      95
 220 0194 4ADC6311 		.ascii	"J\334c\021\025\222\014B\355$\215\326\277\224\243/+*"
 220      15920C42 
 220      ED248DD6 
 220      BF94A32F 
 220      2B2A
 221 01a6 791F4980 		.ascii	"y\037I\200\326\341G\361J\227l\354d\313\304\254GXb\252"
 221      D6E147F1 
 221      4A976CEC 
 221      64CBC4AC 
 221      475862AA 
 222 01ba 5067E923 		.ascii	"Pg\351#7\327\006\023\250\324&'\307\234\374\216\273\007"
 222      37D70613 
 222      A8D42627 
 222      C79CFC8E 
 222      BB07
 223 01cc DD09B73C 		.ascii	"\335\011\267<2\345\036?V\232<U\036u\207\207J\223\207"
 223      32E51E3F 
 223      569A3C55 
 223      1E758787 
 223      4A9387
 224 01df 0E0E97C6 		.ascii	"\016\016\227\306]\367\344\321\261\023ny\337(e\307&\246"
 224      5DF7E4D1 
 224      B1136E79 
 224      DF2865C7 
 224      26A6
 225 01f1 DCF2E991 		.ascii	"\334\362\351\221\361\277\364~\320\333"
 225      F1BFF47E 
 225      D0DB
 226              		.text
 227              		.section	.gnu.lto_SleepTimer_Start.a80cba2f,"",%progbits
 228 0000 789C9590 		.ascii	"x\234\225\220;H\003A\020\206gv/\211\004\0036vA,DH\243"
 228      3B480341 
 228      10866776 
 228      2F890403 
 228      3676412C 
ARM GAS  C:\Users\JEFFSN~1\AppData\Local\Temp\cc6qS7ah.s 			page 17


 229 0017 8D767682 		.ascii	"\215vv\202\266b,\005\361q\205\340\213\240u6\271\204"
 229      B6622C05 
 229      F17185E0 
 229      8BA07536 
 229      B984
 230 0029 68A78569 		.ascii	"h\247\205iD\202\205$>\343\025\026\027T\216`\031\264"
 230      44828524 
 230      3EE31516 
 230      17548E60 
 230      19B4
 231 003b D24211D4 		.ascii	"\322B\021\324\"HH\021\301\024\026\361\234\271\210\026"
 231      22484811 
 231      C11416F1 
 231      9CB98816 
 232 004b 62E1C032 		.ascii	"b\341\3002\313\277\377\376\3631\032 p]P\353\246\336"
 232      CBBFFFFE 
 232      F3311A20 
 232      705D50EB 
 232      A6DE
 233 005d 47073D80 		.ascii	"G\007=\200b\375\012 \326\"\204,t\200\362k\267\275\240"
 233      62FD0A20 
 233      D622842C 
 233      7480F26B 
 233      B7BDA0
 234 0070 5A256A4D 		.ascii	"Z%jMYC\344\213jA\210\012\251a\024\353\242!\260\230*"
 234      5943E48B 
 234      6A41880A 
 234      A96114EB 
 234      A221B098 
 235 0085 5B229455 		.ascii	"[\"\224UT\217\273[R\345lLJ\000G\270#\000\263\030\002"
 235      548FBB5B 
 235      52E56C4C 
 235      4A0047B8 
 235      2300B318 
 236 009a B23D9B1F 		.ascii	"\262=\233\037\233\001o\202m\235\315G\314\241\2279\362"
 236      9B016F82 
 236      6D9DCD47 
 236      CCA19739 
 236      F2
 237 00ab A3B6721C 		.ascii	"\243\266r\034C\331\017\236\235V\237\204\244$\265F\016"
 237      43D90F9E 
 237      9D569F84 
 237      A424B546 
 237      0E
 238 00bc 9EF62A04 		.ascii	"\236\366*\004wY\306x\332<\013\362\037CJ\312K'\213\327"
 238      7759C678 
 238      DA3C0BF2 
 238      1F434ACA 
 238      4B278BD7 
 239 00d0 BE379194 		.ascii	"\2767\221\224\0029\336\262\252\367\276hC\255*\325F\332"
 239      0239DEB2 
 239      AAF7BE68 
 239      43AD2AD5 
 239      46DA
 240 00e2 1A11B05C 		.ascii	"\032\021\260\\)\335\\\3723\270\035S\256.q\237\260\367"
 240      29DD5CFA 
 240      33B81D53 
ARM GAS  C:\Users\JEFFSN~1\AppData\Local\Temp\cc6qS7ah.s 			page 18


 240      AE2E719F 
 240      B0F7
 241 00f4 3048D30F 		.ascii	"0H\323\0170\203\360\204\211;c\352'5_\265\336\003\234"
 241      3083F084 
 241      893B63EA 
 241      27355FB5 
 241      DE039C
 242 0107 8A0878C8 		.ascii	"\212\010x\310>`\006\011\205\016\371\202\206]\327\331"
 242      3E600609 
 242      850EF982 
 242      865DD7D9 
 243 0117 FB7BA0E6 		.ascii	"\373{\240\346\020\006\340\021F\011\337\003D\373V;\037"
 243      1006E011 
 243      4609DF03 
 243      44FB563B 
 243      1F
 244 0128 60EF3FD8 		.ascii	"`\357?\330\216\277\331\362\304F\216\323T\311\3643\015"
 244      8EBFD9F2 
 244      C4468ED3 
 244      54C9F433 
 244      0D
 245 0139 E1E0894B 		.ascii	"\341\340\211K\363*4w\037\014\343\264\377\011C\333C\363"
 245      F32A3477 
 245      1F0CE3B4 
 245      FF0943DB 
 245      43F3
 246 014b 0BA68271 		.ascii	"\013\246\202q{c\310\265r\325\210\224\022\310\3215\254"
 246      7B63C8B5 
 246      72D58894 
 246      12C8D135 
 246      AC
 247 015c 2FE891C9 		.ascii	"/\350\221\311e}f\"\274\270\022\231\326\307G\302\213"
 247      657D6622 
 247      BCB81299 
 247      D6C747C2 
 247      8B
 248 016d 83FDE3E1 		.ascii	"\203\375\343\3419]_\032\233\235\327#=\323\360\011\216"
 248      395D5F1A 
 248      9B9DD723 
 248      3DD3F009 
 248      8E
 249 017e 12AD07   		.ascii	"\022\255\007"
 250              		.text
 251              		.section	.gnu.lto_SleepTimer_DisableInt.a80cba2f,"",%progbits
 252 0000 789C7D90 		.ascii	"x\234}\220\273K#Q\024\306\317w\357d\022\004\037\225"
 252      BB4B2351 
 252      14C6CF77 
 252      EF641204 
 252      1F95
 253 0012 8D295228 		.ascii	"\215)R(\213\215(\342_`a\251\030Ka\021\235BpU\206h\233"
 253      8B8D28E2 
 253      5F6061A9 
 253      184B6111 
 253      9D427055 
 254 0029 9BC7A0D8 		.ascii	"\233\307\240\330(\210Z\210Xlav}DA\301 .\263\371\003"
 254      28885A88 
 254      586C6176 
ARM GAS  C:\Users\JEFFSN~1\AppData\Local\Temp\cc6qS7ah.s 			page 19


 254      7D4441C1 
 254      202EB3F9 
 255 003e 4C6123BE 		.ascii	"La#\276\261\010\"\212Q\024A\324x\356L)x\340\316\271"
 255      B108228A 
 255      511441D4 
 255      78EE4C29 
 255      78E0CEB9 
 256 0052 73F9CEEF 		.ascii	"s\371\316\357\234\357\030\004\322q\316\251\215s\035"
 256      9CEF1804 
 256      D271CEA9 
 256      8D731D
 257 0061 1F488298 		.ascii	"\037H\202\2309 J\204\004\240/*\004\212\013\304\361,"
 257      39204A84 
 257      04A02F2A 
 257      048A0BC4 
 257      F12C
 258 0073 DE05F213 		.ascii	"\336\005\362\023\305\234h\\Q\034\227\316K\213\312\270"
 258      C59C685C 
 258      511C97CE 
 258      4B8BCAB8 
 259 0083 70245159 		.ascii	"p$QYx$\302\012\032\211e\263\217g\273\246\374\001}?\336"
 259      7824C20A 
 259      1A8965B3 
 259      8F67BBA6 
 259      FC017D3F 
 260 0098 98495734 		.ascii	"\230IW4\374V*\251\334\375B\345\202r\023\021G\002\031"
 260      FC562AA9 
 260      DCFD42E5 
 260      82721311 
 260      470219
 261 00ab 482E436B 		.ascii	"H.Ck\030\315a\257\230\265W[\037s\225fZ\343#\370\203"
 261      18CD61AF 
 261      98B5575B 
 261      1F739566 
 261      5AE323F8 
 262 00c0 061F8CBF 		.ascii	"\006\037\214\2770yF\350\227l\267\253\312\345\224r\367"
 262      307946E8 
 262      976CB7AB 
 262      CAE59472 
 262      F7
 263 00d1 AAFF97AA 		.ascii	"\252\377\227\252C<.?\032\344H\021\320\037\242\022\037"
 263      433C2E3F 
 263      1AE44811 
 263      D01FA212 
 263      1F
 264 00e2 3DF78310 		.ascii	"=\367\203\020:\313k\244\334\303\351Z\315HI\311=r\271"
 264      3ACB6BA4 
 264      DCC3E95A 
 264      CD4849C9 
 264      3D72B9
 265 00f5 DB9360FC 		.ascii	"\333\223`\374]M*U\343H\236A\243W\021\347r\203\256 \274"
 265      5D4D2A55 
 265      E3489E41 
 265      A35711E7 
 265      7283AE20 
 266 010a 6E0C6535 		.ascii	"n\014e5\025\221\177\235*\376\033\367\253\015\256\236"
 266      15917F9D 
ARM GAS  C:\Users\JEFFSN~1\AppData\Local\Temp\cc6qS7ah.s 			page 20


 266      2AFE1BF7 
 266      AB0DAE9E 
 267 011a 77F285E0 		.ascii	"w\362\205\340\223pd\3003wzv\264m\370\277\311\211\204"
 267      937064C0 
 267      33777A76 
 267      B46DF8BF 
 267      C98984
 268 012d D28AECDE 		.ascii	"\322\212\354\336\316}\3052\226\022i^\215\211u\204\261"
 268      CE7DC532 
 268      9612695E 
 268      8D897584 
 268      B1
 269 013e 0676880D 		.ascii	"\006v\210\015,\203\211\2517\323\307\005|\342\342\305"
 269      2C8389A9 
 269      37D3C705 
 269      7CE2E2C5 
 270 014e 5DB14A23 		.ascii	"]\261J#L\274\000Y\226r\327yh\315w\264M\2461\203\256"
 270      4CBC0059 
 270      9672D779 
 270      68CD77B4 
 270      4DA63183 
 271 0163 91762F0A 		.ascii	"\221v/\012\336\324\364\305]\260\314[ l\261;\266\343"
 271      DED4F4C5 
 271      5DB0CC5B 
 271      206CB13B 
 271      B6E3
 272 0175 C810DD20 		.ascii	"\310\020\335 \351>tzj\035%v\317[bQ}\2075l\331}1k\340"
 272      E93E747A 
 272      6A1D2576 
 272      CF5B6251 
 272      7D87356C 
 273 018e 677464CC 		.ascii	"gtd\314\356\267z\273\242#\355m\275\321!\313\032\355"
 273      EEB77ABB 
 273      A223ED6D 
 273      BDD121CB 
 273      1AED
 274 01a0 19FC65D9 		.ascii	"\031\374e\331M\375T58\034\263l{l4\026\215\261\364\023"
 274      4DFD5435 
 274      381CB36C 
 274      7B6C3416 
 274      8DB1F413 
 275 01b4 0E8EB3BC 		.ascii	"\016\216\263\274"
 276              		.text
 277              		.section	.gnu.lto_SleepTimer_SetInterval.a80cba2f,"",%progbits
 278 0000 789C2550 		.ascii	"x\234%PAKTQ\024>\337=\3277\203h\010n\007i\021\014n\032"
 278      414B5451 
 278      143EDF3D 
 278      D7378368 
 278      086E0769 
 279 0018 49FA0541 		.ascii	"I\372\005An\245qi\204\331[\010\2461\230\333\2713\357"
 279      6EA57169 
 279      84D95B08 
 279      A63198DB 
 279      B933EF
 280 002b 3D945611 		.ascii	"=\224V\021X\213\022\335\210\246\325X\324b*h\034ZF\""
 280      588B12DD 
 280      88A6D558 
ARM GAS  C:\Users\JEFFSN~1\AppData\Local\Temp\cc6qS7ah.s 			page 21


 280      D4622A68 
 280      1C5A4622 
 281 003f B8104B50 		.ascii	"\270\020KP\027C\204\320\010\265H\324\361\234\367\016"
 281      174384D0 
 281      08B548D4 
 281      F19CF70E 
 282 004f DCF7DD7B 		.ascii	"\334\367\335{\370\276\357|\347Y\002i=\027\310\011\366"
 282      F8BEEF7C 
 282      E7590269 
 282      3D17C809 
 282      F6
 283 0060 CB411BC1 		.ascii	"\313A\033\301<\376NTJ\033\303\3339r\355\366s\017\271"
 283      3CFE4E54 
 283      4A1BC3DB 
 283      3972EDF6 
 283      730FB9
 284 0073 0E86D536 		.ascii	"\016\206\3256,\240\350\322\240\242a\213\"\376\2313\203"
 284      2CA0E8D2 
 284      A0A2618B 
 284      22FE9933 
 284      83
 285 0084 FA4CA36A 		.ascii	"\372L\243jz\227\235\324\376\322\273kn\245\206\210\211"
 285      7A979DD4 
 285      FED2BB6B 
 285      6EA58688 
 285      89
 286 0095 5A269E40 		.ascii	"Z&\236@XF\257\260\366\242\217_\323\234\005\311}\361"
 286      5846AFB0 
 286      F6A28F5F 
 286      D39C05C9 
 286      7DF1
 287 00a7 C9E6974B 		.ascii	"\311\346\227K\331%\347\312\316=\273\3558b`\005,\012"
 287      D925E7CA 
 287      CE3DBBED 
 287      38626005 
 287      2C0A
 288 00b9 F467D097 		.ascii	"\364g\320\227!i\020^\"\253\344\303\267\347s\235^\250"
 288      2169105E 
 288      22ABE4C3 
 288      B7E7739D 
 288      5EA8
 289 00cb F6971353 		.ascii	"\366\227\023S\254\302\323\370\225[5\327j\005\2566\327"
 289      ACC2D3F8 
 289      955B35D7 
 289      6A05AE36 
 289      D7
 290 00dc BDD1EC4E 		.ascii	"\275\321\354NAd\206\365\343!\026SS\330\232\370\330\030"
 290      416486F5 
 290      E3211653 
 290      53D89AF8 
 290      D818
 291 00ee 456EA07E 		.ascii	"En\240~\362\250\361mP\015\002f1\177\032\3257S\177M\304"
 291      F2A8F16D 
 291      500D0266 
 291      317F1AD5 
 291      37537F4D 
 292 0103 1C07FBB9 		.ascii	"\034\007\373\271\267\363\336&\317\362L\311YiU>}\370"
ARM GAS  C:\Users\JEFFSN~1\AppData\Local\Temp\cc6qS7ah.s 			page 22


 292      B7F3DE26 
 292      CFF24CC9 
 292      5969553E 
 292      7DF8
 293 0115 D3BE80F9 		.ascii	"\323\276\200\371R([Y\274B\006k\310H\210\327X\0005\020"
 293      52285B59 
 293      BC42066B 
 293      C84888D7 
 293      58003510 
 294 0129 9CDEA480 		.ascii	"\234\336\244\200\221\330m\205\353/X\365F~\326\033\241"
 294      91D86D85 
 294      EB2F58F5 
 294      467ED61B 
 294      A1
 295 013a 1D20DC0D 		.ascii	"\035 \334\015\356&\363\240nG\325\377\235\011\201PQ\037"
 295      EE26F3A0 
 295      6E47D5FF 
 295      9D098150 
 295      511F
 296 014c D2784CDB 		.ascii	"\322xL\3339\376\205\260K\231\032\244Z=\372\221*\236"
 296      39FE85B0 
 296      4B991AA4 
 296      5A3DFA91 
 296      2A9E
 297 015e B959E7BA 		.ascii	"\271Y\347\272\"nk\011\235\260\216\242\214\362\"\366"
 297      226E6B09 
 297      9DB08EA2 
 297      8CF222F6 
 298 016e 62918D77 		.ascii	"b\221\215w\372\215r\3558\037\353\264\232\302\224\266"
 298      FA8D72ED 
 298      381FEBB4 
 298      9AC294B6 
 299 017e 2C7E65C0 		.ascii	",~e\300\237\360\013#S\376\275;\371\311\207\205Q\177"
 299      9FF00B23 
 299      53FEBD3B 
 299      F9C98785 
 299      517F
 300 0190 78303F79 		.ascii	"x0?y\343\372p~\334\367\037\014\215\335\367\013WG)=6"
 300      E3FA707E 
 300      DCF71F0C 
 300      8DDDF70B 
 300      5747293D 
 301 01a5 31E517A6 		.ascii	"1\345\027\246G\306/\000\234,\234{"
 301      47C62F00 
 301      9C2C9C7B 
 302              		.text
 303              		.section	.gnu.lto_SleepTimer_GetStatus.a80cba2f,"",%progbits
 304 0000 789C6361 		.ascii	"x\234ca`d\000\201\023@\254\006\304\322@\314\310\314"
 304      60640081 
 304      1340AC06 
 304      C4D240CC 
 304      C8CC
 305 0012 C0C834E1 		.ascii	"\300\3104\341\034\003C#\007\023##\210\321\300\301\310"
 305      1C034323 
 305      07132323 
 305      88D1C0C1 
 305      C8
ARM GAS  C:\Users\JEFFSN~1\AppData\Local\Temp\cc6qS7ah.s 			page 23


 306 0023 50CFC458 		.ascii	"P\317\304X\317\370\225\351/\023\343\351\357'z\2704\227"
 306      CFF895E9 
 306      2F13E3E9 
 306      EF277AB8 
 306      3497
 307 0035 37343435 		.ascii	"7445<X\372\315j\372\212\003\214\255\314\014\014\377"
 307      3C58FACD 
 307      6AFA8A03 
 307      8CADCC0C 
 307      0CFF
 308 0047 9918188D 		.ascii	"\231\030\030\215e\030\015d@F,g\324d\000*}\264\361\337"
 308      65180D64 
 308      40462C67 
 308      D464002A 
 308      7DB4F1DF 
 309 005b 545EB696 		.ascii	"T^\266\226\006 P\000)\000\312\254`d\003Y\271>\350@\303"
 309      06205000 
 309      2900CAAC 
 309      60640359 
 309      B93EE840 
 310 0070 FFFFCD0D 		.ascii	"\377\377\315\015\007\266\212\037\334%\316\302\314\000"
 310      07B68A1F 
 310      DC25CEC2 
 310      CC00
 311 007e 3282E103 		.ascii	"2\202\341\003P\011\310\302\217LL \232\371\005c\313\201"
 311      5009C8C2 
 311      8F4C4C20 
 311      9AF90563 
 311      CB81
 312 0090 9DD3F940 		.ascii	"\235\323\371@\232\232\231\231\201\006\356\334\371\346"
 312      9A9A9999 
 312      8106EEDC 
 312      F9E6
 313 009e 367BFDDF 		.ascii	"6{\375\337\206\216\206\006\201Vf\306\377L@\263\030W"
 313      868E8606 
 313      815666C6 
 313      FF4C40B3 
 313      1857
 314 00b0 32D6832C 		.ascii	"2\326\203,\3333\277g%\327\027\246V\220\363\031W1\312"
 314      DB33BF67 
 314      25D717A6 
 314      5690F319 
 314      5731CA
 315 00c3 B4323331 		.ascii	"\264231\274\0022!\232\031\300\3063\202\214\005Z\242"
 315      BC023221 
 315      9A19C0C6 
 315      33828C05 
 315      5AA2
 316 00d5 E29E9A97 		.ascii	"\342\236\232\227Z\224X\222\232\022\037\234_Z\224\234"
 316      5A945892 
 316      9A121F9C 
 316      5F5A949C 
 317 00e5 1A13109C 		.ascii	"\032\023\020\234\357l\032\023\234\223\232Z\020\222\231"
 317      EF6C1A13 
 317      9C939A5A 
 317      109299
 318 00f4 9B5AA497 		.ascii	"\233Z\244\227\314\000\000\327\351S'"
ARM GAS  C:\Users\JEFFSN~1\AppData\Local\Temp\cc6qS7ah.s 			page 24


 318      CC0000D7 
 318      E95327
 319              		.text
 320              		.section	.gnu.lto_.symbol_nodes.a80cba2f,"",%progbits
 321 0000 789C5DCE 		.ascii	"x\234]\316\275\015\3020\020\206\341\357|v\342\3745t"
 321      BD0DC230 
 321      1086E1EF 
 321      7C76E2FC 
 321      3574
 322 0012 54C00E59 		.ascii	"T\300\016Y\213\031.D(5+\020\321\320C\021j\352\314\000"
 322      8B192E44 
 322      28352B10 
 322      D1D04311 
 322      6AEACC00 
 323 0026 91E89801 		.ascii	"\221\350\230\001aG.0\225\365>w\262N\203\260%\000\252"
 323      61472E30 
 323      95F53E77 
 323      B24E83B0 
 323      2500AA
 324 0039 14E03002 		.ascii	"\024\3400\002\002\032\366\307f\355\250\022\372'\026"
 324      021AF6C7 
 324      66EDA812 
 324      FA2716
 325 0048 1508B766 		.ascii	"\025\010\267f\343@\013\307`D\307\240\304\304@\222D`"
 325      E3400BC7 
 325      6044C7A0 
 325      C4C44092 
 325      4460
 326 005a 80DDC29F 		.ascii	"\200\335\302\237\220H\032o\246bc\260\222E@\231\3443"
 326      90481A6F 
 326      A66263B0 
 326      92454099 
 326      E433
 327 006c 008DBF8F 		.ascii	"\000\215\277\217r)\242.\244\374mF\211S\367^1\012\234"
 327      7229A22E 
 327      A4FC6D46 
 327      8953F75E 
 327      310A9C
 328 007f 1E1F6205 		.ascii	"\036\037b\005\264C\315\312\345ytY\342\336\275\226\314"
 328      B443CDCA 
 328      E5797459 
 328      E2DEBD96 
 328      CC
 329 0090 61CCAE9F 		.ascii	"a\314\256\237\356\325\241uhC\350\2575\033\215\311gb"
 329      EED5A175 
 329      6843E8AF 
 329      351B8DC9 
 329      6762
 330 00a2 305D6A4E 		.ascii	"0]jN\024z\2376l\333\260\235\021Z\377{^\315\216/o\002"
 330      147A9F36 
 330      6CDBB09D 
 330      115AFF7B 
 330      5ECD8E2F 
 331 00b8 5A54     		.ascii	"ZT"
 332              		.text
 333              		.section	.gnu.lto_.refs.a80cba2f,"",%progbits
 334 0000 789C6361 		.ascii	"x\234ca`d\340d```bc`gddga\000\000\001k\000+"
ARM GAS  C:\Users\JEFFSN~1\AppData\Local\Temp\cc6qS7ah.s 			page 25


 334      6064E064 
 334      60606062 
 334      63606764 
 334      64676100 
 335              		.text
 336              		.section	.gnu.lto_.decls.a80cba2f,"",%progbits
 337 0000 789C9D95 		.ascii	"x\234\235\225kL\024W\024\307\347\314,\013\356\256`\215"
 337      6B4C1457 
 337      14C7E7CC 
 337      2C0BEEAE 
 337      608D
 338 0012 1A3E6C5B 		.ascii	"\032>l[kj\352'\2421M\354\227\246\015\265j\3224\246T"
 338      6B6AEA27 
 338      A2314DEC 
 338      97A60DB5 
 338      6AD234A6 
 339 0027 3F99D815 		.ascii	"?\231\330\025'\355&\010t\035\233\362\245\035\005\037"
 339      27ED2608 
 339      741D9BF2 
 339      A51D051F 
 340 0037 1413A555 		.ascii	"\024\023\245U\361\325\200\217\212\350\"\317\305E\004"
 340      F1D5808F 
 340      8AE822CF 
 340      C54504
 341 0046 56C0E5A1 		.ascii	"V\300\345\241\200\200\202\310\"k\321\030R\033\2535\265"
 341      808082C8 
 341      226BD118 
 341      521BAB35 
 341      B5
 342 0057 56919E7B 		.ascii	"V\221\236{\347N\347\016\356\222\206\033\3162w\366\374"
 342      E74EE70E 
 342      EE92861B 
 342      CE3277F6 
 342      FC
 343 0068 7FE77FCE 		.ascii	"\177\347\177\316\334\354X\004\020\310\272\024'\010u"
 343      DCEC5804 
 343      10C8BA14 
 343      270875
 344 0077 78B95212 		.ascii	"x\271R\022\204\011\\v\274\267\026\203|\353\025\2645"
 344      84095C76 
 344      BCB71683 
 344      7CEB15B4 
 344      35
 345 0088 13A312A3 		.ascii	"\023\243\022\243\006\243\026\243\016\243\036\243\221"
 345      06A316A3 
 345      0EA31EA3 
 345      91
 346 0095 E8319A31 		.ascii	"\3501\2321Z1:0\256bta\3642\306\015\301\274\010g\006"
 346      5A313A30 
 346      AE627461 
 346      F432C60D 
 346      C1BC0867 
 347 00aa AB41F84E 		.ascii	"\253A\370N\214~\214v\214!\214A\214\020F\220\345KL\243"
 347      8C7E8C76 
 347      8C218C41 
 347      8C104690 
 347      E54B4CA3 
ARM GAS  C:\Users\JEFFSN~1\AppData\Local\Temp\cc6qS7ah.s 			page 26


 348 00be 73272FE2 		.ascii	"s'/\342)f\022O\347\010\314CM\004\035\351\303\036E7\214"
 348      2966124F 
 348      E708CC43 
 348      4D041DE9 
 348      C31E4537 
 349 00d3 51C1F9E2 		.ascii	"Q\301\371\342\375X\230v*Ou\323\350\261n\012^\3754x\365"
 349      FD589876 
 349      2A4F75D3 
 349      E8B16E0A 
 349      5EFD3478 
 350 00e8 53F01A39 		.ascii	"S\360\0329\236\2231u\316m\014\037\306\010\206\237\353"
 350      9E933175 
 350      CE6D0C1F 
 350      C608869F 
 350      EB
 351 00f9 9968C833 		.ascii	"\231h\3103\256a\354\311\213\234\003+\307\0143.\317\221"
 351      AE61ECC9 
 351      8B9C032B 
 351      C70C332E 
 351      CF91
 352 010b 581E6191 		.ascii	"X\036a\221\031F:\037\315\323\350\265y\212^\211\347X"
 352      19463A1F 
 352      CDD3E8B5 
 352      798A5E89 
 352      E758
 353 011d 21F273D6 		.ascii	"!\362s\326{%K\344\372\233\274:X\035\242\277\203\321"
 353      7B254BE4 
 353      FA9BBC3A 
 353      581DA2BF 
 353      83D1
 354 012f C369C877 		.ascii	"\303i\310w\275\0214\343\"\224m\277[\022\367D\004\247"
 354      BD1134E3 
 354      22946DBF 
 354      5B12F744 
 354      04A7
 355 0141 0D2680EC 		.ascii	"\015&\200\354\037\324>\233\251\355\311\327#\317N\177"
 355      1FD43E9B 
 355      A9EDC9D7 
 355      23CF4E7F 
 356 0151 9CE45571 		.ascii	"\234\344Uq\355UUQ4t\207\362G_\332%;I\022\373F\317\216"
 356      ED555551 
 356      347487F2 
 356      475FDA25 
 356      3B4912FB 
 357 0168 596091ED 		.ascii	"Y`\221\355\024\311\013\367\335}\277VUg\201\027lp\006"
 357      14C90BF7 
 357      DD7DBF56 
 357      55678117 
 357      6C7006
 358 017b 24288124 		.ascii	"$(\201$2F\247\015?w\251\3526\365\217\343\2525Q\200\245"
 358      3246A70D 
 358      3F77A9EA 
 358      36F58FE3 
 358      AA355180 
 359 0190 4E58EC14 		.ascii	"NX\354\024\340,,\"\305H\026\234\006'\024\003\336D-\326"
 359      E02C2C22 
 359      C548169C 
ARM GAS  C:\Users\JEFFSN~1\AppData\Local\Temp\cc6qS7ah.s 			page 27


 359      06271403 
 359      DE442DD6 
 360 01a4 9828ACDE 		.ascii	"\230(\254\336\0237\004\203 \011\354\207@\000\320>\201"
 360      13370483 
 360      2009EC87 
 360      4000D03E 
 360      81
 361 01b5 86A005DD 		.ascii	"\206\240\005\335\342\205(h\027\372\255\377\226\300R"
 361      E2852868 
 361      17FAADFF 
 361      96C052
 362 01c4 44FDD280 		.ascii	"D\375\322\200\321?\246\207\011}Q\210A\007&\322\366L"
 362      D13FA687 
 362      097D5188 
 362      410726D2 
 362      F64C
 363 01d6 2C301188 		.ascii	",0\021\210F\001\320\266\272\202\343Mr\244{\326\313\010"
 363      4601D0B6 
 363      BA82E34D 
 363      72A47BD6 
 363      CB08
 364 01e8 A23ED87F 		.ascii	"\242>\330\177ZZ\317:\244\245t\372=9\345G%|\030\263m"
 364      5A5ACF3A 
 364      A4A574FA 
 364      3D39E547 
 364      257C18B3 
 365 01fd 60C1EDA3 		.ascii	"`\301\355\243\316\303\243\361\270\235c\203\371\270\035"
 365      CEC3A3F1 
 365      B89D6383 
 365      F9B81D
 366 020c 6F3F7258 		.ascii	"o?rXL<@\037N\266:\337\002k\347A9N\260\014'(@\005$\342"
 366      4C3C401F 
 366      4EB63ADF 
 366      026BE741 
 366      394EB00C 
 367 0226 E7068B46 		.ascii	"\347\006\213F-\364=\015\305,(R\003\345j\270v\307\367"
 367      2DF43D0D 
 367      C52C2852 
 367      03E56AB8 
 367      76C7F7
 368 0239 772A036A 		.ascii	"w*\003j.\352\254$\015\316\031O\351\034\231\265\000\245"
 368      2EEAAC24 
 368      0DCE194F 
 368      E91C99B5 
 368      00A5
 369 024b 3084BE2A 		.ascii	"0\204\276*a\001Jw\344\335\010'H_SC\367\012\012\177\263"
 369      61014A77 
 369      E4DD0827 
 369      485F5343 
 369      F70A0A7F 
 370 0260 5AD02B7D 		.ascii	"Z\320+}\272\010\307{\336\013\241\007\326\2506|\324F"
 370      BA08C77B 
 370      DE0BA107 
 370      D6A8367C 
 370      D446
 371 0272 35301F95 		.ascii	"50\037\225\371\217\032$\315G\340\307>\307\256\275[U"
 371      F98F1A24 
ARM GAS  C:\Users\JEFFSN~1\AppData\Local\Temp\cc6qS7ah.s 			page 28


 371      CD47E0C7 
 371      3EC7AEBD 
 371      5B55
 372 0284 F50B9204 		.ascii	"\365\013\222\004U\206\211*\336D\0155\321\335\276\263"
 372      5586892A 
 372      DE440D35 
 372      D1DDBEB3 
 373 0294 3041DA03 		.ascii	"0A\332\003\324\305\324\215\373M\215\227\372\207\037"
 373      D4C5D48D 
 373      FB4D8D97 
 373      FA871F
 374 02a3 DAB16018 		.ascii	"\332\261`\030\013\276hu\250X\260\350\003\222\003\347"
 374      0BBE6875 
 374      A858B0E8 
 374      039203E7 
 375 02b3 8D82E7F9 		.ascii	"\215\202\347\371\202\265\264\340\251\202\207\331V\351"
 375      82B5B4E0 
 375      A98287D9 
 375      56E9
 376 02c1 9856B0F6 		.ascii	"\230V\260\366\357_\236\317@H\021B\256_\241\020U\203"
 376      EF5F9ECF 
 376      40481142 
 376      AE5FA110 
 376      5583
 377 02d3 5C302017 		.ascii	"\\0 \027xH\035\205<~:\266\313!Uh\220\336\246mwu'\015"
 377      78481D85 
 377      3C7E3AB6 
 377      CB215568 
 377      90DEA66D 
 378 02eb 5D3CE4A2 		.ascii	"]<\344\242\001\271\310C\352)\304\277gw\203M\012j\220"
 378      01B9C843 
 378      EA29C4BF 
 378      6777834D 
 378      0A6A90
 379 02fe E29D07FD 		.ascii	"\342\235\007\375V\006\011\005yH\203\001i\340!\215\024"
 379      56060905 
 379      79488301 
 379      69E0218D 
 379      14
 380 030f F2D257EA 		.ascii	"\362\322W\352\023\245~\015R\266\343\327\335\"k\347\226"
 380      13A57E0D 
 380      52B6E3D7 
 380      DD226BE7 
 380      96
 381 0320 4C0F8285 		.ascii	"L\017\202\2052\002\006#\3003.QF\261z\263/V\272\2571"
 381      32020623 
 381      C0332E51 
 381      46B17AB3 
 381      2F56BAAF 
 382 0335 9ED47756 		.ascii	"\236\324wV\3073\206\277\2337\322d@\232xH3\205\354/\350"
 382      C73386BF 
 382      9B37D264 
 382      409A7848 
 382      3385EC2F 
 383 034a D9264AE3 		.ascii	"\331&J\3430\315\343\024\244\017\367\262~\234\016\234"
 383      30CDE314 
 383      A40FF7B2 
ARM GAS  C:\Users\JEFFSN~1\AppData\Local\Temp\cc6qS7ah.s 			page 29


 383      7E9C0E9C 
 384 035a 2AE8B2B1 		.ascii	"*\350\262\261q\340qbO\027\223\240\305p\321\302\273h"
 384      71E07162 
 384      4F1793A0 
 384      C570D1C2 
 384      BB68
 385 036c A52E0672 		.ascii	"\245.\006r\266{\343\244}\"uq-\357rv\002_\221\2301J\266"
 385      B67BE3A4 
 385      7D227571 
 385      2DEF7276 
 385      025F9198 
 386 0383 9BCED3BE 		.ascii	"\233\316\323\276\316G\271\372\354\252\006\244Cj \007"
 386      CE47B9FA 
 386      ECAA06A4 
 386      436A2007 
 387 0393 7522C982 		.ascii	"u\"\311\2026\243f\033_\263\203\326\364\326\375\374<"
 387      36A3661B 
 387      5FB383D6 
 387      F4D6FDFC 
 387      3C
 388 03a4 4E2AD16A 		.ascii	"N*\321j\236>\371\323q\372\034\361\007so\377w\371\331"
 388      9E3EF9D3 
 388      71FA1CF1 
 388      07736FFF 
 388      77F9D9
 389 03b7 452B29E2 		.ascii	"E+)\342\212\201\270B\021xq\225\312\033\307:\212%)\254"
 389      8A81B842 
 389      11787195 
 389      CA1BC73A 
 389      8A2529AC 
 390 03cb C9474F1C 		.ascii	"\311GO\034\331m\327\344\201\361\235\350\242\311B\273"
 390      D96DD7E4 
 390      81F19DE8 
 390      A2C942BB 
 391 03db EE34E49D 		.ascii	"\3564\344\235\272\274\213\312G\006\216n\265J\177\211"
 391      BABC8BCA 
 391      47068E6E 
 391      B54A7F89 
 392 03eb 51E7EE3B 		.ascii	"Q\347\356;\330_i\211>\205\036:\205k\372\340\203\335"
 392      D85F6989 
 392      3E851E3A 
 392      856BFAE0 
 392      83DD
 393 03fd AD2F6CCC 		.ascii	"\255/l\314\377\221\303\357\024\020\377\230\002\335\206"
 393      FF91C3EF 
 393      1410FF98 
 393      02DD86
 394 040c 816EDD40 		.ascii	"\201n\335@/5\3205\324\366\036\376v\021*\001\034+y<`"
 394      2F35D035 
 394      D4F61EFE 
 394      76112A01 
 394      1C2B793C 
 395 0421 914E4A74 		.ascii	"\221NJt\323Wv\271\335\272\360\204Zt\\\015\373\203s\013"
 395      D35776B9 
 395      DDBAF084 
 395      5A745C0D 
 395      FB83730B 
ARM GAS  C:\Users\JEFFSN~1\AppData\Local\Temp\cc6qS7ah.s 			page 30


 396 0435 D400D0C4 		.ascii	"\324\000\320\304\353\032\215\275*\004\272\357#\357\207"
 396      EB1A8DBD 
 396      2A04BAEF 
 396      23EF87
 397 0444 1BB01065 		.ascii	"\033\260\020e\347Zr\317\210\216\037\310;\005-\317n\213"
 397      E75A72CF 
 397      888E1FC8 
 397      3B052DCF 
 397      6E8B
 398 0456 A723343C 		.ascii	"\247#4<\367\203\203\032\300\377\344\304\346\374\331"
 398      F783831A 
 398      C0FFE4C4 
 398      E6FCD9
 399 0465 6FB5E11B 		.ascii	"o\265\341\033(\373\177\274\2010\277s\354\330D\254t\236"
 399      28FB7FBC 
 399      8130BF73 
 399      ECD844AC 
 399      749E
 400 0477 3A14ABF6 		.ascii	":\024\253\366\037\332\037\013\266E\021\344\267\"\310"
 400      1FDA1F0B 
 400      B64511E4 
 400      B722C8
 401 0486 D99BD0BB 		.ascii	"\331\233\320\273&?\227\034\216A\354\345\2461\231\001"
 401      263F971C 
 401      8E41ECE5 
 401      A6319901 
 402 0496 B06953AC 		.ascii	"\260iS\254\276\366{Y\214\251\201A\323\320\207X\003C"
 402      BEF67B59 
 402      8CA98141 
 402      D3D08758 
 402      0343
 403 04a8 B4819150 		.ascii	"\264\201\221P\356\250\335\224\0354\265\033b\331!\232"
 403      EEA8DD94 
 403      1D34B51B 
 403      62D9219A 
 404 04b8 FDFC5ED9 		.ascii	"\375\374^\331}\207)\273\302\224=\314\262\207\243\260"
 404      7D8729BB 
 404      C2943DCC 
 404      B287A3B0 
 405 04c8 7DA6ECDB 		.ascii	"}\246\354\333,\373v\024\266\337\224=\002\016\275\327"
 405      2CFB7614 
 405      B6DF943D 
 405      020EBDD7 
 406 04d8 112AC8BB 		.ascii	"\021*\310\273\376\342CS\276\371p\205\031=L\223\313["
 406      FEE24353 
 406      BEF97085 
 406      193D4C93 
 406      CB5B
 407 04ea F2C6ADA6 		.ascii	"\362\306\255\246\354\036\023\375\016\313&\377\343V|"
 407      EC1E13FD 
 407      0ECB26FF 
 407      E3567C
 408 04f9 BA667EF2 		.ascii	"\272f~\362\222%B\314\026w\272\262\354\255\025r\272\354"
 408      922542CC 
 408      1677BAB2 
 408      ECAD1572 
 408      BAEC
ARM GAS  C:\Users\JEFFSN~1\AppData\Local\Temp\cc6qS7ah.s 			page 31


 409 050b 7129F2C6 		.ascii	"q)\362\306\365)\031[<\251\362\272\325)\031\311\357\256"
 409      F529195B 
 409      3CA9F2BA 
 409      D52919C9 
 409      EFAE
 410 051d 4BCD52B2 		.ascii	"K\315R\2622\345\315I_\011\211)i\262\234\371\271{\223"
 410      32E5CD49 
 410      5F098929 
 410      69B29CF9 
 410      B97B93
 411 0530 EC59BF3C 		.ascii	"\354Y\277<\335\265!MN\312ty\224\244\305oG\221\032\371"
 411      DDB5214D 
 411      4ECA7479 
 411      94A4C56F 
 411      47911AF9 
 412 0544 49A9C2EB 		.ascii	"I\251\302\353\234:EVV\245+\262\347\033W\232\206X\362"
 412      9C3A4556 
 412      56A52BB2 
 412      E71B579A 
 412      8658F2
 413 0557 DA2BEC04 		.ascii	"\332+\354\004>_\311\310\234\363J\006\"\370\244U\351"
 413      3E5FC9C8 
 413      9CF34A06 
 413      22F8A455 
 413      E9
 414 0568 6E659649 		.ascii	"ne\226I\204\344\271\334\215\217\334\233\231l^d/|\211"
 414      84E4B9DC 
 414      8D8FDC9B 
 414      996C5E64 
 414      2F7C89
 415 057b 15B28200 		.ascii	"\025\262\202\000e\313\346y\311Y\313\311\367\311\036"
 415      65CBE679 
 415      C959CBC9 
 415      F7C91E
 416 058a B7E24E75 		.ascii	"\267\342Nu\245\245\310\251\212;#\375\315(='g}\342\336"
 416      A5A5C8A9 
 416      8A3B23FD 
 416      CD283D27 
 416      677DE2DE 
 417 059e 80C39A8B 		.ascii	"\200\303\232\213\262o\335\312$U|r\326\352M\237\311\256"
 417      B26FDDCA 
 417      24557C72 
 417      D6EA4D9F 
 417      C9AE
 418 05b0 8D1AFB8D 		.ascii	"\215\032\373\215\2503_\275\011\031\2639?n\354n\255\313"
 418      A8335FBD 
 418      0919B339 
 418      3F6EEC6E 
 418      ADCB
 419 05c2 63F1C85F 		.ascii	"c\361\310_.\373\027\201k\200z"
 419      2EFB1781 
 419      6B807A
 420              		.text
 421              		.section	.gnu.lto_.symtab.a80cba2f,"",%progbits
 422 0000 536C6565 		.ascii	"SleepTimer_Enable\000"
 422      7054696D 
 422      65725F45 
ARM GAS  C:\Users\JEFFSN~1\AppData\Local\Temp\cc6qS7ah.s 			page 32


 422      6E61626C 
 422      6500
 423 0012 00       		.ascii	"\000"
 424 0013 00       		.ascii	"\000"
 425 0014 00       		.ascii	"\000"
 426 0015 00000000 		.ascii	"\000\000\000\000\000\000\000\000"
 426      00000000 
 427 001d B9000000 		.ascii	"\271\000\000\000"
 428 0021 536C6565 		.ascii	"SleepTimer_Stop\000"
 428      7054696D 
 428      65725F53 
 428      746F7000 
 429 0031 00       		.ascii	"\000"
 430 0032 00       		.ascii	"\000"
 431 0033 00       		.ascii	"\000"
 432 0034 00000000 		.ascii	"\000\000\000\000\000\000\000\000"
 432      00000000 
 433 003c BB000000 		.ascii	"\273\000\000\000"
 434 0040 536C6565 		.ascii	"SleepTimer_EnableInt\000"
 434      7054696D 
 434      65725F45 
 434      6E61626C 
 434      65496E74 
 435 0055 00       		.ascii	"\000"
 436 0056 00       		.ascii	"\000"
 437 0057 00       		.ascii	"\000"
 438 0058 00000000 		.ascii	"\000\000\000\000\000\000\000\000"
 438      00000000 
 439 0060 BD000000 		.ascii	"\275\000\000\000"
 440 0064 536C6565 		.ascii	"SleepTimer_Init\000"
 440      7054696D 
 440      65725F49 
 440      6E697400 
 441 0074 00       		.ascii	"\000"
 442 0075 00       		.ascii	"\000"
 443 0076 00       		.ascii	"\000"
 444 0077 00000000 		.ascii	"\000\000\000\000\000\000\000\000"
 444      00000000 
 445 007f BF000000 		.ascii	"\277\000\000\000"
 446 0083 536C6565 		.ascii	"SleepTimer_Start\000"
 446      7054696D 
 446      65725F53 
 446      74617274 
 446      00
 447 0094 00       		.ascii	"\000"
 448 0095 00       		.ascii	"\000"
 449 0096 00       		.ascii	"\000"
 450 0097 00000000 		.ascii	"\000\000\000\000\000\000\000\000"
 450      00000000 
 451 009f C1000000 		.ascii	"\301\000\000\000"
 452 00a3 536C6565 		.ascii	"SleepTimer_initVar\000"
 452      7054696D 
 452      65725F69 
 452      6E697456 
 452      617200
 453 00b6 00       		.ascii	"\000"
 454 00b7 00       		.ascii	"\000"
ARM GAS  C:\Users\JEFFSN~1\AppData\Local\Temp\cc6qS7ah.s 			page 33


 455 00b8 00       		.ascii	"\000"
 456 00b9 00000000 		.ascii	"\000\000\000\000\000\000\000\000"
 456      00000000 
 457 00c1 D5000000 		.ascii	"\325\000\000\000"
 458 00c5 536C6565 		.ascii	"SleepTimer_DisableInt\000"
 458      7054696D 
 458      65725F44 
 458      69736162 
 458      6C65496E 
 459 00db 00       		.ascii	"\000"
 460 00dc 00       		.ascii	"\000"
 461 00dd 00       		.ascii	"\000"
 462 00de 00000000 		.ascii	"\000\000\000\000\000\000\000\000"
 462      00000000 
 463 00e6 C3000000 		.ascii	"\303\000\000\000"
 464 00ea 536C6565 		.ascii	"SleepTimer_SetInterval\000"
 464      7054696D 
 464      65725F53 
 464      6574496E 
 464      74657276 
 465 0101 00       		.ascii	"\000"
 466 0102 00       		.ascii	"\000"
 467 0103 00       		.ascii	"\000"
 468 0104 00000000 		.ascii	"\000\000\000\000\000\000\000\000"
 468      00000000 
 469 010c C7000000 		.ascii	"\307\000\000\000"
 470 0110 536C6565 		.ascii	"SleepTimer_GetStatus\000"
 470      7054696D 
 470      65725F47 
 470      65745374 
 470      61747573 
 471 0125 00       		.ascii	"\000"
 472 0126 00       		.ascii	"\000"
 473 0127 00       		.ascii	"\000"
 474 0128 00000000 		.ascii	"\000\000\000\000\000\000\000\000"
 474      00000000 
 475 0130 CA000000 		.ascii	"\312\000\000\000"
 476 0134 4379456E 		.ascii	"CyEnterCriticalSection\000"
 476      74657243 
 476      72697469 
 476      63616C53 
 476      65637469 
 477 014b 00       		.ascii	"\000"
 478 014c 02       		.ascii	"\002"
 479 014d 00       		.ascii	"\000"
 480 014e 00000000 		.ascii	"\000\000\000\000\000\000\000\000"
 480      00000000 
 481 0156 CC000000 		.ascii	"\314\000\000\000"
 482 015a 43794578 		.ascii	"CyExitCriticalSection\000"
 482      69744372 
 482      69746963 
 482      616C5365 
 482      6374696F 
 483 0170 00       		.ascii	"\000"
 484 0171 02       		.ascii	"\002"
 485 0172 00       		.ascii	"\000"
 486 0173 00000000 		.ascii	"\000\000\000\000\000\000\000\000"
ARM GAS  C:\Users\JEFFSN~1\AppData\Local\Temp\cc6qS7ah.s 			page 34


 486      00000000 
 487 017b CE000000 		.ascii	"\316\000\000\000"
 488 017f 4379506D 		.ascii	"CyPmReadStatus\000"
 488      52656164 
 488      53746174 
 488      757300
 489 018e 00       		.ascii	"\000"
 490 018f 02       		.ascii	"\002"
 491 0190 00       		.ascii	"\000"
 492 0191 00000000 		.ascii	"\000\000\000\000\000\000\000\000"
 492      00000000 
 493 0199 D2000000 		.ascii	"\322\000\000\000"
 494              		.text
 495              		.section	.gnu.lto_.opts,"",%progbits
 496 0000 272D666D 		.ascii	"'-fmath-errno' '-fsigned-zeros' '-ftrapping-math' '"
 496      6174682D 
 496      6572726E 
 496      6F272027 
 496      2D667369 
 497 0033 2D666E6F 		.ascii	"-fno-trapv' '-fno-openmp' '-fno-openacc' '-mcpu=cor"
 497      2D747261 
 497      70762720 
 497      272D666E 
 497      6F2D6F70 
 498 0066 7465782D 		.ascii	"tex-m3' '-mthumb' '-g' '-O3' '-ffunction-sections' "
 498      6D332720 
 498      272D6D74 
 498      68756D62 
 498      2720272D 
 499 0099 272D6666 		.ascii	"'-ffat-lto-objects' '-finline-functions' '-flto'\000"
 499      61742D6C 
 499      746F2D6F 
 499      626A6563 
 499      74732720 
 500              		.text
 501              		.cfi_sections	.debug_frame
 502              		.section	.text.SleepTimer_Start,"ax",%progbits
 503              		.align	2
 504              		.global	SleepTimer_Start
 505              		.thumb
 506              		.thumb_func
 507              		.type	SleepTimer_Start, %function
 508              	SleepTimer_Start:
 509              	.LFB0:
 510              		.file 1 "Generated_Source\\PSoC5\\SleepTimer.c"
   1:Generated_Source\PSoC5/SleepTimer.c **** /*******************************************************************************
   2:Generated_Source\PSoC5/SleepTimer.c **** * File Name: SleepTimer.c
   3:Generated_Source\PSoC5/SleepTimer.c **** * Version 3.20
   4:Generated_Source\PSoC5/SleepTimer.c **** *
   5:Generated_Source\PSoC5/SleepTimer.c **** * Description:
   6:Generated_Source\PSoC5/SleepTimer.c **** *  This file provides the source code to API for the Sleep Timer.
   7:Generated_Source\PSoC5/SleepTimer.c **** *
   8:Generated_Source\PSoC5/SleepTimer.c **** ********************************************************************************
   9:Generated_Source\PSoC5/SleepTimer.c **** * Copyright 2008-2012, Cypress Semiconductor Corporation.  All rights reserved.
  10:Generated_Source\PSoC5/SleepTimer.c **** * You may use this file only in accordance with the license, terms, conditions,
  11:Generated_Source\PSoC5/SleepTimer.c **** * disclaimers, and limitations in the end user license agreement accompanying
  12:Generated_Source\PSoC5/SleepTimer.c **** * the software package with which this file was provided.
ARM GAS  C:\Users\JEFFSN~1\AppData\Local\Temp\cc6qS7ah.s 			page 35


  13:Generated_Source\PSoC5/SleepTimer.c **** *******************************************************************************/
  14:Generated_Source\PSoC5/SleepTimer.c **** 
  15:Generated_Source\PSoC5/SleepTimer.c **** #include "SleepTimer.h"
  16:Generated_Source\PSoC5/SleepTimer.c **** #include "CyLib.h"
  17:Generated_Source\PSoC5/SleepTimer.c **** 
  18:Generated_Source\PSoC5/SleepTimer.c **** /* Variables were not initialized */
  19:Generated_Source\PSoC5/SleepTimer.c **** uint8 SleepTimer_initVar = 0u;
  20:Generated_Source\PSoC5/SleepTimer.c **** 
  21:Generated_Source\PSoC5/SleepTimer.c **** 
  22:Generated_Source\PSoC5/SleepTimer.c **** /*******************************************************************************
  23:Generated_Source\PSoC5/SleepTimer.c **** * Function Name: SleepTimer_Start
  24:Generated_Source\PSoC5/SleepTimer.c **** ********************************************************************************
  25:Generated_Source\PSoC5/SleepTimer.c **** *
  26:Generated_Source\PSoC5/SleepTimer.c **** * Summary:
  27:Generated_Source\PSoC5/SleepTimer.c **** *  This is the preferred method to begin component operation. SleepTimer_Start()
  28:Generated_Source\PSoC5/SleepTimer.c **** *  sets the initVar variable, calls the SleepTimer_Init() function, and then
  29:Generated_Source\PSoC5/SleepTimer.c **** *  calls the SleepTimer_Enable() function. It enables the 1-kHz ILO clock and
  30:Generated_Source\PSoC5/SleepTimer.c **** *  leaves it enabled after the Sleep Timer component is stopped.
  31:Generated_Source\PSoC5/SleepTimer.c **** *
  32:Generated_Source\PSoC5/SleepTimer.c **** * Parameters:
  33:Generated_Source\PSoC5/SleepTimer.c **** *  None
  34:Generated_Source\PSoC5/SleepTimer.c **** *
  35:Generated_Source\PSoC5/SleepTimer.c **** * Return:
  36:Generated_Source\PSoC5/SleepTimer.c **** *  None
  37:Generated_Source\PSoC5/SleepTimer.c **** *
  38:Generated_Source\PSoC5/SleepTimer.c **** * Global variables:
  39:Generated_Source\PSoC5/SleepTimer.c **** *  The SleepTimer_initVar variable is used to indicate initial
  40:Generated_Source\PSoC5/SleepTimer.c **** *  configuration of this component.  The variable is initialized to zero and
  41:Generated_Source\PSoC5/SleepTimer.c **** *  set to 1 the first time SleepTimer_Start() is called. This allows for
  42:Generated_Source\PSoC5/SleepTimer.c **** *  component initialization without re-initialization in all subsequent calls
  43:Generated_Source\PSoC5/SleepTimer.c **** *  to the SleepTimer_Start() routine.
  44:Generated_Source\PSoC5/SleepTimer.c **** *
  45:Generated_Source\PSoC5/SleepTimer.c **** * Reentrant:
  46:Generated_Source\PSoC5/SleepTimer.c **** *  No
  47:Generated_Source\PSoC5/SleepTimer.c **** *
  48:Generated_Source\PSoC5/SleepTimer.c **** * Side Effects:
  49:Generated_Source\PSoC5/SleepTimer.c **** *  If the initVar variable is already set, this function only calls the
  50:Generated_Source\PSoC5/SleepTimer.c **** *  SleepTimer_Enable() function.
  51:Generated_Source\PSoC5/SleepTimer.c **** *
  52:Generated_Source\PSoC5/SleepTimer.c **** *******************************************************************************/
  53:Generated_Source\PSoC5/SleepTimer.c **** void SleepTimer_Start(void) 
  54:Generated_Source\PSoC5/SleepTimer.c **** {
 511              		.loc 1 54 0
 512              		.cfi_startproc
 513              		@ args = 0, pretend = 0, frame = 0
 514              		@ frame_needed = 0, uses_anonymous_args = 0
 515 0000 10B5     		push	{r4, lr}
 516              		.cfi_def_cfa_offset 8
 517              		.cfi_offset 4, -8
 518              		.cfi_offset 14, -4
  55:Generated_Source\PSoC5/SleepTimer.c ****     /* Execute once in normal flow */
  56:Generated_Source\PSoC5/SleepTimer.c ****     if (0u == SleepTimer_initVar)
 519              		.loc 1 56 0
 520 0002 184C     		ldr	r4, .L10
 521 0004 2378     		ldrb	r3, [r4]	@ zero_extendqisi2
 522 0006 B3B1     		cbz	r3, .L8
 523              	.L2:
ARM GAS  C:\Users\JEFFSN~1\AppData\Local\Temp\cc6qS7ah.s 			page 36


 524              	.LBB16:
 525              	.LBB17:
  57:Generated_Source\PSoC5/SleepTimer.c ****     {
  58:Generated_Source\PSoC5/SleepTimer.c ****         SleepTimer_Init();
  59:Generated_Source\PSoC5/SleepTimer.c ****         SleepTimer_initVar = 1u;
  60:Generated_Source\PSoC5/SleepTimer.c ****     }
  61:Generated_Source\PSoC5/SleepTimer.c **** 
  62:Generated_Source\PSoC5/SleepTimer.c ****     /* Enables the component operation */
  63:Generated_Source\PSoC5/SleepTimer.c ****     SleepTimer_Enable();
  64:Generated_Source\PSoC5/SleepTimer.c **** }
  65:Generated_Source\PSoC5/SleepTimer.c **** 
  66:Generated_Source\PSoC5/SleepTimer.c **** 
  67:Generated_Source\PSoC5/SleepTimer.c **** /*******************************************************************************
  68:Generated_Source\PSoC5/SleepTimer.c **** * Function Name: SleepTimer_Init
  69:Generated_Source\PSoC5/SleepTimer.c **** ********************************************************************************
  70:Generated_Source\PSoC5/SleepTimer.c **** *
  71:Generated_Source\PSoC5/SleepTimer.c **** * Summary:
  72:Generated_Source\PSoC5/SleepTimer.c **** *  This function initializes or restores the component according to the
  73:Generated_Source\PSoC5/SleepTimer.c **** *  customizer Configure dialog settings. It is not necessary to call
  74:Generated_Source\PSoC5/SleepTimer.c **** *  SleepTimer_Init() because the SleepTimer_Start() API calls this function and
  75:Generated_Source\PSoC5/SleepTimer.c **** *  is the preferred method to begin component operation. Sets CTW interval
  76:Generated_Source\PSoC5/SleepTimer.c **** *  period and enables or disables CTW interrupt (according to the customizer's
  77:Generated_Source\PSoC5/SleepTimer.c **** *  settings).
  78:Generated_Source\PSoC5/SleepTimer.c **** *
  79:Generated_Source\PSoC5/SleepTimer.c **** * Parameters:
  80:Generated_Source\PSoC5/SleepTimer.c **** *  None
  81:Generated_Source\PSoC5/SleepTimer.c **** *
  82:Generated_Source\PSoC5/SleepTimer.c **** * Return:
  83:Generated_Source\PSoC5/SleepTimer.c **** *  None
  84:Generated_Source\PSoC5/SleepTimer.c **** *
  85:Generated_Source\PSoC5/SleepTimer.c **** *******************************************************************************/
  86:Generated_Source\PSoC5/SleepTimer.c **** void SleepTimer_Init(void)  
  87:Generated_Source\PSoC5/SleepTimer.c **** {
  88:Generated_Source\PSoC5/SleepTimer.c ****     /* Sets default (passed from customizer) interval */
  89:Generated_Source\PSoC5/SleepTimer.c ****     SleepTimer_SetInterval(SleepTimer_INTERVAL);
  90:Generated_Source\PSoC5/SleepTimer.c **** 
  91:Generated_Source\PSoC5/SleepTimer.c ****     /* Check if user sets to issue an interrupt in customizer */
  92:Generated_Source\PSoC5/SleepTimer.c ****     #if (1u == SleepTimer_ENABLE_INTERRUPT)
  93:Generated_Source\PSoC5/SleepTimer.c ****     {
  94:Generated_Source\PSoC5/SleepTimer.c ****         /* Enable interrupt */
  95:Generated_Source\PSoC5/SleepTimer.c ****         SleepTimer_EnableInt();
  96:Generated_Source\PSoC5/SleepTimer.c ****     }
  97:Generated_Source\PSoC5/SleepTimer.c ****     #else /* interrupt should be disabled */
  98:Generated_Source\PSoC5/SleepTimer.c ****     {
  99:Generated_Source\PSoC5/SleepTimer.c ****         /* Disable interrupt */
 100:Generated_Source\PSoC5/SleepTimer.c ****         SleepTimer_DisableInt();
 101:Generated_Source\PSoC5/SleepTimer.c ****     }   /* Interrupt is disabled  */
 102:Generated_Source\PSoC5/SleepTimer.c ****     #endif  /* (1u == SleepTimer_ENABLE_INTERRUPT) */
 103:Generated_Source\PSoC5/SleepTimer.c **** }
 104:Generated_Source\PSoC5/SleepTimer.c **** 
 105:Generated_Source\PSoC5/SleepTimer.c **** 
 106:Generated_Source\PSoC5/SleepTimer.c **** /*******************************************************************************
 107:Generated_Source\PSoC5/SleepTimer.c **** * Function Name: SleepTimer_Enable
 108:Generated_Source\PSoC5/SleepTimer.c **** ********************************************************************************
 109:Generated_Source\PSoC5/SleepTimer.c **** * Summary:
 110:Generated_Source\PSoC5/SleepTimer.c **** *  This function activates the 1-kHz ILO and the CTW and begins component
 111:Generated_Source\PSoC5/SleepTimer.c **** *  operation. It is not necessary to call SleepTimer_Enable() because the
ARM GAS  C:\Users\JEFFSN~1\AppData\Local\Temp\cc6qS7ah.s 			page 37


 112:Generated_Source\PSoC5/SleepTimer.c **** *  SleepTimer_Start() API calls this function, which is the preferred method to
 113:Generated_Source\PSoC5/SleepTimer.c **** *  begin component operation.
 114:Generated_Source\PSoC5/SleepTimer.c **** *
 115:Generated_Source\PSoC5/SleepTimer.c **** * Parameters:
 116:Generated_Source\PSoC5/SleepTimer.c **** *  None
 117:Generated_Source\PSoC5/SleepTimer.c **** *
 118:Generated_Source\PSoC5/SleepTimer.c **** * Return:
 119:Generated_Source\PSoC5/SleepTimer.c **** *  None
 120:Generated_Source\PSoC5/SleepTimer.c **** *
 121:Generated_Source\PSoC5/SleepTimer.c **** * Side Effects:
 122:Generated_Source\PSoC5/SleepTimer.c **** *  Enables 1 kHz ILO clocks and leaves it enabled after Sleep Time component
 123:Generated_Source\PSoC5/SleepTimer.c **** *  is stopped.
 124:Generated_Source\PSoC5/SleepTimer.c **** *
 125:Generated_Source\PSoC5/SleepTimer.c **** *******************************************************************************/
 126:Generated_Source\PSoC5/SleepTimer.c **** void SleepTimer_Enable(void) 
 127:Generated_Source\PSoC5/SleepTimer.c **** {
 128:Generated_Source\PSoC5/SleepTimer.c ****     uint8 interruptState;
 129:Generated_Source\PSoC5/SleepTimer.c **** 
 130:Generated_Source\PSoC5/SleepTimer.c ****     /* If 1kHz ILO is disabled */
 131:Generated_Source\PSoC5/SleepTimer.c ****     if(0u == (SleepTimer_ILO_CFG_REG & SleepTimer_ILO_1KHZ_EN))
 526              		.loc 1 131 0
 527 0008 174C     		ldr	r4, .L10+4
 528 000a 2378     		ldrb	r3, [r4]	@ zero_extendqisi2
 529 000c 9B07     		lsls	r3, r3, #30
 530 000e 0AD5     		bpl	.L9
 132:Generated_Source\PSoC5/SleepTimer.c ****     {
 133:Generated_Source\PSoC5/SleepTimer.c ****         /* Enter critical section */
 134:Generated_Source\PSoC5/SleepTimer.c ****         interruptState = CyEnterCriticalSection();
 135:Generated_Source\PSoC5/SleepTimer.c **** 
 136:Generated_Source\PSoC5/SleepTimer.c ****         /* Enable 1kHz ILO */
 137:Generated_Source\PSoC5/SleepTimer.c ****         SleepTimer_ILO_CFG_REG |=SleepTimer_ILO_1KHZ_EN;
 138:Generated_Source\PSoC5/SleepTimer.c **** 
 139:Generated_Source\PSoC5/SleepTimer.c ****         /* Enable the CTW counter */
 140:Generated_Source\PSoC5/SleepTimer.c ****         SleepTimer_TW_CFG_REG |= SleepTimer_CTW_EN;
 141:Generated_Source\PSoC5/SleepTimer.c **** 
 142:Generated_Source\PSoC5/SleepTimer.c ****         /* Exit critical section */
 143:Generated_Source\PSoC5/SleepTimer.c ****         CyExitCriticalSection(interruptState);
 144:Generated_Source\PSoC5/SleepTimer.c ****     }
 145:Generated_Source\PSoC5/SleepTimer.c ****     else /* If 1kHz ILO is enabled - enable CTW counter */
 146:Generated_Source\PSoC5/SleepTimer.c ****     {
 147:Generated_Source\PSoC5/SleepTimer.c ****         /* Enter critical section */
 148:Generated_Source\PSoC5/SleepTimer.c ****         interruptState = CyEnterCriticalSection();
 531              		.loc 1 148 0
 532 0010 FFF7FEFF 		bl	CyEnterCriticalSection
 533              	.LVL0:
 149:Generated_Source\PSoC5/SleepTimer.c **** 
 150:Generated_Source\PSoC5/SleepTimer.c ****         /* Enable the CTW counter */
 151:Generated_Source\PSoC5/SleepTimer.c ****         SleepTimer_TW_CFG_REG |= SleepTimer_CTW_EN;
 534              		.loc 1 151 0
 535 0014 154A     		ldr	r2, .L10+8
 536              	.LVL1:
 537              	.L6:
 538 0016 1378     		ldrb	r3, [r2]	@ zero_extendqisi2
 539 0018 43F00403 		orr	r3, r3, #4
 540 001c 1370     		strb	r3, [r2]
 541              	.LBE17:
 542              	.LBE16:
ARM GAS  C:\Users\JEFFSN~1\AppData\Local\Temp\cc6qS7ah.s 			page 38


  64:Generated_Source\PSoC5/SleepTimer.c **** 
 543              		.loc 1 64 0
 544 001e BDE81040 		pop	{r4, lr}
 545              		.cfi_remember_state
 546              		.cfi_restore 14
 547              		.cfi_restore 4
 548              		.cfi_def_cfa_offset 0
 549              	.LBB21:
 550              	.LBB20:
 152:Generated_Source\PSoC5/SleepTimer.c **** 
 153:Generated_Source\PSoC5/SleepTimer.c ****         /* Exit critical section */
 154:Generated_Source\PSoC5/SleepTimer.c ****         CyExitCriticalSection(interruptState);
 551              		.loc 1 154 0
 552 0022 FFF7FEBF 		b	CyExitCriticalSection
 553              	.LVL2:
 554              	.L9:
 555              		.cfi_restore_state
 556              	.LBB18:
 557              	.LBB19:
 134:Generated_Source\PSoC5/SleepTimer.c **** 
 558              		.loc 1 134 0
 559 0026 FFF7FEFF 		bl	CyEnterCriticalSection
 560              	.LVL3:
 137:Generated_Source\PSoC5/SleepTimer.c **** 
 561              		.loc 1 137 0
 562 002a 2378     		ldrb	r3, [r4]	@ zero_extendqisi2
 140:Generated_Source\PSoC5/SleepTimer.c **** 
 563              		.loc 1 140 0
 564 002c 0F4A     		ldr	r2, .L10+8
 137:Generated_Source\PSoC5/SleepTimer.c **** 
 565              		.loc 1 137 0
 566 002e 43F00203 		orr	r3, r3, #2
 567 0032 2370     		strb	r3, [r4]
 568 0034 EFE7     		b	.L6
 569              	.LVL4:
 570              	.L8:
 571              	.LBE19:
 572              	.LBE18:
 573              	.LBE20:
 574              	.LBE21:
 575              	.LBB22:
 576              	.LBB23:
 577              	.LBB24:
 155:Generated_Source\PSoC5/SleepTimer.c ****     }
 156:Generated_Source\PSoC5/SleepTimer.c **** }
 157:Generated_Source\PSoC5/SleepTimer.c **** 
 158:Generated_Source\PSoC5/SleepTimer.c **** 
 159:Generated_Source\PSoC5/SleepTimer.c **** /*******************************************************************************
 160:Generated_Source\PSoC5/SleepTimer.c **** * Function Name: SleepTimer_Stop
 161:Generated_Source\PSoC5/SleepTimer.c **** ********************************************************************************
 162:Generated_Source\PSoC5/SleepTimer.c **** *
 163:Generated_Source\PSoC5/SleepTimer.c **** * Summary:
 164:Generated_Source\PSoC5/SleepTimer.c **** *  This function stops Sleep Timer operation and disables wakeup and interrupt.
 165:Generated_Source\PSoC5/SleepTimer.c **** *  The device does not wake up when the CTW counter reaches terminal count, and
 166:Generated_Source\PSoC5/SleepTimer.c **** *  an interrupt is not issued.
 167:Generated_Source\PSoC5/SleepTimer.c **** *
 168:Generated_Source\PSoC5/SleepTimer.c **** * Parameters:
ARM GAS  C:\Users\JEFFSN~1\AppData\Local\Temp\cc6qS7ah.s 			page 39


 169:Generated_Source\PSoC5/SleepTimer.c **** *  None
 170:Generated_Source\PSoC5/SleepTimer.c **** *
 171:Generated_Source\PSoC5/SleepTimer.c **** * Return:
 172:Generated_Source\PSoC5/SleepTimer.c **** *  None
 173:Generated_Source\PSoC5/SleepTimer.c **** *
 174:Generated_Source\PSoC5/SleepTimer.c **** * Side Effects:
 175:Generated_Source\PSoC5/SleepTimer.c **** *  Leaves the 1 kHz ILO clock enabled after Sleep Time component is stopped.
 176:Generated_Source\PSoC5/SleepTimer.c **** *
 177:Generated_Source\PSoC5/SleepTimer.c **** *******************************************************************************/
 178:Generated_Source\PSoC5/SleepTimer.c **** void SleepTimer_Stop(void) 
 179:Generated_Source\PSoC5/SleepTimer.c **** {
 180:Generated_Source\PSoC5/SleepTimer.c ****     uint8 interruptState;
 181:Generated_Source\PSoC5/SleepTimer.c **** 
 182:Generated_Source\PSoC5/SleepTimer.c ****     /* Enter critical section */
 183:Generated_Source\PSoC5/SleepTimer.c ****     interruptState = CyEnterCriticalSection();
 184:Generated_Source\PSoC5/SleepTimer.c **** 
 185:Generated_Source\PSoC5/SleepTimer.c ****     /* Disable CTW counter */
 186:Generated_Source\PSoC5/SleepTimer.c ****     SleepTimer_TW_CFG_REG &= (uint8)(~SleepTimer_CTW_EN);
 187:Generated_Source\PSoC5/SleepTimer.c **** 
 188:Generated_Source\PSoC5/SleepTimer.c ****     /* Exit critical section */
 189:Generated_Source\PSoC5/SleepTimer.c ****     CyExitCriticalSection(interruptState);
 190:Generated_Source\PSoC5/SleepTimer.c **** }
 191:Generated_Source\PSoC5/SleepTimer.c **** 
 192:Generated_Source\PSoC5/SleepTimer.c **** 
 193:Generated_Source\PSoC5/SleepTimer.c **** /*******************************************************************************
 194:Generated_Source\PSoC5/SleepTimer.c **** * Function Name: SleepTimer_EnableInt
 195:Generated_Source\PSoC5/SleepTimer.c **** ********************************************************************************
 196:Generated_Source\PSoC5/SleepTimer.c **** *
 197:Generated_Source\PSoC5/SleepTimer.c **** * Summary:
 198:Generated_Source\PSoC5/SleepTimer.c **** *  This function enables the CTW terminal count interrupt.
 199:Generated_Source\PSoC5/SleepTimer.c **** *
 200:Generated_Source\PSoC5/SleepTimer.c **** * Parameters:
 201:Generated_Source\PSoC5/SleepTimer.c **** *  None
 202:Generated_Source\PSoC5/SleepTimer.c **** *
 203:Generated_Source\PSoC5/SleepTimer.c **** * Return:
 204:Generated_Source\PSoC5/SleepTimer.c **** *  None
 205:Generated_Source\PSoC5/SleepTimer.c **** *
 206:Generated_Source\PSoC5/SleepTimer.c **** *******************************************************************************/
 207:Generated_Source\PSoC5/SleepTimer.c **** void SleepTimer_EnableInt(void) 
 208:Generated_Source\PSoC5/SleepTimer.c **** {
 209:Generated_Source\PSoC5/SleepTimer.c ****     uint8 interruptState;
 210:Generated_Source\PSoC5/SleepTimer.c **** 
 211:Generated_Source\PSoC5/SleepTimer.c ****     /* Enter critical section */
 212:Generated_Source\PSoC5/SleepTimer.c ****     interruptState = CyEnterCriticalSection();
 213:Generated_Source\PSoC5/SleepTimer.c **** 
 214:Generated_Source\PSoC5/SleepTimer.c ****      /* Enable interrupt on wake up */
 215:Generated_Source\PSoC5/SleepTimer.c ****     SleepTimer_TW_CFG_REG |= SleepTimer_CTW_IE;
 216:Generated_Source\PSoC5/SleepTimer.c **** 
 217:Generated_Source\PSoC5/SleepTimer.c ****     /* Exit critical section */
 218:Generated_Source\PSoC5/SleepTimer.c ****     CyExitCriticalSection(interruptState);
 219:Generated_Source\PSoC5/SleepTimer.c **** }
 220:Generated_Source\PSoC5/SleepTimer.c **** 
 221:Generated_Source\PSoC5/SleepTimer.c **** 
 222:Generated_Source\PSoC5/SleepTimer.c **** /*******************************************************************************
 223:Generated_Source\PSoC5/SleepTimer.c **** * Function Name: SleepTimer_DisableInt
 224:Generated_Source\PSoC5/SleepTimer.c **** ********************************************************************************
 225:Generated_Source\PSoC5/SleepTimer.c **** *
ARM GAS  C:\Users\JEFFSN~1\AppData\Local\Temp\cc6qS7ah.s 			page 40


 226:Generated_Source\PSoC5/SleepTimer.c **** * Summary:
 227:Generated_Source\PSoC5/SleepTimer.c **** *  This function disables the CTW terminal count interrupt.
 228:Generated_Source\PSoC5/SleepTimer.c **** *
 229:Generated_Source\PSoC5/SleepTimer.c **** * Parameters:
 230:Generated_Source\PSoC5/SleepTimer.c **** *  None
 231:Generated_Source\PSoC5/SleepTimer.c **** *
 232:Generated_Source\PSoC5/SleepTimer.c **** * Return:
 233:Generated_Source\PSoC5/SleepTimer.c **** *  None
 234:Generated_Source\PSoC5/SleepTimer.c **** *
 235:Generated_Source\PSoC5/SleepTimer.c **** *******************************************************************************/
 236:Generated_Source\PSoC5/SleepTimer.c **** void SleepTimer_DisableInt(void) 
 237:Generated_Source\PSoC5/SleepTimer.c **** {
 238:Generated_Source\PSoC5/SleepTimer.c ****     uint8 interruptState;
 239:Generated_Source\PSoC5/SleepTimer.c **** 
 240:Generated_Source\PSoC5/SleepTimer.c ****     /* Enter critical section */
 241:Generated_Source\PSoC5/SleepTimer.c ****     interruptState = CyEnterCriticalSection();
 242:Generated_Source\PSoC5/SleepTimer.c **** 
 243:Generated_Source\PSoC5/SleepTimer.c ****     /* Disable interrupt on wake up */
 244:Generated_Source\PSoC5/SleepTimer.c ****     SleepTimer_TW_CFG_REG &= (uint8)(~SleepTimer_CTW_IE);
 245:Generated_Source\PSoC5/SleepTimer.c **** 
 246:Generated_Source\PSoC5/SleepTimer.c ****     /* Exit critical section */
 247:Generated_Source\PSoC5/SleepTimer.c ****     CyExitCriticalSection(interruptState);
 248:Generated_Source\PSoC5/SleepTimer.c **** }
 249:Generated_Source\PSoC5/SleepTimer.c **** 
 250:Generated_Source\PSoC5/SleepTimer.c **** 
 251:Generated_Source\PSoC5/SleepTimer.c **** /*******************************************************************************
 252:Generated_Source\PSoC5/SleepTimer.c **** * Function Name: SleepTimer_SetInterval
 253:Generated_Source\PSoC5/SleepTimer.c **** ********************************************************************************
 254:Generated_Source\PSoC5/SleepTimer.c **** *
 255:Generated_Source\PSoC5/SleepTimer.c **** * Summary:
 256:Generated_Source\PSoC5/SleepTimer.c **** *  This function sets the CTW interval period. The first interval can range
 257:Generated_Source\PSoC5/SleepTimer.c **** *  from 1 to (period + 1) milliseconds. Additional intervals occur at the
 258:Generated_Source\PSoC5/SleepTimer.c **** *  nominal period. You can only change the interval value when CTW is disabled,
 259:Generated_Source\PSoC5/SleepTimer.c **** *  which you do by stopping the component.
 260:Generated_Source\PSoC5/SleepTimer.c **** *
 261:Generated_Source\PSoC5/SleepTimer.c **** * Parameters:
 262:Generated_Source\PSoC5/SleepTimer.c **** *  uint8 interval: interval?s value for the CTW.
 263:Generated_Source\PSoC5/SleepTimer.c **** *
 264:Generated_Source\PSoC5/SleepTimer.c **** *  PSoC 5:
 265:Generated_Source\PSoC5/SleepTimer.c **** *  Only the 4-, 8-, 16-, 32-, 64-, 128-, and 256-ms selections are supported.
 266:Generated_Source\PSoC5/SleepTimer.c **** *
 267:Generated_Source\PSoC5/SleepTimer.c **** *           Name                    Value        Period
 268:Generated_Source\PSoC5/SleepTimer.c **** *   SleepTimer__CTW_2_MS      4'b0001        2 ms
 269:Generated_Source\PSoC5/SleepTimer.c **** *   SleepTimer__CTW_4_MS      4'b0010        4 ms
 270:Generated_Source\PSoC5/SleepTimer.c **** *   SleepTimer__CTW_8_MS      4'b0011        8 ms
 271:Generated_Source\PSoC5/SleepTimer.c **** *   SleepTimer__CTW_16_MS     4'b0100        16 ms
 272:Generated_Source\PSoC5/SleepTimer.c **** *   SleepTimer__CTW_32_MS     4'b0101        32 ms
 273:Generated_Source\PSoC5/SleepTimer.c **** *   SleepTimer__CTW_64_MS     4'b0110        64 ms
 274:Generated_Source\PSoC5/SleepTimer.c **** *   SleepTimer__CTW_128_MS    4'b0111        128 ms
 275:Generated_Source\PSoC5/SleepTimer.c **** *   SleepTimer__CTW_256_MS    4'b1000        256 ms
 276:Generated_Source\PSoC5/SleepTimer.c **** *   SleepTimer__CTW_512_MS    4'b1001        512 ms
 277:Generated_Source\PSoC5/SleepTimer.c **** *   SleepTimer__CTW_1024_MS   4'b1010        1024 ms
 278:Generated_Source\PSoC5/SleepTimer.c **** *   SleepTimer__CTW_2048_MS   4'b1011        2048 ms
 279:Generated_Source\PSoC5/SleepTimer.c **** *   SleepTimer__CTW_4096_MS   4'b1100        4096 ms
 280:Generated_Source\PSoC5/SleepTimer.c **** *
 281:Generated_Source\PSoC5/SleepTimer.c **** * Return:
 282:Generated_Source\PSoC5/SleepTimer.c **** *  None
ARM GAS  C:\Users\JEFFSN~1\AppData\Local\Temp\cc6qS7ah.s 			page 41


 283:Generated_Source\PSoC5/SleepTimer.c **** *
 284:Generated_Source\PSoC5/SleepTimer.c **** * Side Effects:
 285:Generated_Source\PSoC5/SleepTimer.c **** *  Interval value can be only changed when component is stopped (CTW is
 286:Generated_Source\PSoC5/SleepTimer.c **** *  disabled).
 287:Generated_Source\PSoC5/SleepTimer.c **** *
 288:Generated_Source\PSoC5/SleepTimer.c **** *******************************************************************************/
 289:Generated_Source\PSoC5/SleepTimer.c **** void SleepTimer_SetInterval(uint8 interval) 
 290:Generated_Source\PSoC5/SleepTimer.c **** {
 291:Generated_Source\PSoC5/SleepTimer.c ****     /* Check if CTW is disabled */
 292:Generated_Source\PSoC5/SleepTimer.c ****     if (0u == (SleepTimer_TW_CFG_REG & SleepTimer_CTW_EN))
 578              		.loc 1 292 0
 579 0036 0D4B     		ldr	r3, .L10+8
 580 0038 1B78     		ldrb	r3, [r3]	@ zero_extendqisi2
 581 003a 5A07     		lsls	r2, r3, #29
 582 003c 06D4     		bmi	.L3
 583              	.LVL5:
 584              	.LBB25:
 585              	.LBB26:
 293:Generated_Source\PSoC5/SleepTimer.c ****     {
 294:Generated_Source\PSoC5/SleepTimer.c ****         #if(CY_PSOC5A)
 295:Generated_Source\PSoC5/SleepTimer.c **** 
 296:Generated_Source\PSoC5/SleepTimer.c ****             CYASSERT((SleepTimer__CTW_4_MS   == interval) ||
 297:Generated_Source\PSoC5/SleepTimer.c ****                      (SleepTimer__CTW_8_MS   == interval) ||
 298:Generated_Source\PSoC5/SleepTimer.c ****                      (SleepTimer__CTW_16_MS  == interval) ||
 299:Generated_Source\PSoC5/SleepTimer.c ****                      (SleepTimer__CTW_32_MS  == interval) ||
 300:Generated_Source\PSoC5/SleepTimer.c ****                      (SleepTimer__CTW_64_MS  == interval) ||
 301:Generated_Source\PSoC5/SleepTimer.c ****                      (SleepTimer__CTW_128_MS == interval) ||
 302:Generated_Source\PSoC5/SleepTimer.c ****                      (SleepTimer__CTW_256_MS == interval));
 303:Generated_Source\PSoC5/SleepTimer.c **** 
 304:Generated_Source\PSoC5/SleepTimer.c ****         #endif  /* (CY_PSOC5A) */
 305:Generated_Source\PSoC5/SleepTimer.c **** 
 306:Generated_Source\PSoC5/SleepTimer.c ****         /* Set CTW interval */
 307:Generated_Source\PSoC5/SleepTimer.c ****         SleepTimer_CTW_INTERVAL_REG = \
 308:Generated_Source\PSoC5/SleepTimer.c ****             (SleepTimer_CTW_INTERVAL_REG & ((uint8)~SleepTimer_INTERVAL_MASK)) | \
 586              		.loc 1 308 0
 587 003e 0C4A     		ldr	r2, .L10+12
 588 0040 1378     		ldrb	r3, [r2]	@ zero_extendqisi2
 307:Generated_Source\PSoC5/SleepTimer.c ****             (SleepTimer_CTW_INTERVAL_REG & ((uint8)~SleepTimer_INTERVAL_MASK)) | \
 589              		.loc 1 307 0
 590 0042 03F0F003 		and	r3, r3, #240
 591 0046 43F00203 		orr	r3, r3, #2
 592 004a 1370     		strb	r3, [r2]
 593              	.LVL6:
 594              	.L3:
 595              	.LBE26:
 596              	.LBE25:
 597              	.LBE24:
 598              	.LBE23:
 599              	.LBB27:
 600              	.LBB28:
 212:Generated_Source\PSoC5/SleepTimer.c **** 
 601              		.loc 1 212 0
 602 004c FFF7FEFF 		bl	CyEnterCriticalSection
 603              	.LVL7:
 215:Generated_Source\PSoC5/SleepTimer.c **** 
 604              		.loc 1 215 0
 605 0050 064A     		ldr	r2, .L10+8
ARM GAS  C:\Users\JEFFSN~1\AppData\Local\Temp\cc6qS7ah.s 			page 42


 606 0052 1378     		ldrb	r3, [r2]	@ zero_extendqisi2
 607 0054 43F00803 		orr	r3, r3, #8
 608 0058 1370     		strb	r3, [r2]
 218:Generated_Source\PSoC5/SleepTimer.c **** }
 609              		.loc 1 218 0
 610 005a FFF7FEFF 		bl	CyExitCriticalSection
 611              	.LVL8:
 612              	.LBE28:
 613              	.LBE27:
 614              	.LBE22:
  59:Generated_Source\PSoC5/SleepTimer.c ****     }
 615              		.loc 1 59 0
 616 005e 0123     		movs	r3, #1
 617 0060 2370     		strb	r3, [r4]
 618 0062 D1E7     		b	.L2
 619              	.L11:
 620              		.align	2
 621              	.L10:
 622 0064 00000000 		.word	.LANCHOR0
 623 0068 00430040 		.word	1073758976
 624 006c 82430040 		.word	1073759106
 625 0070 81430040 		.word	1073759105
 626              		.cfi_endproc
 627              	.LFE0:
 628              		.size	SleepTimer_Start, .-SleepTimer_Start
 629              		.section	.text.SleepTimer_Init,"ax",%progbits
 630              		.align	2
 631              		.global	SleepTimer_Init
 632              		.thumb
 633              		.thumb_func
 634              		.type	SleepTimer_Init, %function
 635              	SleepTimer_Init:
 636              	.LFB1:
  87:Generated_Source\PSoC5/SleepTimer.c ****     /* Sets default (passed from customizer) interval */
 637              		.loc 1 87 0
 638              		.cfi_startproc
 639              		@ args = 0, pretend = 0, frame = 0
 640              		@ frame_needed = 0, uses_anonymous_args = 0
 641              	.LVL9:
 642 0000 08B5     		push	{r3, lr}
 643              		.cfi_def_cfa_offset 8
 644              		.cfi_offset 3, -8
 645              		.cfi_offset 14, -4
 646              	.LBB35:
 647              	.LBB36:
 292:Generated_Source\PSoC5/SleepTimer.c ****     {
 648              		.loc 1 292 0
 649 0002 0B4B     		ldr	r3, .L15
 650 0004 1B78     		ldrb	r3, [r3]	@ zero_extendqisi2
 651 0006 5B07     		lsls	r3, r3, #29
 652 0008 06D4     		bmi	.L13
 653              	.LVL10:
 654              	.LBB37:
 655              	.LBB38:
 656              		.loc 1 308 0
 657 000a 0A4A     		ldr	r2, .L15+4
 658 000c 1378     		ldrb	r3, [r2]	@ zero_extendqisi2
ARM GAS  C:\Users\JEFFSN~1\AppData\Local\Temp\cc6qS7ah.s 			page 43


 307:Generated_Source\PSoC5/SleepTimer.c ****             (SleepTimer_CTW_INTERVAL_REG & ((uint8)~SleepTimer_INTERVAL_MASK)) | \
 659              		.loc 1 307 0
 660 000e 03F0F003 		and	r3, r3, #240
 661 0012 43F00203 		orr	r3, r3, #2
 662 0016 1370     		strb	r3, [r2]
 663              	.LVL11:
 664              	.L13:
 665              	.LBE38:
 666              	.LBE37:
 667              	.LBE36:
 668              	.LBE35:
 669              	.LBB39:
 670              	.LBB40:
 212:Generated_Source\PSoC5/SleepTimer.c **** 
 671              		.loc 1 212 0
 672 0018 FFF7FEFF 		bl	CyEnterCriticalSection
 673              	.LVL12:
 215:Generated_Source\PSoC5/SleepTimer.c **** 
 674              		.loc 1 215 0
 675 001c 044A     		ldr	r2, .L15
 676 001e 1378     		ldrb	r3, [r2]	@ zero_extendqisi2
 677 0020 43F00803 		orr	r3, r3, #8
 678 0024 1370     		strb	r3, [r2]
 679              	.LBE40:
 680              	.LBE39:
 103:Generated_Source\PSoC5/SleepTimer.c **** 
 681              		.loc 1 103 0
 682 0026 BDE80840 		pop	{r3, lr}
 683              		.cfi_restore 14
 684              		.cfi_restore 3
 685              		.cfi_def_cfa_offset 0
 686              	.LBB42:
 687              	.LBB41:
 218:Generated_Source\PSoC5/SleepTimer.c **** }
 688              		.loc 1 218 0
 689 002a FFF7FEBF 		b	CyExitCriticalSection
 690              	.LVL13:
 691              	.L16:
 692 002e 00BF     		.align	2
 693              	.L15:
 694 0030 82430040 		.word	1073759106
 695 0034 81430040 		.word	1073759105
 696              	.LBE41:
 697              	.LBE42:
 698              		.cfi_endproc
 699              	.LFE1:
 700              		.size	SleepTimer_Init, .-SleepTimer_Init
 701              		.section	.text.SleepTimer_Enable,"ax",%progbits
 702              		.align	2
 703              		.global	SleepTimer_Enable
 704              		.thumb
 705              		.thumb_func
 706              		.type	SleepTimer_Enable, %function
 707              	SleepTimer_Enable:
 708              	.LFB2:
 127:Generated_Source\PSoC5/SleepTimer.c ****     uint8 interruptState;
 709              		.loc 1 127 0
ARM GAS  C:\Users\JEFFSN~1\AppData\Local\Temp\cc6qS7ah.s 			page 44


 710              		.cfi_startproc
 711              		@ args = 0, pretend = 0, frame = 0
 712              		@ frame_needed = 0, uses_anonymous_args = 0
 713 0000 10B5     		push	{r4, lr}
 714              		.cfi_def_cfa_offset 8
 715              		.cfi_offset 4, -8
 716              		.cfi_offset 14, -4
 131:Generated_Source\PSoC5/SleepTimer.c ****     {
 717              		.loc 1 131 0
 718 0002 0B4C     		ldr	r4, .L22
 719 0004 2378     		ldrb	r3, [r4]	@ zero_extendqisi2
 720 0006 9B07     		lsls	r3, r3, #30
 721 0008 0AD5     		bpl	.L21
 148:Generated_Source\PSoC5/SleepTimer.c **** 
 722              		.loc 1 148 0
 723 000a FFF7FEFF 		bl	CyEnterCriticalSection
 724              	.LVL14:
 151:Generated_Source\PSoC5/SleepTimer.c **** 
 725              		.loc 1 151 0
 726 000e 094A     		ldr	r2, .L22+4
 727              	.LVL15:
 728              	.L20:
 729 0010 1378     		ldrb	r3, [r2]	@ zero_extendqisi2
 730 0012 43F00403 		orr	r3, r3, #4
 731 0016 1370     		strb	r3, [r2]
 156:Generated_Source\PSoC5/SleepTimer.c **** 
 732              		.loc 1 156 0
 733 0018 BDE81040 		pop	{r4, lr}
 734              		.cfi_remember_state
 735              		.cfi_restore 14
 736              		.cfi_restore 4
 737              		.cfi_def_cfa_offset 0
 154:Generated_Source\PSoC5/SleepTimer.c ****     }
 738              		.loc 1 154 0
 739 001c FFF7FEBF 		b	CyExitCriticalSection
 740              	.LVL16:
 741              	.L21:
 742              		.cfi_restore_state
 743              	.LBB45:
 744              	.LBB46:
 134:Generated_Source\PSoC5/SleepTimer.c **** 
 745              		.loc 1 134 0
 746 0020 FFF7FEFF 		bl	CyEnterCriticalSection
 747              	.LVL17:
 137:Generated_Source\PSoC5/SleepTimer.c **** 
 748              		.loc 1 137 0
 749 0024 2378     		ldrb	r3, [r4]	@ zero_extendqisi2
 140:Generated_Source\PSoC5/SleepTimer.c **** 
 750              		.loc 1 140 0
 751 0026 034A     		ldr	r2, .L22+4
 137:Generated_Source\PSoC5/SleepTimer.c **** 
 752              		.loc 1 137 0
 753 0028 43F00203 		orr	r3, r3, #2
 754 002c 2370     		strb	r3, [r4]
 755 002e EFE7     		b	.L20
 756              	.L23:
 757              		.align	2
ARM GAS  C:\Users\JEFFSN~1\AppData\Local\Temp\cc6qS7ah.s 			page 45


 758              	.L22:
 759 0030 00430040 		.word	1073758976
 760 0034 82430040 		.word	1073759106
 761              	.LBE46:
 762              	.LBE45:
 763              		.cfi_endproc
 764              	.LFE2:
 765              		.size	SleepTimer_Enable, .-SleepTimer_Enable
 766              		.section	.text.SleepTimer_Stop,"ax",%progbits
 767              		.align	2
 768              		.global	SleepTimer_Stop
 769              		.thumb
 770              		.thumb_func
 771              		.type	SleepTimer_Stop, %function
 772              	SleepTimer_Stop:
 773              	.LFB3:
 179:Generated_Source\PSoC5/SleepTimer.c ****     uint8 interruptState;
 774              		.loc 1 179 0
 775              		.cfi_startproc
 776              		@ args = 0, pretend = 0, frame = 0
 777              		@ frame_needed = 0, uses_anonymous_args = 0
 778 0000 08B5     		push	{r3, lr}
 779              		.cfi_def_cfa_offset 8
 780              		.cfi_offset 3, -8
 781              		.cfi_offset 14, -4
 183:Generated_Source\PSoC5/SleepTimer.c **** 
 782              		.loc 1 183 0
 783 0002 FFF7FEFF 		bl	CyEnterCriticalSection
 784              	.LVL18:
 186:Generated_Source\PSoC5/SleepTimer.c **** 
 785              		.loc 1 186 0
 786 0006 044A     		ldr	r2, .L26
 787 0008 1378     		ldrb	r3, [r2]	@ zero_extendqisi2
 788 000a 03F0FB03 		and	r3, r3, #251
 789 000e 1370     		strb	r3, [r2]
 190:Generated_Source\PSoC5/SleepTimer.c **** 
 790              		.loc 1 190 0
 791 0010 BDE80840 		pop	{r3, lr}
 792              		.cfi_restore 14
 793              		.cfi_restore 3
 794              		.cfi_def_cfa_offset 0
 189:Generated_Source\PSoC5/SleepTimer.c **** }
 795              		.loc 1 189 0
 796 0014 FFF7FEBF 		b	CyExitCriticalSection
 797              	.LVL19:
 798              	.L27:
 799              		.align	2
 800              	.L26:
 801 0018 82430040 		.word	1073759106
 802              		.cfi_endproc
 803              	.LFE3:
 804              		.size	SleepTimer_Stop, .-SleepTimer_Stop
 805              		.section	.text.SleepTimer_EnableInt,"ax",%progbits
 806              		.align	2
 807              		.global	SleepTimer_EnableInt
 808              		.thumb
 809              		.thumb_func
ARM GAS  C:\Users\JEFFSN~1\AppData\Local\Temp\cc6qS7ah.s 			page 46


 810              		.type	SleepTimer_EnableInt, %function
 811              	SleepTimer_EnableInt:
 812              	.LFB4:
 208:Generated_Source\PSoC5/SleepTimer.c ****     uint8 interruptState;
 813              		.loc 1 208 0
 814              		.cfi_startproc
 815              		@ args = 0, pretend = 0, frame = 0
 816              		@ frame_needed = 0, uses_anonymous_args = 0
 817 0000 08B5     		push	{r3, lr}
 818              		.cfi_def_cfa_offset 8
 819              		.cfi_offset 3, -8
 820              		.cfi_offset 14, -4
 212:Generated_Source\PSoC5/SleepTimer.c **** 
 821              		.loc 1 212 0
 822 0002 FFF7FEFF 		bl	CyEnterCriticalSection
 823              	.LVL20:
 215:Generated_Source\PSoC5/SleepTimer.c **** 
 824              		.loc 1 215 0
 825 0006 044A     		ldr	r2, .L30
 826 0008 1378     		ldrb	r3, [r2]	@ zero_extendqisi2
 827 000a 43F00803 		orr	r3, r3, #8
 828 000e 1370     		strb	r3, [r2]
 219:Generated_Source\PSoC5/SleepTimer.c **** 
 829              		.loc 1 219 0
 830 0010 BDE80840 		pop	{r3, lr}
 831              		.cfi_restore 14
 832              		.cfi_restore 3
 833              		.cfi_def_cfa_offset 0
 218:Generated_Source\PSoC5/SleepTimer.c **** }
 834              		.loc 1 218 0
 835 0014 FFF7FEBF 		b	CyExitCriticalSection
 836              	.LVL21:
 837              	.L31:
 838              		.align	2
 839              	.L30:
 840 0018 82430040 		.word	1073759106
 841              		.cfi_endproc
 842              	.LFE4:
 843              		.size	SleepTimer_EnableInt, .-SleepTimer_EnableInt
 844              		.section	.text.SleepTimer_DisableInt,"ax",%progbits
 845              		.align	2
 846              		.global	SleepTimer_DisableInt
 847              		.thumb
 848              		.thumb_func
 849              		.type	SleepTimer_DisableInt, %function
 850              	SleepTimer_DisableInt:
 851              	.LFB5:
 237:Generated_Source\PSoC5/SleepTimer.c ****     uint8 interruptState;
 852              		.loc 1 237 0
 853              		.cfi_startproc
 854              		@ args = 0, pretend = 0, frame = 0
 855              		@ frame_needed = 0, uses_anonymous_args = 0
 856 0000 08B5     		push	{r3, lr}
 857              		.cfi_def_cfa_offset 8
 858              		.cfi_offset 3, -8
 859              		.cfi_offset 14, -4
 241:Generated_Source\PSoC5/SleepTimer.c **** 
ARM GAS  C:\Users\JEFFSN~1\AppData\Local\Temp\cc6qS7ah.s 			page 47


 860              		.loc 1 241 0
 861 0002 FFF7FEFF 		bl	CyEnterCriticalSection
 862              	.LVL22:
 244:Generated_Source\PSoC5/SleepTimer.c **** 
 863              		.loc 1 244 0
 864 0006 044A     		ldr	r2, .L34
 865 0008 1378     		ldrb	r3, [r2]	@ zero_extendqisi2
 866 000a 03F0F703 		and	r3, r3, #247
 867 000e 1370     		strb	r3, [r2]
 248:Generated_Source\PSoC5/SleepTimer.c **** 
 868              		.loc 1 248 0
 869 0010 BDE80840 		pop	{r3, lr}
 870              		.cfi_restore 14
 871              		.cfi_restore 3
 872              		.cfi_def_cfa_offset 0
 247:Generated_Source\PSoC5/SleepTimer.c **** }
 873              		.loc 1 247 0
 874 0014 FFF7FEBF 		b	CyExitCriticalSection
 875              	.LVL23:
 876              	.L35:
 877              		.align	2
 878              	.L34:
 879 0018 82430040 		.word	1073759106
 880              		.cfi_endproc
 881              	.LFE5:
 882              		.size	SleepTimer_DisableInt, .-SleepTimer_DisableInt
 883              		.section	.text.SleepTimer_SetInterval,"ax",%progbits
 884              		.align	2
 885              		.global	SleepTimer_SetInterval
 886              		.thumb
 887              		.thumb_func
 888              		.type	SleepTimer_SetInterval, %function
 889              	SleepTimer_SetInterval:
 890              	.LFB6:
 290:Generated_Source\PSoC5/SleepTimer.c ****     /* Check if CTW is disabled */
 891              		.loc 1 290 0
 892              		.cfi_startproc
 893              		@ args = 0, pretend = 0, frame = 0
 894              		@ frame_needed = 0, uses_anonymous_args = 0
 895              		@ link register save eliminated.
 896              	.LVL24:
 292:Generated_Source\PSoC5/SleepTimer.c ****     {
 897              		.loc 1 292 0
 898 0000 064B     		ldr	r3, .L38
 899 0002 1B78     		ldrb	r3, [r3]	@ zero_extendqisi2
 900 0004 5B07     		lsls	r3, r3, #29
 901 0006 07D4     		bmi	.L36
 902              	.LVL25:
 903              	.LBB49:
 904              	.LBB50:
 905              		.loc 1 308 0
 906 0008 054A     		ldr	r2, .L38+4
 307:Generated_Source\PSoC5/SleepTimer.c ****             (SleepTimer_CTW_INTERVAL_REG & ((uint8)~SleepTimer_INTERVAL_MASK)) | \
 907              		.loc 1 307 0
 908 000a 00F00F00 		and	r0, r0, #15
 909              	.LVL26:
 910              		.loc 1 308 0
ARM GAS  C:\Users\JEFFSN~1\AppData\Local\Temp\cc6qS7ah.s 			page 48


 911 000e 1378     		ldrb	r3, [r2]	@ zero_extendqisi2
 307:Generated_Source\PSoC5/SleepTimer.c ****             (SleepTimer_CTW_INTERVAL_REG & ((uint8)~SleepTimer_INTERVAL_MASK)) | \
 912              		.loc 1 307 0
 913 0010 03F0F003 		and	r3, r3, #240
 914 0014 1843     		orrs	r0, r0, r3
 915 0016 1070     		strb	r0, [r2]
 916              	.LVL27:
 917              	.L36:
 918 0018 7047     		bx	lr
 919              	.L39:
 920 001a 00BF     		.align	2
 921              	.L38:
 922 001c 82430040 		.word	1073759106
 923 0020 81430040 		.word	1073759105
 924              	.LBE50:
 925              	.LBE49:
 926              		.cfi_endproc
 927              	.LFE6:
 928              		.size	SleepTimer_SetInterval, .-SleepTimer_SetInterval
 929              		.section	.text.SleepTimer_GetStatus,"ax",%progbits
 930              		.align	2
 931              		.global	SleepTimer_GetStatus
 932              		.thumb
 933              		.thumb_func
 934              		.type	SleepTimer_GetStatus, %function
 935              	SleepTimer_GetStatus:
 936              	.LFB7:
 309:Generated_Source\PSoC5/SleepTimer.c ****             (interval & SleepTimer_INTERVAL_MASK);
 310:Generated_Source\PSoC5/SleepTimer.c ****     }
 311:Generated_Source\PSoC5/SleepTimer.c ****     /* Do nothing if CTW is enabled. */
 312:Generated_Source\PSoC5/SleepTimer.c **** }
 313:Generated_Source\PSoC5/SleepTimer.c **** 
 314:Generated_Source\PSoC5/SleepTimer.c **** 
 315:Generated_Source\PSoC5/SleepTimer.c **** /*******************************************************************************
 316:Generated_Source\PSoC5/SleepTimer.c **** * Function Name: SleepTimer_GetStatus
 317:Generated_Source\PSoC5/SleepTimer.c **** ********************************************************************************
 318:Generated_Source\PSoC5/SleepTimer.c **** *
 319:Generated_Source\PSoC5/SleepTimer.c **** * Summary:
 320:Generated_Source\PSoC5/SleepTimer.c **** *  This function returns the state of the Sleep Timer's status register, and
 321:Generated_Source\PSoC5/SleepTimer.c **** *  clears the pending interrupt status bit. The application code must always
 322:Generated_Source\PSoC5/SleepTimer.c **** *  call this function after wakeup to clear the ctw_int status bit. The code
 323:Generated_Source\PSoC5/SleepTimer.c **** *  must call this function whether the Sleep Timer's interrupt is disabled or
 324:Generated_Source\PSoC5/SleepTimer.c **** *  enabled.
 325:Generated_Source\PSoC5/SleepTimer.c **** *
 326:Generated_Source\PSoC5/SleepTimer.c **** * Parameters:
 327:Generated_Source\PSoC5/SleepTimer.c **** *  None
 328:Generated_Source\PSoC5/SleepTimer.c **** *
 329:Generated_Source\PSoC5/SleepTimer.c **** * Return:
 330:Generated_Source\PSoC5/SleepTimer.c **** *  Returns an 8-bit value (uint8) with bits set if a corresponding event has
 331:Generated_Source\PSoC5/SleepTimer.c **** *  occurred. The constants shown in the following table describe the two-bit
 332:Generated_Source\PSoC5/SleepTimer.c **** *  masks for the two events that this return value can contain.
 333:Generated_Source\PSoC5/SleepTimer.c **** *
 334:Generated_Source\PSoC5/SleepTimer.c **** *            Name                             Description
 335:Generated_Source\PSoC5/SleepTimer.c **** *  SleepTimer_PM_INT_SR_ONEPPSP  A onepps event has occured
 336:Generated_Source\PSoC5/SleepTimer.c **** *  SleepTimer_PM_INT_SR_CTW      A central timewheel event occured
 337:Generated_Source\PSoC5/SleepTimer.c **** *  SleepTimer_PM_INT_SR_FTW      A fast timewheel event occured
 338:Generated_Source\PSoC5/SleepTimer.c **** *
ARM GAS  C:\Users\JEFFSN~1\AppData\Local\Temp\cc6qS7ah.s 			page 49


 339:Generated_Source\PSoC5/SleepTimer.c **** * Side Effects:
 340:Generated_Source\PSoC5/SleepTimer.c **** *  If the SleepTimer_GetStatus() function is not called in an interrupt
 341:Generated_Source\PSoC5/SleepTimer.c **** *  associated with the SleepTimer, the interrupt is not cleared and as soon as
 342:Generated_Source\PSoC5/SleepTimer.c **** *  the interrupt is exited it is re-entered.
 343:Generated_Source\PSoC5/SleepTimer.c **** *
 344:Generated_Source\PSoC5/SleepTimer.c **** *  After the Sleep Timer has expired, the sleep interval is functionally 0 ms,
 345:Generated_Source\PSoC5/SleepTimer.c **** *  because the interrupt is called until the ctw_int flag is cleared by the
 346:Generated_Source\PSoC5/SleepTimer.c **** *  SleepTimer_GetStatus() function.
 347:Generated_Source\PSoC5/SleepTimer.c **** *
 348:Generated_Source\PSoC5/SleepTimer.c **** *  If an interrupt is generated at the same time as a register read/clear, the
 349:Generated_Source\PSoC5/SleepTimer.c **** *  bit remains set (which causes another interrupt).
 350:Generated_Source\PSoC5/SleepTimer.c **** *
 351:Generated_Source\PSoC5/SleepTimer.c **** *  Reports and then clears all interrupt status bits in the Power Manager
 352:Generated_Source\PSoC5/SleepTimer.c **** *  Interrupt Status register. Some of the bits are not relevant to this
 353:Generated_Source\PSoC5/SleepTimer.c **** *  component's operation.
 354:Generated_Source\PSoC5/SleepTimer.c **** *
 355:Generated_Source\PSoC5/SleepTimer.c **** *  The application code must always call this function (when the Sleep Timer's
 356:Generated_Source\PSoC5/SleepTimer.c **** *  interrupt is disabled or enabled) after wakeup to clear the ctw_int status
 357:Generated_Source\PSoC5/SleepTimer.c **** *  bit. The code must call SleepTimer_GetStatus() within 1 ms (1 clock cycle of
 358:Generated_Source\PSoC5/SleepTimer.c **** *  the ILO) after the CTW event occurred.
 359:Generated_Source\PSoC5/SleepTimer.c **** *
 360:Generated_Source\PSoC5/SleepTimer.c **** *******************************************************************************/
 361:Generated_Source\PSoC5/SleepTimer.c **** uint8 SleepTimer_GetStatus(void) 
 362:Generated_Source\PSoC5/SleepTimer.c **** {
 937              		.loc 1 362 0
 938              		.cfi_startproc
 939              		@ args = 0, pretend = 0, frame = 0
 940              		@ frame_needed = 0, uses_anonymous_args = 0
 941              		@ link register save eliminated.
 363:Generated_Source\PSoC5/SleepTimer.c ****     /* Read to clear  */
 364:Generated_Source\PSoC5/SleepTimer.c ****     return CyPmReadStatus(CY_PM_CTW_INT);
 942              		.loc 1 364 0
 943 0000 0220     		movs	r0, #2
 944 0002 FFF7FEBF 		b	CyPmReadStatus
 945              	.LVL28:
 946              		.cfi_endproc
 947              	.LFE7:
 948              		.size	SleepTimer_GetStatus, .-SleepTimer_GetStatus
 949              		.global	SleepTimer_initVar
 950 0006 00BF     		.bss
 951              		.set	.LANCHOR0,. + 0
 952              		.type	SleepTimer_initVar, %object
 953              		.size	SleepTimer_initVar, 1
 954              	SleepTimer_initVar:
 955 0000 00       		.space	1
 956              		.text
 957              	.Letext0:
 958              		.file 2 "Generated_Source\\PSoC5\\cytypes.h"
 959              		.file 3 "Generated_Source\\PSoC5\\CyLib.h"
 960              		.file 4 "Generated_Source\\PSoC5\\cyPm.h"