ARM GAS  C:\Users\JEFFSN~1\AppData\Local\Temp\ccQQDS13.s 			page 1


   1              		.syntax unified
   2              		.cpu cortex-m3
   3              		.fpu softvfp
   4              		.eabi_attribute 20, 1
   5              		.eabi_attribute 21, 1
   6              		.eabi_attribute 23, 3
   7              		.eabi_attribute 24, 1
   8              		.eabi_attribute 25, 1
   9              		.eabi_attribute 26, 1
  10              		.eabi_attribute 30, 1
  11              		.eabi_attribute 34, 1
  12              		.eabi_attribute 18, 4
  13              		.thumb
  14              		.syntax unified
  15              		.file	"SPI_ready.c"
  16              		.text
  17              	.Ltext0:
  18              		.section	.gnu.lto_.profile.c72413df,"",%progbits
  19 0000 789C6361 		.ascii	"x\234ca`d`a`\000\222\222\242\000\000\261\0009"
  19      60646061 
  19      60009292 
  19      A20000B1 
  19      0039
  20              		.text
  21              		.section	.gnu.lto_.inline.c72413df,"",%progbits
  22 0000 789C6361 		.ascii	"x\234ca`d\000\001?\006\004`a`\340\344`d`\342y\020\313"
  22      60640001 
  22      3F060460 
  22      6160E0E4 
  22      606460E2 
  23 0017 C0B6409E 		.ascii	"\300\266@\236\011$\306\310\300\301\016\024\342\232\340"
  23      0924C6C8 
  23      C0C10E14 
  23      E29AE0
  24 0026 07176262 		.ascii	"\007\027bb`c\005\012\261}\320\203\0131c\0121\000\000"
  24      6063050A 
  24      B17DD083 
  24      0B31630A 
  24      310000
  25 0039 537C0835 		.ascii	"S|\0105"
  26              		.text
  27              		.section	.gnu.lto_.jmpfuncs.c72413df,"",%progbits
  28 0000 789C6361 		.ascii	"x\234ca`d\000\001>\006\004`\001b\240(\023\003\0033\220"
  28      60640001 
  28      3E060460 
  28      0162A028 
  28      13030333 
  29 0015 05000292 		.ascii	"\005\000\002\222\000\036"
  29      001E
  30              		.text
  31              		.section	.gnu.lto_.pureconst.c72413df,"",%progbits
  32 0000 789C6361 		.ascii	"x\234ca`d\340d```a\220b\224b\222b\226\002\000\002\261"
  32      6064E064 
  32      60606061 
  32      90629462 
  32      92629602 
  33 0017 0081     		.ascii	"\000\201"
ARM GAS  C:\Users\JEFFSN~1\AppData\Local\Temp\ccQQDS13.s 			page 2


  34              		.text
  35              		.section	.gnu.lto_SPI_ready_Write.c72413df,"",%progbits
  36 0000 789C5551 		.ascii	"x\234UQMk\023Q\024\275\347\275\231I\333\230\376\201"
  36      4D6B1351 
  36      14BDE7BD 
  36      9949DB98 
  36      FE81
  37 0012 6651905A 		.ascii	"fQ\220Z\212\"\202\350\017\320\205\270+f\033(!\235E\301"
  37      8A2282E8 
  37      0FD085B8 
  37      2B661B28 
  37      219D45C1 
  38 0026 B690A682 		.ascii	"\266\220\246\202\253\276\3514)(b7mW\332\222RR?\372\275"
  38      ABBEE934 
  38      29286237 
  38      6D57DA92 
  38      52523FFA 
  39 003b B2143ACC 		.ascii	"\262\024:\314\017\260\233\270\021\021)2\202\253\010"
  39      0FB09BB8 
  39      11112932 
  39      82AB08
  40 004a 461BABC6 		.ascii	"F\033\253\306{g6\366\302\373\230;\347\334{\316}\026"
  40      7B6736F6 
  40      C2FB983B 
  40      E7DC7BCE 
  40      7D16
  41 005c 81242E2B 		.ascii	"\201$.+\242\233|\366\361\202&\250\205\267D^\227\002"
  41      A29B7CF6 
  41      F18226A8 
  41      85B7445E 
  41      9702
  42 006e E462BA40 		.ascii	"\344b\272@3\0123h\251?\012\341|\364F\015\325\015\307"
  42      330A3368 
  42      A93F0AE1 
  42      7CF4460D 
  42      D50DC7
  43 0081 A7F5E7DA 		.ascii	"\247\365\347\332l\004\250h\242\216\212+\021\352\030"
  43      6C04A868 
  43      A28E8A2B 
  43      11EA18
  44 0090 62D497C3 		.ascii	"b\324\227\303\371\006\364%\020\337\253a\253\231\036"
  44      F906F425 
  44      10DFAB61 
  44      AB991E
  45 009f 5C3766D6 		.ascii	"\\7f\326\230v\336\350\212\0066\240\231\201\353Y\\\313"
  45      9876DEE8 
  45      8A0636A0 
  45      9981EB59 
  45      5CCB
  46 00b1 1227082F 		.ascii	"\022'\010/0(\340\323\367\215\255^}%&.\230\250va`M\210"
  46      3028E0D3 
  46      F78DAD5E 
  46      7D25262E 
  46      98A87661 
  47 00c8 C1CFF165 		.ascii	"\301\317\361e\023x\375\302}\371?W\202\241'\273\177\027"
  47      1378FDC2 
  47      7DF93F57 
ARM GAS  C:\Users\JEFFSN~1\AppData\Local\Temp\ccQQDS13.s 			page 3


  47      82A127BB 
  47      7F17
  48 00da 33CE9CA8 		.ascii	"3\316\234\250\352\307+\014$z\360\032\016;\204d\266\357"
  48      EAC72B0C 
  48      247AF01A 
  48      0E3B8464 
  48      B6EF
  49 00ec 05A6D3F1 		.ascii	"\005\246\323\361M\320\262[\272[qS\305N\371\207\005\351"
  49      4DD0B25B 
  49      BA5B7153 
  49      C54EF987 
  49      05E9
  50 00fe 6D4BC291 		.ascii	"mK\302\221-%\033Q\223\227\270\377\246\224\234:B\370"
  50      2D251B51 
  50      9397B8FF 
  50      A6949C3A 
  50      42F8
  51 0110 EBD1C7E5 		.ascii	"\353\321\307\345\224\324\364\265Lb\251\022\036\247\276"
  51      94D4F4B5 
  51      4C62A912 
  51      1EA7BE
  52 011f AB8AD6B1 		.ascii	"\253\212\326\261Z\263\372\264m'\237\246\346\031\213"
  52      5AB3FAB4 
  52      6D279FA6 
  52      E6198B
  53 012e 53EDE383 		.ascii	"S\355\343\203\303\314\012\236ys<#\013[\310b\023\254"
  53      C3CC0A9E 
  53      79733C23 
  53      0B5BC862 
  53      13AC
  54 0140 19DB5801 		.ascii	"\031\333X\001E\360\177W? )\250\223\232\217\333{\357"
  54      45F07F57 
  54      3F2029A8 
  54      939A8FDB 
  54      7BEF
  55 0152 32520438 		.ascii	"2R\0048\002v\030|\002\025\333`\245\214\022R\263\032"
  55      0276187C 
  55      0215DB60 
  55      A58C1252 
  55      B31A
  56 0164 D5BB1396 		.ascii	"\325\273\023\226\355k\351\363\371l\363\240WX6\003w\231"
  56      ED6BE9F3 
  56      F96CF3A0 
  56      57583603 
  56      7799
  57 0176 14976EA8 		.ascii	"\024\227n\250\004$8\006\325~\370O\322\002\262\020\020"
  57      04243806 
  57      D57EF84F 
  57      D202B210 
  57      10
  58 0187 F612D4A9 		.ascii	"\366\022\324\251\223`R\261\002\207S\341R\254\350\234"
  58      936052B1 
  58      028753E1 
  58      52ACE89C 
  59 0197 7ACF98F4 		.ascii	"z\317\230\364y\003\373l\200Y\364\025\263\301\231-\204"
  59      7903FB6C 
  59      8059F415 
ARM GAS  C:\Users\JEFFSN~1\AppData\Local\Temp\ccQQDS13.s 			page 4


  59      B3C1992D 
  59      84
  60 01a8 F8259A0A 		.ascii	"\370%\232\0122,\036\335\305;\356\204[*\224\335\321\221"
  60      322C1EDD 
  60      C53BEE84 
  60      5B2A94DD 
  60      D191
  61 01ba DCE474A9 		.ascii	"\334\344t\251\350\346\207s\223\267o\344s\303wGJna\364"
  61      E8E68773 
  61      93B76FE4 
  61      73C37747 
  61      4A6E61F4 
  62 01ce E1D522D9 		.ascii	"\341\325\"\331\017\012\367\247\335\236\251r\241<V\274"
  62      0F0AF7A7 
  62      DD9EA972 
  62      A13C56BC 
  63 01de 35569EFA 		.ascii	"5V\236\372\007\201d\304\275"
  63      078164C4 
  63      BD
  64              		.text
  65              		.section	.gnu.lto_SPI_ready_SetDriveMode.c72413df,"",%progbits
  66 0000 789C7D51 		.ascii	"x\234}Q=K#Q\024\275\347\275\311\314\004Y\377\300\246"
  66      3D4B2351 
  66      14BDE7BD 
  66      C9CC0459 
  66      FFC0A6
  67 0013 1004C52D 		.ascii	"\020\004\305-DX\366\027(\212\235\2306\"b\246\324`\320"
  67      4458F617 
  67      288A9D98 
  67      362262A6 
  67      D460D0
  68 0026 C22A2F89 		.ascii	"\302*/\211Qt\033a\331X\210\304F\374\334u\027\013\261"
  68      51741B61 
  68      D95888C4 
  68      46FCDC75 
  68      170BB1
  69 0039 CB06B5D4 		.ascii	"\313\006\265\324\316\302B\226-\",(\211\037(~\305{g,"
  69      CEC24296 
  69      2D222C28 
  69      891F287E 
  69      C57B672C 
  70 004d 52F99877 		.ascii	"R\371\230w?\016\347\034\356}c\021H\3169\247O\234?\362"
  70      3F0EE71C 
  70      EE7D6311 
  70      48CE39A7 
  70      4F9C3FF2 
  71 0061 8526A8F9 		.ascii	"\205&\250\371#\242\264\253\000)\214\013J)\244p\253\236"
  71      23A2B4AB 
  71      00298C0B 
  71      4A29A470 
  71      AB9E
  72 0073 154A33E5 		.ascii	"\025J3\345=\325\266j\370\374=\270\3540kE\3444QM\371"
  72      3DD5B66A 
  72      F8FC3DB8 
  72      EC306B45 
  72      E434514D 
  73 0088 4E8455B4 		.ascii	"N\204U\2641\353zg\345[\203n\001q]=\252\2345\266\256"
ARM GAS  C:\Users\JEFFSN~1\AppData\Local\Temp\ccQQDS13.s 			page 5


  73      31EB7A67 
  73      E55B836E 
  73      01715D3D 
  73      AA9C35B6 
  74 009d 18933166 		.ascii	"\030\2231fa\300\350\234\006\326\240Y\201\317\021tD\210"
  74      61C0E89C 
  74      06D6A059 
  74      81CF1174 
  74      4488
  75 00af 01C23A5A 		.ascii	"\001\302:Z\205\374\357\367\313\367\017\366\224\3307"
  75      85FCEFF7 
  75      CBF70FF6 
  75      94D837
  76 00be 05A6D880 		.ascii	"\005\246\330\200-cn\367\027M\255\2265\305;\373\317\203"
  76      2D636EF7 
  76      174DAD96 
  76      35C53BFB 
  76      CF83
  77 00d0 DDA058A6 		.ascii	"\335\240X\2464\007mI\010A\034l)\035\011\256\204\260"
  77      34076D49 
  77      08411C6C 
  77      291D09AE 
  77      84B0
  78 00e2 70882A7C 		.ascii	"p\210*|e\221\252R\222u\031\245\207\271\362\242%\316"
  78      6591AA52 
  78      927519A5 
  78      87B9F2A2 
  78      25CE
  79 00f4 592D4BE5 		.ascii	"Y-K\345s\245c\347F\345\264\345O\374t\262\327\025t\323"
  79      73A563E7 
  79      46E5B4E5 
  79      4FFC74B2 
  79      D71574D3 
  80 0108 CB696331 		.ascii	"\313ic12\275\273?\353\026\260\224\236\342mC\330B\004"
  80      32BDBB3F 
  80      EB16B094 
  80      9EE26D43 
  80      D84204
  81 011b 9B88F070 		.ascii	"\233\210\360p?P\000\225\221\271r\0027\315\206\334g\237"
  81      3F500095 
  81      91B97202 
  81      37CD86DC 
  81      679F
  82 012d ECA0B718 		.ascii	"\354\240\267\030b\375\351\341\327\347\260Xj\214\341"
  82      62FDE9E1 
  82      D7E7B058 
  82      6A8CE1
  83 013c 272BEB24 		.ascii	"'+\353$\374\205\352%\016C,\2718\331\334\322\201\244"
  83      FC85EA25 
  83      0E432CB9 
  83      38D9DCD2 
  83      81A4
  84 014e 11DBBE24 		.ascii	"\021\333\276${\377Fq}c\247\336%\314(\367\245<\244\177"
  84      7BFF4671 
  84      7D63A7DE 
  84      25CC28F7 
  84      A53CA47F 
ARM GAS  C:\Users\JEFFSN~1\AppData\Local\Temp\ccQQDS13.s 			page 6


  85 0162 6FE45F3C 		.ascii	"o\344_<2\363\351?2\305\307na\373\177\256\242 \257\303"
  85      32F3E93F 
  85      32C5C76E 
  85      61FB7FAE 
  85      A220AFC3 
  86 0176 6FD5DCE3 		.ascii	"o\325\334\343\215z\311\241q/>\030ML$\207\275X_4\321"
  86      8D7AC9A1 
  86      712F3E18 
  86      4D4C2487 
  86      BD585F34 
  87 018b F92516ED 		.ascii	"\371%\026\355\353\035LzC\361\311\366a\262F\022q\357"
  87      EB1D4C7A 
  87      43F1C9F6 
  87      61B24612 
  87      71EF
  88 019d 15FA9BA5 		.ascii	"\025\372\233\245\302"
  88      C2
  89              		.text
  90              		.section	.gnu.lto_SPI_ready_Read.c72413df,"",%progbits
  91 0000 789C354F 		.ascii	"x\2345O=K\003A\020\235\267{\311\005!\376\001S\010b\221"
  91      3D4B0341 
  91      109DB77B 
  91      C90521FE 
  91      01530862 
  92 0015 460411C4 		.ascii	"F\004\021\304VP\354\304\0246\201\020\222k\015\004-\254"
  92      5650ECC4 
  92      14368110 
  92      926B0D04 
  92      2DAC
  93 0027 B297CB29 		.ascii	"\262\227\313)\210\205\215Z\251 H\2421\250U\300\3063"
  93      88858D5A 
  93      A92048A2 
  93      31A855C0 
  93      C633
  94 0039 58088236 		.ascii	"X\010\2026\012V\"\022RX\210\006E\211\037q\326\323\201"
  94      0A562212 
  94      52588806 
  94      45891F71 
  94      D6D381
  95 004c 9DD99D7D 		.ascii	"\235\331\235}o\336<\203@:\246\270\364r\355\342\003I"
  95      6FDE3C83 
  95      403AA6B8 
  95      F472EDE2 
  95      0349
  96 005e 10CB1744 		.ascii	"\020\313\027DvH\000\372\242B\240\234@\016\257\342K\340"
  96      764800FA 
  96      A242A09C 
  96      400EAFE2 
  96      4BE0
  97 0070 FCED6CA9 		.ascii	"\374\355l\251#ZT*\257\356\266[Ck%\017\256$j\013\302"
  97      235A542A 
  97      AFEEB65B 
  97      436B250F 
  97      AE246A0B 
  98 0085 4004FD11 		.ascii	"@\004\375\021=\242\210(1\364\376\360{%\034,(\216n\015"
  98      3DA28828 
  98      31F4FEF0 
ARM GAS  C:\Users\JEFFSN~1\AppData\Local\Temp\ccQQDS13.s 			page 7


  98      7B251C2C 
  98      288E6E0D 
  99 0099 E09F1282 		.ascii	"\340\237\022\202Zr\177\322S\355\266\243\274k\363\344"
  99      5A727FD2 
  99      53EDB6A3 
  99      BC6BF3E4 
 100 00a9 C63441AE 		.ascii	"\3064A\256d]N\006'\021\320)Hz,=1M/\361,\204\256\262"
 100      645D4E06 
 100      2711D029 
 100      487A2C3D 
 100      314D2FF1 
 101 00c1 815A6BF1 		.ascii	"\201Zk\361vcXOr\244d\225U\267vi\276\010WJh\321\362\251"
 101      7663584F 
 101      72A46495 
 101      55B77669 
 101      BE08574A 
 102 00d9 5B08F84F 		.ascii	"[\010\370O{\313V\006\267\252\357\007\307\330\304\272"
 102      7BCB5606 
 102      B7AAEF07 
 102      C7D8C4BA 
 103 00e9 5DE0550D 		.ascii	"]\340U\015\354\"\202\035\360\242(s\227\032p>G\311\221"
 103      EC22821D 
 103      F0A22873 
 103      971A703E 
 103      47C991
 104 00fc F0C7551F 		.ascii	"\360\307U\037\313\325\260\346\003\036a\217q\015\344"
 104      CBD5B0E6 
 104      031E618F 
 104      710DE4
 105 010b 9B0B57D2 		.ascii	"\233\013W\322W4\030\250)\315\371z\300\357\004\270\311"
 105      573418A8 
 105      29CDF97A 
 105      C0EF04B8 
 105      C9
 106 011c BCFA47E5 		.ascii	"\274\372G\345\250S\363\004[\254\374\323\352\360A\032"
 106      A853F304 
 106      5BACFCD3 
 106      EAF0411A 
 107 012c 470F107F 		.ascii	"G\017\020\177/\372u\006\355\210\375\365\214Y\323V69"
 107      2FFA7506 
 107      ED88FDF5 
 107      8C59D356 
 107      3639
 108 013e 63A513B1 		.ascii	"c\245\023\261\314l6e\305'b\231\221\301xlb<\221\265\222"
 108      CC6C3665 
 108      C5276299 
 108      91C1786C 
 108      623C91B5 
 109 0153 E9B9BE14 		.ascii	"\351\271\276\024\375\000\022\244}\027"
 109      FD0012A4 
 109      7D17
 110              		.text
 111              		.section	.gnu.lto_SPI_ready_ReadDataReg.c72413df,"",%progbits
 112 0000 789C354F 		.ascii	"x\2345O\277KBQ\024>\337\275\357\251\010\366\017\344"
 112      BF4B4251 
 112      143EDFBD 
 112      EFA908F6 
ARM GAS  C:\Users\JEFFSN~1\AppData\Local\Temp\ccQQDS13.s 			page 8


 112      0FE4
 113 0012 1044834B 		.ascii	"\020D\203K\004\321PkP\264I\016-\202\210\2765Ajh\362"
 113      04D1506B 
 113      50B4490E 
 113      2D8288BE 
 113      35416A68 
 114 0027 EAF31544 		.ascii	"\352\363\025DPK5E\021\204\232I4\011R`NA\220\015\375"
 114      504B3545 
 114      11849A49 
 114      34095260 
 114      4E41900D 
 115 003c 0111E2D0 		.ascii	"\001\021\342\320\020%E\330\017\355\334^\035\270\347"
 115      102545D8 
 115      0FEDDC5E 
 115      1DB8E7
 116 004b DC7BEEF7 		.ascii	"\334{\356\367\235\357|\006\201t,p\031\341:\310\007\222"
 116      9DEF7C06 
 116      81742C70 
 116      19E13AC8 
 116      0792
 117 005d 20B66E88 		.ascii	" \266n\210\262>\001\350\213\362\2012\002\031\274\211"
 117      B23E01E8 
 117      8BF28132 
 117      0219BC89 
 118 006d 6F81EBF7 		.ascii	"o\201\353\367\253\015\177\250\240TN\335\037\025&w\213"
 118      AB0D7FA8 
 118      A0544EDD 
 118      1F152677 
 118      8B
 119 007e 753892A8 		.ascii	"u8\222\250/\010\343A\214\005\365\210\002B\304\320\207"
 119      2F08E341 
 119      8C05F588 
 119      0242C4D0 
 119      87
 120 008f B3DE76C0 		.ascii	"\263\336v\300\223W\034C\032\300?Ex\264\344\351|]\365"
 120      93571C43 
 120      1AC03F45 
 120      78B4E4E9 
 120      7C5DF5
 121 00a2 FBB6AA5F 		.ascii	"\373\266\252_\370/o\375^\220#Y\227\223\301I\230:yH\217"
 121      F82F6FFD 
 121      5E902359 
 121      9793C149 
 121      983A7948 
 122 00b7 A567A6E9 		.ascii	"\245g\246\351%^\204\320U\266\321\370X\357\225\246\364"
 122      255E84D0 
 122      55B6D1F8 
 122      58EF95A6 
 122      F4
 123 00c8 245B4A56 		.ascii	"$[JV\331q\032M\357\253p\244\204\026U\007\233]\323}\252"
 123      D9711A4D 
 123      EFAB70A4 
 123      84165507 
 123      9B5DD37D 
 124 00dd C3AC32B8 		.ascii	"\303\2542\270\325m\326\316\003\373\330\313\346yU\003"
 124      D56DD6CE 
 124      03FBD8CB 
ARM GAS  C:\Users\JEFFSN~1\AppData\Local\Temp\ccQQDS13.s 			page 9


 124      E6795503 
 125 00ed C708A204 		.ascii	"\307\010\242\004^\024e\354\203\332\260\277f\310\226"
 125      5E1465EC 
 125      83DAB0BF 
 125      66C896
 126 00fc 70C7559F 		.ascii	"p\307U\237\312\325\200\346\003u\302\011\343\332\310"
 126      CAD580E6 
 126      0375C209 
 126      E3DAC8
 127 010b 75D6EEA4 		.ascii	"u\326\356\244\253h0PS:\253-\323\355\230\334d^\353\263"
 127      AB683050 
 127      533AAB2D 
 127      D3ED98DC 
 127      645EEBB3 
 128 011f 521BD03C 		.ascii	"R\033\320<\301\026+\377\264\026\\\220\306\321#\304\337"
 128      C1162BFF 
 128      B4165C90 
 128      C6D123C4 
 128      DF
 129 0130 8B7E9D41 		.ascii	"\213~\235A;b\177\303\263\326\242\225\216/Y\311X$\265"
 129      3B627FC3 
 129      B3D6A295 
 129      8E2F59C9 
 129      5824B5
 130 0143 9C4E58D1 		.ascii	"\234NX\321p$5=\021\215\204\347bi+\236\\\031M\320\017"
 130      7024353D 
 130      118D84E7 
 130      62692B9E 
 130      5C194DD0 
 131 0158 F1187D31 		.ascii	"\361\030}1"
 132              		.text
 133              		.section	.gnu.lto_.symbol_nodes.c72413df,"",%progbits
 134 0000 789C6361 		.ascii	"x\234ca`dpc\000\002&\206z\006\206\011\347\030@\324\252"
 134      60647063 
 134      00022686 
 134      7A068609 
 134      E71840D4 
 135 0015 0645A000 		.ascii	"\006E\240\000c=#\252\000S=\023\252\000s=3\212\000\003"
 135      633D23AA 
 135      00533D13 
 135      AA00733D 
 135      338A0003 
 136 0029 001ED60E 		.ascii	"\000\036\326\016\374"
 136      FC
 137              		.text
 138              		.section	.gnu.lto_.refs.c72413df,"",%progbits
 139 0000 789C6361 		.ascii	"x\234ca`\004B \000\000\0009\000\007"
 139      60044220 
 139      00000039 
 139      0007
 140              		.text
 141              		.section	.gnu.lto_.decls.c72413df,"",%progbits
 142 0000 789C8D52 		.ascii	"x\234\215R]H\024Q\024\276gfv\265\3114\244Dh\0376{\221"
 142      5D481451 
 142      14BE6766 
 142      76B5C934 
 142      A444681F 
ARM GAS  C:\Users\JEFFSN~1\AppData\Local\Temp\ccQQDS13.s 			page 10


 143 0017 1E2489C0 		.ascii	"\036$\211\300\007\251@\311z(\305E{\021d\325\301|\321"
 143      07A940C9 
 143      7A28C545 
 143      7B1164D5 
 143      C17CD1
 144 002a D8D6C097 		.ascii	"\330\326\300\227\270\251\211\026\205R*\212\224\025\350"
 144      B8A98916 
 144      85522A8A 
 144      9415E8
 145 0039 6EFEA6AE 		.ascii	"n\376\246\256\355n\231k\226i`$B\020F\011\346\203h\241"
 145      ED6E996B 
 145      96696024 
 145      42104609 
 145      E68368A1 
 146 004d E84312B6 		.ascii	"\350C\022\266\235{w\306\031k\003\017\334\237s\357\367"
 146      9D7B77C6 
 146      196B030F 
 146      DC9F73EF 
 146      F7
 147 005e 7DE7BB67 		.ascii	"}\347\273gF\"@X\244J\204t\342j\3014\210a\302}.\321\003"
 147      46224058 
 147      A44A8474 
 147      E26AC134 
 147      8861C27D 
 148 0075 AFC9200E 		.ascii	"\257\311 \016\017\016/\016?\3717\330\275Y\345\3652-"
 148      0F0E2F0E 
 148      3FF937D8 
 148      BD59E5F5 
 148      322D
 149 0087 1CA33846 		.ascii	"\034\2438Fpd\252\030Pq\177\207'\0147`\340k\\O\030.\363"
 149      7064AA18 
 149      50717F87 
 149      270C3760 
 149      E06B5C4F 
 150 009e 6332F032 		.ascii	"c2\3602\303\360\274ax\376]\360\302\275sK\200\266\261"
 150      C3F0BC61 
 150      78FE5DF0 
 150      C2BD734B 
 150      80B6B1
 151 00b1 FBE3A639 		.ascii	"\373\343\2469\370\004@\200\007Q\373H\330\211\272\262"
 151      F8044080 
 151      0751FB48 
 151      D889BAB2 
 152 00c1 0D841241 		.ascii	"\015\204\022A\323\003\015\244\225\340p \002\307o\237"
 152      D3030DA4 
 152      95E07020 
 152      02C76F9F 
 153 00d1 6BB8ED9A 		.ascii	"k\270\355\232A-\364#\330\016\015\011;E\231\252\236b"
 153      412DF423 
 153      D80E0D09 
 153      3B4599AA 
 153      9E62
 154 00e3 2EE80483 		.ascii	".\350\004\203\236\352^\255\017\306\262\\Z\324\036]\347"
 154      9EEA5EAD 
 154      0FC6B25C 
 154      5AD41E5D 
 154      E7
ARM GAS  C:\Users\JEFFSN~1\AppData\Local\Temp\ccQQDS13.s 			page 11


 155 00f4 764D4588 		.ascii	"vME\210\250\211\373\257\233\2563I\335\024\243\236R\341"
 155      A889FBAF 
 155      9BAE3349 
 155      DD14A39E 
 155      52E1
 156 0106 A8DE99BE 		.ascii	"\250\336\231\276\033\337\334\221\033\002Xd\010\002\313"
 156      1BDFDC91 
 156      1B025864 
 156      0802CB
 157 0115 577C9BFB 		.ascii	"W|\233\373B9\273niX\370\275W<\304\366\302\354B\327\222"
 157      4239BB6E 
 157      6958F8BD 
 157      573CC4F6 
 157      C2EC42D7 
 158 012a 04897207 		.ascii	"\004\211r\007\223\231\277\273x\322G\351~\350\005\031"
 158      9399BFBB 
 158      78D247E9 
 158      7EE80519 
 159 013a BA410437 		.ascii	"\272A\0047$1\007\026\031\347ZJ+\351\352#j\216'p\334"
 159      24310716 
 159      19E75A4A 
 159      2BE9EA23 
 159      6A8E2770 
 160 014f 02C72C04 		.ascii	"\002\307,\004z \221i2\024t\201\005\236\200\205\351/"
 160      7A209169 
 160      32147481 
 160      059E8085 
 160      E92F
 161 0161 363F5836 		.ascii	"6?X6K\330n\256S \261\263\231\352\3766\021-\304\312 "
 161      4BD86EAE 
 161      5320B1B3 
 161      99EAFE36 
 161      112DC4CA 
 162 0176 61BA36DD 		.ascii	"a\2726\335\272\020\215\351\001\031\254\230v\373?\257"
 162      BA108DE9 
 162      0119AC98 
 162      76FB3FAF 
 163 0186 98E39BF8 		.ascii	"\230\343\233\370S\252\250U\202\3348x\212\202\375(H`"
 163      53AAA855 
 163      82DC3878 
 163      8A82FD28 
 163      4860
 164 0198 00E271EE 		.ascii	"\000\342q\356\003)\364\272\367\313.SB;m\357\247\363"
 164      0329F4BA 
 164      F7CB2E53 
 164      423B6DEF 
 164      A7F3
 165 01aa CD13A94D 		.ascii	"\315\023\251MUt\022iV\206\002\227\356\031\267l\351\204"
 165      55741269 
 165      56860297 
 165      EE19B76C 
 165      E984
 166 01bc 39ECE720 		.ascii	"9\354\347 $ \321{\257uJ\024\213y\017|\215\3533rH%\260"
 166      2420D17B 
 166      AF754A14 
 166      8B790F7C 
 166      8DEB3372 
ARM GAS  C:\Users\JEFFSN~1\AppData\Local\Temp\ccQQDS13.s 			page 12


 167 01d3 311145EB 		.ascii	"1\021E\353\257Sz\232k\014\351\032CF\015\017\327\250"
 167      AF537A9A 
 167      6B0CE91A 
 167      43460D0F 
 167      D7A8
 168 01e5 09B82704 		.ascii	"\011\270'\004\361\032\327\370p\353MU\214\3215{\256n"
 168      F11AD7F8 
 168      70EB4D55 
 168      8CD1357B 
 168      AE6E
 169 01f7 FB19B75D 		.ascii	"\373\031\267]\240\272^Y\373\376E\265\035\230}+\266\320"
 169      A0BA5E59 
 169      FBFE45B5 
 169      1D987D2B 
 169      B6D0
 170 0209 4035F204 		.ascii	"@5\362\004\206\202a\275\344\260\261\244\227\227\034"
 170      868261BD 
 170      E4B0B1A4 
 170      97971C
 171 0218 98FC5503 		.ascii	"\230\374U\003\342m\3405;~\336q\355Qe\374\3574\337L\304"
 171      E26DE035 
 171      3B7EDE71 
 171      ED5165FC 
 171      EF34DF4C 
 172 022d A78BF88C 		.ascii	"\247\213\370\214\"~.\262Q\275\376\321,\3437\254\332"
 172      227E2EB2 
 172      51BDFED1 
 172      2CE337AC 
 172      DA
 173 023e DD379C5E 		.ascii	"\3357\234^z\030\214\020\037\363\242\302`cKc\004\310"
 173      7A188C10 
 173      1FF3A2C2 
 173      60634B63 
 173      04C8
 174 0250 8961E82F 		.ascii	"\211a\350/\303\320\325\177\251'\247\241\216\275p\004"
 174      C3D0D57F 
 174      A927A7A1 
 174      8EBD7004 
 175 0260 BBF24237 		.ascii	"\273\362B7\367\034\344PG\334?\306\003\020u\223\375V"
 175      F71CE450 
 175      47DC3FC6 
 175      03107593 
 175      FD56
 176 0272 D8BED8B3 		.ascii	"\330\276\330\263\034\250\267o\024\242\370\357\217\353"
 176      1CA8B76F 
 176      14A2F8EF 
 176      8FEB
 177 0280 9620BE9E 		.ascii	"\226 \276\236\355\033\225A\266\000\336C-+\260Zi\360"
 177      ED1B9541 
 177      B600DE43 
 177      2D2BB05A 
 177      69F0
 178 0292 4120C064 		.ascii	"A \300da\014\257_!\275\2252\314\014\360c\236\254\236"
 178      610CAF5F 
 178      21BD9532 
 178      CC0CF063 
 178      9EAC9E
ARM GAS  C:\Users\JEFFSN~1\AppData\Local\Temp\ccQQDS13.s 			page 13


 179 02a5 E27B3EC5 		.ascii	"\342{>\305\330\262\316\345;\024{QE\376EG\211S\211\314"
 179      D8B2CEE5 
 179      3B147B51 
 179      45FE4547 
 179      895389CC 
 180 02b9 B890634D 		.ascii	"\270\220cMKN&\246\362\222Rg\312\341\014\245Tq\330\235"
 180      4B4E26A6 
 180      F2925267 
 180      CAE10CA5 
 180      5471D89D 
 181 02cd 4A51BEAD 		.ascii	"JQ\276\255\254\334Q\250\344e\331\312\322N\344\025V8"
 181      ACDC51A8 
 181      E465D9CA 
 181      D24EE415 
 181      5638
 182 02df 2B2E2B57 		.ascii	"+.+W\222.\221#\377Al\353&\025\2228\275\210Mq\246;J\256"
 182      922E9123 
 182      FF416CEB 
 182      26159238 
 182      BD884D71 
 183 02f7 2AE7CB8A 		.ascii	"*\347\313\212\224h\3758\033\347\203;\323t\273\323\236"
 183      9468FD38 
 183      1BE7833B 
 183      D374BBD3 
 183      9E
 184 0308 AD144B0E 		.ascii	"\255\024K\016\2458\345\017\327\263f\305"
 184      A538E50F 
 184      D7B366C5 
 185              		.text
 186              		.section	.gnu.lto_.symtab.c72413df,"",%progbits
 187 0000 5350495F 		.ascii	"SPI_ready_Write\000"
 187      72656164 
 187      795F5772 
 187      69746500 
 188 0010 00       		.ascii	"\000"
 189 0011 00       		.ascii	"\000"
 190 0012 00       		.ascii	"\000"
 191 0013 00000000 		.ascii	"\000\000\000\000\000\000\000\000"
 191      00000000 
 192 001b B3000000 		.ascii	"\263\000\000\000"
 193 001f 5350495F 		.ascii	"SPI_ready_SetDriveMode\000"
 193      72656164 
 193      795F5365 
 193      74447269 
 193      76654D6F 
 194 0036 00       		.ascii	"\000"
 195 0037 00       		.ascii	"\000"
 196 0038 00       		.ascii	"\000"
 197 0039 00000000 		.ascii	"\000\000\000\000\000\000\000\000"
 197      00000000 
 198 0041 B5000000 		.ascii	"\265\000\000\000"
 199 0045 5350495F 		.ascii	"SPI_ready_Read\000"
 199      72656164 
 199      795F5265 
 199      616400
 200 0054 00       		.ascii	"\000"
 201 0055 00       		.ascii	"\000"
ARM GAS  C:\Users\JEFFSN~1\AppData\Local\Temp\ccQQDS13.s 			page 14


 202 0056 00       		.ascii	"\000"
 203 0057 00000000 		.ascii	"\000\000\000\000\000\000\000\000"
 203      00000000 
 204 005f B8000000 		.ascii	"\270\000\000\000"
 205 0063 5350495F 		.ascii	"SPI_ready_ReadDataReg\000"
 205      72656164 
 205      795F5265 
 205      61644461 
 205      74615265 
 206 0079 00       		.ascii	"\000"
 207 007a 00       		.ascii	"\000"
 208 007b 00       		.ascii	"\000"
 209 007c 00000000 		.ascii	"\000\000\000\000\000\000\000\000"
 209      00000000 
 210 0084 BA000000 		.ascii	"\272\000\000\000"
 211              		.text
 212              		.section	.gnu.lto_.opts,"",%progbits
 213 0000 272D666D 		.ascii	"'-fmath-errno' '-fsigned-zeros' '-ftrapping-math' '"
 213      6174682D 
 213      6572726E 
 213      6F272027 
 213      2D667369 
 214 0033 2D666E6F 		.ascii	"-fno-trapv' '-fno-strict-overflow' '-fno-openmp' '-"
 214      2D747261 
 214      70762720 
 214      272D666E 
 214      6F2D7374 
 215 0066 666E6F2D 		.ascii	"fno-openacc' '-mcpu=cortex-m3' '-mthumb' '-g' '-Og'"
 215      6F70656E 
 215      61636327 
 215      20272D6D 
 215      6370753D 
 216 0099 20272D66 		.ascii	" '-ffunction-sections' '-ffat-lto-objects' '-finlin"
 216      66756E63 
 216      74696F6E 
 216      2D736563 
 216      74696F6E 
 217 00cc 652D6675 		.ascii	"e-functions' '-flto'\000"
 217      6E637469 
 217      6F6E7327 
 217      20272D66 
 217      6C746F27 
 218              		.text
 219              		.cfi_sections	.debug_frame
 220              		.section	.text.SPI_ready_Write,"ax",%progbits
 221              		.align	2
 222              		.global	SPI_ready_Write
 223              		.thumb
 224              		.thumb_func
 225              		.type	SPI_ready_Write, %function
 226              	SPI_ready_Write:
 227              	.LFB0:
 228              		.file 1 "Generated_Source\\PSoC5\\SPI_ready.c"
   1:Generated_Source\PSoC5/SPI_ready.c **** /*******************************************************************************
   2:Generated_Source\PSoC5/SPI_ready.c **** * File Name: SPI_ready.c  
   3:Generated_Source\PSoC5/SPI_ready.c **** * Version 2.20
   4:Generated_Source\PSoC5/SPI_ready.c **** *
ARM GAS  C:\Users\JEFFSN~1\AppData\Local\Temp\ccQQDS13.s 			page 15


   5:Generated_Source\PSoC5/SPI_ready.c **** * Description:
   6:Generated_Source\PSoC5/SPI_ready.c **** *  This file contains API to enable firmware control of a Pins component.
   7:Generated_Source\PSoC5/SPI_ready.c **** *
   8:Generated_Source\PSoC5/SPI_ready.c **** * Note:
   9:Generated_Source\PSoC5/SPI_ready.c **** *
  10:Generated_Source\PSoC5/SPI_ready.c **** ********************************************************************************
  11:Generated_Source\PSoC5/SPI_ready.c **** * Copyright 2008-2015, Cypress Semiconductor Corporation.  All rights reserved.
  12:Generated_Source\PSoC5/SPI_ready.c **** * You may use this file only in accordance with the license, terms, conditions, 
  13:Generated_Source\PSoC5/SPI_ready.c **** * disclaimers, and limitations in the end user license agreement accompanying 
  14:Generated_Source\PSoC5/SPI_ready.c **** * the software package with which this file was provided.
  15:Generated_Source\PSoC5/SPI_ready.c **** *******************************************************************************/
  16:Generated_Source\PSoC5/SPI_ready.c **** 
  17:Generated_Source\PSoC5/SPI_ready.c **** #include "cytypes.h"
  18:Generated_Source\PSoC5/SPI_ready.c **** #include "SPI_ready.h"
  19:Generated_Source\PSoC5/SPI_ready.c **** 
  20:Generated_Source\PSoC5/SPI_ready.c **** /* APIs are not generated for P15[7:6] on PSoC 5 */
  21:Generated_Source\PSoC5/SPI_ready.c **** #if !(CY_PSOC5A &&\
  22:Generated_Source\PSoC5/SPI_ready.c **** 	 SPI_ready__PORT == 15 && ((SPI_ready__MASK & 0xC0) != 0))
  23:Generated_Source\PSoC5/SPI_ready.c **** 
  24:Generated_Source\PSoC5/SPI_ready.c **** 
  25:Generated_Source\PSoC5/SPI_ready.c **** /*******************************************************************************
  26:Generated_Source\PSoC5/SPI_ready.c **** * Function Name: SPI_ready_Write
  27:Generated_Source\PSoC5/SPI_ready.c **** ****************************************************************************//**
  28:Generated_Source\PSoC5/SPI_ready.c **** *
  29:Generated_Source\PSoC5/SPI_ready.c **** * \brief Writes the value to the physical port (data output register), masking
  30:Generated_Source\PSoC5/SPI_ready.c **** *  and shifting the bits appropriately. 
  31:Generated_Source\PSoC5/SPI_ready.c **** *
  32:Generated_Source\PSoC5/SPI_ready.c **** * The data output register controls the signal applied to the physical pin in 
  33:Generated_Source\PSoC5/SPI_ready.c **** * conjunction with the drive mode parameter. This function avoids changing 
  34:Generated_Source\PSoC5/SPI_ready.c **** * other bits in the port by using the appropriate method (read-modify-write or
  35:Generated_Source\PSoC5/SPI_ready.c **** * bit banding).
  36:Generated_Source\PSoC5/SPI_ready.c **** *
  37:Generated_Source\PSoC5/SPI_ready.c **** * <b>Note</b> This function should not be used on a hardware digital output pin 
  38:Generated_Source\PSoC5/SPI_ready.c **** * as it is driven by the hardware signal attached to it.
  39:Generated_Source\PSoC5/SPI_ready.c **** *
  40:Generated_Source\PSoC5/SPI_ready.c **** * \param value
  41:Generated_Source\PSoC5/SPI_ready.c **** *  Value to write to the component instance.
  42:Generated_Source\PSoC5/SPI_ready.c **** *
  43:Generated_Source\PSoC5/SPI_ready.c **** * \return 
  44:Generated_Source\PSoC5/SPI_ready.c **** *  None 
  45:Generated_Source\PSoC5/SPI_ready.c **** *
  46:Generated_Source\PSoC5/SPI_ready.c **** * \sideeffect
  47:Generated_Source\PSoC5/SPI_ready.c **** *  If you use read-modify-write operations that are not atomic; the Interrupt 
  48:Generated_Source\PSoC5/SPI_ready.c **** *  Service Routines (ISR) can cause corruption of this function. An ISR that 
  49:Generated_Source\PSoC5/SPI_ready.c **** *  interrupts this function and performs writes to the Pins component data 
  50:Generated_Source\PSoC5/SPI_ready.c **** *  register can cause corrupted port data. To avoid this issue, you should 
  51:Generated_Source\PSoC5/SPI_ready.c **** *  either use the Per-Pin APIs (primary method) or disable interrupts around 
  52:Generated_Source\PSoC5/SPI_ready.c **** *  this function.
  53:Generated_Source\PSoC5/SPI_ready.c **** *
  54:Generated_Source\PSoC5/SPI_ready.c **** * \funcusage
  55:Generated_Source\PSoC5/SPI_ready.c **** *  \snippet SPI_ready_SUT.c usage_SPI_ready_Write
  56:Generated_Source\PSoC5/SPI_ready.c **** *******************************************************************************/
  57:Generated_Source\PSoC5/SPI_ready.c **** void SPI_ready_Write(uint8 value)
  58:Generated_Source\PSoC5/SPI_ready.c **** {
 229              		.loc 1 58 0
 230              		.cfi_startproc
 231              		@ args = 0, pretend = 0, frame = 0
ARM GAS  C:\Users\JEFFSN~1\AppData\Local\Temp\ccQQDS13.s 			page 16


 232              		@ frame_needed = 0, uses_anonymous_args = 0
 233              		@ link register save eliminated.
 234              	.LVL0:
  59:Generated_Source\PSoC5/SPI_ready.c ****     uint8 staticBits = (SPI_ready_DR & (uint8)(~SPI_ready_MASK));
 235              		.loc 1 59 0
 236 0000 044A     		ldr	r2, .L2
 237 0002 1378     		ldrb	r3, [r2]	@ zero_extendqisi2
 238 0004 03F0BF03 		and	r3, r3, #191
 239              	.LVL1:
  60:Generated_Source\PSoC5/SPI_ready.c ****     SPI_ready_DR = staticBits | ((uint8)(value << SPI_ready_SHIFT) & SPI_ready_MASK);
 240              		.loc 1 60 0
 241 0008 8001     		lsls	r0, r0, #6
 242              	.LVL2:
 243 000a 00F04000 		and	r0, r0, #64
 244 000e 1843     		orrs	r0, r0, r3
 245 0010 1070     		strb	r0, [r2]
 246 0012 7047     		bx	lr
 247              	.L3:
 248              		.align	2
 249              	.L2:
 250 0014 00510040 		.word	1073762560
 251              		.cfi_endproc
 252              	.LFE0:
 253              		.size	SPI_ready_Write, .-SPI_ready_Write
 254              		.section	.text.SPI_ready_SetDriveMode,"ax",%progbits
 255              		.align	2
 256              		.global	SPI_ready_SetDriveMode
 257              		.thumb
 258              		.thumb_func
 259              		.type	SPI_ready_SetDriveMode, %function
 260              	SPI_ready_SetDriveMode:
 261              	.LFB1:
  61:Generated_Source\PSoC5/SPI_ready.c **** }
  62:Generated_Source\PSoC5/SPI_ready.c **** 
  63:Generated_Source\PSoC5/SPI_ready.c **** 
  64:Generated_Source\PSoC5/SPI_ready.c **** /*******************************************************************************
  65:Generated_Source\PSoC5/SPI_ready.c **** * Function Name: SPI_ready_SetDriveMode
  66:Generated_Source\PSoC5/SPI_ready.c **** ****************************************************************************//**
  67:Generated_Source\PSoC5/SPI_ready.c **** *
  68:Generated_Source\PSoC5/SPI_ready.c **** * \brief Sets the drive mode for each of the Pins component's pins.
  69:Generated_Source\PSoC5/SPI_ready.c **** * 
  70:Generated_Source\PSoC5/SPI_ready.c **** * <b>Note</b> This affects all pins in the Pins component instance. Use the
  71:Generated_Source\PSoC5/SPI_ready.c **** * Per-Pin APIs if you wish to control individual pin's drive modes.
  72:Generated_Source\PSoC5/SPI_ready.c **** *
  73:Generated_Source\PSoC5/SPI_ready.c **** * \param mode
  74:Generated_Source\PSoC5/SPI_ready.c **** *  Mode for the selected signals. Valid options are documented in 
  75:Generated_Source\PSoC5/SPI_ready.c **** *  \ref driveMode.
  76:Generated_Source\PSoC5/SPI_ready.c **** *
  77:Generated_Source\PSoC5/SPI_ready.c **** * \return
  78:Generated_Source\PSoC5/SPI_ready.c **** *  None
  79:Generated_Source\PSoC5/SPI_ready.c **** *
  80:Generated_Source\PSoC5/SPI_ready.c **** * \sideeffect
  81:Generated_Source\PSoC5/SPI_ready.c **** *  If you use read-modify-write operations that are not atomic, the ISR can
  82:Generated_Source\PSoC5/SPI_ready.c **** *  cause corruption of this function. An ISR that interrupts this function 
  83:Generated_Source\PSoC5/SPI_ready.c **** *  and performs writes to the Pins component Drive Mode registers can cause 
  84:Generated_Source\PSoC5/SPI_ready.c **** *  corrupted port data. To avoid this issue, you should either use the Per-Pin
  85:Generated_Source\PSoC5/SPI_ready.c **** *  APIs (primary method) or disable interrupts around this function.
ARM GAS  C:\Users\JEFFSN~1\AppData\Local\Temp\ccQQDS13.s 			page 17


  86:Generated_Source\PSoC5/SPI_ready.c **** *
  87:Generated_Source\PSoC5/SPI_ready.c **** * \funcusage
  88:Generated_Source\PSoC5/SPI_ready.c **** *  \snippet SPI_ready_SUT.c usage_SPI_ready_SetDriveMode
  89:Generated_Source\PSoC5/SPI_ready.c **** *******************************************************************************/
  90:Generated_Source\PSoC5/SPI_ready.c **** void SPI_ready_SetDriveMode(uint8 mode)
  91:Generated_Source\PSoC5/SPI_ready.c **** {
 262              		.loc 1 91 0
 263              		.cfi_startproc
 264              		@ args = 0, pretend = 0, frame = 0
 265              		@ frame_needed = 0, uses_anonymous_args = 0
 266              		@ link register save eliminated.
 267              	.LVL3:
  92:Generated_Source\PSoC5/SPI_ready.c **** 	CyPins_SetPinDriveMode(SPI_ready_0, mode);
 268              		.loc 1 92 0
 269 0000 044A     		ldr	r2, .L5
 270 0002 1378     		ldrb	r3, [r2]	@ zero_extendqisi2
 271 0004 03F0F103 		and	r3, r3, #241
 272 0008 00F00E00 		and	r0, r0, #14
 273              	.LVL4:
 274 000c 1843     		orrs	r0, r0, r3
 275 000e 1070     		strb	r0, [r2]
 276 0010 7047     		bx	lr
 277              	.L6:
 278 0012 00BF     		.align	2
 279              	.L5:
 280 0014 06500040 		.word	1073762310
 281              		.cfi_endproc
 282              	.LFE1:
 283              		.size	SPI_ready_SetDriveMode, .-SPI_ready_SetDriveMode
 284              		.section	.text.SPI_ready_Read,"ax",%progbits
 285              		.align	2
 286              		.global	SPI_ready_Read
 287              		.thumb
 288              		.thumb_func
 289              		.type	SPI_ready_Read, %function
 290              	SPI_ready_Read:
 291              	.LFB2:
  93:Generated_Source\PSoC5/SPI_ready.c **** }
  94:Generated_Source\PSoC5/SPI_ready.c **** 
  95:Generated_Source\PSoC5/SPI_ready.c **** 
  96:Generated_Source\PSoC5/SPI_ready.c **** /*******************************************************************************
  97:Generated_Source\PSoC5/SPI_ready.c **** * Function Name: SPI_ready_Read
  98:Generated_Source\PSoC5/SPI_ready.c **** ****************************************************************************//**
  99:Generated_Source\PSoC5/SPI_ready.c **** *
 100:Generated_Source\PSoC5/SPI_ready.c **** * \brief Reads the associated physical port (pin status register) and masks 
 101:Generated_Source\PSoC5/SPI_ready.c **** *  the required bits according to the width and bit position of the component
 102:Generated_Source\PSoC5/SPI_ready.c **** *  instance. 
 103:Generated_Source\PSoC5/SPI_ready.c **** *
 104:Generated_Source\PSoC5/SPI_ready.c **** * The pin's status register returns the current logic level present on the 
 105:Generated_Source\PSoC5/SPI_ready.c **** * physical pin.
 106:Generated_Source\PSoC5/SPI_ready.c **** *
 107:Generated_Source\PSoC5/SPI_ready.c **** * \return 
 108:Generated_Source\PSoC5/SPI_ready.c **** *  The current value for the pins in the component as a right justified number.
 109:Generated_Source\PSoC5/SPI_ready.c **** *
 110:Generated_Source\PSoC5/SPI_ready.c **** * \funcusage
 111:Generated_Source\PSoC5/SPI_ready.c **** *  \snippet SPI_ready_SUT.c usage_SPI_ready_Read  
 112:Generated_Source\PSoC5/SPI_ready.c **** *******************************************************************************/
ARM GAS  C:\Users\JEFFSN~1\AppData\Local\Temp\ccQQDS13.s 			page 18


 113:Generated_Source\PSoC5/SPI_ready.c **** uint8 SPI_ready_Read(void)
 114:Generated_Source\PSoC5/SPI_ready.c **** {
 292              		.loc 1 114 0
 293              		.cfi_startproc
 294              		@ args = 0, pretend = 0, frame = 0
 295              		@ frame_needed = 0, uses_anonymous_args = 0
 296              		@ link register save eliminated.
 115:Generated_Source\PSoC5/SPI_ready.c ****     return (SPI_ready_PS & SPI_ready_MASK) >> SPI_ready_SHIFT;
 297              		.loc 1 115 0
 298 0000 024B     		ldr	r3, .L8
 299 0002 1878     		ldrb	r0, [r3]	@ zero_extendqisi2
 116:Generated_Source\PSoC5/SPI_ready.c **** }
 300              		.loc 1 116 0
 301 0004 C0F38010 		ubfx	r0, r0, #6, #1
 302 0008 7047     		bx	lr
 303              	.L9:
 304 000a 00BF     		.align	2
 305              	.L8:
 306 000c 01510040 		.word	1073762561
 307              		.cfi_endproc
 308              	.LFE2:
 309              		.size	SPI_ready_Read, .-SPI_ready_Read
 310              		.section	.text.SPI_ready_ReadDataReg,"ax",%progbits
 311              		.align	2
 312              		.global	SPI_ready_ReadDataReg
 313              		.thumb
 314              		.thumb_func
 315              		.type	SPI_ready_ReadDataReg, %function
 316              	SPI_ready_ReadDataReg:
 317              	.LFB3:
 117:Generated_Source\PSoC5/SPI_ready.c **** 
 118:Generated_Source\PSoC5/SPI_ready.c **** 
 119:Generated_Source\PSoC5/SPI_ready.c **** /*******************************************************************************
 120:Generated_Source\PSoC5/SPI_ready.c **** * Function Name: SPI_ready_ReadDataReg
 121:Generated_Source\PSoC5/SPI_ready.c **** ****************************************************************************//**
 122:Generated_Source\PSoC5/SPI_ready.c **** *
 123:Generated_Source\PSoC5/SPI_ready.c **** * \brief Reads the associated physical port's data output register and masks 
 124:Generated_Source\PSoC5/SPI_ready.c **** *  the correct bits according to the width and bit position of the component 
 125:Generated_Source\PSoC5/SPI_ready.c **** *  instance. 
 126:Generated_Source\PSoC5/SPI_ready.c **** *
 127:Generated_Source\PSoC5/SPI_ready.c **** * The data output register controls the signal applied to the physical pin in 
 128:Generated_Source\PSoC5/SPI_ready.c **** * conjunction with the drive mode parameter. This is not the same as the 
 129:Generated_Source\PSoC5/SPI_ready.c **** * preferred SPI_ready_Read() API because the 
 130:Generated_Source\PSoC5/SPI_ready.c **** * SPI_ready_ReadDataReg() reads the data register instead of the status 
 131:Generated_Source\PSoC5/SPI_ready.c **** * register. For output pins this is a useful function to determine the value 
 132:Generated_Source\PSoC5/SPI_ready.c **** * just written to the pin.
 133:Generated_Source\PSoC5/SPI_ready.c **** *
 134:Generated_Source\PSoC5/SPI_ready.c **** * \return 
 135:Generated_Source\PSoC5/SPI_ready.c **** *  The current value of the data register masked and shifted into a right 
 136:Generated_Source\PSoC5/SPI_ready.c **** *  justified number for the component instance.
 137:Generated_Source\PSoC5/SPI_ready.c **** *
 138:Generated_Source\PSoC5/SPI_ready.c **** * \funcusage
 139:Generated_Source\PSoC5/SPI_ready.c **** *  \snippet SPI_ready_SUT.c usage_SPI_ready_ReadDataReg 
 140:Generated_Source\PSoC5/SPI_ready.c **** *******************************************************************************/
 141:Generated_Source\PSoC5/SPI_ready.c **** uint8 SPI_ready_ReadDataReg(void)
 142:Generated_Source\PSoC5/SPI_ready.c **** {
 318              		.loc 1 142 0
ARM GAS  C:\Users\JEFFSN~1\AppData\Local\Temp\ccQQDS13.s 			page 19


 319              		.cfi_startproc
 320              		@ args = 0, pretend = 0, frame = 0
 321              		@ frame_needed = 0, uses_anonymous_args = 0
 322              		@ link register save eliminated.
 143:Generated_Source\PSoC5/SPI_ready.c ****     return (SPI_ready_DR & SPI_ready_MASK) >> SPI_ready_SHIFT;
 323              		.loc 1 143 0
 324 0000 024B     		ldr	r3, .L11
 325 0002 1878     		ldrb	r0, [r3]	@ zero_extendqisi2
 144:Generated_Source\PSoC5/SPI_ready.c **** }
 326              		.loc 1 144 0
 327 0004 C0F38010 		ubfx	r0, r0, #6, #1
 328 0008 7047     		bx	lr
 329              	.L12:
 330 000a 00BF     		.align	2
 331              	.L11:
 332 000c 00510040 		.word	1073762560
 333              		.cfi_endproc
 334              	.LFE3:
 335              		.size	SPI_ready_ReadDataReg, .-SPI_ready_ReadDataReg
 336              		.text
 337              	.Letext0:
 338              		.file 2 "Generated_Source\\PSoC5\\cytypes.h"