ARM GAS  C:\Users\JEFFSN~1\AppData\Local\Temp\ccitsnIn.s 			page 1


   1              		.syntax unified
   2              		.cpu cortex-m3
   3              		.fpu softvfp
   4              		.eabi_attribute 20, 1
   5              		.eabi_attribute 21, 1
   6              		.eabi_attribute 23, 3
   7              		.eabi_attribute 24, 1
   8              		.eabi_attribute 25, 1
   9              		.eabi_attribute 26, 1
  10              		.eabi_attribute 30, 2
  11              		.eabi_attribute 34, 1
  12              		.eabi_attribute 18, 4
  13              		.thumb
  14              		.syntax unified
  15              		.file	"SPIM_2_PM.c"
  16              		.text
  17              	.Ltext0:
  18              		.section	.gnu.lto_.profile.47c7cfd,"",%progbits
  19 0000 789C6361 		.ascii	"x\234ca`d`a`\000\222\272|\000\000\322\000F"
  19      60646061 
  19      600092BA 
  19      7C0000D2 
  19      0046
  20              		.text
  21              		.section	.gnu.lto_.icf.47c7cfd,"",%progbits
  22 0000 789C6361 		.ascii	"x\234ca`d\000\001\005\006\004`eX?\363A\013\023#\230"
  22      60640001 
  22      05060460 
  22      65583FF3 
  22      410B1323 
  23 0015 646ABAF5 		.ascii	"dj\272\365\247\203\203\371\354\207\215\2378X\016]<\266"
  23      A78383F9 
  23      EC878D9F 
  23      38580E5D 
  23      3CB6
  24 0027 90870100 		.ascii	"\220\207\001\000\361\304\016\347"
  24      F1C40EE7 
  25              		.text
  26              		.section	.gnu.lto_.jmpfuncs.47c7cfd,"",%progbits
  27 0000 789C6361 		.ascii	"x\234ca`d\000\001A\006\004`\001b\240(\023\224\311\300"
  27      60640001 
  27      41060460 
  27      0162A028 
  27      1394C9C0 
  28 0014 00000346 		.ascii	"\000\000\003F\000\""
  28      0022
  29              		.text
  30              		.section	.gnu.lto_.inline.47c7cfd,"",%progbits
  31 0000 789C6361 		.ascii	"x\234ca`d\000\201h\006\004`a``fbd`\0022\331\026\310"
  31      60640081 
  31      68060460 
  31      61606066 
  31      62646002 
  32 0018 8328A022 		.ascii	"\203(\240\"t\021&\006\016\001\240\010\307\001;\204\""
  32      74112606 
  32      0E01A008 
  32      C7013B84 
ARM GAS  C:\Users\JEFFSN~1\AppData\Local\Temp\ccitsnIn.s 			page 2


  32      22
  33 0029 2EB0660E 		.ascii	".\260f\016a\2408\333\007=Tq0\301\000\000\0341\006\034"
  33      61A038DB 
  33      073D5471 
  33      30C10000 
  33      1C31061C 
  34              		.text
  35              		.section	.gnu.lto_.pureconst.47c7cfd,"",%progbits
  36 0000 789C6361 		.ascii	"x\234ca`d\340d```a\0002\230\244X$\000\001y\000L"
  36      6064E064 
  36      60606061 
  36      003298A4 
  36      58240001 
  37              		.text
  38              		.section	.gnu.lto_SPIM_2_SaveConfig.47c7cfd,"",%progbits
  39 0000 789C6361 		.ascii	"x\234ca`d\000\201j V\005bi fdf`d\232p\216\201\241\221"
  39      60640081 
  39      6A205605 
  39      62692066 
  39      64666064 
  40 001a 83899111 		.ascii	"\203\211\221\021\304h\340`d\250gb\254g\374\312\364\227"
  40      C468E060 
  40      64A86762 
  40      AC67FCCA 
  40      F497
  41 002c 89F150FB 		.ascii	"\211\361P\373\263\235L\232\313\033\200\340\301\322i"
  41      B39D4C9A 
  41      CB1B80E0 
  41      C1D269
  42 003b CC0D2B0E 		.ascii	"\314\015+\0160\266230\374g\002\233\304\300\270\234Q"
  42      30B63233 
  42      30FC6702 
  42      9BC4C0B8 
  42      9C51
  43 004d 9301A8EC 		.ascii	"\223\001\250\354\321\306\177Sy\331Z@\312\024 \222\214"
  43      D1C67F53 
  43      79D95A40 
  43      CA142092 
  43      8C
  44 005e 2B18D940 		.ascii	"+\030\331@\326\255\017:\320\360\377\177s\303\201\255"
  44      D6AD0F3A 
  44      D0F0FF7F 
  44      73C381AD 
  45 006e AC1F9980 		.ascii	"\254\037\231\200\022\037\200\030d\015\210\003\244\231"
  45      121F8018 
  45      640D8803 
  45      A499
  46 007c 5F313281 		.ascii	"_12\201\224\202M\373\300\304\010\022\003\252PvO\315"
  46      94824DFB 
  46      C0C40812 
  46      03AA5076 
  46      4FCD
  47 008e 4B2D4A2C 		.ascii	"K-J,IM\211\017\316/-JN\215\011\010\316w6\215\011\016"
  47      494D890F 
  47      CE2F2D4A 
  47      4E8D0908 
  47      CE77368D 
ARM GAS  C:\Users\JEFFSN~1\AppData\Local\Temp\ccitsnIn.s 			page 3


  48 00a4 F0F48D37 		.ascii	"\360\364\2157\212\017\360\325Kf\000\000\377\3558\240"
  48      8A0FF0D5 
  48      4B660000 
  48      FFED38A0 
  49              		.text
  50              		.section	.gnu.lto_SPIM_2_RestoreConfig.47c7cfd,"",%progbits
  51 0000 789C6361 		.ascii	"x\234ca`d\000\201j V\005bi fdf`d\232p\216\201\241\221"
  51      60640081 
  51      6A205605 
  51      62692066 
  51      64666064 
  52 001a 83899111 		.ascii	"\203\211\221\021\304h\340`d\250gb\254g\374\312\364\227"
  52      C468E060 
  52      64A86762 
  52      AC67FCCA 
  52      F497
  53 002c 89F150FB 		.ascii	"\211\361P\373\263\235L\232\313\033\200\340\301\322\371"
  53      B39D4C9A 
  53      CB1B80E0 
  53      C1D2F9
  54 003b CC0D2B0E 		.ascii	"\314\015+\0160\266230\374g\002\233\304\300\270\234Q"
  54      30B63233 
  54      30FC6702 
  54      9BC4C0B8 
  54      9C51
  55 004d 9301A8EC 		.ascii	"\223\001\250\354\321\306\177Sy\331Z@\312\024 \222\214"
  55      D1C67F53 
  55      79D95A40 
  55      CA142092 
  55      8C
  56 005e 2B18D940 		.ascii	"+\030\331@\326\255\017:\320\360\377\177s\303\201\277"
  56      D6AD0F3A 
  56      D0F0FF7F 
  56      73C381BF 
  57 006e AC0B7980 		.ascii	"\254\013y\200\022\037\200\030d\315G&&\020\315\374\212"
  57      121F8018 
  57      64CD4726 
  57      2610CDFC 
  57      8A
  58 007f 9109A414 		.ascii	"\221\011\244\024l\332\007&F\220\030P\205\262{j^jQbI"
  58      6CDA0726 
  58      46901850 
  58      85B27B6A 
  58      5E6A5162 
  59 0094 6A4A7C70 		.ascii	"jJ|p~iQrjL@p\276\263iLp\200\247o\274Q|\200\257^2\003"
  59      7E695172 
  59      6A4C4070 
  59      BEB3694C 
  59      7080A76F 
  60 00b0 00061E38 		.ascii	"\000\006\0368\253"
  60      AB
  61              		.text
  62              		.section	.gnu.lto_SPIM_2_Sleep.47c7cfd,"",%progbits
  63 0000 789C6550 		.ascii	"x\234eP=K\\Q\020\235s\357\333\267\253Q\260WP\010\026"
  63      3D4B5C51 
  63      109D73EF 
  63      DBB7AB51 
ARM GAS  C:\Users\JEFFSN~1\AppData\Local\Temp\ccitsnIn.s 			page 4


  63      B0575008 
  64 0015 362A017F 		.ascii	"6*\001\177\201\240\244\020\026\027;a\021\335VAb\275"
  64      81A0A410 
  64      16173B61 
  64      11DD5641 
  64      62BD
  65 0027 777D3E8C 		.ascii	"w}>\214\012b\023-D\254\304oWE\304\355^V\261\211$ 1\205"
  65      0A62132D 
  65      44ACC46F 
  65      5745C4ED 
  65      5E56B189 
  66 003f 066202D9 		.ascii	"\006b\002\331\210Z\254A\013?\2373\3575\202\003\367\316"
  66      885AAC41 
  66      0B3F9F33 
  66      EF358203 
  66      F7CE
  67 0051 9D9973E7 		.ascii	"\235\231s\347\034\216E \211cN\265\234+\371@\023\324"
  67      1C8E4520 
  67      89634EB5 
  67      9C2BF940 
  67      13D4
  68 0063 C457A24C 		.ascii	"\304W\242LL\001\36201PZ!\215\033\365\250\220\037.\344"
  68      4C01F230 
  68      31505A21 
  68      8D1BF5A8 
  68      901F2EE4 
  69 0077 54DDBCE1 		.ascii	"T\335\274\3418\375{\321h\026<\270\232\310W\301&\302"
  69      38FD7BD1 
  69      68163CB8 
  69      9AC857C1 
  69      26C2
  70 0089 3CEA8861 		.ascii	"<\352\210a\1776\236>\225\333C\002\253\011\207X\200-"
  70      7F369E3E 
  70      95DB4302 
  70      AB098758 
  70      802D
  71 009b 74D976CF 		.ascii	"t\331v\317\370\276c\274+\373\363\235\315\273]\315\234"
  71      F8BE63BC 
  71      2BFBF39D 
  71      CDBB5DCD 
  71      9C
  72 00ac 7C597CA9 		.ascii	"|Y|\251\210\274\210\212\374C\270\257\224\222\254\013"
  72      88BC888A 
  72      FC43B8AF 
  72      9492AC0B 
  73 00bc C8DF8DFE 		.ascii	"\310\337\215\376\230\336\202lq\264f\206I7\377-z\255"
  73      98DE826C 
  73      71B46686 
  73      4937FF2D 
  73      7AAD
  74 00ce 5CCD782E 		.ascii	"\\\315x.\217~\371\377\354\260\234\372\2221\026\267\306"
  74      8F7EF9FF 
  74      ECB09CFA 
  74      923116B7 
  74      C6
  75 00df 7EEECE95 		.ascii	"~\356\316\225\315b&3\304\022-,\241\012\213\250b%\313"
  75      CD622633 
ARM GAS  C:\Users\JEFFSN~1\AppData\Local\Temp\ccitsnIn.s 			page 5


  75      C4122D2C 
  75      A10A8BA8 
  75      6225CB
  76 00f2 980515E0 		.ascii	"\230\005\025\340<\264\220\243\021\256;,\036\314\274"
  76      3CB490A3 
  76      11AE3B2C 
  76      1ECCBC
  77 0101 91FF4005 		.ascii	"\221\377@\005V\030\306\363\355\341\357VHh1\216A\331"
  77      5618C6F3 
  77      EDE1EF56 
  77      4868318E 
  77      41D9
  78 0113 CBDC6D79 		.ascii	"\313\334my\010\"\254\006\240\301\377\321\020\022a\224"
  78      0822AC06 
  78      A0C1FFD1 
  78      10126194 
  79 0123 D493BFAB 		.ascii	"\324\223\277\253\245\361Ra$P\230\313]\236D\323\217\346"
  79      A5F15261 
  79      245098CB 
  79      5D9E44D3 
  79      8FE6
  80 0135 A33115DC 		.ascii	"\2431\025\334\033a\327\244}~p\264W**M\320\267\221e\253"
  80      1B61D7A4 
  80      7D7E70B4 
  80      572A2A4D 
  80      D0B79165 
  81 014a D744270F 		.ascii	"\327D'\017\307w\326Gb\015\253b\243\351pu\024\353,\375"
  81      C777D647 
  81      620DAB62 
  81      A3E97075 
  81      14EB2CFD 
  82 015e 29F01A1B 		.ascii	")\360\032\033h`V:\203\343\335\356+\341|\315\022\363"
  82      6860563A 
  82      83E3DDEE 
  82      2BE17CCD 
  82      12F3
  83 0170 15BB894D 		.ascii	"\025\273\211M\244\331\327\022:\307\240w\337\022@%\212"
  83      A4D9D712 
  83      3AC7A077 
  83      DF124025 
  83      8A
  84 0181 3C647779 		.ascii	"<dwy\335\333\326To\252\277\353C\252'\231\350\033\350"
  84      DDDBD654 
  84      6FAABFEB 
  84      43AA2799 
  84      E81BE8
  85 0194 EF4E75C6 		.ascii	"\357Nu\306\023}\315M\235\211\370\373\266\344\273d\274"
  85      137DCD4D 
  85      9D89F8FB 
  85      B6E4BB64 
  85      BC
  86 01a5 ADBE9B9E 		.ascii	"\255\276\233\236\001v+\256\377"
  86      01762BAE 
  86      FF
  87              		.text
  88              		.section	.gnu.lto_SPIM_2_backup.47c7cfd,"",%progbits
  89 0000 789C6361 		.ascii	"x\234ca`d\000\001g \206\260\030\030\37621\256\373\364"
ARM GAS  C:\Users\JEFFSN~1\AppData\Local\Temp\ccitsnIn.s 			page 6


  89      60640001 
  89      672086B0 
  89      1818FE32 
  89      31AEFBF4 
  90 0014 651DDB17 		.ascii	"e\035\333\027\246Vf\006F~ w\375\233\235?y!\\\220\354"
  90      A6566606 
  90      467E2077 
  90      FD9B9D3F 
  90      79215C90 
  91 0029 9E398BAF 		.ascii	"\2369\213\2573Zlk\350X\320\240\320\312\314\370\217\211"
  91      335A6C6B 
  91      E858D0A0 
  91      D0CACCF8 
  91      8F89
  92 003b 817105A3 		.ascii	"\201q\005\243\314?&F\306\345\2142\014\214+\031-\030"
  92      CC3F2646 
  92      C6E58C32 
  92      0C8C2B19 
  92      2D18
  93 004d 00BFD917 		.ascii	"\000\277\331\027\372"
  93      FA
  94              		.text
  95              		.section	.gnu.lto_SPIM_2_Wakeup.47c7cfd,"",%progbits
  96 0000 789C754F 		.ascii	"x\234uO\277K\202Q\024\275\347\275\347\247\210A\177@"
  96      BF4B8251 
  96      14BDE7BD 
  96      E7A78841 
  96      7F40
  97 0012 48100D0D 		.ascii	"H\020\015\015eD\375\005\015Q\020H\256\202D\271\026H"
  97      6544FD05 
  97      0D511048 
  97      AE8244B9 
  97      1648
  98 0024 CD3ED38F 		.ascii	"\315>\323\217j\211\226\332\242Q\373i\266\224N_\321$"
  98      6A8996DA 
  98      A251FB69 
  98      B6944E5F 
  98      D124
  99 0036 9104D5E2 		.ascii	"\221\004\325\342R\015\022\341PPC\204~\335\367\0254D"
  99      520D12E1 
  99      50504384 
  99      7EDDF715 
  99      3444
 100 0048 171EF771 		.ascii	"\027\036\367q\3569\367\334\243\010d*\303\255\227\373"
 100      EE39F7DC 
 100      A308642A 
 100      C3AD97FB 
 101 0058 303FF808 		.ascii	"0?\370\010b\375\212\301\200\020\262\022&\035Tw\021\322"
 101      62FD8AC1 
 101      8010B212 
 101      261D5477 
 101      11D2
 102 006a 2109F50D 		.ascii	"!\011\365\015+\300|t\000\224\026R!\215w\321\0228_n\224"
 102      2BC07C74 
 102      00941652 
 102      218D77D1 
 102      12385F6E 
ARM GAS  C:\Users\JEFFSN~1\AppData\Local\Temp\ccitsnIn.s 			page 7


 103 007f 455F5E73 		.ascii	"E_^s\335\333\356\240.8\260%\221+<\013B\036}\304\264"
 103      DDDBEEA0 
 103      2E38B025 
 103      912B3C0B 
 103      421E7DC4 
 104 0094 C7527BA3 		.ascii	"\307R{\243\303\312\031Z\367\367\020\005X\346\216\342"
 104      C3CA195A 
 104      F7F71005 
 104      58E68EE2 
 105 00a4 94A35D37 		.ascii	"\224\243]7\253\235O\377\331M\320RdK\206_\230b\354^\205"
 105      AB9D4FFF 
 105      D94DD052 
 105      644B865F 
 105      9862EC5E 
 106 00b9 305D3E21 		.ascii	"0]>!\353\234T\205\021\231u\345r\263\356O\267\364\212"
 106      EB9C5485 
 106      119975E5 
 106      72B3EE4F 
 106      B7F48A
 107 00cc D69DB614 		.ascii	"\326\235\266\024\256`\011v\220f\261\244\006\226*\245"
 107      AE600976 
 107      9066B1A4 
 107      06962AA5 
 108 00dc DAB1DF90 		.ascii	"\332\261\337\220\263R1}\323>\257\371\337\204\315g\377"
 108      B352317D 
 108      D33EAFF9 
 108      DF84CD67 
 108      FF
 109 00ed 55AB55BE 		.ascii	"U\253U\276\327\300\317\227\267\027\301mle\264\207\373"
 109      D7C0CF97 
 109      B717C16D 
 109      6C65B487 
 109      FB
 110 00fe B0C72177 		.ascii	"\260\307!w\321\345\015\327N\217V\003\221~[Z\330\307"
 110      D1E50DD7 
 110      4E8F5603 
 110      917E5B5A 
 110      D8C7
 111 0110 36DA5E3E 		.ascii	"6\332^>\034 B\017\310\325\263\341_\263b\263\374\321"
 111      1C20420F 
 111      C8D5B3E1 
 111      5FB362B3 
 111      FCD1
 112 0122 61CC00C2 		.ascii	"a\314\000\302\241\221\223\311!\251\022\366b\\WC\377"
 112      A19193C9 
 112      21A912F6 
 112      625C5743 
 112      FF
 113 0133 C6E0AD28 		.ascii	"\306\340\255(\376\3040\"\345\205\177\306\222s;\341\211"
 113      FEC43022 
 113      E5857FC6 
 113      92733BE1 
 113      89
 114 0144 4CBD705A 		.ascii	"L\275pZ\206\231\3333\226\234K\246\246\027\222\263\211"
 114      8699DB33 
 114      969C4BA6 
 114      A61792B3 
ARM GAS  C:\Users\JEFFSN~1\AppData\Local\Temp\ccitsnIn.s 			page 8


 114      89
 115 0155 D8FC626A 		.ascii	"\330\374bj&\031\217\306\346GG\342\261\350\370db(\021"
 115      26198FC6 
 115      E64747E2 
 115      B1E8F864 
 115      622811
 116 0168 9D1C98A1 		.ascii	"\235\034\230\241/\336\331\225\215"
 116      2FDED995 
 116      8D
 117              		.text
 118              		.section	.gnu.lto_.symbol_nodes.47c7cfd,"",%progbits
 119 0000 789C558A 		.ascii	"x\234U\212\273\025@P\020Dg\177O\256\002z\320\337\276"
 119      BB154050 
 119      1044677F 
 119      4FAE027A 
 119      D0DFBE
 120 0013 4001121D 		.ascii	"@\001\022\035hA\"\026\253\201F\034Kd'\231s\357\214\202"
 120      68412216 
 120      AB81461C 
 120      4B642799 
 120      73EF8C82 
 121 0027 3023C2E4 		.ascii	"0#\302\344\300t\000Q[\355C\260S\026\342\234\204\001"
 121      C0740051 
 121      5BED43B0 
 121      5316E29C 
 121      8401
 122 0039 B50584D5 		.ascii	"\265\005\204\325%\015d\256\237\210C\355\202\033\267"
 122      250D64AE 
 122      9F8843ED 
 122      821BB7
 123 0048 C4C5CB9F 		.ascii	"\304\305\313\237\205\015\373u\223h\203\345|\273`\\\007"
 123      850DFB75 
 123      936883E5 
 123      7CBB605C 
 123      07
 124 0059 3C36461F 		.ascii	"<6F\037\375"
 124      FD
 125              		.text
 126              		.section	.gnu.lto_.refs.47c7cfd,"",%progbits
 127 0000 789C6361 		.ascii	"x\234ca`d\340f```dbdfeda`fb\000\000\001\237\000'"
 127      6064E066 
 127      60606064 
 127      62646665 
 127      64616066 
 128              		.text
 129              		.section	.gnu.lto_.decls.47c7cfd,"",%progbits
 130 0000 789C8D54 		.ascii	"x\234\215T]L\\E\024\276\347\336\205\205e\241X\032\303"
 130      5D4C5C45 
 130      14BEE7DE 
 130      858565A1 
 130      581AC3
 131 0013 C33EAC95 		.ascii	"\303>\254\225&\230\030\2246&<\332nJmL-\351\002\2764"
 131      26981894 
 131      36263CDA 
 131      6E4A6D4C 
 131      2DE902BE 
 132 0028 C1855E2B 		.ascii	"\301\205^+)aa\273\230\364m\240Tl\023e\241\001\013\242"
ARM GAS  C:\Users\JEFFSN~1\AppData\Local\Temp\ccitsnIn.s 			page 9


 132      296161BB 
 132      98F46DA0 
 132      546C1365 
 132      A1010BA2 
 133 003c 50544A29 		.ascii	"PTJ)\260\313?\264VW~\313\317\362S(\204\324(\021\214"
 133      B0CB3FB4 
 133      56577ECB 
 133      CFF25328 
 133      84D42811 
 134 0051 212909C4 		.ascii	"!)\011\304*\266X\3273s\347r\227f1N8\313\234{\277\357"
 134      2AB658D7 
 134      3373E772 
 134      9766314E 
 134      38CB9C7B 
 135 0067 3BDFCC9C 		.ascii	";\337\314\234;:\001\004:\246B\005\341\025\234\346`\370"
 135      3B3A0104 
 135      3AA64205 
 135      E1159CE6 
 135      60F8
 136 0079 71602AA4 		.ascii	"q`*\244\013\332\320c\264`\2701\3320:0\2720z0\3720\250"
 136      0BDAD063 
 136      B460B831 
 136      DA303A30 
 136      BA307A30 
 137 0090 CAB8B073 		.ascii	"\312\270\260s\264\360\347\252\016\360g\317\017w\020"
 137      B4F0E7AA 
 137      0EF067CF 
 137      0F7710
 138 009f 9C3B088E 		.ascii	"\234;\010\216\3265p\234\011\303\207\361\000c\026c\036"
 138      D635709C 
 138      09C387F1 
 138      00631663 
 138      1E
 139 00b0 6314A31F 		.ascii	"c\024\243\037c\001\243\231\353\014b\210\234\333\265"
 139      6301A399 
 139      EB0C6288 
 139      9CDBB5
 140 00bf 8BCF718E 		.ascii	"\213\317q\2161q\015\221\363\206\202x\020\370\332\365"
 140      31710D91 
 140      F3868278 
 140      10F8DAF5 
 141 00cf 013ED47A 		.ascii	"\001>\324z\201\036\324\332\022\307\323=\352\331\245"
 141      811ED4DA 
 141      12C7D33D 
 141      EAD9A5
 142 00de FE3311FC 		.ascii	"\3763\021\374\265\235\245a\017a\021$\201\037\210\000"
 142      B59DA561 
 142      0F611124 
 142      811F8800 
 143 00ee A0FC020B 		.ascii	"\240\374\002\013A\011\226\342D\024\224\211\372h{\010"
 143      410996E2 
 143      44149489 
 143      FA687B08 
 144 00fe 1C22AA53 		.ascii	"\034\"\252SM\214\375q>\370\325\301D4u\340$%W\317\203"
 144      4D8CFD71 
 144      3EF8D5C1 
 144      443475E0 
ARM GAS  C:\Users\JEFFSN~1\AppData\Local\Temp\ccitsnIn.s 			page 10


 144      242557CF 
 145 0113 9340D40A 		.ascii	"\223@\324\012\200\222\252\214\000\275\347\034\251\236"
 145      8092AA8C 
 145      00BDE71C 
 145      A99E
 146 0121 D5326C7B 		.ascii	"\3252l{\331\242kjo\375\035)\211@\347??iLNh&8\\\204\210"
 146      D9A26B6A 
 146      6FFD1D29 
 146      8940E73F 
 146      3F694C4E 
 147 013b AF6A3B33 		.ascii	"\257j;3S\354\251\221\036\213\260\327\000:L7|\325\313"
 147      53ECA991 
 147      1E8BB0D7 
 147      003A4C37 
 147      7CD5CB
 148 014e 5198EE33 		.ascii	"Q\230\3563\200\031\323g\243\237W\213\261\225\214w\221"
 148      8019D367 
 148      A39F578B 
 148      B1958C77 
 148      91
 149 015f 987590FE 		.ascii	"\230u\220\376\"\334\002\0234\001\036\0144C,\376f\352"
 149      22DC0213 
 149      34011E0C 
 149      34432CFE 
 149      66EA
 150 0171 14A5A9F9 		.ascii	"\024\245\251\371?\007\215\373\353\210\307C\226\266V"
 150      3F078DFB 
 150      EB88C743 
 150      96B656
 151 0180 0E56116F 		.ascii	"\016V\021o1\322D\212\202F\220\340&$P\223\215\364\014"
 151      31D2448A 
 151      824690E0 
 151      26245093 
 151      8DF40C
 152 0193 04B8010F 		.ascii	"\004\270\001\017\321o\013\354\247U\352\026\352\302\245"
 152      D16F0BEC 
 152      A755EA16 
 152      EAC2A5
 153 01a2 C3CC68D7 		.ascii	"\303\314h\327\265\365\006\256\342}*\223\313(\241c\022"
 153      B5F506AE 
 153      E27D2A93 
 153      CB28A163 
 153      12
 154 01b3 AD9A446B 		.ascii	"\255\232Dk\240\204\233I\3146}:\031!\245+\022\277\214"
 154      A0849B49 
 154      CC367D3A 
 154      1921A52B 
 154      12BF8C
 155 01c6 AD44A144 		.ascii	"\255D\241D\035J\3744l$\256BB\336d\032\036M\303\023\250"
 155      1D4AFC34 
 155      6C24AE42 
 155      42DE641A 
 155      1E4DC313 
 156 01db D1C63456 		.ascii	"\321\3064V7.?\325KYLcs\361\221\304%\376\032\011\224"
 156      372E3FD5 
 156      4B594C63 
 156      73F191C4 
ARM GAS  C:\Users\JEFFSN~1\AppData\Local\Temp\ccitsnIn.s 			page 11


 156      25FE1A09 
 157 01f0 68D724DA 		.ascii	"h\327$\332\003%:\230\304\365\356\265\022\275\224\317"
 157      03253A98 
 157      C4F5EEB5 
 157      12BD94CF 
 158 0200 24C66B3E 		.ascii	"$\306k>\351\245+Y\"\270\037%'7\332Iq8\223\350\324$:"
 158      E9A52B59 
 158      22B81F25 
 158      2737DA49 
 158      713893E8 
 159 0217 99044EBA 		.ascii	"\231\004N\272\030}\255\3367\260G\372\022\224#\333,\275"
 159      187DADDE 
 159      37B047FA 
 159      129423DB 
 159      2CBD
 160 0229 13AEF0BD 		.ascii	"\023\256\360\275\275\303F\257\013\030\273[cw\253\354"
 160      BDC346AF 
 160      0B18BB5B 
 160      6377ABEC 
 161 0239 1EC6EEBA 		.ascii	"\036\306\356\272\261^\024.5+\354\211\253\323\205\274"
 161      B15E142E 
 161      352BEC89 
 161      ABD385BC 
 162 0249 BAB76664 		.ascii	"\272\267fd\233\335\253\261{Uv\037c\267\217\016\224\352"
 162      9BDDABB1 
 162      7B55761F 
 162      63B78F0E 
 162      94EA
 163 025b A4BB0A7B 		.ascii	"\244\273\012{\310\277\351\335\243t\205\210\351\375\365"
 163      C8BFE9DD 
 163      A3748588 
 163      E9FDF5
 164 026a 892F2294 		.ascii	"\211/\"\224\256\210\306\264\277\362\3079\2434\256@\335"
 164      AE88C6B4 
 164      BFF2C739 
 164      A334AE40 
 164      DD
 165 027b 97566E86 		.ascii	"\227Vn\206\341;\223\001\374@\363G}O\"\225\234\276\256"
 165      E13B9301 
 165      FC40F347 
 165      7D4F2295 
 165      9CBEAE
 166 028e 2A5BFE27 		.ascii	"*[\376'BZ`Xqv\371\326\252\016\342\015\015\264\241\226"
 166      425A6058 
 166      7176F9D6 
 166      AA0EE20D 
 166      0DB4A196 
 167 02a2 B626733E 		.ascii	"\266&s>+\241\035\322\017\006\360j\306L\364\022\372\230"
 167      2BA11DD2 
 167      0F06F06A 
 167      C64CF412 
 167      FA98
 168 02b4 9022B25E 		.ascii	"\220\"\262^OBc\0058d\202\327M\002\374\000\361T\225\242"
 168      4F426305 
 168      386482D7 
 168      4D02FC00 
 168      F15495A2 
ARM GAS  C:\Users\JEFFSN~1\AppData\Local\Temp\ccitsnIn.s 			page 12


 169 02c8 E07B6CC2 		.ascii	"\340{l\302\357\260\011\261\302c\327G\315 \371Y\005\335"
 169      EFB009B1 
 169      C263D747 
 169      CD20F959 
 169      05DD
 170 02da 1FF5332E 		.ascii	"\037\3653.\003\304\305\305\307\324S\001\334\370\243"
 170      03C4C5C5 
 170      C7D45301 
 170      DCF8A3
 171 02e9 6DCB9788 		.ascii	"m\313\227\210\347=V\344.\026\031\201\030U\3605\332\304"
 171      E73D56E4 
 171      2E161981 
 171      1855F035 
 171      DAC4
 172 02fb 89F48A61 		.ascii	"\211\364\212a`o\345p\204\212\034\010\202<D\221\314\272"
 172      606FE570 
 172      848A1C08 
 172      823C4491 
 172      CCBA
 173 030d B70CDB8A 		.ascii	"\267\014\333\212\204Q\204\300]\323Q\306\276\023/!\220"
 173      845184C0 
 173      5DD351C6 
 173      BE132F21 
 173      90
 174 031e 2FC0B7E8 		.ascii	"/\300\267\350\360\016\373L\250\016\202`\030\375\017"
 174      F00EFB4C 
 174      A80E8260 
 174      18FD0F
 175 032d 421C0C41 		.ascii	"B\034\014A\234\372\365\225\227\270\222\244+\354\023"
 175      9CFAF595 
 175      97B892A4 
 175      2BEC13
 176 033c 15BB6F97 		.ascii	"\025\273o\227UDAL|P\025\030C\362nB\212\247\252a\240"
 176      5544414C 
 176      7C501518 
 176      43F26E42 
 176      8AA7AA61 
 177 0351 9E461174 		.ascii	"\236F\021tO\333Lj\221\225r\2155\315E\036\370\212\020"
 177      4FDB4C6A 
 177      9195728D 
 177      35CD451E 
 177      F88A10
 178 0364 EC892D4F 		.ascii	"\354\211-O\366UB\336b\330\333\0126\300/}\222\2127\340"
 178      F65542DE 
 178      62D8DB0A 
 178      36C02F7D 
 178      928A37E0 
 179 0378 381C409E 		.ascii	"8\034@\236oh\366\232^\252e\036u+\255\235\363\022\204"
 179      6F68F69A 
 179      5EAA651E 
 179      752BAD9D 
 179      F31284
 180 038b 9B00C110 		.ascii	"\233\000\301\020_\302\316\250\250\316\234\277}F\323"
 180      5FC2CEA8 
 180      A8CE9CBF 
 180      7D46D3
 181 039a 68CD07E1 		.ascii	"h\315\007\341\2502\211\220)\324\253FO\364I5\301#\215"
ARM GAS  C:\Users\JEFFSN~1\AppData\Local\Temp\ccitsnIn.s 			page 13


 181      A8328990 
 181      29D4AB46 
 181      4FF44935 
 181      C1238D
 182 03ad 66D306F5 		.ascii	"f\323\006\365\036\022h\012\023\274\021\251]\314\351"
 182      1E12680A 
 182      13BC11A9 
 182      5DCCE9
 183 03bc 9116FF3E 		.ascii	"\221\026\377>\037j@\374\305\377\327\002\276\325\353"
 183      1F6A40FC 
 183      C5FFD702 
 183      BED5EB
 184 03cb 7EBDF48D 		.ascii	"~\275\364\215\262\217\035\025U\025z0\304\007\241\317"
 184      B28F1D15 
 184      55157A30 
 184      C407A1CF 
 185 03db 05A1ABBD 		.ascii	"\005\241\253\275\230V]^H\3140\213\207\177_\333\276\031"
 185      98565D5E 
 185      48CC308B 
 185      877F5FDB 
 185      BE19
 186 03ed 3028DBD7 		.ascii	"0(\333\3279\275\346\0161^\241+\306\233p\357\275(\206"
 186      39BDE60E 
 186      315EA12B 
 186      C69B70EF 
 186      BD2886
 187 0400 D4EEC207 		.ascii	"\324\356\302\007`d\013\300\377\210^.\377z\021v\240\351"
 187      60640BC0 
 187      FF885E2E 
 187      FF7A1176 
 187      A0E9
 188 0412 566BE879 		.ascii	"Vk\350y\216\236g\350\255_\335\277\031w\240\351\247\252"
 188      8E9E67E8 
 188      AD5FDDBF 
 188      1977A0E9 
 188      A7AA
 189 0424 A117C0A8 		.ascii	"\241\027\300\250\372\301\251\360\2025\345\370\211\214"
 189      FAC1A9F0 
 189      8235E5F8 
 189      898C
 190 0432 831956DB 		.ascii	"\203\031V\333\207\262\305\236\373~\366\331\260c\357"
 190      87B2C59E 
 190      FB7EF6D9 
 190      B063EF
 191 0441 A4992D89 		.ascii	"\244\231-\211\211\302\313\307\344\\\331as\312g2\254"
 191      89C2CBC7 
 191      E45CD961 
 191      73CA6732 
 191      AC
 192 0452 F6024796 		.ascii	"\366\002G\226|:\305j\267\274q\2323RN$d\011\373xrJ>\357"
 192      7C3AC56A 
 192      B7BC719A 
 192      33524E24 
 192      6409FB78 
 193 046a B43BB882 		.ascii	"\264;\270\202Q\325\314\221\345\274H\236\274k;'\027\344"
 193      51D5CC91 
 193      E5BC489E 
ARM GAS  C:\Users\JEFFSN~1\AppData\Local\Temp\ccitsnIn.s 			page 14


 193      BC6B3B27 
 193      17E4
 194 047c 45A8AF9C 		.ascii	"E\250\257\234\366<\363\177\352'| \250\324\243\271\266"
 194      F63CF37F 
 194      EA277C20 
 194      A8D4A3B9 
 194      B6
 195 048d CC1C399A 		.ascii	"\314\0349\232g\226\034\331\346H>\236|R}\235i\313:\207"
 195      67961CD9 
 195      E6483E9E 
 195      7C527D9D 
 195      69CB3A87 
 196 04a1 CA324359 		.ascii	"\3122CY\235(\030R\220\235\353Lzi\027\375\254\013\316"
 196      9D281852 
 196      909DEB4C 
 196      7A6917FD 
 196      AC0BCE
 197 04b4 0B79F279 		.ascii	"\013y\362y,`\310\312u:RdG\266\375\214\272\220#\207-"
 197      2C60C8CA 
 197      753A5264 
 197      47B6FD8C 
 197      BA902387 
 198 04c9 6FA7A564 		.ascii	"o\247\245dXSO\245YRC2\216\330\3559:\207|6\351_d\235"
 198      58534FA5 
 198      59524332 
 198      8ED8ED39 
 198      3A877C36 
 199 04e1 63A6     		.ascii	"c\246"
 200              		.text
 201              		.section	.gnu.lto_.symtab.47c7cfd,"",%progbits
 202 0000 5350494D 		.ascii	"SPIM_2_SaveConfig\000"
 202      5F325F53 
 202      61766543 
 202      6F6E6669 
 202      6700
 203 0012 00       		.ascii	"\000"
 204 0013 00       		.ascii	"\000"
 205 0014 00       		.ascii	"\000"
 206 0015 00000000 		.ascii	"\000\000\000\000\000\000\000\000"
 206      00000000 
 207 001d AD000000 		.ascii	"\255\000\000\000"
 208 0021 5350494D 		.ascii	"SPIM_2_RestoreConfig\000"
 208      5F325F52 
 208      6573746F 
 208      7265436F 
 208      6E666967 
 209 0036 00       		.ascii	"\000"
 210 0037 00       		.ascii	"\000"
 211 0038 00       		.ascii	"\000"
 212 0039 00000000 		.ascii	"\000\000\000\000\000\000\000\000"
 212      00000000 
 213 0041 AF000000 		.ascii	"\257\000\000\000"
 214 0045 5350494D 		.ascii	"SPIM_2_Sleep\000"
 214      5F325F53 
 214      6C656570 
 214      00
 215 0052 00       		.ascii	"\000"
ARM GAS  C:\Users\JEFFSN~1\AppData\Local\Temp\ccitsnIn.s 			page 15


 216 0053 00       		.ascii	"\000"
 217 0054 00       		.ascii	"\000"
 218 0055 00000000 		.ascii	"\000\000\000\000\000\000\000\000"
 218      00000000 
 219 005d B1000000 		.ascii	"\261\000\000\000"
 220 0061 5350494D 		.ascii	"SPIM_2_Wakeup\000"
 220      5F325F57 
 220      616B6575 
 220      7000
 221 006f 00       		.ascii	"\000"
 222 0070 00       		.ascii	"\000"
 223 0071 00       		.ascii	"\000"
 224 0072 00000000 		.ascii	"\000\000\000\000\000\000\000\000"
 224      00000000 
 225 007a B3000000 		.ascii	"\263\000\000\000"
 226 007e 5350494D 		.ascii	"SPIM_2_Stop\000"
 226      5F325F53 
 226      746F7000 
 227 008a 00       		.ascii	"\000"
 228 008b 02       		.ascii	"\002"
 229 008c 00       		.ascii	"\000"
 230 008d 00000000 		.ascii	"\000\000\000\000\000\000\000\000"
 230      00000000 
 231 0095 B5000000 		.ascii	"\265\000\000\000"
 232 0099 5350494D 		.ascii	"SPIM_2_Enable\000"
 232      5F325F45 
 232      6E61626C 
 232      6500
 233 00a7 00       		.ascii	"\000"
 234 00a8 02       		.ascii	"\002"
 235 00a9 00       		.ascii	"\000"
 236 00aa 00000000 		.ascii	"\000\000\000\000\000\000\000\000"
 236      00000000 
 237 00b2 B7000000 		.ascii	"\267\000\000\000"
 238 00b6 5350494D 		.ascii	"SPIM_2_ClearFIFO\000"
 238      5F325F43 
 238      6C656172 
 238      4649464F 
 238      00
 239 00c7 00       		.ascii	"\000"
 240 00c8 02       		.ascii	"\002"
 241 00c9 00       		.ascii	"\000"
 242 00ca 00000000 		.ascii	"\000\000\000\000\000\000\000\000"
 242      00000000 
 243 00d2 B9000000 		.ascii	"\271\000\000\000"
 244              		.text
 245              		.section	.gnu.lto_.opts,"",%progbits
 246 0000 272D666D 		.ascii	"'-fmath-errno' '-fsigned-zeros' '-ftrapping-math' '"
 246      6174682D 
 246      6572726E 
 246      6F272027 
 246      2D667369 
 247 0033 2D666E6F 		.ascii	"-fno-trapv' '-fno-openmp' '-fno-openacc' '-mcpu=cor"
 247      2D747261 
 247      70762720 
 247      272D666E 
 247      6F2D6F70 
ARM GAS  C:\Users\JEFFSN~1\AppData\Local\Temp\ccitsnIn.s 			page 16


 248 0066 7465782D 		.ascii	"tex-m3' '-mthumb' '-g' '-O3' '-ffunction-sections' "
 248      6D332720 
 248      272D6D74 
 248      68756D62 
 248      2720272D 
 249 0099 272D6666 		.ascii	"'-ffat-lto-objects' '-finline-functions' '-flto'\000"
 249      61742D6C 
 249      746F2D6F 
 249      626A6563 
 249      74732720 
 250              		.text
 251              		.cfi_sections	.debug_frame
 252              		.section	.text.SPIM_2_SaveConfig,"ax",%progbits
 253              		.align	2
 254              		.global	SPIM_2_SaveConfig
 255              		.thumb
 256              		.thumb_func
 257              		.type	SPIM_2_SaveConfig, %function
 258              	SPIM_2_SaveConfig:
 259              	.LFB5:
 260              		.cfi_startproc
 261              		@ args = 0, pretend = 0, frame = 0
 262              		@ frame_needed = 0, uses_anonymous_args = 0
 263              		@ link register save eliminated.
 264 0000 7047     		bx	lr
 265              		.cfi_endproc
 266              	.LFE5:
 267              		.size	SPIM_2_SaveConfig, .-SPIM_2_SaveConfig
 268 0002 00BF     		.section	.text.SPIM_2_RestoreConfig,"ax",%progbits
 269              		.align	2
 270              		.global	SPIM_2_RestoreConfig
 271              		.thumb
 272              		.thumb_func
 273              		.type	SPIM_2_RestoreConfig, %function
 274              	SPIM_2_RestoreConfig:
 275              	.LFB1:
 276              		.file 1 "Generated_Source\\PSoC5\\SPIM_2_PM.c"
   1:Generated_Source\PSoC5/SPIM_2_PM.c **** /*******************************************************************************
   2:Generated_Source\PSoC5/SPIM_2_PM.c **** * File Name: SPIM_2_PM.c
   3:Generated_Source\PSoC5/SPIM_2_PM.c **** * Version 2.50
   4:Generated_Source\PSoC5/SPIM_2_PM.c **** *
   5:Generated_Source\PSoC5/SPIM_2_PM.c **** * Description:
   6:Generated_Source\PSoC5/SPIM_2_PM.c **** *  This file contains the setup, control and status commands to support
   7:Generated_Source\PSoC5/SPIM_2_PM.c **** *  component operations in low power mode.
   8:Generated_Source\PSoC5/SPIM_2_PM.c **** *
   9:Generated_Source\PSoC5/SPIM_2_PM.c **** * Note:
  10:Generated_Source\PSoC5/SPIM_2_PM.c **** *
  11:Generated_Source\PSoC5/SPIM_2_PM.c **** ********************************************************************************
  12:Generated_Source\PSoC5/SPIM_2_PM.c **** * Copyright 2008-2015, Cypress Semiconductor Corporation.  All rights reserved.
  13:Generated_Source\PSoC5/SPIM_2_PM.c **** * You may use this file only in accordance with the license, terms, conditions,
  14:Generated_Source\PSoC5/SPIM_2_PM.c **** * disclaimers, and limitations in the end user license agreement accompanying
  15:Generated_Source\PSoC5/SPIM_2_PM.c **** * the software package with which this file was provided.
  16:Generated_Source\PSoC5/SPIM_2_PM.c **** *******************************************************************************/
  17:Generated_Source\PSoC5/SPIM_2_PM.c **** 
  18:Generated_Source\PSoC5/SPIM_2_PM.c **** #include "SPIM_2_PVT.h"
  19:Generated_Source\PSoC5/SPIM_2_PM.c **** 
  20:Generated_Source\PSoC5/SPIM_2_PM.c **** static SPIM_2_BACKUP_STRUCT SPIM_2_backup =
ARM GAS  C:\Users\JEFFSN~1\AppData\Local\Temp\ccitsnIn.s 			page 17


  21:Generated_Source\PSoC5/SPIM_2_PM.c **** {
  22:Generated_Source\PSoC5/SPIM_2_PM.c ****     SPIM_2_DISABLED,
  23:Generated_Source\PSoC5/SPIM_2_PM.c ****     SPIM_2_BITCTR_INIT,
  24:Generated_Source\PSoC5/SPIM_2_PM.c **** };
  25:Generated_Source\PSoC5/SPIM_2_PM.c **** 
  26:Generated_Source\PSoC5/SPIM_2_PM.c **** 
  27:Generated_Source\PSoC5/SPIM_2_PM.c **** /*******************************************************************************
  28:Generated_Source\PSoC5/SPIM_2_PM.c **** * Function Name: SPIM_2_SaveConfig
  29:Generated_Source\PSoC5/SPIM_2_PM.c **** ********************************************************************************
  30:Generated_Source\PSoC5/SPIM_2_PM.c **** *
  31:Generated_Source\PSoC5/SPIM_2_PM.c **** * Summary:
  32:Generated_Source\PSoC5/SPIM_2_PM.c **** *  Empty function. Included for consistency with other components.
  33:Generated_Source\PSoC5/SPIM_2_PM.c **** *
  34:Generated_Source\PSoC5/SPIM_2_PM.c **** * Parameters:
  35:Generated_Source\PSoC5/SPIM_2_PM.c **** *  None.
  36:Generated_Source\PSoC5/SPIM_2_PM.c **** *
  37:Generated_Source\PSoC5/SPIM_2_PM.c **** * Return:
  38:Generated_Source\PSoC5/SPIM_2_PM.c **** *  None.
  39:Generated_Source\PSoC5/SPIM_2_PM.c **** *
  40:Generated_Source\PSoC5/SPIM_2_PM.c **** *******************************************************************************/
  41:Generated_Source\PSoC5/SPIM_2_PM.c **** void SPIM_2_SaveConfig(void) 
  42:Generated_Source\PSoC5/SPIM_2_PM.c **** {
  43:Generated_Source\PSoC5/SPIM_2_PM.c **** 
  44:Generated_Source\PSoC5/SPIM_2_PM.c **** }
  45:Generated_Source\PSoC5/SPIM_2_PM.c **** 
  46:Generated_Source\PSoC5/SPIM_2_PM.c **** 
  47:Generated_Source\PSoC5/SPIM_2_PM.c **** /*******************************************************************************
  48:Generated_Source\PSoC5/SPIM_2_PM.c **** * Function Name: SPIM_2_RestoreConfig
  49:Generated_Source\PSoC5/SPIM_2_PM.c **** ********************************************************************************
  50:Generated_Source\PSoC5/SPIM_2_PM.c **** *
  51:Generated_Source\PSoC5/SPIM_2_PM.c **** * Summary:
  52:Generated_Source\PSoC5/SPIM_2_PM.c **** *  Empty function. Included for consistency with other components.
  53:Generated_Source\PSoC5/SPIM_2_PM.c **** *
  54:Generated_Source\PSoC5/SPIM_2_PM.c **** * Parameters:
  55:Generated_Source\PSoC5/SPIM_2_PM.c **** *  None.
  56:Generated_Source\PSoC5/SPIM_2_PM.c **** *
  57:Generated_Source\PSoC5/SPIM_2_PM.c **** * Return:
  58:Generated_Source\PSoC5/SPIM_2_PM.c **** *  None.
  59:Generated_Source\PSoC5/SPIM_2_PM.c **** *
  60:Generated_Source\PSoC5/SPIM_2_PM.c **** *******************************************************************************/
  61:Generated_Source\PSoC5/SPIM_2_PM.c **** void SPIM_2_RestoreConfig(void) 
  62:Generated_Source\PSoC5/SPIM_2_PM.c **** {
 277              		.loc 1 62 0
 278              		.cfi_startproc
 279              		@ args = 0, pretend = 0, frame = 0
 280              		@ frame_needed = 0, uses_anonymous_args = 0
 281              		@ link register save eliminated.
 282 0000 7047     		bx	lr
 283              		.cfi_endproc
 284              	.LFE1:
 285              		.size	SPIM_2_RestoreConfig, .-SPIM_2_RestoreConfig
 286 0002 00BF     		.section	.text.SPIM_2_Sleep,"ax",%progbits
 287              		.align	2
 288              		.global	SPIM_2_Sleep
 289              		.thumb
 290              		.thumb_func
 291              		.type	SPIM_2_Sleep, %function
ARM GAS  C:\Users\JEFFSN~1\AppData\Local\Temp\ccitsnIn.s 			page 18


 292              	SPIM_2_Sleep:
 293              	.LFB2:
  63:Generated_Source\PSoC5/SPIM_2_PM.c **** 
  64:Generated_Source\PSoC5/SPIM_2_PM.c **** }
  65:Generated_Source\PSoC5/SPIM_2_PM.c **** 
  66:Generated_Source\PSoC5/SPIM_2_PM.c **** 
  67:Generated_Source\PSoC5/SPIM_2_PM.c **** /*******************************************************************************
  68:Generated_Source\PSoC5/SPIM_2_PM.c **** * Function Name: SPIM_2_Sleep
  69:Generated_Source\PSoC5/SPIM_2_PM.c **** ********************************************************************************
  70:Generated_Source\PSoC5/SPIM_2_PM.c **** *
  71:Generated_Source\PSoC5/SPIM_2_PM.c **** * Summary:
  72:Generated_Source\PSoC5/SPIM_2_PM.c **** *  Prepare SPIM Component goes to sleep.
  73:Generated_Source\PSoC5/SPIM_2_PM.c **** *
  74:Generated_Source\PSoC5/SPIM_2_PM.c **** * Parameters:
  75:Generated_Source\PSoC5/SPIM_2_PM.c **** *  None.
  76:Generated_Source\PSoC5/SPIM_2_PM.c **** *
  77:Generated_Source\PSoC5/SPIM_2_PM.c **** * Return:
  78:Generated_Source\PSoC5/SPIM_2_PM.c **** *  None.
  79:Generated_Source\PSoC5/SPIM_2_PM.c **** *
  80:Generated_Source\PSoC5/SPIM_2_PM.c **** * Global Variables:
  81:Generated_Source\PSoC5/SPIM_2_PM.c **** *  SPIM_2_backup - modified when non-retention registers are saved.
  82:Generated_Source\PSoC5/SPIM_2_PM.c **** *
  83:Generated_Source\PSoC5/SPIM_2_PM.c **** * Reentrant:
  84:Generated_Source\PSoC5/SPIM_2_PM.c **** *  No.
  85:Generated_Source\PSoC5/SPIM_2_PM.c **** *
  86:Generated_Source\PSoC5/SPIM_2_PM.c **** *******************************************************************************/
  87:Generated_Source\PSoC5/SPIM_2_PM.c **** void SPIM_2_Sleep(void) 
  88:Generated_Source\PSoC5/SPIM_2_PM.c **** {
 294              		.loc 1 88 0
 295              		.cfi_startproc
 296              		@ args = 0, pretend = 0, frame = 0
 297              		@ frame_needed = 0, uses_anonymous_args = 0
 298              		@ link register save eliminated.
  89:Generated_Source\PSoC5/SPIM_2_PM.c ****     /* Save components enable state */
  90:Generated_Source\PSoC5/SPIM_2_PM.c ****     SPIM_2_backup.enableState = ((uint8) SPIM_2_IS_ENABLED);
 299              		.loc 1 90 0
 300 0000 034B     		ldr	r3, .L4
 301 0002 044A     		ldr	r2, .L4+4
 302 0004 1B78     		ldrb	r3, [r3]	@ zero_extendqisi2
 303 0006 C3F30013 		ubfx	r3, r3, #4, #1
 304 000a 1370     		strb	r3, [r2]
  91:Generated_Source\PSoC5/SPIM_2_PM.c **** 
  92:Generated_Source\PSoC5/SPIM_2_PM.c ****     SPIM_2_Stop();
 305              		.loc 1 92 0
 306 000c FFF7FEBF 		b	SPIM_2_Stop
 307              	.LVL0:
 308              	.L5:
 309              		.align	2
 310              	.L4:
 311 0010 97650040 		.word	1073767831
 312 0014 00000000 		.word	.LANCHOR0
 313              		.cfi_endproc
 314              	.LFE2:
 315              		.size	SPIM_2_Sleep, .-SPIM_2_Sleep
 316              		.section	.text.SPIM_2_Wakeup,"ax",%progbits
 317              		.align	2
 318              		.global	SPIM_2_Wakeup
ARM GAS  C:\Users\JEFFSN~1\AppData\Local\Temp\ccitsnIn.s 			page 19


 319              		.thumb
 320              		.thumb_func
 321              		.type	SPIM_2_Wakeup, %function
 322              	SPIM_2_Wakeup:
 323              	.LFB3:
  93:Generated_Source\PSoC5/SPIM_2_PM.c **** }
  94:Generated_Source\PSoC5/SPIM_2_PM.c **** 
  95:Generated_Source\PSoC5/SPIM_2_PM.c **** 
  96:Generated_Source\PSoC5/SPIM_2_PM.c **** /*******************************************************************************
  97:Generated_Source\PSoC5/SPIM_2_PM.c **** * Function Name: SPIM_2_Wakeup
  98:Generated_Source\PSoC5/SPIM_2_PM.c **** ********************************************************************************
  99:Generated_Source\PSoC5/SPIM_2_PM.c **** *
 100:Generated_Source\PSoC5/SPIM_2_PM.c **** * Summary:
 101:Generated_Source\PSoC5/SPIM_2_PM.c **** *  Prepare SPIM Component to wake up.
 102:Generated_Source\PSoC5/SPIM_2_PM.c **** *
 103:Generated_Source\PSoC5/SPIM_2_PM.c **** * Parameters:
 104:Generated_Source\PSoC5/SPIM_2_PM.c **** *  None.
 105:Generated_Source\PSoC5/SPIM_2_PM.c **** *
 106:Generated_Source\PSoC5/SPIM_2_PM.c **** * Return:
 107:Generated_Source\PSoC5/SPIM_2_PM.c **** *  None.
 108:Generated_Source\PSoC5/SPIM_2_PM.c **** *
 109:Generated_Source\PSoC5/SPIM_2_PM.c **** * Global Variables:
 110:Generated_Source\PSoC5/SPIM_2_PM.c **** *  SPIM_2_backup - used when non-retention registers are restored.
 111:Generated_Source\PSoC5/SPIM_2_PM.c **** *  SPIM_2_txBufferWrite - modified every function call - resets to
 112:Generated_Source\PSoC5/SPIM_2_PM.c **** *  zero.
 113:Generated_Source\PSoC5/SPIM_2_PM.c **** *  SPIM_2_txBufferRead - modified every function call - resets to
 114:Generated_Source\PSoC5/SPIM_2_PM.c **** *  zero.
 115:Generated_Source\PSoC5/SPIM_2_PM.c **** *  SPIM_2_rxBufferWrite - modified every function call - resets to
 116:Generated_Source\PSoC5/SPIM_2_PM.c **** *  zero.
 117:Generated_Source\PSoC5/SPIM_2_PM.c **** *  SPIM_2_rxBufferRead - modified every function call - resets to
 118:Generated_Source\PSoC5/SPIM_2_PM.c **** *  zero.
 119:Generated_Source\PSoC5/SPIM_2_PM.c **** *
 120:Generated_Source\PSoC5/SPIM_2_PM.c **** * Reentrant:
 121:Generated_Source\PSoC5/SPIM_2_PM.c **** *  No.
 122:Generated_Source\PSoC5/SPIM_2_PM.c **** *
 123:Generated_Source\PSoC5/SPIM_2_PM.c **** *******************************************************************************/
 124:Generated_Source\PSoC5/SPIM_2_PM.c **** void SPIM_2_Wakeup(void) 
 125:Generated_Source\PSoC5/SPIM_2_PM.c **** {
 324              		.loc 1 125 0
 325              		.cfi_startproc
 326              		@ args = 0, pretend = 0, frame = 0
 327              		@ frame_needed = 0, uses_anonymous_args = 0
 328 0000 08B5     		push	{r3, lr}
 329              		.cfi_def_cfa_offset 8
 330              		.cfi_offset 3, -8
 331              		.cfi_offset 14, -4
 126:Generated_Source\PSoC5/SPIM_2_PM.c ****     #if(SPIM_2_RX_SOFTWARE_BUF_ENABLED)
 127:Generated_Source\PSoC5/SPIM_2_PM.c ****         SPIM_2_rxBufferFull  = 0u;
 128:Generated_Source\PSoC5/SPIM_2_PM.c ****         SPIM_2_rxBufferRead  = 0u;
 129:Generated_Source\PSoC5/SPIM_2_PM.c ****         SPIM_2_rxBufferWrite = 0u;
 130:Generated_Source\PSoC5/SPIM_2_PM.c ****     #endif /* (SPIM_2_RX_SOFTWARE_BUF_ENABLED) */
 131:Generated_Source\PSoC5/SPIM_2_PM.c **** 
 132:Generated_Source\PSoC5/SPIM_2_PM.c ****     #if(SPIM_2_TX_SOFTWARE_BUF_ENABLED)
 133:Generated_Source\PSoC5/SPIM_2_PM.c ****         SPIM_2_txBufferFull  = 0u;
 134:Generated_Source\PSoC5/SPIM_2_PM.c ****         SPIM_2_txBufferRead  = 0u;
 135:Generated_Source\PSoC5/SPIM_2_PM.c ****         SPIM_2_txBufferWrite = 0u;
 136:Generated_Source\PSoC5/SPIM_2_PM.c ****     #endif /* (SPIM_2_TX_SOFTWARE_BUF_ENABLED) */
ARM GAS  C:\Users\JEFFSN~1\AppData\Local\Temp\ccitsnIn.s 			page 20


 137:Generated_Source\PSoC5/SPIM_2_PM.c **** 
 138:Generated_Source\PSoC5/SPIM_2_PM.c ****     /* Clear any data from the RX and TX FIFO */
 139:Generated_Source\PSoC5/SPIM_2_PM.c ****     SPIM_2_ClearFIFO();
 332              		.loc 1 139 0
 333 0002 FFF7FEFF 		bl	SPIM_2_ClearFIFO
 334              	.LVL1:
 140:Generated_Source\PSoC5/SPIM_2_PM.c **** 
 141:Generated_Source\PSoC5/SPIM_2_PM.c ****     /* Restore components block enable state */
 142:Generated_Source\PSoC5/SPIM_2_PM.c ****     if(0u != SPIM_2_backup.enableState)
 335              		.loc 1 142 0
 336 0006 044B     		ldr	r3, .L11
 337 0008 1B78     		ldrb	r3, [r3]	@ zero_extendqisi2
 338 000a 03B9     		cbnz	r3, .L10
 339 000c 08BD     		pop	{r3, pc}
 340              	.L10:
 143:Generated_Source\PSoC5/SPIM_2_PM.c ****     {
 144:Generated_Source\PSoC5/SPIM_2_PM.c ****         SPIM_2_Enable();
 145:Generated_Source\PSoC5/SPIM_2_PM.c ****     }
 146:Generated_Source\PSoC5/SPIM_2_PM.c **** }
 341              		.loc 1 146 0
 342 000e BDE80840 		pop	{r3, lr}
 343              		.cfi_restore 14
 344              		.cfi_restore 3
 345              		.cfi_def_cfa_offset 0
 144:Generated_Source\PSoC5/SPIM_2_PM.c ****     }
 346              		.loc 1 144 0
 347 0012 FFF7FEBF 		b	SPIM_2_Enable
 348              	.LVL2:
 349              	.L12:
 350 0016 00BF     		.align	2
 351              	.L11:
 352 0018 00000000 		.word	.LANCHOR0
 353              		.cfi_endproc
 354              	.LFE3:
 355              		.size	SPIM_2_Wakeup, .-SPIM_2_Wakeup
 356              		.data
 357              		.align	2
 358              		.set	.LANCHOR0,. + 0
 359              		.type	SPIM_2_backup, %object
 360              		.size	SPIM_2_backup, 2
 361              	SPIM_2_backup:
 362 0000 00       		.byte	0
 363 0001 0F       		.byte	15
 364              		.text
 365              	.Letext0:
 366              		.file 2 "Generated_Source\\PSoC5\\cytypes.h"
 367              		.file 3 "Generated_Source\\PSoC5\\SPIM_2.h"