ARM GAS  C:\Users\JEFFSN~1\AppData\Local\Temp\ccla1Mmg.s 			page 1


   1              		.syntax unified
   2              		.cpu cortex-m3
   3              		.fpu softvfp
   4              		.eabi_attribute 20, 1
   5              		.eabi_attribute 21, 1
   6              		.eabi_attribute 23, 3
   7              		.eabi_attribute 24, 1
   8              		.eabi_attribute 25, 1
   9              		.eabi_attribute 26, 1
  10              		.eabi_attribute 30, 2
  11              		.eabi_attribute 34, 1
  12              		.eabi_attribute 18, 4
  13              		.thumb
  14              		.syntax unified
  15              		.file	"SS_1.c"
  16              		.text
  17              	.Ltext0:
  18              		.section	.gnu.lto_.profile.47c784a,"",%progbits
  19 0000 789C6361 		.ascii	"x\234ca`d`a`\000\222\222\242\000\000\261\0009"
  19      60646061 
  19      60009292 
  19      A20000B1 
  19      0039
  20              		.text
  21              		.section	.gnu.lto_.icf.47c784a,"",%progbits
  22 0000 789C6361 		.ascii	"x\234ca`d\000\001)\006\004`a8\377~\343\035&\306\265"
  22      60640001 
  22      29060460 
  22      6138FF7E 
  22      E31D26C6 
  23 0015 3BEEB6B2 		.ascii	";\356\266\2620\265\255x|\234\215\371\355\354\255g\230"
  23      30B5AD78 
  23      7C9C8DF9 
  23      EDECAD67 
  23      98
  24 0026 1800A976 		.ascii	"\030\000\251v\014+"
  24      0C2B
  25              		.text
  26              		.section	.gnu.lto_.jmpfuncs.47c784a,"",%progbits
  27 0000 789C6361 		.ascii	"x\234ca`d\000\001!\006\004`a`dd\254g\004\021L\014\014"
  27      60640001 
  27      21060460 
  27      61606464 
  27      AC670411 
  28 0017 CC401100 		.ascii	"\314@\021\000\016\"\001&"
  28      0E220126 
  29              		.text
  30              		.section	.gnu.lto_.inline.47c784a,"",%progbits
  31 0000 789C6361 		.ascii	"x\234ca`d\000\201$\006\004`a`\340\344`dd\340\000J1s"
  31      60640081 
  31      24060460 
  31      6160E0E4 
  31      606464E0 
  32 0018 1CB06360 		.ascii	"\034\260c`[ \317\304\300\262@\236\005$\013\024g\307"
  32      5B20CFC4 
  32      C0B2409E 
  32      05240B14 
ARM GAS  C:\Users\JEFFSN~1\AppData\Local\Temp\ccla1Mmg.s 			page 2


  32      67C7
  33 002a 9064BAC0 		.ascii	"\220d\272\300\017\226db`ced`b\373\240\007\021\007\002"
  33      0F966462 
  33      60636564 
  33      6062FBA0 
  33      07110702 
  34 003e 664C2106 		.ascii	"fL!\006\000\346\332\011\346"
  34      00E6DA09 
  34      E6
  35              		.text
  36              		.section	.gnu.lto_.pureconst.47c784a,"",%progbits
  37 0000 789C6361 		.ascii	"x\234ca`d\340d```a\220b\224b\222b\226\002\000\002\261"
  37      6064E064 
  37      60606061 
  37      90629462 
  37      92629602 
  38 0017 0081     		.ascii	"\000\201"
  39              		.text
  40              		.section	.gnu.lto_SS_1_Write.47c784a,"",%progbits
  41 0000 789C5551 		.ascii	"x\234UQKk\023Q\024>\337\2753\223\332\324\376\001CI\027"
  41      4B6B1351 
  41      143EDFBD 
  41      3393DAD4 
  41      FE014349 
  42 0015 25D48558 		.ascii	"%\324\205X\304?\240\013\267b\266\201\022\342,\012j\241"
  42      C43FA00B 
  42      B762B681 
  42      12E22C0A 
  42      6AA1
  43 0027 4DDDF64E 		.ascii	"M\335\366N\363\002W\331\330\256\264P[\232>\354\313\225"
  43      F30257D9 
  43      D8AEB450 
  43      5B9A3EEC 
  43      CB95
  44 0039 A230CCCE 		.ascii	"\2420\314\316E[\220\202 b%\213\021\037\213\010\006\213"
  44      455B9082 
  44      2062258B 
  44      111F8B08 
  44      068B
  45 004b 8EC67366 		.ascii	"\216\306sf\272\260\007\356c\316|\337w\276s\256E \211"
  45      BAB007EE 
  45      63CE7CDF 
  45      77BE73AE 
  45      452089
  46 005e 8B8A688C 		.ascii	"\213\212h\214\317\013\274\240\011\252y@\344\365)@.\246"
  46      CF0BBCA0 
  46      09AA7940 
  46      E4F52940 
  46      2EA6
  47 0070 0F34AB30 		.ascii	"\0174\2530\213\256\372\243\0204\302\347jt\325p|\\y\254"
  47      8BAEFAA3 
  47      1034C2E7 
  47      6A74D570 
  47      7C5C79AC 
  48 0084 4DCB474D 		.ascii	"M\313GM\023\365T\254DX\305(\243>\275l\034A\017\203\370"
  48      13F554AC 
  48      4458C528 
ARM GAS  C:\Users\JEFFSN~1\AppData\Local\Temp\ccla1Mmg.s 			page 3


  48      A33EBD6C 
  48      1C410F83 
  49 0099 5E0FBA9D 		.ascii	"^\017\272\235tn\305\2309c\216\013F\3274\320\202f\006"
  49      746EC598 
  49      39638E0B 
  49      46D734D0 
  49      826606
  50 00ac AE647039 		.ascii	"\256dp9C\234 \254!'\340\223wG[\203:\027\023\233&\\\032"
  50      439C20AC 
  50      2127E093 
  50      77475B83 
  50      3A17139B 
  51 00c3 18792244 		.ascii	"\030y\"D\377\347\335\005\343{Y\341\256\377\317\225`"
  51      FFE7DD05 
  51      E37B59E1 
  51      AEFFCF95 
  51      60
  52 00d4 687BF7EF 		.ascii	"h{\367\357\303\363NU\\e\261\201\221\304\0176\341p\207"
  52      C3F34E55 
  52      5C65B181 
  52      91C40F36 
  52      E17087
  53 00e7 90CCF62D 		.ascii	"\220\314\366-\337\364z\025\343w\355\256>\247\270\250"
  53      DFF47A15 
  53      E377EDAE 
  53      3EA7B8A8 
  54 00f7 E24EF987 		.ascii	"\342N\371\207\005\251mK\302\221-%\033Q\207\227t\377"
  54      05A96D4B 
  54      C2912D25 
  54      1B518797 
  54      74FF
  55 0109 5D293975 		.ascii	"])9u\210\340\327\203\017\013)\321\254h\231\304|-8L\375"
  55      88E0D783 
  55      0F0B29D1 
  55      AC6899C4 
  55      7C2D384C 
  56 011e 5035AD63 		.ascii	"P5\255c\267\255j\024\251\344\263\271\344\031\213S\373"
  56      B7AD6A14 
  56      A9E4B3B9 
  56      E4198B53 
  56      FB
  57 012f BD9D6870 		.ascii	"\275\235hp\021\217\274*\317\310\302\0262x\012\366\214"
  57      118FBC2A 
  57      CFC8C216 
  57      32780AF6 
  57      8C
  58 0140 6D2C8242 		.ascii	"m,\202BT\242\372{$\202:\321\374\372\246\355\247E\004"
  58      54A2FA7B 
  58      24823AD1 
  58      FCFAA6ED 
  58      A74504
  59 0153 38067618 		.ascii	"8\006v\030\334\206\212\333`\247\214\022R\247\036\276"
  59      DC868ADB 
  59      60A78C12 
  59      52A71EBE 
  60 0163 3DB56157 		.ascii	"=\265aW\264\324y\275\374\"\032\020\226\015\033\273L"
  60      B4D479BD 
ARM GAS  C:\Users\JEFFSN~1\AppData\Local\Temp\ccla1Mmg.s 			page 4


  60      FC221A10 
  60      960D1BBB 
  60      4C
  61 0174 8AA5BF9D 		.ascii	"\212\245\277\235J\013\216A\215\317\346\225% \013Y\354"
  61      4A0B8E41 
  61      8DCFE695 
  61      25200B59 
  61      EC
  62 0185 25A01327 		.ascii	"%\240\023'\201\244b\003\016\247\202\371\230u\306\274"
  62      81A46203 
  62      0EA782F9 
  62      9875C6BC 
  63 0195 674CFAAC 		.ascii	"gL\372\254\377g\354\237Y\364\005s\376o[\010\361Ct\024"
  63      FF67EC9F 
  63      59F40573 
  63      FE6F5B08 
  63      F1437414 
  64 01a9 64563CB9 		.ascii	"dV<\271\241\033\356=w\252Xvo\217\347'g\246Jn\341f~\362"
  64      A11BEE3D 
  64      77AA5876 
  64      6F8FE727 
  64      67A64A6E 
  65 01c1 FAD5423E 		.ascii	"\372\325B>?>v\251D\366\375\342\235\031\267\177\272\\"
  65      3F3E76A9 
  65      44F6FDE2 
  65      9D19B77F 
  65      BA5C
  66 01d3 2C4F94AE 		.ascii	",O\224\256M\224\247\377\001\337 \303R"
  66      4D94A7FF 
  66      01DF20C3 
  66      52
  67              		.text
  68              		.section	.gnu.lto_SS_1_SetDriveMode.47c784a,"",%progbits
  69 0000 789C7D51 		.ascii	"x\234}QMK\033Q\024\275\347\275\311L\202\232?`\220\272"
  69      4D4B1B51 
  69      14BDE7BD 
  69      C94C829A 
  69      3F6090BA 
  70 0014 28E2A658 		.ascii	"(\342\246X\304_ \350V\3146\020$\316\262\015\225v\355"
  70      C45F20E8 
  70      56CC3610 
  70      24CEB20D 
  70      9576ED
  71 0027 CB178222 		.ascii	"\313\027\202\"\010b6\"\352B\022M\254\212+\301E\032h"
  71      08623622 
  71      EA42124D 
  71      AC8A2BC1 
  71      451A68
  72 003a 69377653 		.ascii	"i7vS\272\350\242\224\026\242\010\226\370\205\022\215"
  72      BAE8A294 
  72      16A20896 
  72      F885128D 
  73 004a F1DE1917 		.ascii	"\361\336\031\027Y\371\230w\2778\347p\356\033\213@rN"
  73      59F99877 
  73      BF38E770 
  73      EE1B8B40 
  73      724E
ARM GAS  C:\Users\JEFFSN~1\AppData\Local\Temp\ccla1Mmg.s 			page 5


  74 005c 38BDE4DC 		.ascii	"8\275\344\334\315\027\232\240\026\216\210RA\005Ha\202"
  74      CD179AA0 
  74      168E8852 
  74      41054861 
  74      82
  75 006d A0698569 		.ascii	"\240i\205i\\\253\246Bu\246v\240\372\013\206\317\237"
  75      5CABA642 
  75      75A676A0 
  75      FA0B86CF 
  75      9F
  76 007e CFFF074C 		.ascii	"\317\377\007L\261\202\234&j)O\211P@?\243.\3677\026;"
  76      B1829C26 
  76      6A294F89 
  76      50403FA3 
  76      2EF73716 
  77 0093 742F88EB 		.ascii	"t/\210\353\363\243\372\357p\337\2061ic\2321\243s\032"
  77      F3A3FAEF 
  77      70DF8631 
  77      69639A31 
  77      A3731A
  78 00a6 28423303 		.ascii	"(B3\003\203\021\014D\210\007\204M\364\011\370\357\336"
  78      83110C44 
  78      8807844D 
  78      F409F8EF 
  78      DE
  79 00b7 C352979D 		.ascii	"\303R\227\235\025\371\027\276(\266`\213\315\235\361"
  79      15F917BE 
  79      28B6608B 
  79      CD9DF1
  80 00c6 8A69B532 		.ascii	"\212i\2652\246rc\177j\330\035\212iJs\320\226\204\000"
  80      A672637F 
  80      6AD81D8A 
  80      694A73D0 
  80      968400
  81 00d9 44C196D2 		.ascii	"D\301\226\322\221\020\224\020\022\014Q\235\257,r\256"
  81      91109410 
  81      120C519D 
  81      AF2C72AE 
  82 00e9 94645D43 		.ascii	"\224d]C\2651[[\266D9\243e\251|\256\372\335\271R9my\216"
  82      B5315B5B 
  82      B64439A3 
  82      65A97CAE 
  82      FADDB952 
  83 0101 8F7F7C5B 		.ascii	"\217\177|[\207\337\316\257\245\214%\013}\375w\330\271"
  83      87DFCEAF 
  83      A58C250B 
  83      7DFD77D8 
  83      B9
  84 0112 8A955496 		.ascii	"\212\225T\226\327\015\240\214\010J\210\260\273m\254"
  84      D70DA08C 
  84      084A88B0 
  84      BB6DAC
  85 0121 826A485F 		.ascii	"\202jH_8\276\234fE\3563\367\266\337[<b\376\257/s\315"
  85      38BE9C66 
  85      45EE33F7 
  85      B6DF5B3C 
  85      62FEAF2F 
ARM GAS  C:\Users\JEFFSN~1\AppData\Local\Temp\ccla1Mmg.s 			page 6


  86 0137 90486ABC 		.ascii	"\220Hj\274\303Gf\266Q\370\013\264S\034\0361\345\354"
  86      C34766B6 
  86      51F80BB4 
  86      531C1E31 
  86      E5EC
  87 0149 67A9AC7D 		.ascii	"g\251\254}J\030;\036%s\373\004\011z\302N\273J\210\247"
  87      4A183B1E 
  87      2573FB04 
  87      097AC24E 
  87      BB4A88A7 
  88 015d DC57F390 		.ascii	"\334W\363\220\3769\313\273l\231\361t\212t\345nD\320"
  88      FE39CBBB 
  88      6C99F174 
  88      8A74E56E 
  88      44D0
  89 016f DEAFAB2B 		.ascii	"\336\257\253+\310\363\360c\365\214\272o\335\251\211"
  89      C8F3F063 
  89      F58CBA6F 
  89      DDA989
  90 017e F7EE643C 		.ascii	"\367\356d<\232\3740\225pcc\321\344\360P,\032\215\277"
  90      9AFC3095 
  90      706363D1 
  90      E4F0502C 
  90      1A8DBF
  91 0191 7E9520EB 		.ascii	"~\225 \353Mr\322}\004E\253\245\365"
  91      4D72D27D 
  91      0445ABA5 
  91      F5
  92              		.text
  93              		.section	.gnu.lto_SS_1_Read.47c784a,"",%progbits
  94 0000 789C354F 		.ascii	"x\2345O\337+\303Q\024?\237{\277\373~\227\360\017X\332"
  94      DF2BC351 
  94      143F9F7B 
  94      BFFB7E97 
  94      F00F58DA 
  95 0014 EB5E4452 		.ascii	"\353^DR\362\252x\225\225\247\325\322|_\255\026\317\273"
  95      F2AA7895 
  95      95A7D5D2 
  95      7C5FAD16 
  95      CFBB
  96 0026 DB775F4A 		.ascii	"\333w_J\036x@)\224h3\264\274\311\323\254\024\011/\310"
  96      1E784029 
  96      946833B4 
  96      BCC9D3AC 
  96      14092FC8 
  97 003a 9384F620 		.ascii	"\223\204\366 \0176\244\326l\316\365\345\324=\347\336"
  97      0F36A4D6 
  97      6CCEF5E5 
  97      D43DE7DE 
  98 004a 733F3FCE 		.ascii	"s??\3161\010\244c\214K\220k\007\037H\202X\270$J\371"
  98      3108A463 
  98      8C4B906B 
  98      071F4882 
  98      58B8244A 
  99 005f 05A02FCA 		.ascii	"\005\240/\312\017J\012$\361)\276\005\316\277N\347[B"
  99      0F4A0A24 
  99      F129BE05 
ARM GAS  C:\Users\JEFFSN~1\AppData\Local\Temp\ccla1Mmg.s 			page 7


  99      CEBF4EE7 
  99      5B42
 100 0071 59A5D2EA 		.ascii	"Y\245\322\352a\273\326\277\222+\302\225DMA\350\015\240"
 100      61BBD6BF 
 100      922BC295 
 100      444D41E8 
 100      0DA0
 101 0083 3BA025B2 		.ascii	";\240%\262\010\021C\037\017\032KmfFq\0045\200\177r0"
 101      0811431F 
 101      0F1A4B6D 
 101      66467104 
 101      35807F72 
 102 0098 B56561B4 		.ascii	"\265ea\264\250\232MG\025o\254\343;\313\002\271\222}"
 102      A89A4D47 
 102      156FACE3 
 102      3BCB02B9 
 102      927D
 103 00aa 39199C84 		.ascii	"9\031\234\204O'\223\264,\2751M\017Q\021BWYF\2516w\277"
 103      4F2793B4 
 103      2CBD314D 
 103      0F511142 
 103      575946A9 
 104 00c1 3EA0951C 		.ascii	">\240\225\034)\331e\331-]Y\037\302\225\022\332\364\344"
 104      29D965D9 
 104      2D5D591F 
 104      C29512DA 
 104      F4E4
 105 00d3 36F36E78 		.ascii	"6\363nx\317\305\315\2242\270\225?,4\260\201\265T\206"
 105      CFC5CD94 
 105      32B8953F 
 105      2C34B081 
 105      B55486
 106 00e6 47359047 		.ascii	"G5\220G\000;\340A\261\313]*\303\251\017\221#\341\311"
 106      003BE041 
 106      B1CB5D2A 
 106      C3A90F91 
 106      23E1C9
 107 00f9 552E569F 		.ascii	"U.V\237\3325\037\010b\217ae\244\253\263\257\30234\030"
 107      DA351F08 
 107      628F6165 
 107      A4ABB3AF 
 107      C2333418 
 108 010d A719D599 		.ascii	"\247\031\325\231k\303\353\370\270\311\264\263\255\243"
 108      6BC3EBF8 
 108      B8C9B4B3 
 108      ADA3
 109 011b 7AABA609 		.ascii	"z\253\246\011\370\260\377O{\206\007\3228z\301\237\210"
 109      F8B0FF4F 
 109      7B8607D2 
 109      387AC19F 
 109      88
 110 012c 49BF8B41 		.ascii	"I\277\213A/\304\353u\016\333\223vb|\312\236\210\206"
 110      2FC4EB75 
 110      0EDB9376 
 110      627CCA9E 
 110      8886
 111 013e E3D38998 		.ascii	"\343\323\211\230\035\031\011\307\007\373\"\341p\264"
ARM GAS  C:\Users\JEFFSN~1\AppData\Local\Temp\ccla1Mmg.s 			page 8


 111      1D1909C7 
 111      07FB22E1 
 111      70B4
 112 014c A72B463F 		.ascii	"\247+F?\200\035z\361"
 112      801D7AF1 
 113              		.text
 114              		.section	.gnu.lto_SS_1_ReadDataReg.47c784a,"",%progbits
 115 0000 789C354F 		.ascii	"x\2345O;K\003A\020\236o\367r\011A\363\007\014\2226\215"
 115      3B4B0341 
 115      109E6FF7 
 115      720941F3 
 115      070C9236 
 116 0015 2862A1AD 		.ascii	"(b\241\255\240\255x`\025\010\022\2575\020\264\316&\227"
 116      A0AD7860 
 116      150812AF 
 116      3510B4CE 
 116      2697
 117 0027 53108B34 		.ascii	"S\020\2134*\010\"\210\222\304\007j+\0101\225\"Q\013"
 117      2A082288 
 117      92C4076A 
 117      2B083195 
 117      22510B
 118 003a 7F80A8A4 		.ascii	"\177\200\250\244\020\013\023\024A\316\234\263\236\016"
 118      100B1314 
 118      41CE9CB3 
 118      9E0E
 119 0048 ECCCEEEC 		.ascii	"\354\314\356\354\367\2301\010\244c\206K\202k\037\037"
 119      F7983108 
 119      A463864B 
 119      826B1F1F 
 120 0058 488228DF 		.ascii	"H\202(\337\020\025\"\002\320\027\025\001\345\005\362"
 120      10152202 
 120      D0171501 
 120      E505F2
 121 0067 F810DF02 		.ascii	"\370\020\337\002\327\237\227\253\321dE\251\242z\330"
 121      D79F97AB 
 121      D16445A9 
 121      A27AD8
 122 0076 AB8C6E54 		.ascii	"\253\214nT\353p%\221/\010\303q\014\306\265D\005Ib\350"
 122      EB702591 
 122      2F08C371 
 122      0CC6B544 
 122      054962E8 
 123 008a E36977AD 		.ascii	"\343iw\255\327,)\216\204\006\360O\025\246\266<\236\256"
 123      D72C298E 
 123      8406F04F 
 123      15A6B63C 
 123      9EAE
 124 009c 2BDF7754 		.ascii	"+\337wT\375<zq\027\015\203\\\311\276\234\014N\"\244"
 124      FD3C7A71 
 124      170D835C 
 124      C9BE9C0C 
 124      4E22A4
 125 00af 93495A96 		.ascii	"\223IZ\226\336\230\246\207h\013\241\253l\241\361\265"
 125      DE98A687 
 125      680BA1AB 
 125      6CA1F1B5 
ARM GAS  C:\Users\JEFFSN~1\AppData\Local\Temp\ccla1Mmg.s 			page 9


 126 00bf D2AD8D69 		.ascii	"\322\255\215i%GJvYw\033\267\341w\341J\011mZ-y\236\010"
 126      25474A76 
 126      59771BB7 
 126      E177E14A 
 126      096D5A2D 
 127 00d6 9EE59D82 		.ascii	"\236\345\235\2022\270\325\364O\274\3306\266\012%\036"
 127      32B8D5F4 
 127      4FBCD836 
 127      B60A251E 
 128 00e6 D5C03EE2 		.ascii	"\325\300>\342\250\201\007\305\001\266A-8\336\0049\022"
 128      A88107C5 
 128      01B6412D 
 128      38DE0439 
 128      12
 129 00f7 815CBBB9 		.ascii	"\201\\\273\271\371\024\323| \201C\206\265P\354,\277"
 129      F914D37C 
 129      20814386 
 129      B550EC2C 
 129      BF
 130 0108 8AC0D060 		.ascii	"\212\300\320`\234ft\226\356\215\240\023\342&\323\256"
 130      9C667496 
 130      EE8DA013 
 130      E226D3AE 
 131 0118 76CFBC1E 		.ascii	"v\317\274\036M\023\010\341\350\237\366\214\000\244q"
 131      4D1308E1 
 131      E89FF68C 
 131      00A471
 132 0127 F4823F11 		.ascii	"\364\202?\021\223~\027\203^\210\327\353\237\264\347"
 132      937E1783 
 132      5E88D7EB 
 132      9FB4E7
 133 0136 EDDCEC82 		.ascii	"\355\334\354\202=\227\266\262\213\271\214\235\232\262"
 133      3D97B6B2 
 133      8BB98C9D 
 133      9AB2
 134 0144 B2E32329 		.ascii	"\262\343#)\313J\017\015d\350\007{\011{5"
 134      CB4A0F0D 
 134      64E8077B 
 134      097B35
 135              		.text
 136              		.section	.gnu.lto_.symbol_nodes.47c784a,"",%progbits
 137 0000 789C6361 		.ascii	"x\234ca`dpc\000\002&\206z\006\206\011\347\030@\324\256"
 137      60647063 
 137      00022686 
 137      7A068609 
 137      E71840D4 
 138 0015 0645A000 		.ascii	"\006E\240\000c=#\252\000S=\023\252\000s=3\212\000\003"
 138      633D23AA 
 138      00533D13 
 138      AA00733D 
 138      338A0003 
 139 0029 0026B60F 		.ascii	"\000&\266\017<"
 139      3C
 140              		.text
 141              		.section	.gnu.lto_.refs.47c784a,"",%progbits
 142 0000 789C6361 		.ascii	"x\234ca`\004B \000\000\0009\000\007"
 142      60044220 
ARM GAS  C:\Users\JEFFSN~1\AppData\Local\Temp\ccla1Mmg.s 			page 10


 142      00000039 
 142      0007
 143              		.text
 144              		.section	.gnu.lto_.decls.47c784a,"",%progbits
 145 0000 789C8D53 		.ascii	"x\234\215S_HSa\024\377\316\275ws\336l\232\204\370\260"
 145      5F485361 
 145      14FFCEBD 
 145      7773DE6C 
 145      9A84F8B0 
 146 0014 C27CF269 		.ascii	"\302|\362i$\022\370d\201\222Oe8\264\027C\246^\314\027"
 146      2412F864 
 146      81924F65 
 146      38B41743 
 146      A65ECC17 
 147 0028 176B06BE 		.ascii	"\027k\006\276}\251Q\031\244\006V\376\001\255\207\232"
 147      7DA95119 
 147      A40656FE 
 147      01AD879A 
 148 0038 BAD4DA66 		.ascii	"\272\324\332f\333\3224A\013IP\004!\024\022\246\220\244"
 148      DBD23441 
 148      0B495004 
 148      211412A6 
 148      90A4
 149 004a 6028810F 		.ascii	"`(\201\017\266\316\367\335{\275\303\026x\270\347\356"
 149      B6CEF7DD 
 149      7BBDC316 
 149      78B8E7EE 
 150 005a 9CEF3BBF 		.ascii	"\234\357;\277\337\371}\347~\223\010\020f\005\022!\217"
 150      DFF97DE7 
 150      7E930810 
 150      66051221 
 150      8F
 151 006b F1D78669 		.ascii	"\361\327\206i\014\315\204q91\014\267\211\037=\210\036"
 151      0CCD8471 
 151      39310CB7 
 151      891F3D88 
 151      1E
 152 007c 428F907F 		.ascii	"B\217\220\177\215\355\2335\3340\343B\237D\237@/\321"
 152      8DED9B35 
 152      DC30E342 
 152      9F449F40 
 152      2FD1
 153 008e 6A40AB3B 		.ascii	"j@\253;j\301\004\330\3518\274\216\015&\3002=\2468\\"
 153      6AC104D8 
 153      E938BC8E 
 153      0D26C032 
 153      3DA6385C 
 154 00a2 49025C28 		.ascii	"I\002\\(\001.r\014\\\242s\036\010\020\353\013\264YV"
 154      012E720C 
 154      5CA2731E 
 154      0810EB0B 
 154      B45956
 155 00b5 E01B8844 		.ascii	"\340\033\210D\033 \001P\337\300\235\250\316S\014\004"
 155      1B200150 
 155      DFC09DA8 
 155      CE530C04 
 156 00c5 A206FAD2 		.ascii	"\242\006\372\322\241\021\255D\320C\203\214?\032\036"
ARM GAS  C:\Users\JEFFSN~1\AppData\Local\Temp\ccla1Mmg.s 			page 11


 156      A111AD44 
 156      D043838C 
 156      3F1A1E
 157 00d4 62BA7112 		.ascii	"b\272q\022\203\0354\220\232\353\2725\020\010F\003PS"
 157      831D3490 
 157      9AEBBA35 
 157      10084603 
 157      5053
 158 00e6 1D11C777 		.ascii	"\035\021\307wD\221\256YoC\004\375\320=O\326\233\004"
 158      4491AE59 
 158      6F4304FD 
 158      D03D4FD6 
 158      9B04
 159 00f8 5100167F 		.ascii	"Q\000\026\177\337\367^\266\373(Z;\245\302\031c2#\367"
 159      DFF75EB6 
 159      FB285A3B 
 159      A5C21963 
 159      3223F7
 160 010b D6072C7B 		.ascii	"\326\007,{\002\330d\210\001\313\267\302\373'\325\234"
 160      02D86488 
 160      01CBB7C2 
 160      FB27D59C 
 161 011b 6D777544 		.ascii	"mwuD\377\234\0203X,,E\2076%\310\221_1\232\265\375\365"
 161      FF9C1033 
 161      582C2C45 
 161      873625C8 
 161      915F319A 
 162 0132 8230A569 		.ascii	"\2020\245i0\0142\370@\204\001\2603\0156\031\337\017"
 162      300C32F8 
 162      408401B0 
 162      330D3619 
 162      DF0F
 163 0144 286DA23B 		.ascii	"(m\242;/\2519\223@\236\015\316\333\010\274\201\034\306"
 163      2FA93993 
 163      409E0DCE 
 163      DB08BC81 
 163      1CC6
 164 0156 C9AA6008 		.ascii	"\311\252`\010l0\0106\306\277\361\254\357\247YB\311\234"
 164      6C300836 
 164      C6BFF1AC 
 164      EFA75942 
 164      C99C
 165 0168 A74A626B 		.ascii	"\247Jbk\213-\243\275\"JH\227A\302\364\327|w\324\212"
 165      8B2DA3BD 
 165      224A4897 
 165      41C2F4D7 
 165      7C77D48A 
 166 017c E96919B2 		.ascii	"\351i\031\2620\365EV\267\314\231O\371Q\232i\226\004"
 166      30F54556 
 166      B7CC994F 
 166      F9519A69 
 166      9604
 167 018e E519F016 		.ascii	"\345\031\360\026\011G\221\220\300;\310\304\367\010H"
 167      09479190 
 167      C03BC8C4 
 167      F70848
 168 019d EAE9A6A3 		.ascii	"\352\351\246\243+\235\311\331\375\264\177\224\256\035"
ARM GAS  C:\Users\JEFFSN~1\AppData\Local\Temp\ccla1Mmg.s 			page 12


 168      2B9DC9D9 
 168      FDB47F94 
 168      AE1D
 169 01ab 6CE475D1 		.ascii	"l\344u\321\251\026\304\011\254\014\274\206h/\273\027"
 169      A916C409 
 169      AC0CBC86 
 169      682FBB17 
 170 01bb 045EC30A 		.ascii	"\004^\303\012\316\320\017\331\210\014\177m\033\264\212"
 170      CED00FD9 
 170      880C7F6D 
 170      1BB48A
 171 01ca 37F810B6 		.ascii	"7\370\020\266\177\370\203\202\3122\2657\233B\333\357"
 171      7FF88382 
 171      CA32B537 
 171      9B42DBEF 
 172 01da 527A8973 		.ascii	"Rz\211s\004\014\216@<G\220s\374\016\255\316YD\027\347"
 172      040C8E40 
 172      3C479073 
 172      FC0EADCE 
 172      594417E7 
 173 01ee 587834D3 		.ascii	"Xx4\323\234\032/\233\235\327\320\375\236\353\256\322"
 173      9C1A2F9B 
 173      9DD7D0FD 
 173      9EEBAED2 
 174 01fe 64CF6C0F 		.ascii	"d\317l\017FS\265\206K\237\305C\331X\005cF\313\261\370"
 174      4653B586 
 174      4B9FC543 
 174      D9580563 
 174      46CBB1F8 
 175 0212 9621DE72 		.ascii	"\226!\336rw\346~\304$6\362\226\341\325q\257\250\261"
 175      77E67EC4 
 175      2436F296 
 175      E1D571AF 
 175      A8B1
 176 0224 44E674D9 		.ascii	"D\346t\331\214#lp\204\3439\"\234c\257ew\331,\3437l>"
 176      8C236C70 
 176      84E33922 
 176      9C63AF65 
 176      77D92CE3 
 177 023b DE379CDF 		.ascii	"\3367\234\337|\021K\022[\201_\022\177gWg\022\3109\011"
 177      7C114B12 
 177      5B815F12 
 177      7F675767 
 177      12C83909 
 178 024f E01F13C0 		.ascii	"\340\037\023\300\265\273\344+\353x\310\0168\201C\031"
 178      B5BBE42B 
 178      EB78C80E 
 178      38814319 
 179 025f 37C47D00 		.ascii	"7\304}\000Y\035H`a{\304\224\322\312\256\025N/\375\213"
 179      591D4860 
 179      617BC494 
 179      D2CAAE15 
 179      4E2FFD8B 
 180 0273 95571AE3 		.ascii	"\225W\032\343\233\204\024\376\017\300\337\003A\034_"
 180      9B8414FE 
 180      0FC0DF03 
 180      411C5F
ARM GAS  C:\Users\JEFFSN~1\AppData\Local\Temp\ccla1Mmg.s 			page 13


 181 0282 EEE91571 		.ascii	"\356\351\025q\217=r7E)t\021`\032\311x\262s\221\307l"
 181      8F3D7237 
 181      45297411 
 181      601AC978 
 181      B27391C7 
 182 0297 99EE3451 		.ascii	"\231\3564Q\363s\253.\221\360\015\002S\210\374\204\304"
 182      F373AB2E 
 182      91F00D02 
 182      5388FC84 
 182      C4
 183 02a8 3C951D8E 		.ascii	"<\225\035\216\312\334\312\353\356:\217b)\276Z\226U\230"
 183      CADCCAEB 
 183      EE3A8F62 
 183      29BE5A96 
 183      5598
 184 02ba 9B4B4C0D 		.ascii	"\233KL\015u\365\236\374s\305J\275\342vz\224\232J\207"
 184      75F59EFC 
 184      73C54ABD 
 184      E2767A94 
 184      9A4A87
 185 02cd ABC15DAD 		.ascii	"\253\301]\255T\\s\270\012/TT7z\032o)\267\3557\311\331"
 185      545C73B8 
 185      0A2F5454 
 185      377A1A6F 
 185      29B7ED37 
 186 02e3 FF54304A 		.ascii	"\377T0J{59\305\251\035\212\247\310]wG\271\342\252Q\222"
 186      7B3539C5 
 186      A91D8AA7 
 186      C85D7747 
 186      B9E2AA51 
 187 02f8 F94AA9E2 		.ascii	"\371J\251\342\254I;\214\212\234\036g\251R+\271\225\332"
 187      AC493B8C 
 187      8A9C1E67 
 187      A9522BB9 
 187      95DA
 188 030a FCBF4012 		.ascii	"\374\277@\022_\026"
 188      5F16
 189              		.text
 190              		.section	.gnu.lto_.symtab.47c784a,"",%progbits
 191 0000 53535F31 		.ascii	"SS_1_Write\000"
 191      5F577269 
 191      746500
 192 000b 00       		.ascii	"\000"
 193 000c 00       		.ascii	"\000"
 194 000d 00       		.ascii	"\000"
 195 000e 00000000 		.ascii	"\000\000\000\000\000\000\000\000"
 195      00000000 
 196 0016 B3000000 		.ascii	"\263\000\000\000"
 197 001a 53535F31 		.ascii	"SS_1_SetDriveMode\000"
 197      5F536574 
 197      44726976 
 197      654D6F64 
 197      6500
 198 002c 00       		.ascii	"\000"
 199 002d 00       		.ascii	"\000"
 200 002e 00       		.ascii	"\000"
 201 002f 00000000 		.ascii	"\000\000\000\000\000\000\000\000"
ARM GAS  C:\Users\JEFFSN~1\AppData\Local\Temp\ccla1Mmg.s 			page 14


 201      00000000 
 202 0037 B5000000 		.ascii	"\265\000\000\000"
 203 003b 53535F31 		.ascii	"SS_1_Read\000"
 203      5F526561 
 203      6400
 204 0045 00       		.ascii	"\000"
 205 0046 00       		.ascii	"\000"
 206 0047 00       		.ascii	"\000"
 207 0048 00000000 		.ascii	"\000\000\000\000\000\000\000\000"
 207      00000000 
 208 0050 B8000000 		.ascii	"\270\000\000\000"
 209 0054 53535F31 		.ascii	"SS_1_ReadDataReg\000"
 209      5F526561 
 209      64446174 
 209      61526567 
 209      00
 210 0065 00       		.ascii	"\000"
 211 0066 00       		.ascii	"\000"
 212 0067 00       		.ascii	"\000"
 213 0068 00000000 		.ascii	"\000\000\000\000\000\000\000\000"
 213      00000000 
 214 0070 BA000000 		.ascii	"\272\000\000\000"
 215              		.text
 216              		.section	.gnu.lto_.opts,"",%progbits
 217 0000 272D666D 		.ascii	"'-fmath-errno' '-fsigned-zeros' '-ftrapping-math' '"
 217      6174682D 
 217      6572726E 
 217      6F272027 
 217      2D667369 
 218 0033 2D666E6F 		.ascii	"-fno-trapv' '-fno-openmp' '-fno-openacc' '-mcpu=cor"
 218      2D747261 
 218      70762720 
 218      272D666E 
 218      6F2D6F70 
 219 0066 7465782D 		.ascii	"tex-m3' '-mthumb' '-g' '-O3' '-ffunction-sections' "
 219      6D332720 
 219      272D6D74 
 219      68756D62 
 219      2720272D 
 220 0099 272D6666 		.ascii	"'-ffat-lto-objects' '-finline-functions' '-flto'\000"
 220      61742D6C 
 220      746F2D6F 
 220      626A6563 
 220      74732720 
 221              		.text
 222              		.cfi_sections	.debug_frame
 223              		.section	.text.SS_1_Write,"ax",%progbits
 224              		.align	2
 225              		.global	SS_1_Write
 226              		.thumb
 227              		.thumb_func
 228              		.type	SS_1_Write, %function
 229              	SS_1_Write:
 230              	.LFB0:
 231              		.file 1 "Generated_Source\\PSoC5\\SS_1.c"
   1:Generated_Source\PSoC5/SS_1.c **** /*******************************************************************************
   2:Generated_Source\PSoC5/SS_1.c **** * File Name: SS_1.c  
ARM GAS  C:\Users\JEFFSN~1\AppData\Local\Temp\ccla1Mmg.s 			page 15


   3:Generated_Source\PSoC5/SS_1.c **** * Version 2.20
   4:Generated_Source\PSoC5/SS_1.c **** *
   5:Generated_Source\PSoC5/SS_1.c **** * Description:
   6:Generated_Source\PSoC5/SS_1.c **** *  This file contains API to enable firmware control of a Pins component.
   7:Generated_Source\PSoC5/SS_1.c **** *
   8:Generated_Source\PSoC5/SS_1.c **** * Note:
   9:Generated_Source\PSoC5/SS_1.c **** *
  10:Generated_Source\PSoC5/SS_1.c **** ********************************************************************************
  11:Generated_Source\PSoC5/SS_1.c **** * Copyright 2008-2015, Cypress Semiconductor Corporation.  All rights reserved.
  12:Generated_Source\PSoC5/SS_1.c **** * You may use this file only in accordance with the license, terms, conditions, 
  13:Generated_Source\PSoC5/SS_1.c **** * disclaimers, and limitations in the end user license agreement accompanying 
  14:Generated_Source\PSoC5/SS_1.c **** * the software package with which this file was provided.
  15:Generated_Source\PSoC5/SS_1.c **** *******************************************************************************/
  16:Generated_Source\PSoC5/SS_1.c **** 
  17:Generated_Source\PSoC5/SS_1.c **** #include "cytypes.h"
  18:Generated_Source\PSoC5/SS_1.c **** #include "SS_1.h"
  19:Generated_Source\PSoC5/SS_1.c **** 
  20:Generated_Source\PSoC5/SS_1.c **** /* APIs are not generated for P15[7:6] on PSoC 5 */
  21:Generated_Source\PSoC5/SS_1.c **** #if !(CY_PSOC5A &&\
  22:Generated_Source\PSoC5/SS_1.c **** 	 SS_1__PORT == 15 && ((SS_1__MASK & 0xC0) != 0))
  23:Generated_Source\PSoC5/SS_1.c **** 
  24:Generated_Source\PSoC5/SS_1.c **** 
  25:Generated_Source\PSoC5/SS_1.c **** /*******************************************************************************
  26:Generated_Source\PSoC5/SS_1.c **** * Function Name: SS_1_Write
  27:Generated_Source\PSoC5/SS_1.c **** ****************************************************************************//**
  28:Generated_Source\PSoC5/SS_1.c **** *
  29:Generated_Source\PSoC5/SS_1.c **** * \brief Writes the value to the physical port (data output register), masking
  30:Generated_Source\PSoC5/SS_1.c **** *  and shifting the bits appropriately. 
  31:Generated_Source\PSoC5/SS_1.c **** *
  32:Generated_Source\PSoC5/SS_1.c **** * The data output register controls the signal applied to the physical pin in 
  33:Generated_Source\PSoC5/SS_1.c **** * conjunction with the drive mode parameter. This function avoids changing 
  34:Generated_Source\PSoC5/SS_1.c **** * other bits in the port by using the appropriate method (read-modify-write or
  35:Generated_Source\PSoC5/SS_1.c **** * bit banding).
  36:Generated_Source\PSoC5/SS_1.c **** *
  37:Generated_Source\PSoC5/SS_1.c **** * <b>Note</b> This function should not be used on a hardware digital output pin 
  38:Generated_Source\PSoC5/SS_1.c **** * as it is driven by the hardware signal attached to it.
  39:Generated_Source\PSoC5/SS_1.c **** *
  40:Generated_Source\PSoC5/SS_1.c **** * \param value
  41:Generated_Source\PSoC5/SS_1.c **** *  Value to write to the component instance.
  42:Generated_Source\PSoC5/SS_1.c **** *
  43:Generated_Source\PSoC5/SS_1.c **** * \return 
  44:Generated_Source\PSoC5/SS_1.c **** *  None 
  45:Generated_Source\PSoC5/SS_1.c **** *
  46:Generated_Source\PSoC5/SS_1.c **** * \sideeffect
  47:Generated_Source\PSoC5/SS_1.c **** *  If you use read-modify-write operations that are not atomic; the Interrupt 
  48:Generated_Source\PSoC5/SS_1.c **** *  Service Routines (ISR) can cause corruption of this function. An ISR that 
  49:Generated_Source\PSoC5/SS_1.c **** *  interrupts this function and performs writes to the Pins component data 
  50:Generated_Source\PSoC5/SS_1.c **** *  register can cause corrupted port data. To avoid this issue, you should 
  51:Generated_Source\PSoC5/SS_1.c **** *  either use the Per-Pin APIs (primary method) or disable interrupts around 
  52:Generated_Source\PSoC5/SS_1.c **** *  this function.
  53:Generated_Source\PSoC5/SS_1.c **** *
  54:Generated_Source\PSoC5/SS_1.c **** * \funcusage
  55:Generated_Source\PSoC5/SS_1.c **** *  \snippet SS_1_SUT.c usage_SS_1_Write
  56:Generated_Source\PSoC5/SS_1.c **** *******************************************************************************/
  57:Generated_Source\PSoC5/SS_1.c **** void SS_1_Write(uint8 value)
  58:Generated_Source\PSoC5/SS_1.c **** {
 232              		.loc 1 58 0
ARM GAS  C:\Users\JEFFSN~1\AppData\Local\Temp\ccla1Mmg.s 			page 16


 233              		.cfi_startproc
 234              		@ args = 0, pretend = 0, frame = 0
 235              		@ frame_needed = 0, uses_anonymous_args = 0
 236              		@ link register save eliminated.
 237              	.LVL0:
  59:Generated_Source\PSoC5/SS_1.c ****     uint8 staticBits = (SS_1_DR & (uint8)(~SS_1_MASK));
 238              		.loc 1 59 0
 239 0000 044A     		ldr	r2, .L2
  60:Generated_Source\PSoC5/SS_1.c ****     SS_1_DR = staticBits | ((uint8)(value << SS_1_SHIFT) & SS_1_MASK);
 240              		.loc 1 60 0
 241 0002 4001     		lsls	r0, r0, #5
 242              	.LVL1:
  59:Generated_Source\PSoC5/SS_1.c ****     uint8 staticBits = (SS_1_DR & (uint8)(~SS_1_MASK));
 243              		.loc 1 59 0
 244 0004 1378     		ldrb	r3, [r2]	@ zero_extendqisi2
 245              	.LVL2:
 246              		.loc 1 60 0
 247 0006 00F02000 		and	r0, r0, #32
 248 000a 03F0DF03 		and	r3, r3, #223
 249              	.LVL3:
 250 000e 1843     		orrs	r0, r0, r3
 251 0010 1070     		strb	r0, [r2]
 252 0012 7047     		bx	lr
 253              	.L3:
 254              		.align	2
 255              	.L2:
 256 0014 10510040 		.word	1073762576
 257              		.cfi_endproc
 258              	.LFE0:
 259              		.size	SS_1_Write, .-SS_1_Write
 260              		.section	.text.SS_1_SetDriveMode,"ax",%progbits
 261              		.align	2
 262              		.global	SS_1_SetDriveMode
 263              		.thumb
 264              		.thumb_func
 265              		.type	SS_1_SetDriveMode, %function
 266              	SS_1_SetDriveMode:
 267              	.LFB1:
  61:Generated_Source\PSoC5/SS_1.c **** }
  62:Generated_Source\PSoC5/SS_1.c **** 
  63:Generated_Source\PSoC5/SS_1.c **** 
  64:Generated_Source\PSoC5/SS_1.c **** /*******************************************************************************
  65:Generated_Source\PSoC5/SS_1.c **** * Function Name: SS_1_SetDriveMode
  66:Generated_Source\PSoC5/SS_1.c **** ****************************************************************************//**
  67:Generated_Source\PSoC5/SS_1.c **** *
  68:Generated_Source\PSoC5/SS_1.c **** * \brief Sets the drive mode for each of the Pins component's pins.
  69:Generated_Source\PSoC5/SS_1.c **** * 
  70:Generated_Source\PSoC5/SS_1.c **** * <b>Note</b> This affects all pins in the Pins component instance. Use the
  71:Generated_Source\PSoC5/SS_1.c **** * Per-Pin APIs if you wish to control individual pin's drive modes.
  72:Generated_Source\PSoC5/SS_1.c **** *
  73:Generated_Source\PSoC5/SS_1.c **** * \param mode
  74:Generated_Source\PSoC5/SS_1.c **** *  Mode for the selected signals. Valid options are documented in 
  75:Generated_Source\PSoC5/SS_1.c **** *  \ref driveMode.
  76:Generated_Source\PSoC5/SS_1.c **** *
  77:Generated_Source\PSoC5/SS_1.c **** * \return
  78:Generated_Source\PSoC5/SS_1.c **** *  None
  79:Generated_Source\PSoC5/SS_1.c **** *
ARM GAS  C:\Users\JEFFSN~1\AppData\Local\Temp\ccla1Mmg.s 			page 17


  80:Generated_Source\PSoC5/SS_1.c **** * \sideeffect
  81:Generated_Source\PSoC5/SS_1.c **** *  If you use read-modify-write operations that are not atomic, the ISR can
  82:Generated_Source\PSoC5/SS_1.c **** *  cause corruption of this function. An ISR that interrupts this function 
  83:Generated_Source\PSoC5/SS_1.c **** *  and performs writes to the Pins component Drive Mode registers can cause 
  84:Generated_Source\PSoC5/SS_1.c **** *  corrupted port data. To avoid this issue, you should either use the Per-Pin
  85:Generated_Source\PSoC5/SS_1.c **** *  APIs (primary method) or disable interrupts around this function.
  86:Generated_Source\PSoC5/SS_1.c **** *
  87:Generated_Source\PSoC5/SS_1.c **** * \funcusage
  88:Generated_Source\PSoC5/SS_1.c **** *  \snippet SS_1_SUT.c usage_SS_1_SetDriveMode
  89:Generated_Source\PSoC5/SS_1.c **** *******************************************************************************/
  90:Generated_Source\PSoC5/SS_1.c **** void SS_1_SetDriveMode(uint8 mode)
  91:Generated_Source\PSoC5/SS_1.c **** {
 268              		.loc 1 91 0
 269              		.cfi_startproc
 270              		@ args = 0, pretend = 0, frame = 0
 271              		@ frame_needed = 0, uses_anonymous_args = 0
 272              		@ link register save eliminated.
 273              	.LVL4:
  92:Generated_Source\PSoC5/SS_1.c **** 	CyPins_SetPinDriveMode(SS_1_0, mode);
 274              		.loc 1 92 0
 275 0000 044A     		ldr	r2, .L5
 276 0002 00F00E00 		and	r0, r0, #14
 277              	.LVL5:
 278 0006 1378     		ldrb	r3, [r2]	@ zero_extendqisi2
 279 0008 03F0F103 		and	r3, r3, #241
 280 000c 1843     		orrs	r0, r0, r3
 281 000e 1070     		strb	r0, [r2]
 282 0010 7047     		bx	lr
 283              	.L6:
 284 0012 00BF     		.align	2
 285              	.L5:
 286 0014 0D500040 		.word	1073762317
 287              		.cfi_endproc
 288              	.LFE1:
 289              		.size	SS_1_SetDriveMode, .-SS_1_SetDriveMode
 290              		.section	.text.SS_1_Read,"ax",%progbits
 291              		.align	2
 292              		.global	SS_1_Read
 293              		.thumb
 294              		.thumb_func
 295              		.type	SS_1_Read, %function
 296              	SS_1_Read:
 297              	.LFB2:
  93:Generated_Source\PSoC5/SS_1.c **** }
  94:Generated_Source\PSoC5/SS_1.c **** 
  95:Generated_Source\PSoC5/SS_1.c **** 
  96:Generated_Source\PSoC5/SS_1.c **** /*******************************************************************************
  97:Generated_Source\PSoC5/SS_1.c **** * Function Name: SS_1_Read
  98:Generated_Source\PSoC5/SS_1.c **** ****************************************************************************//**
  99:Generated_Source\PSoC5/SS_1.c **** *
 100:Generated_Source\PSoC5/SS_1.c **** * \brief Reads the associated physical port (pin status register) and masks 
 101:Generated_Source\PSoC5/SS_1.c **** *  the required bits according to the width and bit position of the component
 102:Generated_Source\PSoC5/SS_1.c **** *  instance. 
 103:Generated_Source\PSoC5/SS_1.c **** *
 104:Generated_Source\PSoC5/SS_1.c **** * The pin's status register returns the current logic level present on the 
 105:Generated_Source\PSoC5/SS_1.c **** * physical pin.
 106:Generated_Source\PSoC5/SS_1.c **** *
ARM GAS  C:\Users\JEFFSN~1\AppData\Local\Temp\ccla1Mmg.s 			page 18


 107:Generated_Source\PSoC5/SS_1.c **** * \return 
 108:Generated_Source\PSoC5/SS_1.c **** *  The current value for the pins in the component as a right justified number.
 109:Generated_Source\PSoC5/SS_1.c **** *
 110:Generated_Source\PSoC5/SS_1.c **** * \funcusage
 111:Generated_Source\PSoC5/SS_1.c **** *  \snippet SS_1_SUT.c usage_SS_1_Read  
 112:Generated_Source\PSoC5/SS_1.c **** *******************************************************************************/
 113:Generated_Source\PSoC5/SS_1.c **** uint8 SS_1_Read(void)
 114:Generated_Source\PSoC5/SS_1.c **** {
 298              		.loc 1 114 0
 299              		.cfi_startproc
 300              		@ args = 0, pretend = 0, frame = 0
 301              		@ frame_needed = 0, uses_anonymous_args = 0
 302              		@ link register save eliminated.
 115:Generated_Source\PSoC5/SS_1.c ****     return (SS_1_PS & SS_1_MASK) >> SS_1_SHIFT;
 303              		.loc 1 115 0
 304 0000 024B     		ldr	r3, .L8
 305 0002 1878     		ldrb	r0, [r3]	@ zero_extendqisi2
 116:Generated_Source\PSoC5/SS_1.c **** }
 306              		.loc 1 116 0
 307 0004 C0F34010 		ubfx	r0, r0, #5, #1
 308 0008 7047     		bx	lr
 309              	.L9:
 310 000a 00BF     		.align	2
 311              	.L8:
 312 000c 11510040 		.word	1073762577
 313              		.cfi_endproc
 314              	.LFE2:
 315              		.size	SS_1_Read, .-SS_1_Read
 316              		.section	.text.SS_1_ReadDataReg,"ax",%progbits
 317              		.align	2
 318              		.global	SS_1_ReadDataReg
 319              		.thumb
 320              		.thumb_func
 321              		.type	SS_1_ReadDataReg, %function
 322              	SS_1_ReadDataReg:
 323              	.LFB3:
 117:Generated_Source\PSoC5/SS_1.c **** 
 118:Generated_Source\PSoC5/SS_1.c **** 
 119:Generated_Source\PSoC5/SS_1.c **** /*******************************************************************************
 120:Generated_Source\PSoC5/SS_1.c **** * Function Name: SS_1_ReadDataReg
 121:Generated_Source\PSoC5/SS_1.c **** ****************************************************************************//**
 122:Generated_Source\PSoC5/SS_1.c **** *
 123:Generated_Source\PSoC5/SS_1.c **** * \brief Reads the associated physical port's data output register and masks 
 124:Generated_Source\PSoC5/SS_1.c **** *  the correct bits according to the width and bit position of the component 
 125:Generated_Source\PSoC5/SS_1.c **** *  instance. 
 126:Generated_Source\PSoC5/SS_1.c **** *
 127:Generated_Source\PSoC5/SS_1.c **** * The data output register controls the signal applied to the physical pin in 
 128:Generated_Source\PSoC5/SS_1.c **** * conjunction with the drive mode parameter. This is not the same as the 
 129:Generated_Source\PSoC5/SS_1.c **** * preferred SS_1_Read() API because the 
 130:Generated_Source\PSoC5/SS_1.c **** * SS_1_ReadDataReg() reads the data register instead of the status 
 131:Generated_Source\PSoC5/SS_1.c **** * register. For output pins this is a useful function to determine the value 
 132:Generated_Source\PSoC5/SS_1.c **** * just written to the pin.
 133:Generated_Source\PSoC5/SS_1.c **** *
 134:Generated_Source\PSoC5/SS_1.c **** * \return 
 135:Generated_Source\PSoC5/SS_1.c **** *  The current value of the data register masked and shifted into a right 
 136:Generated_Source\PSoC5/SS_1.c **** *  justified number for the component instance.
 137:Generated_Source\PSoC5/SS_1.c **** *
ARM GAS  C:\Users\JEFFSN~1\AppData\Local\Temp\ccla1Mmg.s 			page 19


 138:Generated_Source\PSoC5/SS_1.c **** * \funcusage
 139:Generated_Source\PSoC5/SS_1.c **** *  \snippet SS_1_SUT.c usage_SS_1_ReadDataReg 
 140:Generated_Source\PSoC5/SS_1.c **** *******************************************************************************/
 141:Generated_Source\PSoC5/SS_1.c **** uint8 SS_1_ReadDataReg(void)
 142:Generated_Source\PSoC5/SS_1.c **** {
 324              		.loc 1 142 0
 325              		.cfi_startproc
 326              		@ args = 0, pretend = 0, frame = 0
 327              		@ frame_needed = 0, uses_anonymous_args = 0
 328              		@ link register save eliminated.
 143:Generated_Source\PSoC5/SS_1.c ****     return (SS_1_DR & SS_1_MASK) >> SS_1_SHIFT;
 329              		.loc 1 143 0
 330 0000 024B     		ldr	r3, .L11
 331 0002 1878     		ldrb	r0, [r3]	@ zero_extendqisi2
 144:Generated_Source\PSoC5/SS_1.c **** }
 332              		.loc 1 144 0
 333 0004 C0F34010 		ubfx	r0, r0, #5, #1
 334 0008 7047     		bx	lr
 335              	.L12:
 336 000a 00BF     		.align	2
 337              	.L11:
 338 000c 10510040 		.word	1073762576
 339              		.cfi_endproc
 340              	.LFE3:
 341              		.size	SS_1_ReadDataReg, .-SS_1_ReadDataReg
 342              		.text
 343              	.Letext0:
 344              		.file 2 "Generated_Source\\PSoC5\\cytypes.h"