ARM GAS  C:\Users\JEFFSN~1\AppData\Local\Temp\ccgWj2lf.s 			page 1


   1              		.syntax unified
   2              		.cpu cortex-m3
   3              		.fpu softvfp
   4              		.eabi_attribute 20, 1
   5              		.eabi_attribute 21, 1
   6              		.eabi_attribute 23, 3
   7              		.eabi_attribute 24, 1
   8              		.eabi_attribute 25, 1
   9              		.eabi_attribute 26, 1
  10              		.eabi_attribute 30, 2
  11              		.eabi_attribute 34, 1
  12              		.eabi_attribute 18, 4
  13              		.thumb
  14              		.syntax unified
  15              		.file	"USB_ep1_dma.c"
  16              		.text
  17              	.Ltext0:
  18              		.section	.gnu.lto_.profile.47c3ed9,"",%progbits
  19 0000 789C6361 		.ascii	"x\234ca`d`a`\000\222\266\342\000\000\373\000_"
  19      60646061 
  19      600092B6 
  19      E20000FB 
  19      005F
  20              		.text
  21              		.section	.gnu.lto_.icf.47c3ed9,"",%progbits
  22 0000 789C6361 		.ascii	"x\234ca`d\000\001\021\006\004`fh\353\271}\214\231\261"
  22      60640001 
  22      11060460 
  22      6668EBB9 
  22      7D8C99B1 
  23 0014 7B4EDB0D 		.ascii	"{N\333\015V\246\233\253\177M\347d\000\000XQ\010~"
  23      56A69BAB 
  23      7F4DE764 
  23      00005851 
  23      087E
  24              		.text
  25              		.section	.gnu.lto_.jmpfuncs.47c3ed9,"",%progbits
  26 0000 789C6361 		.ascii	"x\234ca`d\000\2012\006\004`b`a\004\002~\020\301\002"
  26      60640081 
  26      32060460 
  26      62606104 
  26      027E10C1 
  27 0015 E433FE65 		.ascii	"\3443\376eb<\372\377\373\001\376/L\255\314\014\214L"
  27      623CFAFF 
  27      FB01FE2F 
  27      4CADCC0C 
  27      8C4C
  28 0027 8CCB1965 		.ascii	"\214\313\031e\030\030\330@*+\231\300$3\220\344\001)"
  28      1818D840 
  28      2A2B99C0 
  28      243390E4 
  28      0129
  29 0039 5BFF66E7 		.ascii	"[\377f\347O^\2102\006\306\025 eL\225`#+A\3260B\204P"
  29      4F5E8832 
  29      06C61520 
  29      654C9560 
  29      232B41D6 
ARM GAS  C:\Users\JEFFSN~1\AppData\Local\Temp\ccgWj2lf.s 			page 2


  30 0051 29263062 		.ascii	")&0b`\000\000\343?\022k"
  30      600000E3 
  30      3F126B
  31              		.text
  32              		.section	.gnu.lto_.inline.47c3ed9,"",%progbits
  33 0000 789C6361 		.ascii	"x\234ca`d\000\001\177\006\004`b`\020\325gd`\3428`\307"
  33      60640001 
  33      7F060460 
  33      626010D5 
  33      676460E2 
  34 0017 C0B6409E 		.ascii	"\300\266@\236\011$\306\314\003\024\237\340\307\300\302"
  34      0924C6CC 
  34      03149FE0 
  34      C7C0C2
  35 0026 0B644FF0 		.ascii	"\013dO\360\003Av\001\006\0066\006\020\013\254\207\215"
  35      03417601 
  35      06063606 
  35      100BAC87 
  35      8D
  36 0037 0FA885E9 		.ascii	"\017\250\205\351\002?\\\013\0237\003\003#P\022\000\264"
  36      023F5C0B 
  36      13370303 
  36      23501200 
  36      B4
  37 0048 960A8E   		.ascii	"\226\012\216"
  38              		.text
  39              		.section	.gnu.lto_.pureconst.47c3ed9,"",%progbits
  40 0000 789C6361 		.ascii	"x\234ca`d`e```b\220`\222\000\000\000\347\000?"
  40      60646065 
  40      60606062 
  40      90609200 
  40      0000E700 
  41              		.text
  42              		.section	.gnu.lto_USB_ep1_DmaInitialize.47c3ed9,"",%progbits
  43 0000 789C9592 		.ascii	"x\234\225\222ML\023A\024\307\347\315\264\335\272\224"
  43      4D4C1341 
  43      14C7E7CD 
  43      B4DDBA94 
  44 0010 C2CD833D 		.ascii	"\302\315\203=x1\300\305h\210\211W\301\304+i\303\015"
  44      7831C0C5 
  44      68888957 
  44      C1C42B69 
  44      C30D
  45 0022 4390EE51 		.ascii	"C\220\356QZ\267\345\334\201uU\022\017\222\360!\007h"
  45      5AB7E5DC 
  45      81755512 
  45      0F92F021 
  45      0768
  46 0034 D4105051 		.ascii	"\324\020PQ\304\357E\305\342G4\221HT<\341\301x \206\220"
  46      C4EF45C5 
  46      E2473491 
  46      48543CE1 
  46      C1782086 
  47 0049 D09202D1 		.ascii	"\320\222\002\321\004\327\367\246K5\201\013\233lv\346"
  47      04D7F7A6 
  47      4B35810B 
  47      9B6C76E6 
ARM GAS  C:\Users\JEFFSN~1\AppData\Local\Temp\ccgWj2lf.s 			page 3


  48 0059 EDFBFFFF 		.ascii	"\355\373\377\377\277\267;>\006\214\256\021\301\330\031"
  48      BFB73B3E 
  48      068CAE11 
  48      C1D819
  49 0068 7C1EC01B 		.ascii	"|\036\300\033\004\003~\345#c]A\016@\013\031\004\226"
  49      04037EE5 
  49      23635D41 
  49      0E400B19 
  49      0496
  50 007a E1908175 		.ascii	"\341\220\201u\276\305\341\303\346\373\313z\335\230\224"
  50      BEC5E1C3 
  50      E6FBCB7A 
  50      DD9894
  51 0089 DDF2FBE8 		.ascii	"\335\362\373\350\332\361\301\361\034\330(w9\203\372"
  51      DAF1C1F1 
  51      1CD82877 
  51      3983FA
  52 0098 081C8990 		.ascii	"\010\034\211\220\305\030\324a\347\302\304|OX\324\002"
  52      C518D461 
  52      E7C2C47C 
  52      4F58D402 
  53 00a8 C3F548DF 		.ascii	"\303\365H\337\\Q\324\214\222J\016\236\226\002%0\016"
  53      5C51D48C 
  53      924A0E9E 
  53      96022530 
  53      0E
  54 00b9 E29F8A3C 		.ascii	"\342\237\212<\340&\324`\357\352\227\353\373E\275\222"
  54      E026D460 
  54      EFEA97EB 
  54      FB45BD92 
  55 00c9 F566DF2D 		.ascii	"\365f\337-\373=\331\242'\273\265Cv[\311\336\272\233"
  55      FB3DD9A2 
  55      27BBB543 
  55      765BC9DE 
  55      BA9B
  56 00db B9AA22B7 		.ascii	"\271\252\"\267\005\000q~\316\317\015W\320\226C5nWn\\"
  56      0500717E 
  56      CECF0D57 
  56      D0964335 
  56      6E576E5C 
  57 00ef 5B088906 		.ascii	"[\010\211\006\345\332\275\2656\023\366\\\235\013!\331"
  57      E5DABDB5 
  57      3613F65C 
  57      9D0B21D9 
  58 00ff 640B0177 		.ascii	"d\013\001wK\266w \002\023@\306\0305\251\214\247\177"
  58      4BB67720 
  58      021340C6 
  58      1835A98C 
  58      A77F
  59 0111 2FAD8645 		.ascii	"/\255\206ETI\373^;\3566\320\320EOzo\027\351\024\324"
  59      5449FB5E 
  59      3BEE36D0 
  59      D0454F7A 
  59      6F17E914 
  60 0126 50FF8FA9 		.ascii	"P\377\217\251?\375\225\201\363\022\257\203\364\215\220"
  60      3FFD9581 
  60      F312AF83 
ARM GAS  C:\Users\JEFFSN~1\AppData\Local\Temp\ccgWj2lf.s 			page 4


  60      F48D90
  61 0135 F63E04E8 		.ascii	"\366>\004\350\253OFs\322u-\231\353\327f\277i\225H\215"
  61      AB4F4673 
  61      D2752D99 
  61      EBD766BF 
  61      6995488D 
  62 0149 D3FB8086 		.ascii	"\323\373\200\206\011\240\205O\003\212\017\0029\351T"
  62      09A0854F 
  62      038A0F02 
  62      39E954
  63 0158 08A96159 		.ascii	"\010\251aY\036M\350\257\0248\247\247X\202\356b~\251"
  63      1E4DE8AF 
  63      1438A7A7 
  63      5882EE62 
  63      7EA9
  64 016a E0275F0C 		.ascii	"\340'_\014\034\260_\315k4\266_\361:\316\312\242\226"
  64      1CB05FCD 
  64      6B34B65F 
  64      F13ACECA 
  64      A296
  65 017c D99297A4 		.ascii	"\331\222\227\244\254\306Z\0179`yy\356\353\033=\013\303"
  65      ACC65A0F 
  65      39607979 
  65      EEEB1B3D 
  65      0BC3
  66 018e 5D52D519 		.ascii	"]R\325\031<\304\337\373\000\331\031<\202,`\307\344\212"
  66      3CC4DFFB 
  66      00D9193C 
  66      822C60C7 
  66      E48A
  67 01a0 F3AB927C 		.ascii	"\363\253\222||\300\3401\276\371\011C\362\352F-\305\354"
  67      7CC0E031 
  67      BEF90943 
  67      F2EA462D 
  67      C5EC
  68 01b2 340EB81C 		.ascii	"4\016\270\034g\202'\220Q\315\226\020\026\012q\265}\333"
  68      67822790 
  68      51CD9610 
  68      160A71B5 
  68      7DDB
  69 01c4 4263483A 		.ascii	"BcH:\320[\004r\260D`\017pO\313p\016\302!I`w\212\240"
  69      D05B0472 
  69      B044600F 
  69      704FCB70 
  69      0EC22149 
  70 01dc 8BDF84C1 		.ascii	"\213\337\204\3014R`\200%4K\004m\261O\005\177Z\367\202"
  70      34526080 
  70      25344B04 
  70      6DB14F05 
  70      7F5AF782 
  71 01f0 F53D043F 		.ascii	"\365=\004?+\007?/\005\373w\017\326]N\347\360\205\012"
  71      2B073F2F 
  71      05FB770F 
  71      D65D4EE7 
  71      F0850A
  72 0203 D6FF3F8B 		.ascii	"\326\377?\213>\3400C\343W(\212\302\306\254(a\204\366"
  72      3EE03043 
ARM GAS  C:\Users\JEFFSN~1\AppData\Local\Temp\ccgWj2lf.s 			page 5


  72      E357288A 
  72      C2C6AC28 
  72      6184F6
  73 0216 80F1B28C 		.ascii	"\200\361\262\214\221#\214e\364,y0u\036\200\316\001\016"
  73      91238C65 
  73      F42C7930 
  73      751E80CE 
  73      010E
  74 0228 7EE894D1 		.ascii	"~\350\224\321a\230mi#\336\032Kt\232\355FKS,\321x\254"
  74      61986D69 
  74      23DE1A4B 
  74      749AED46 
  74      4B532CD1 
  75 023e A539D6D0 		.ascii	"\2459\326\320j$\217\266\306\317\266\035ngzC\247\231"
  75      6A248FB6 
  75      C6CFB61D 
  75      6E677A43 
  75      A799
  76 0250 4A37263A 		.ascii	"J7&:;\322\341\250q\316H\245\233\014S\325\252\232\223"
  76      3BD2E1A8 
  76      71CE48A5 
  76      9B0C53D5 
  76      AA9A93
  77 0263 49C38C99 		.ascii	"I\303\214\231\355'\342q\323H\245\252\325\376$vx\205"
  77      ED27E271 
  77      D348A5AA 
  77      D5FE2476 
  77      7885
  78 0275 BFCF6B57 		.ascii	"\277\317kWX"
  78      58
  79              		.text
  80              		.section	.gnu.lto_USB_ep1_DmaRelease.47c3ed9,"",%progbits
  81 0000 789C654E 		.ascii	"x\234eN=K\003A\024|\363\366L\302\201`\257\205\215H\032"
  81      3D4B0341 
  81      147CF3F6 
  81      4CC28160 
  81      AF858D48 
  82 0015 21857F40 		.ascii	"!\205\177@\013\301Jr\330\005BH\256\324H\320\3726\211"
  82      0BC14A72 
  82      D8054248 
  82      AED448D0 
  82      FA3689
  83 0028 8BDAD998 		.ascii	"\213\332\331\230N\322\231\250\001\021\033\257;\203\245"
  83      4ED299A8 
  83      01111BAF 
  83      3B83A5
  84 0037 1F95958D 		.ascii	"\037\225\225\215X\004\011\026\011h\031\317\267g\351"
  84      58040916 
  84      096819CF 
  84      B767E9
  85 0046 C0F29679 		.ascii	"\300\362\226y\363f\306!\220EJ\306\242\314YyP\004>~\""
  85      F366C621 
  85      90454AC6 
  85      A2CC5979 
  85      50043E7E 
  86 005b AA6718B0 		.ascii	"\252g\030\260\037\235\001\005\214\000\337<a\364\017"
  86      1F9D0105 
ARM GAS  C:\Users\JEFFSN~1\AppData\Local\Temp\ccgWj2lf.s 			page 6


  86      8C00DF3C 
  86      61F40F
  87 006a 0621673B 		.ascii	"\006!g;Z\360f\316r\272\033\301(\242\230\023'B\007Y\022"
  87      5AF066CE 
  87      72BA1BC1 
  87      28A29813 
  87      27420759 
  88 007f D9FBF5CF 		.ascii	"\331\373\365\317\311tj\337\312\346\377\226\350\302\346"
  88      C9746ADF 
  88      CAE6FF96 
  88      E8C2E6
  89 008e D0553ED2 		.ascii	"\320U>\322q\334\324\321\215{w\353:LF\011=\022\211\015"
  89      71DCD4D1 
  89      8D7B77EB 
  89      3A4C4609 
  89      3D12890D 
  90 00a2 1B33DBA9 		.ascii	"\0333\333\251\006h\264\306\217y{\324T6\267e\372\317"
  90      0668B4C6 
  90      8F797BD4 
  90      5436B765 
  90      FACF
  91 00b4 E92F368A 		.ascii	"\351/6\212a\375\303\360\3635\035L\364\241\3263\302\035"
  91      61FDC3F0 
  91      F3351D4C 
  91      F4A1D633 
  91      C21D
  92 00c6 49054B0F 		.ascii	"I\005K\017\037^\356\3356N\353:\341\025.\244\3679\346"
  92      1F5EEEDD 
  92      364EEB3A 
  92      E1152EA4 
  92      F739E6
  93 00d9 24FE126D 		.ascii	"$\376\022m\320\007\034k\371\337\301\211\305\227\320"
  93      D0071C6B 
  93      F9DFC189 
  93      C597D0
  94 00e8 43409267 		.ascii	"C@\222g\324\024\015\321\210\302\365Dm1\222\275\024\223"
  94      D4140DD1 
  94      88C2F544 
  94      6D3192BD 
  94      1493
  95 00fa 9A0B6BFE 		.ascii	"\232\013k\376\266_+\355\372\225\242W\335\253\225\375"
  95      B65F2BED 
  95      FA95A257 
  95      DDAB95FD 
  96 010a C286575D 		.ascii	"\302\206W]].lz+E\177'W\254l\225\226\312\364\013\227"
  96      5D2E6C7A 
  96      2B457F27 
  96      57AC6C95 
  96      96CAF40B 
  97 011f 0D68E2   		.ascii	"\015h\342"
  98              		.text
  99              		.section	.gnu.lto_.symbol_nodes.47c3ed9,"",%progbits
 100 0000 789C558C 		.ascii	"x\234U\214\261\015\2000\014\004\317q\222\001\230\000"
 100      B10D8030 
 100      0C04CF71 
 100      92019800 
 101 0010 26759028 		.ascii	"&u\220()\230\207:53\300\"\010'\025\371\346t\377\322"
ARM GAS  C:\Users\JEFFSN~1\AppData\Local\Temp\ccgWj2lf.s 			page 7


 101      2998873A 
 101      3533C022 
 101      082715F9 
 101      E674FFD2 
 102 0024 47841D4F 		.ascii	"G\204\035O\020\203\343\002\307Y\026H\260Nm\010&\303"
 102      1083E302 
 102      C7591648 
 102      B04E6D08 
 102      26C3
 103 0036 20C9422F 		.ascii	" \311B/\240\224\331=\232\016\256\026\007\317\226\376"
 103      A094D93D 
 103      9A0EAE16 
 103      07CF96FE 
 104 0046 AE7E5DEF 		.ascii	"\256~]\357W\224\310\3664*\2651\344\336\363\001\314\364"
 104      5794C8F6 
 104      342AB531 
 104      E4DEF301 
 104      CCF4
 105 0058 1F26     		.ascii	"\037&"
 106              		.text
 107              		.section	.gnu.lto_.refs.47c3ed9,"",%progbits
 108 0000 789C0DC7 		.ascii	"x\234\015\307I\021\000 \000\000!\326c,`\377\254\312"
 108      49110020 
 108      000021D6 
 108      632C60FF 
 108      ACCA
 109 0012 8F25174B 		.ascii	"\217%\027K\245\251\255\323\370\365\000\003\311\0008"
 109      A5A9ADD3 
 109      F8F50003 
 109      C90038
 110              		.text
 111              		.section	.gnu.lto_.decls.47c3ed9,"",%progbits
 112 0000 789C8D54 		.ascii	"x\234\215TkL\024W\024\23633]\226E\304\022mi\262I\321"
 112      6B4C1457 
 112      149E3333 
 112      5D9645C4 
 112      126D69B2 
 113 0016 44E1172D 		.ascii	"D\341\027-i\332\370\253\211]\253\266\211\215)\325\244"
 113      69DAF8AB 
 113      895DABB6 
 113      898D29D5 
 113      A4
 114 0027 890959D9 		.ascii	"\211\011Y\331i\335\004\027\303.M\351\257\251\342\003"
 114      69DD0417 
 114      C32E4DE9 
 114      AFA9E203 
 115 0037 6D536828 		.ascii	"mSh(\025\252\025\261U\2207R\005D\272\370\000\026D\236"
 115      15AA15B1 
 115      55903752 
 115      0544BAF8 
 115      0016449E 
 116 004b CA5B9105 		.ascii	"\312[\221\005\225\024R(\232\226\002\245\347>fg\327\224"
 116      95145228 
 116      9A9602A5 
 116      E73E6667 
 116      D794
 117 005d B6377B76 		.ascii	"\2667{v\356=\367;\347;\337\271wF\026@ \343q\220 \254"
ARM GAS  C:\Users\JEFFSN~1\AppData\Local\Temp\ccgWj2lf.s 			page 8


 117      EE3DF73B 
 117      E73BDFB9 
 117      77461640 
 117      20E37190 
 118 0073 C1E924CE 		.ascii	"\301\351$\316\227pH\370\334\205Fv\315\002\033\006\264"
 118      977048F8 
 118      DC854676 
 118      CD021B06 
 118      B4
 119 0084 AB686EB4 		.ascii	"\253hn\264\026\264\016\264~\264a\216\033\021\002\007"
 119      16B40EB4 
 119      7EB4618E 
 119      1B110207 
 120 0094 C1AE40BB 		.ascii	"\301\256@\273\214\026\216\266\032\255\214\347{\2006"
 120      8C168EB6 
 120      1AAD8CE7 
 120      7B8036
 121 00a3 8AD687E6 		.ascii	"\212\326\207\346EkG\033C\363\360X\231\307\367s\236\226"
 121      456B471B 
 121      43F3F058 
 121      99C7F773 
 121      9E96
 122 00b5 6538DCBC 		.ascii	"e8\334\274\256]~y\011\3378\332\020\307\210\034\267\\"
 122      AE5D7E79 
 122      09DF38DA 
 122      10C7881C 
 122      B75C
 123 00c7 9D8B222C 		.ascii	"\235\213\",\235\256\372\3128\010\375 \011\274!\002\000"
 123      9DAEFACA 
 123      3808FD20 
 123      09BC2102 
 123      00
 124 00d8 FB076A02 		.ascii	"\373\007j\0023\272\304\211(\260\211\346\362\015\201"
 124      33BAC489 
 124      28B089E6 
 124      F20D81
 125 00e7 43446DAA 		.ascii	"CDm\252'\243?\036\017K\332\240I\364\354\300\203\330"
 125      27A33F1E 
 125      0F4BDAA0 
 125      49F4ECC0 
 125      83D8
 126 00f9 9A070B3C 		.ascii	"\232\007\013<\010D\235\000\330R\213\360\313\367LEZ\315"
 126      08449D00 
 126      D8528BF0 
 126      CBF74C45 
 126      5ACD
 127 010b 1A0D6D07 		.ascii	"\032\015m\007\025=2P~\315(\211@\346\367\347\012\266"
 127      153D3250 
 127      7ECD2889 
 127      40E6F7E7 
 127      0AB6
 128 011d C414AB38 		.ascii	"\304\024\25382TU\334\250w\346\307?\347\247\245'\"l0"
 128      325455DC 
 128      A877E6C7 
 128      3FE7A7A5 
 128      27226C30 
 129 0131 61CD123A 		.ascii	"a\315\022:\312&k\346B\231\203\354\027\234i\274h\222"
ARM GAS  C:\Users\JEFFSN~1\AppData\Local\Temp\ccgWj2lf.s 			page 9


 129      CA266BE6 
 129      429983EC 
 129      179C69BC 
 129      6892
 130 0143 D6D2F9CD 		.ascii	"\326\322\371\315\245\337\335a\270\025n\002\021\227]"
 130      A5DFDD61 
 130      B8156E02 
 130      11975D
 131 0152 D3B74E85 		.ascii	"\323\267N\205\340r\265\011V-\212\342\311\254\206\022"
 131      E072B509 
 131      562D8AE2 
 131      C9AC8612 
 132 0162 0398A28F 		.ascii	"\003\230\242\217\252\352\001U=\250\232\012V\012P\012"
 132      AAEA0155 
 132      3DA89A0A 
 132      560A500A 
 133 0172 662801B3 		.ascii	"f(\001\263\000\345\020MR\026B\214\000E\350\274\200\316"
 133      00E5104D 
 133      5216428C 
 133      0045E8BC 
 133      80CE
 134 0184 73A49E91 		.ascii	"s\244\236\221\212\2117kTu\025\224\201\011\212A\242\020"
 134      8A89376B 
 134      54751594 
 134      81098A41 
 134      A210
 135 0196 14B3C1C4 		.ascii	"\024\263\301\304\012\314\356~2\0072\212\242\200=2\361"
 135      0ACCEE7E 
 135      3207328A 
 135      A2803D32 
 135      F1
 136 01a7 E5FF3A9B 		.ascii	"\345\377:\233i\364\371*\200:\313\016\215\025\032\261"
 136      69F4F92A 
 136      803ACB0E 
 136      8D151AB1 
 137 01b7 1C332A01 		.ascii	"\0343*\001?!f&$'\323\373W\210\364.\231\213\335\336\242"
 137      3F216626 
 137      2427D3FB 
 137      5788F42E 
 137      998BDDDE 
 138 01cc 0919A24D 		.ascii	"\011\031\242M\264\000w\345\313\252\010\2271\321O:\273"
 138      B40077E5 
 138      CBAA0897 
 138      31D14F3A 
 138      BB
 139 01dd 99B05325 		.ascii	"\231\260S%\323\371\252!B\200\327\314\360*\312\270\204"
 139      D3F9AA21 
 139      4280D7CC 
 139      F02ACAB8 
 139      84
 140 01ee 32CC5C46 		.ascii	"2\314\\F\025\312\270\21020\271\267?s6\204\026D\362T"
 140      15CAB888 
 140      3230B9B7 
 140      3F733684 
 140      1644F254 
 141 0202 B2827A67 		.ascii	"\262\202zg*\263\303|\316j\346\354L+?)\261\036\312\270"
 141      2AB3C37C 
ARM GAS  C:\Users\JEFFSN~1\AppData\Local\Temp\ccgWj2lf.s 			page 10


 141      CE6AE6EC 
 141      4C2B3F29 
 141      B11ECAB8 
 142 0216 9C69CBF5 		.ascii	"\234i\313\365\256d=\214$\302>\177<\025\034\221M\317"
 142      AE643D8C 
 142      24C23E7F 
 142      3C151C91 
 142      4DCF
 143 0228 E9A01A29 		.ascii	"\351\240\032)\323\310+\310S\213<\002\324A\004\376\327"
 143      D3C82BC8 
 143      538B3C02 
 143      D44104FE 
 143      D7
 144 0239 80CC5A53 		.ascii	"\200\314ZS\272p\370p\320\272<5\257\\\035\351l\264\315"
 144      BA70F870 
 144      D0BA3C35 
 144      AF5C1DE9 
 144      6CB4CD
 145 024c 54AA6A3A 		.ascii	"T\252j:F\312\004\007\005\272\230\002r\355\0058\017\203"
 145      46CA0407 
 145      05BA9802 
 145      72ED0538 
 145      0F83
 146 025e 7845AEC2 		.ascii	"xE\256\302:\014=R\3479\021*}B;\263\350\371.W\364'\335"
 146      3A0C3D52 
 146      E739112A 
 146      7D423BB3 
 146      E8F92E57 
 147 0275 F5821FE7 		.ascii	"\365\202\037\347\317\224s\017\247<\2630\366}0\243tW"
 147      CF94730F 
 147      A73CB330 
 147      F67D30A3 
 147      7457
 148 0287 1C937254 		.ascii	"\034\223rTw\032\206\211\004\005\365:c\275?\243\2332"
 148      771A8689 
 148      0405F53A 
 148      63BD3FA3 
 148      9B32
 149 0299 36E75CB8 		.ascii	"6\347\\\270(K\351@)\307\277=\375\213\301\327\032v\250"
 149      284BE940 
 149      29C7BF3D 
 149      FD8BC1D7 
 149      1A76A8
 150 02ac 7FD49D1A 		.ascii	"\177\324\235\032\020}\276k\254]\303\315\205E\244]Q&"
 150      107DBE6B 
 150      AC5DC3CD 
 150      8545A45D 
 150      5126
 151 02be FA4A85F9 		.ascii	"\372J\205\371\235k\024;\327;\227\016M\206H94\257Xr\346"
 151      9D6B143B 
 151      D73B970E 
 151      4D864839 
 151      34AF5872 
 152 02d3 8B32DF1D 		.ascii	"\2132\337\035D1\341\315x\0075-\320\214\207\027\305\017"
 152      4431E1CD 
 152      7807352D 
 152      D08C8717 
ARM GAS  C:\Users\JEFFSN~1\AppData\Local\Temp\ccgWj2lf.s 			page 11


 152      C50F
 153 02e5 EF263A6F 		.ascii	"\357&:o\350wp\352\203\212#DG\023R7\352:\242\370%\234"
 153      E87770EA 
 153      838A2344 
 153      47135237 
 153      EA3AA2F8 
 154 02fb ECB9A71A 		.ascii	"\354\271\247\032\375[\324\024p.\036\332\243\353\332"
 154      FD5BD414 
 154      702E1EDA 
 154      A3EBDA
 155 030a B9540F7C 		.ascii	"\271T\017|\231-b\223F0\3637\307cr+\325\264`\202\201"
 155      992D6293 
 155      4630F337 
 155      C763722B 
 155      D5B46082 
 156 031f 063D7303 		.ascii	"\006=s\003\355\020NZhw\036\216?\355\017\222\256\263"
 156      ED104E5A 
 156      68771E8E 
 156      3FED0F92 
 156      AEB3
 157 0331 EEFCF795 		.ascii	"\356\374\367\225\277\305\272\023x\355\332\230\263\265"
 157      BFC5BA13 
 157      78EDDA98 
 157      B3B5
 158 033f 69A8445A 		.ascii	"i\250DZ\276\326vZ\353m\255\326\003\275\325\2652\253"
 158      BED6765A 
 158      EB6DADD6 
 158      03BDD5B5 
 158      32AB
 159 0351 D55DAB60 		.ascii	"\325]\253`\235\270\017\255z\235\255Z\235\035\264\316"
 159      9DB80FAD 
 159      7A9DAD5A 
 159      9D1DB4CE 
 160 0361 C2471353 		.ascii	"\302G\023S\241\322\360\377=\305.VR\372\301\331<\223"
 160      A1D2F0FF 
 160      3DC52E56 
 160      52FAC1D9 
 160      3C93
 161 0373 CFD9CD9C 		.ascii	"\317\331\315\234\315\003\305\363:\262\2079\333J\262"
 161      CD03C5F3 
 161      3AB28739 
 161      DB4AB2
 162 0382 B6FB7C77 		.ascii	"\266\373|w\230o\2509\375\212\036}\227\277\355\347s\253"
 162      986FA839 
 162      FD8A1E7D 
 162      97BFEDE7 
 162      73AB
 163 0394 FF45651F 		.ascii	"\377Ee\037U\331\253\251<\233q\"#\214\253\274KT\342>"
 163      55D9ABA9 
 163      3C9B7122 
 163      238CABBC 
 163      4B54E23E 
 164 03a8 74EA2A3B 		.ascii	"t\352*;5\225\375TeSE\307T\210\364ty\225\363\267\313"
 164      3595FD54 
 164      655345C7 
 164      5488F474 
 164      7995F3B7 
ARM GAS  C:\Users\JEFFSN~1\AppData\Local\Temp\ccgWj2lf.s 			page 12


 165 03bd 4BC5E5D9 		.ascii	"K\305\345\331\207(\373\240\306\376\233g\366Q\020g\257"
 165      8728FBA0 
 165      C6FE9B67 
 165      F6511067 
 165      AF
 166 03ce 22ECB80F 		.ascii	"\"\354\270\017\003:\373\200\306>L\331\357\037\037=g"
 166      033AFB80 
 166      C63E4CD9 
 166      EF1F1F3D 
 166      67
 167 03df 78C23E49 		.ascii	"x\302>I\364K\266\224U_\"Ki\354K\376\303\327\365\345"
 167      F44BB694 
 167      555F224B 
 167      69EC4BFE 
 167      C3D7F5E5 
 168 03f3 F2FAB36A 		.ascii	"\362\372\263j^>y\351\267\314\224\252\252D\241\367YB"
 168      5E3E79E9 
 168      B7CC94AA 
 168      AA44A1F7 
 168      5942
 169 0405 FEA512E8 		.ascii	"\376\245\022\350\372\036\271\366#\260\036\343\216\367"
 169      FA1EB9F6 
 169      23B01EE3 
 169      8EF7
 170 0413 2C6C5A71 		.ascii	",lZqL\177/\236\371\264<\200\025\264\004|\"\370h\376"
 170      4C7F2F9E 
 170      F9B43C80 
 170      15B4047C 
 170      22F868FE 
 171 0427 605B6800 		.ascii	"`[h\000\2324LG\217r\364(E\337x\332Wo\010@\267\007\240"
 171      9A344C47 
 171      8F72F428 
 171      45DF78DA 
 171      576F0840 
 172 043e BD1CEDA5 		.ascii	"\275\034\355\245\350\271\264c\023\201hO\000z\214\243"
 172      E8B9B463 
 172      1381684F 
 172      007A8CA3 
 173 044e C728FAA1 		.ascii	"\307(\372\241\247k\321\030\200\036\012@\217s4y\256\331"
 173      A76BD118 
 173      801E0A40 
 173      8F733479 
 173      AED9
 174 0460 19F756BC 		.ascii	"\031\367V\274\262?6~\363>\353;\016\273\313nM\264\177"
 174      B23F367E 
 174      F33EEB3B 
 174      0EBBCB6E 
 174      4DB47F
 175 0473 A618B7BE 		.ascii	"\246\030\267\276\2673\322\022\033+\030R\354\016W\354"
 175      B733D212 
 175      1B2B1852 
 175      EC0E57EC 
 176 0483 1B6BB72A 		.ascii	"\033k\267*\016%\331\352Rl\361qI)\311\011\312\356\035"
 176      0E25D9EA 
 176      526CF171 
 176      4929C909 
 176      CAEE1D
ARM GAS  C:\Users\JEFFSN~1\AppData\Local\Temp\ccgWj2lf.s 			page 13


 177 0496 714996D7 		.ascii	"qI\226\327_IHu\245\356W\2341{\205\347\010p\343\372\177"
 177      5F494875 
 177      A5EE579C 
 177      317B85E7 
 177      0870E3FA 
 178 04ab C6EDD648 		.ascii	"\306\355\326Hl\373\2541\011B\270\037\347\373J\242bu"
 178      6CFBAC31 
 178      0942B81F 
 178      E7FB4AA2 
 178      6275
 179 04bd 2A619654 		.ascii	"*a\226T\\X\366\356H\266'%\333]\251\306\204T\247\313"
 179      5C58F6EE 
 179      48B62725 
 179      DB5DA9C6 
 179      8454A7CB 
 180 04d1 EA4A7146 		.ascii	"\352JqF.\303l\371p\363\366M\226\230m\302K<2Nq\275\375"
 180      2EC36CF9 
 180      70F3F64D 
 180      96986DC2 
 180      4B3C324E 
 181 04e8 A94B71D8 		.ascii	"\251Kq\330\024\333&\233-Yq:_\324w,I\216\217\354\037"
 181      14DB269B 
 181      2D59713A 
 181      5FD4772C 
 181      498E8FEC 
 182 04fd A7601E7B 		.ascii	"\247`\036{\222c%\367o\266;\255{\022\225\347\375\252"
 182      926325F7 
 182      6FB63BAD 
 182      7B1295E7 
 182      FDAA
 183 050f D96675D8 		.ascii	"\331fu\330\022\225\277\001C\303\260\001"
 183      1295BF01 
 183      43C3B001 
 184              		.text
 185              		.section	.gnu.lto_.symtab.47c3ed9,"",%progbits
 186 0000 5553425F 		.ascii	"USB_ep1_DmaInitialize\000"
 186      6570315F 
 186      446D6149 
 186      6E697469 
 186      616C697A 
 187 0016 00       		.ascii	"\000"
 188 0017 00       		.ascii	"\000"
 189 0018 00       		.ascii	"\000"
 190 0019 00000000 		.ascii	"\000\000\000\000\000\000\000\000"
 190      00000000 
 191 0021 BD000000 		.ascii	"\275\000\000\000"
 192 0025 5553425F 		.ascii	"USB_ep1_DmaHandle\000"
 192      6570315F 
 192      446D6148 
 192      616E646C 
 192      6500
 193 0037 00       		.ascii	"\000"
 194 0038 00       		.ascii	"\000"
 195 0039 00       		.ascii	"\000"
 196 003a 00000000 		.ascii	"\000\000\000\000\000\000\000\000"
 196      00000000 
 197 0042 E0000000 		.ascii	"\340\000\000\000"
ARM GAS  C:\Users\JEFFSN~1\AppData\Local\Temp\ccgWj2lf.s 			page 14


 198 0046 5553425F 		.ascii	"USB_ep1_DmaRelease\000"
 198      6570315F 
 198      446D6152 
 198      656C6561 
 198      736500
 199 0059 00       		.ascii	"\000"
 200 005a 00       		.ascii	"\000"
 201 005b 00       		.ascii	"\000"
 202 005c 00000000 		.ascii	"\000\000\000\000\000\000\000\000"
 202      00000000 
 203 0064 C0000000 		.ascii	"\300\000\000\000"
 204 0068 4379446D 		.ascii	"CyDmaChPriority\000"
 204      61436850 
 204      72696F72 
 204      69747900 
 205 0078 00       		.ascii	"\000"
 206 0079 02       		.ascii	"\002"
 207 007a 00       		.ascii	"\000"
 208 007b 00000000 		.ascii	"\000\000\000\000\000\000\000\000"
 208      00000000 
 209 0083 CA000000 		.ascii	"\312\000\000\000"
 210 0087 4379446D 		.ascii	"CyDmaChSetExtendedAddress\000"
 210      61436853 
 210      65744578 
 210      74656E64 
 210      65644164 
 211 00a1 00       		.ascii	"\000"
 212 00a2 02       		.ascii	"\002"
 213 00a3 00       		.ascii	"\000"
 214 00a4 00000000 		.ascii	"\000\000\000\000\000\000\000\000"
 214      00000000 
 215 00ac D0000000 		.ascii	"\320\000\000\000"
 216 00b0 4379446D 		.ascii	"CyDmaChSetConfiguration\000"
 216      61436853 
 216      6574436F 
 216      6E666967 
 216      75726174 
 217 00c8 00       		.ascii	"\000"
 218 00c9 02       		.ascii	"\002"
 219 00ca 00       		.ascii	"\000"
 220 00cb 00000000 		.ascii	"\000\000\000\000\000\000\000\000"
 220      00000000 
 221 00d3 D9000000 		.ascii	"\331\000\000\000"
 222 00d7 4379446D 		.ascii	"CyDmaChDisable\000"
 222      61436844 
 222      69736162 
 222      6C6500
 223 00e6 00       		.ascii	"\000"
 224 00e7 02       		.ascii	"\002"
 225 00e8 00       		.ascii	"\000"
 226 00e9 00000000 		.ascii	"\000\000\000\000\000\000\000\000"
 226      00000000 
 227 00f1 DD000000 		.ascii	"\335\000\000\000"
 228              		.text
 229              		.section	.gnu.lto_.opts,"",%progbits
 230 0000 272D666D 		.ascii	"'-fmath-errno' '-fsigned-zeros' '-ftrapping-math' '"
 230      6174682D 
ARM GAS  C:\Users\JEFFSN~1\AppData\Local\Temp\ccgWj2lf.s 			page 15


 230      6572726E 
 230      6F272027 
 230      2D667369 
 231 0033 2D666E6F 		.ascii	"-fno-trapv' '-fno-openmp' '-fno-openacc' '-mcpu=cor"
 231      2D747261 
 231      70762720 
 231      272D666E 
 231      6F2D6F70 
 232 0066 7465782D 		.ascii	"tex-m3' '-mthumb' '-g' '-O3' '-ffunction-sections' "
 232      6D332720 
 232      272D6D74 
 232      68756D62 
 232      2720272D 
 233 0099 272D6666 		.ascii	"'-ffat-lto-objects' '-finline-functions' '-flto'\000"
 233      61742D6C 
 233      746F2D6F 
 233      626A6563 
 233      74732720 
 234              		.text
 235              		.cfi_sections	.debug_frame
 236              		.section	.text.USB_ep1_DmaInitialize,"ax",%progbits
 237              		.align	2
 238              		.global	USB_ep1_DmaInitialize
 239              		.thumb
 240              		.thumb_func
 241              		.type	USB_ep1_DmaInitialize, %function
 242              	USB_ep1_DmaInitialize:
 243              	.LFB0:
 244              		.file 1 "Generated_Source\\PSoC5\\USB_ep1_dma.c"
   1:Generated_Source\PSoC5/USB_ep1_dma.c **** /***************************************************************************
   2:Generated_Source\PSoC5/USB_ep1_dma.c **** * File Name: USB_ep1_dma.c  
   3:Generated_Source\PSoC5/USB_ep1_dma.c **** * Version 1.70
   4:Generated_Source\PSoC5/USB_ep1_dma.c **** *
   5:Generated_Source\PSoC5/USB_ep1_dma.c **** *  Description:
   6:Generated_Source\PSoC5/USB_ep1_dma.c **** *   Provides an API for the DMAC component. The API includes functions
   7:Generated_Source\PSoC5/USB_ep1_dma.c **** *   for the DMA controller, DMA channels and Transfer Descriptors.
   8:Generated_Source\PSoC5/USB_ep1_dma.c **** *
   9:Generated_Source\PSoC5/USB_ep1_dma.c **** *
  10:Generated_Source\PSoC5/USB_ep1_dma.c **** *   Note:
  11:Generated_Source\PSoC5/USB_ep1_dma.c **** *     This module requires the developer to finish or fill in the auto
  12:Generated_Source\PSoC5/USB_ep1_dma.c **** *     generated funcions and setup the dma channel and TD's.
  13:Generated_Source\PSoC5/USB_ep1_dma.c **** *
  14:Generated_Source\PSoC5/USB_ep1_dma.c **** ********************************************************************************
  15:Generated_Source\PSoC5/USB_ep1_dma.c **** * Copyright 2008-2010, Cypress Semiconductor Corporation.  All rights reserved.
  16:Generated_Source\PSoC5/USB_ep1_dma.c **** * You may use this file only in accordance with the license, terms, conditions, 
  17:Generated_Source\PSoC5/USB_ep1_dma.c **** * disclaimers, and limitations in the end user license agreement accompanying 
  18:Generated_Source\PSoC5/USB_ep1_dma.c **** * the software package with which this file was provided.
  19:Generated_Source\PSoC5/USB_ep1_dma.c **** ********************************************************************************/
  20:Generated_Source\PSoC5/USB_ep1_dma.c **** #include <CYLIB.H>
  21:Generated_Source\PSoC5/USB_ep1_dma.c **** #include <CYDMAC.H>
  22:Generated_Source\PSoC5/USB_ep1_dma.c **** #include <USB_ep1_dma.H>
  23:Generated_Source\PSoC5/USB_ep1_dma.c **** 
  24:Generated_Source\PSoC5/USB_ep1_dma.c **** 
  25:Generated_Source\PSoC5/USB_ep1_dma.c **** 
  26:Generated_Source\PSoC5/USB_ep1_dma.c **** /****************************************************************************
  27:Generated_Source\PSoC5/USB_ep1_dma.c **** * 
  28:Generated_Source\PSoC5/USB_ep1_dma.c **** * The following defines are available in Cyfitter.h
ARM GAS  C:\Users\JEFFSN~1\AppData\Local\Temp\ccgWj2lf.s 			page 16


  29:Generated_Source\PSoC5/USB_ep1_dma.c **** * 
  30:Generated_Source\PSoC5/USB_ep1_dma.c **** * 
  31:Generated_Source\PSoC5/USB_ep1_dma.c **** * 
  32:Generated_Source\PSoC5/USB_ep1_dma.c **** * USB_ep1__DRQ_CTL_REG
  33:Generated_Source\PSoC5/USB_ep1_dma.c **** * 
  34:Generated_Source\PSoC5/USB_ep1_dma.c **** * 
  35:Generated_Source\PSoC5/USB_ep1_dma.c **** * USB_ep1__DRQ_NUMBER
  36:Generated_Source\PSoC5/USB_ep1_dma.c **** * 
  37:Generated_Source\PSoC5/USB_ep1_dma.c **** * Number of TD's used by this channel.
  38:Generated_Source\PSoC5/USB_ep1_dma.c **** * USB_ep1__NUMBEROF_TDS
  39:Generated_Source\PSoC5/USB_ep1_dma.c **** * 
  40:Generated_Source\PSoC5/USB_ep1_dma.c **** * Priority of this channel.
  41:Generated_Source\PSoC5/USB_ep1_dma.c **** * USB_ep1__PRIORITY
  42:Generated_Source\PSoC5/USB_ep1_dma.c **** * 
  43:Generated_Source\PSoC5/USB_ep1_dma.c **** * True if USB_ep1_TERMIN_SEL is used.
  44:Generated_Source\PSoC5/USB_ep1_dma.c **** * USB_ep1__TERMIN_EN
  45:Generated_Source\PSoC5/USB_ep1_dma.c **** * 
  46:Generated_Source\PSoC5/USB_ep1_dma.c **** * TERMIN interrupt line to signal terminate.
  47:Generated_Source\PSoC5/USB_ep1_dma.c **** * USB_ep1__TERMIN_SEL
  48:Generated_Source\PSoC5/USB_ep1_dma.c **** * 
  49:Generated_Source\PSoC5/USB_ep1_dma.c **** * 
  50:Generated_Source\PSoC5/USB_ep1_dma.c **** * True if USB_ep1_TERMOUT0_SEL is used.
  51:Generated_Source\PSoC5/USB_ep1_dma.c **** * USB_ep1__TERMOUT0_EN
  52:Generated_Source\PSoC5/USB_ep1_dma.c **** * 
  53:Generated_Source\PSoC5/USB_ep1_dma.c **** * 
  54:Generated_Source\PSoC5/USB_ep1_dma.c **** * TERMOUT0 interrupt line to signal completion.
  55:Generated_Source\PSoC5/USB_ep1_dma.c **** * USB_ep1__TERMOUT0_SEL
  56:Generated_Source\PSoC5/USB_ep1_dma.c **** * 
  57:Generated_Source\PSoC5/USB_ep1_dma.c **** * 
  58:Generated_Source\PSoC5/USB_ep1_dma.c **** * True if USB_ep1_TERMOUT1_SEL is used.
  59:Generated_Source\PSoC5/USB_ep1_dma.c **** * USB_ep1__TERMOUT1_EN
  60:Generated_Source\PSoC5/USB_ep1_dma.c **** * 
  61:Generated_Source\PSoC5/USB_ep1_dma.c **** * 
  62:Generated_Source\PSoC5/USB_ep1_dma.c **** * TERMOUT1 interrupt line to signal completion.
  63:Generated_Source\PSoC5/USB_ep1_dma.c **** * USB_ep1__TERMOUT1_SEL
  64:Generated_Source\PSoC5/USB_ep1_dma.c **** * 
  65:Generated_Source\PSoC5/USB_ep1_dma.c **** ****************************************************************************/
  66:Generated_Source\PSoC5/USB_ep1_dma.c **** 
  67:Generated_Source\PSoC5/USB_ep1_dma.c **** 
  68:Generated_Source\PSoC5/USB_ep1_dma.c **** /* Zero based index of USB_ep1 dma channel */
  69:Generated_Source\PSoC5/USB_ep1_dma.c **** uint8 USB_ep1_DmaHandle = DMA_INVALID_CHANNEL;
  70:Generated_Source\PSoC5/USB_ep1_dma.c **** 
  71:Generated_Source\PSoC5/USB_ep1_dma.c **** /*********************************************************************
  72:Generated_Source\PSoC5/USB_ep1_dma.c **** * Function Name: uint8 USB_ep1_DmaInitalize
  73:Generated_Source\PSoC5/USB_ep1_dma.c **** **********************************************************************
  74:Generated_Source\PSoC5/USB_ep1_dma.c **** * Summary:
  75:Generated_Source\PSoC5/USB_ep1_dma.c **** *   Allocates and initialises a channel of the DMAC to be used by the
  76:Generated_Source\PSoC5/USB_ep1_dma.c **** *   caller.
  77:Generated_Source\PSoC5/USB_ep1_dma.c **** *
  78:Generated_Source\PSoC5/USB_ep1_dma.c **** * Parameters:
  79:Generated_Source\PSoC5/USB_ep1_dma.c **** *   BurstCount.
  80:Generated_Source\PSoC5/USB_ep1_dma.c **** *       
  81:Generated_Source\PSoC5/USB_ep1_dma.c **** *       
  82:Generated_Source\PSoC5/USB_ep1_dma.c **** *   ReqestPerBurst.
  83:Generated_Source\PSoC5/USB_ep1_dma.c **** *       
  84:Generated_Source\PSoC5/USB_ep1_dma.c **** *       
  85:Generated_Source\PSoC5/USB_ep1_dma.c **** *   UpperSrcAddress.
ARM GAS  C:\Users\JEFFSN~1\AppData\Local\Temp\ccgWj2lf.s 			page 17


  86:Generated_Source\PSoC5/USB_ep1_dma.c **** *       
  87:Generated_Source\PSoC5/USB_ep1_dma.c **** *       
  88:Generated_Source\PSoC5/USB_ep1_dma.c **** *   UpperDestAddress.
  89:Generated_Source\PSoC5/USB_ep1_dma.c **** *       
  90:Generated_Source\PSoC5/USB_ep1_dma.c **** *
  91:Generated_Source\PSoC5/USB_ep1_dma.c **** * Return:
  92:Generated_Source\PSoC5/USB_ep1_dma.c **** *   The channel that can be used by the caller for DMA activity.
  93:Generated_Source\PSoC5/USB_ep1_dma.c **** *   DMA_INVALID_CHANNEL (0xFF) if there are no channels left. 
  94:Generated_Source\PSoC5/USB_ep1_dma.c **** *
  95:Generated_Source\PSoC5/USB_ep1_dma.c **** *
  96:Generated_Source\PSoC5/USB_ep1_dma.c **** *******************************************************************/
  97:Generated_Source\PSoC5/USB_ep1_dma.c **** uint8 USB_ep1_DmaInitialize(uint8 BurstCount, uint8 ReqestPerBurst, uint16 UpperSrcAddress, uint16 
  98:Generated_Source\PSoC5/USB_ep1_dma.c **** {
 245              		.loc 1 98 0
 246              		.cfi_startproc
 247              		@ args = 0, pretend = 0, frame = 0
 248              		@ frame_needed = 0, uses_anonymous_args = 0
 249              	.LVL0:
 250 0000 F0B5     		push	{r4, r5, r6, r7, lr}
 251              		.cfi_def_cfa_offset 20
 252              		.cfi_offset 4, -20
 253              		.cfi_offset 5, -16
 254              		.cfi_offset 6, -12
 255              		.cfi_offset 7, -8
 256              		.cfi_offset 14, -4
 257 0002 1646     		mov	r6, r2
 258 0004 1F46     		mov	r7, r3
 259 0006 83B0     		sub	sp, sp, #12
 260              		.cfi_def_cfa_offset 32
  99:Generated_Source\PSoC5/USB_ep1_dma.c **** 
 100:Generated_Source\PSoC5/USB_ep1_dma.c ****     /* Allocate a DMA channel. */
 101:Generated_Source\PSoC5/USB_ep1_dma.c ****     USB_ep1_DmaHandle = (uint8)USB_ep1__DRQ_NUMBER;
 261              		.loc 1 101 0
 262 0008 0025     		movs	r5, #0
 263 000a 0B4C     		ldr	r4, .L3
 102:Generated_Source\PSoC5/USB_ep1_dma.c **** 
 103:Generated_Source\PSoC5/USB_ep1_dma.c ****     /* Configure the channel. */
 104:Generated_Source\PSoC5/USB_ep1_dma.c ****     (void)CyDmaChSetConfiguration(USB_ep1_DmaHandle,
 264              		.loc 1 104 0
 265 000c 2B46     		mov	r3, r5
 266              	.LVL1:
 267 000e 0A46     		mov	r2, r1
 268              	.LVL2:
 269 0010 0195     		str	r5, [sp, #4]
 270 0012 0146     		mov	r1, r0
 271              	.LVL3:
 272 0014 0095     		str	r5, [sp]
 273 0016 2846     		mov	r0, r5
 274              	.LVL4:
 101:Generated_Source\PSoC5/USB_ep1_dma.c **** 
 275              		.loc 1 101 0
 276 0018 2570     		strb	r5, [r4]
 277              		.loc 1 104 0
 278 001a FFF7FEFF 		bl	CyDmaChSetConfiguration
 279              	.LVL5:
 105:Generated_Source\PSoC5/USB_ep1_dma.c ****                                   BurstCount,
 106:Generated_Source\PSoC5/USB_ep1_dma.c ****                                   ReqestPerBurst,
ARM GAS  C:\Users\JEFFSN~1\AppData\Local\Temp\ccgWj2lf.s 			page 18


 107:Generated_Source\PSoC5/USB_ep1_dma.c ****                                   (uint8)USB_ep1__TERMOUT0_SEL,
 108:Generated_Source\PSoC5/USB_ep1_dma.c ****                                   (uint8)USB_ep1__TERMOUT1_SEL,
 109:Generated_Source\PSoC5/USB_ep1_dma.c ****                                   (uint8)USB_ep1__TERMIN_SEL);
 110:Generated_Source\PSoC5/USB_ep1_dma.c **** 
 111:Generated_Source\PSoC5/USB_ep1_dma.c ****     /* Set the extended address for the transfers */
 112:Generated_Source\PSoC5/USB_ep1_dma.c ****     (void)CyDmaChSetExtendedAddress(USB_ep1_DmaHandle, UpperSrcAddress, UpperDestAddress);
 280              		.loc 1 112 0
 281 001e 3A46     		mov	r2, r7
 282 0020 3146     		mov	r1, r6
 283 0022 2078     		ldrb	r0, [r4]	@ zero_extendqisi2
 284 0024 FFF7FEFF 		bl	CyDmaChSetExtendedAddress
 285              	.LVL6:
 113:Generated_Source\PSoC5/USB_ep1_dma.c **** 
 114:Generated_Source\PSoC5/USB_ep1_dma.c ****     /* Set the priority for this channel */
 115:Generated_Source\PSoC5/USB_ep1_dma.c ****     (void)CyDmaChPriority(USB_ep1_DmaHandle, (uint8)USB_ep1__PRIORITY);
 286              		.loc 1 115 0
 287 0028 2078     		ldrb	r0, [r4]	@ zero_extendqisi2
 288 002a 0221     		movs	r1, #2
 289 002c FFF7FEFF 		bl	CyDmaChPriority
 290              	.LVL7:
 116:Generated_Source\PSoC5/USB_ep1_dma.c ****     
 117:Generated_Source\PSoC5/USB_ep1_dma.c ****     return USB_ep1_DmaHandle;
 118:Generated_Source\PSoC5/USB_ep1_dma.c **** }
 291              		.loc 1 118 0
 292 0030 2078     		ldrb	r0, [r4]	@ zero_extendqisi2
 293 0032 03B0     		add	sp, sp, #12
 294              		.cfi_def_cfa_offset 20
 295              		@ sp needed
 296 0034 F0BD     		pop	{r4, r5, r6, r7, pc}
 297              	.L4:
 298 0036 00BF     		.align	2
 299              	.L3:
 300 0038 00000000 		.word	.LANCHOR0
 301              		.cfi_endproc
 302              	.LFE0:
 303              		.size	USB_ep1_DmaInitialize, .-USB_ep1_DmaInitialize
 304              		.section	.text.USB_ep1_DmaRelease,"ax",%progbits
 305              		.align	2
 306              		.global	USB_ep1_DmaRelease
 307              		.thumb
 308              		.thumb_func
 309              		.type	USB_ep1_DmaRelease, %function
 310              	USB_ep1_DmaRelease:
 311              	.LFB1:
 119:Generated_Source\PSoC5/USB_ep1_dma.c **** 
 120:Generated_Source\PSoC5/USB_ep1_dma.c **** /*********************************************************************
 121:Generated_Source\PSoC5/USB_ep1_dma.c **** * Function Name: void USB_ep1_DmaRelease
 122:Generated_Source\PSoC5/USB_ep1_dma.c **** **********************************************************************
 123:Generated_Source\PSoC5/USB_ep1_dma.c **** * Summary:
 124:Generated_Source\PSoC5/USB_ep1_dma.c **** *   Frees the channel associated with USB_ep1.
 125:Generated_Source\PSoC5/USB_ep1_dma.c **** *
 126:Generated_Source\PSoC5/USB_ep1_dma.c **** *
 127:Generated_Source\PSoC5/USB_ep1_dma.c **** * Parameters:
 128:Generated_Source\PSoC5/USB_ep1_dma.c **** *   void.
 129:Generated_Source\PSoC5/USB_ep1_dma.c **** *
 130:Generated_Source\PSoC5/USB_ep1_dma.c **** *
 131:Generated_Source\PSoC5/USB_ep1_dma.c **** *
ARM GAS  C:\Users\JEFFSN~1\AppData\Local\Temp\ccgWj2lf.s 			page 19


 132:Generated_Source\PSoC5/USB_ep1_dma.c **** * Return:
 133:Generated_Source\PSoC5/USB_ep1_dma.c **** *   void.
 134:Generated_Source\PSoC5/USB_ep1_dma.c **** *
 135:Generated_Source\PSoC5/USB_ep1_dma.c **** *******************************************************************/
 136:Generated_Source\PSoC5/USB_ep1_dma.c **** void USB_ep1_DmaRelease(void) 
 137:Generated_Source\PSoC5/USB_ep1_dma.c **** {
 312              		.loc 1 137 0
 313              		.cfi_startproc
 314              		@ args = 0, pretend = 0, frame = 0
 315              		@ frame_needed = 0, uses_anonymous_args = 0
 316              		@ link register save eliminated.
 138:Generated_Source\PSoC5/USB_ep1_dma.c ****     /* Disable the channel */
 139:Generated_Source\PSoC5/USB_ep1_dma.c ****     (void)CyDmaChDisable(USB_ep1_DmaHandle);
 317              		.loc 1 139 0
 318 0000 014B     		ldr	r3, .L6
 319 0002 1878     		ldrb	r0, [r3]	@ zero_extendqisi2
 320 0004 FFF7FEBF 		b	CyDmaChDisable
 321              	.LVL8:
 322              	.L7:
 323              		.align	2
 324              	.L6:
 325 0008 00000000 		.word	.LANCHOR0
 326              		.cfi_endproc
 327              	.LFE1:
 328              		.size	USB_ep1_DmaRelease, .-USB_ep1_DmaRelease
 329              		.global	USB_ep1_DmaHandle
 330              		.data
 331              		.set	.LANCHOR0,. + 0
 332              		.type	USB_ep1_DmaHandle, %object
 333              		.size	USB_ep1_DmaHandle, 1
 334              	USB_ep1_DmaHandle:
 335 0000 FF       		.byte	-1
 336              		.text
 337              	.Letext0:
 338              		.file 2 "Generated_Source\\PSoC5/cytypes.h"
 339              		.file 3 "Generated_Source\\PSoC5/CYDMAC.H"