ARM GAS  C:\Users\JEFFSN~1\AppData\Local\Temp\cckhmVCS.s 			page 1


   1              		.syntax unified
   2              		.cpu cortex-m3
   3              		.fpu softvfp
   4              		.eabi_attribute 20, 1
   5              		.eabi_attribute 21, 1
   6              		.eabi_attribute 23, 3
   7              		.eabi_attribute 24, 1
   8              		.eabi_attribute 25, 1
   9              		.eabi_attribute 26, 1
  10              		.eabi_attribute 30, 1
  11              		.eabi_attribute 34, 1
  12              		.eabi_attribute 18, 4
  13              		.thumb
  14              		.syntax unified
  15              		.file	"USB_msc.c"
  16              		.text
  17              	.Ltext0:
  18              		.section	.gnu.lto_.profile.ba2da09c,"",%progbits
  19 0000 789C6361 		.ascii	"x\234ca`d`a`\000\2226\352\000\001\011\000n"
  19      60646061 
  19      60009236 
  19      EA000109 
  19      006E
  20              		.text
  21              		.section	.gnu.lto_.inline.ba2da09c,"",%progbits
  22 0000 789C6361 		.ascii	"x\234ca`d\000\0017\006\004`f`P\026bd`\262hz\317\310"
  22      60640001 
  22      37060460 
  22      66605016 
  22      626460B2 
  23 0018 C0B6409E 		.ascii	"\300\266@\236\011$\310\304\015#\230\031XY\200\262,\013"
  23      0924C8C4 
  23      0D239819 
  23      585980B2 
  23      2C0B
  24 002a E4E1922C 		.ascii	"\344\341\222,\230B\014\000\373~\006E"
  24      98420C00 
  24      FB7E0645 
  25              		.text
  26              		.section	.gnu.lto_.jmpfuncs.ba2da09c,"",%progbits
  27 0000 789C6361 		.ascii	"x\234ca`d\000\001^\006\004`\206\221,@\012\000\002U\000"
  27      60640001 
  27      5E060460 
  27      86912C40 
  27      0A000255 
  28 0015 1D       		.ascii	"\035"
  29              		.text
  30              		.section	.gnu.lto_.pureconst.ba2da09c,"",%progbits
  31 0000 789C6361 		.ascii	"x\234ca`d`g```f\220b\226`a\001\000\001\234\000M"
  31      60646067 
  31      60606066 
  31      90629660 
  31      61010001 
  32              		.text
  33              		.section	.gnu.lto_USB_DispatchMSCClassRqst.ba2da09c,"",%progbits
  34 0000 789C9596 		.ascii	"x\234\225\226]LTW\020\307\317\334\263\367c\357.\273"
  34      5D4C5457 
ARM GAS  C:\Users\JEFFSN~1\AppData\Local\Temp\cckhmVCS.s 			page 2


  34      10C7CFDC 
  34      B3F763EF 
  34      2EBB
  35 0012 8B899858 		.ascii	"\213\211\230Xjl\242I}h\3214>\360\326\350C\373\340CS"
  35      6A6CA249 
  35      7D68D134 
  35      3EF0D6E8 
  35      43FBE043 
  36 0027 D2371343 		.ascii	"\3227\023Ca\323>(F\204\2765\334ew\245\320\265\332\244"
  36      61D33E28 
  36      4684BE35 
  36      DC6577A5 
  36      D0B5DAA4 
  37 003b 166A6A35 		.ascii	"\026jj5\251\211\010\245\200@)\210\272E\360\003(T\012"
  37      A98908A5 
  37      80402988 
  37      BA45F003 
  37      28540A
  38 004e A2A05691 		.ascii	"\242\240V\221\332F\251\005BK\321\300v\346\234\313z\245"
  38      DA46A905 
  38      424BD1C0 
  38      76E69CCB 
  38      7AA5
  39 0060 D808C9DE 		.ascii	"\330\010\311\336\275s\316\314\231\337\374g\366^\\\014"
  39      BD73CECC 
  39      99DFFC67 
  39      F65E5C0C 
  40 0070 18FD55B9 		.ascii	"\030\375U\271\031\333\212\337_\340\007\274\014\224\203"
  40      19DB8ADF 
  40      5FE007BC 
  40      0C9483
  41 007f BD8C850C 		.ascii	"\275\214\205\014E\341\261\225\3142\365H&\263\274\\q"
  41      45E1B195 
  41      CC32F548 
  41      26B3BC5C 
  41      71
  42 0090 5D78112D 		.ascii	"]x\021-O\327F\264\\\212:\220AV\333\032\264TE\0331\311"
  42      4FD746B4 
  42      5C8A3A90 
  42      4156DB1A 
  42      B454451B 
  43 00a6 6A3ACFD0 		.ascii	"j:\317\320\324\300#O\320\025\303\021c(nG\214[1[\327"
  43      D4C0234F 
  43      D015C311 
  43      63286E47 
  43      8C5B315B 
  44 00bb 907515D7 		.ascii	"\220u\025\327\274\346B\210\007\200n,\003X\221\302]\252"
  44      BCE64288 
  44      07806E2C 
  44      035891C2 
  44      5DAA
  45 00cd A61B6ED3 		.ascii	"\246\033n\323\003E\360\2272\247@\367\314\245\230\271"
  45      0345F097 
  45      32A740F7 
  45      CCA598B9 
  46 00dd E1846515 		.ascii	"\341\204e\025[\267;\207yye\034\242\234\261\204\302\340"
  46      5BB73B87 
ARM GAS  C:\Users\JEFFSN~1\AppData\Local\Temp\cckhmVCS.s 			page 3


  46      7979651C 
  46      A29CB184 
  46      C2E0
  47 00ef B574D898 		.ascii	"\265t\330\230N\005\234\200\015\014];\0233q\377\264\022"
  47      4E059C80 
  47      0D0C5D3B 
  47      133371FF 
  47      B412
  48 0101 E50014D9 		.ascii	"\345\000\024\331?\321s\304C\246\002\0014\367\035\237"
  48      3FD173C4 
  48      43A60201 
  48      34F71D9F 
  49 0111 F858E7EB 		.ascii	"\370X\347\353\200<\037\206\206>5\326\177M\207\306'\367"
  49      803C1F86 
  49      863E35D6 
  49      7F4D87C6 
  49      27F7
  50 0123 5458F1E2 		.ascii	"TX\361\342\265Q\316\241\0128\235{\022\322\241\022\322"
  50      B551CEA1 
  50      0A389D7B 
  50      12D2A112 
  50      D2
  51 0134 8550E8FC 		.ascii	"\205P\350\374[[\311\000\360\014\021\330W\031\372\312"
  51      5B5BC900 
  51      F00C11D8 
  51      5719FACA 
  52 0144 6F07DECA 		.ascii	"o\007\336\312\266\242\257S\3307K\206\325t\307f]|\263"
  52      B6A2AF53 
  52      D8374B86 
  52      D574C766 
  52      5D7CB3
  53 0157 087B7CC0 		.ascii	"\010{|\300\332bG]\337Un\305C\230\216\301\2672n\241\014"
  53      DA62475D 
  53      DF556EC5 
  53      43988EC1 
  53      B7326EA1 
  54 016c 11355A3F 		.ascii	"\0215Z?\177(E\213X\370\267\026ja=\324\340\247\032\326"
  54      7F28458B 
  54      58F8B716 
  54      6A613DD4 
  54      E0A71AD6 
  55 0180 53C15869 		.ascii	"S\301Xi\035h\330@\356\334\251};n%\022a+>\244\326\373"
  55      1D68D840 
  55      EEDCA97D 
  55      3B6E2512 
  55      612B3EA4 
  56 0196 5E00467B 		.ascii	"^\000F{.\026E!\361\242jt\321\3114\350\316\315(\314$"
  56      2E164521 
  56      F1A26A74 
  56      D1C934E8 
  56      CECD28CC 
  57 01ab DB43B697 		.ascii	"\333C\266\227.)d\372\350\316\317\350\304\000\331\251"
  57      2E2964FA 
  57      E8CECFE8 
  57      C400D9A9 
  58 01bb 78D156D0 		.ascii	"x\321V\320]\2328r\025\335\256\026\267\214M \014\365"
  58      5D9A3872 
ARM GAS  C:\Users\JEFFSN~1\AppData\Local\Temp\cckhmVCS.s 			page 4


  58      15DDAE16 
  58      B78C4D20 
  58      0CF5
  59 01cd 6C5251E8 		.ascii	"lRQ\350\233\217B1\026&\350p\037\313\370<\332\336\247"
  59      9B8F4231 
  59      1626E870 
  59      1FCBF83C 
  59      DADEA7
  60 01e0 93F6386F 		.ascii	"\223\3668oP\217\242\334\203\366\263\223\315\257\220"
  60      508FA2DC 
  60      83F6B393 
  60      CDAF90
  61 01ef 4B98BBD0 		.ascii	"K\230\273\320\243}\252\356\204\227<t\340\316\000C\010"
  61      A37DAAEE 
  61      84973C74 
  61      E0CE0043 
  61      08
  62 0200 3653DAF0 		.ascii	"6S\332\360@\225&\252eQ@eY\315\230v\024\216\204\"8\000"
  62      409526AA 
  62      65514065 
  62      59CD9876 
  62      148E8422 
  63 0216 6E6844B5 		.ascii	"nhD\265\033Hm\334j\352\277\331\346\317\250\261h\307"
  63      1B486DDC 
  63      6AEABFD9 
  63      E6CFA8B1 
  63      68C7
  64 0228 8426380A 		.ascii	"\204&8\012\363\212\255\347'3\211F\357\246Z\261\345\201"
  64      F38AADE7 
  64      27338946 
  64      EFA65AB1 
  64      E581
  65 023a EF20034E 		.ascii	"\357 \003N\311\026A3lB\252\342)]2\251\210\205vxB\223"
  65      C9164133 
  65      6C42AAE2 
  65      295D32A9 
  65      88857678 
  66 0250 362D61FC 		.ascii	"6-a\374\341\323\323]\252\3044\340{\273\020\220.\272"
  66      E1D3D35D 
  66      AAC434E0 
  66      7BBB1090 
  66      2EBA
  67 0262 73E67431 		.ascii	"s\346t1s\317\015\331\352\204\274y\353\324I-\011y\032"
  67      73CF0DD9 
  67      EA84BC79 
  67      EBD4492D 
  67      09791A
  68 0275 215B6CC8 		.ascii	"![l\3106\033\262d\314\316i`Z\302\374\307\306t\013R\203"
  68      361BB264 
  68      CCCE6960 
  68      5AC2FCC7 
  68      C6740B52 
  69 028a 8D8222E4 		.ascii	"\215\202\"\344\307\356\342\242\240\254o\313\224>&\246"
  69      C7EEE2A2 
  69      A0AC6FCB 
  69      943E26A6 
  70 029a 982E8BCE 		.ascii	"\230.\213\316p\311\251/\207\363\254\223\363HyK\231/"
ARM GAS  C:\Users\JEFFSN~1\AppData\Local\Temp\cckhmVCS.s 			page 5


  70      70C9A92F 
  70      87F3AC93 
  70      F348794B 
  70      992F
  71 02ac C9790E39 		.ascii	"\311y\0169\317\330\234\361\247\305\364`R\247\230^\\"
  71      CFD89CF1 
  71      A7C5F460 
  71      52A7985E 
  71      5C
  72 02bd 5AAC5E0A 		.ascii	"Z\254^\012\0368\366\270\246\325'\251\264\345P\265;\251"
  72      1E38F6B8 
  72      A6D527A9 
  72      B4E550B5 
  72      3BA9
  73 02cf 62316B42 		.ascii	"b1kBMR\235G\252\037l\252\216\305\352\3710\255S=\277"
  73      4D529D47 
  73      AA1F6CAA 
  73      8EC5EAF9 
  73      30AD533D 
  74 02e4 40F325D5 		.ascii	"@\363%\325\253&\365\374rX\317\274,}\350\331Q;\3362\233"
  74      AB26F5FC 
  74      7258CFBC 
  74      2C7DE8D9 
  74      513BDE32 
  75 02f9 2239D972 		.ascii	"\"9\331r8/89\303\017\017\365C\222\363\"rv\332\234\227"
  75      382F3839 
  75      C30F0FF5 
  75      4392F322 
  75      7276DA9C 
  76 030e 1673A662 		.ascii	"\026s\246bZv\007\"\275\341w\355\005\347O\004\037\001"
  76      5A760722 
  76      BDE177ED 
  76      05E74F04 
  76      1F01
  77 0320 70D97ED0 		.ascii	"p\331~\320L*\234\305VrA|n\233t^\201\316\215\035\027"
  77      4C2A9CC5 
  77      5672417C 
  77      6E9B745E 
  77      81CE8D1D 
  78 0335 F7199218 		.ascii	"\367\031\222\030\226C\334\355$\2369sx\277'I\334\203"
  78      9643DCED 
  78      249E3973 
  78      78BF2749 
  78      DC83
  79 0347 C45D36F1 		.ascii	"\304]6\361\217H\214|\303\341\374')\257=\350\357\026"
  79      8F488C7C 
  79      C3E1FC27 
  79      29AF3DE8 
  79      EF16
  80 0359 CF5B17CC 		.ascii	"\317[\027\314\003\364&\001]lN\347\302\271:fk\352vj\252"
  80      03F42601 
  80      5D6C4EE7 
  80      C2B93A66 
  80      6BEA766A 
  81 036e 62397D49 		.ascii	"b9}Io\225\375\351\222\336\243\334n\222\263\034\025\000"
  81      6F95FDE9 
  81      92DEA3DC 
ARM GAS  C:\Users\JEFFSN~1\AppData\Local\Temp\cckhmVCS.s 			page 6


  81      6E92B31C 
  81      1500
  82 0380 7E4A3A6B 		.ascii	"~J:kl\220Q\355\217J\376\2568,\264s\352\344\025\315j"
  82      6C9051ED 
  82      8F4AFEAE 
  82      382CB473 
  82      EAE415CD 
  83 0395 69191FD1 		.ascii	"i\031\037\321\213\346\254\217,+\200k\245\\\3266\036"
  83      8BE6AC8F 
  83      2C2B806B 
  83      A55CD636 
  83      1E
  84 03a6 19EDF590 		.ascii	"\031\355\365\220\"V\210\326S\240\037\3378WlM\016TU\334"
  84      225688D6 
  84      53A01FDF 
  84      38576C4D 
  84      0E5455DC 
  85 03ba 75912621 		.ascii	"u\221&!\313\3720\312}\360\263\220\205\336\2350\000\031"
  85      CBFA30CA 
  85      7DF0B390 
  85      85DE9D30 
  85      0019
  86 03cc CE24FE25 		.ascii	"\316$\376%\222\370K9\210s\356\367\014v\230\"\211Xgp"
  86      92F84B39 
  86      8873EEF7 
  86      0C769822 
  86      89586770 
  87 03e0 15930CDA 		.ascii	"\025\223\014\332I\216=\232\035\364\312\030\353(\320"
  87      498E3D9A 
  87      1DF4CA18 
  87      EB28D0
  88 03ef 49439805 		.ascii	"IC\230\0053\\\203\"\032\301\351\211\213W\334vM\317["
  88      335C8322 
  88      1AC1E989 
  88      8B57DC76 
  88      4DCF5B
  89 0402 C4F56717 		.ascii	"\304\365g\027\021\200aQ\204x\217\214\210\"\232Jz\352"
  89      11806151 
  89      84788F8C 
  89      88229A4A 
  89      7AEA
  90 0414 4D2A2280 		.ascii	"M*\"\200\252\336\300\260\337!\034o\270\260N\352\236"
  90      AADEC0B0 
  90      DF211C6F 
  90      B8B04EEA 
  90      9E
  91 0425 F69FBCA9 		.ascii	"\366\237\274\251\011\222\000n\"_\224\257H\376jj\351"
  91      0992006E 
  91      225F94AF 
  91      48FE6A6A 
  91      E9
  92 0436 5793261A 		.ascii	"W\223&\032\242\263H\246\034\306\201;\366\263`\325r\306"
  92      A2B348A6 
  92      1CC6813B 
  92      F6B360D5 
  92      72C6
  93 0448 EFD6B3C7 		.ascii	"\357\326\263\307\357\027\307\370\335^4~\224\2436:v\322"
ARM GAS  C:\Users\JEFFSN~1\AppData\Local\Temp\cckhmVCS.s 			page 7


  93      EF17C7F8 
  93      DD5E347E 
  93      94A3363A 
  93      76D2
  94 045a 90E39700 		.ascii	"\220\343\227\000\270\223\234\021\203]^)\007\252a\377"
  94      B8939C11 
  94      835D5E29 
  94      07AA61FF 
  95 046a C2F839E6 		.ascii	"\302\3709\346\315\315>K\221\333U\013\363\346\3305\331"
  95      CDCD3E4B 
  95      91DB550B 
  95      F3E6D835 
  95      D9
  96 047b 4195EA99 		.ascii	"A\225\352\231\256\273\261\354^\214\376_/\356>\351\305"
  96      AEBBB1EC 
  96      5E8CFE5F 
  96      2FEE3EE9 
  96      C5
  97 048c D8D30315 		.ascii	"\330\323\003\025\300\237\303\257v/\346\366\331\275X"
  97      C09FC3AF 
  97      762FE6F6 
  97      D9BD58
  98 049b BD542F30 		.ascii	"\275T/0\032\356-\325\213\325\202\335\263\360j\0160\271"
  98      1AEE2DD5 
  98      8BD582DD 
  98      B3F06A0E 
  98      30B9
  99 04ad 0CEC3EBE 		.ascii	"\014\354>\276\247\313K|\362L\232\346)l<\276\236]=\177"
  99      A7CB4B7C 
  99      F24C9AE6 
  99      296C3CBE 
  99      9E5D3D7F 
 100 04c1 68F4AD8B 		.ascii	"h\364\255\213\227\265!\256n\206\007\231\343\315\307"
 100      97B521AE 
 100      6E860799 
 100      E3CDC7
 101 04d0 14B2387A 		.ascii	"\024\2628z`\223\265/\033\216\013[E\033\377\015\000\312"
 101      6093B52F 
 101      1B8E0B5B 
 101      451BFF0D 
 101      00CA
 102 04e2 811C2FBD 		.ascii	"\201\034/\275\021\314\013\346g\027\004swd\355.\314\317"
 102      11CC0BE6 
 102      67170473 
 102      7764ED2E 
 102      CCCF
 103 04f4 096E7F2B 		.ascii	"\011n\177+k\367\326\315\333\337\311\332\262c\327\336"
 103      6BF7D6CD 
 103      DBDFC9DA 
 103      B263D7DE 
 104 0504 9C577398 		.ascii	"\234Ws\230\231\233]\220\275-\230\367^\301\373\352\007"
 104      999B5D90 
 104      BD2D98F7 
 104      5EC1FBEA 
 104      07
 105 0515 D93B0B83 		.ascii	"\331;\013\203\276\374\340\236\302\340\336\2027\263\363"
 105      BEFCE09E 
ARM GAS  C:\Users\JEFFSN~1\AppData\Local\Temp\cckhmVCS.s 			page 8


 105      C2E0DE82 
 105      37B3F3
 106 0524 72770673 		.ascii	"rw\006s\377\005\220\004>D"
 106      FF059004 
 106      3E44
 107              		.text
 108              		.section	.gnu.lto_USB_MSC_SetLunCount.ba2da09c,"",%progbits
 109 0000 789C2550 		.ascii	"x\234%P=HBQ\024>\337\275\325\223\242h\317\241 \020!"
 109      3D484251 
 109      143EDFBD 
 109      D593A268 
 109      CFA12010 
 110 0015 4288D686 		.ascii	"B\210\326\206\034\\#k3$\354m\245`:{\365\365\372\201"
 110      1C5C236B 
 110      3324EC6D 
 110      A5603A7B 
 110      F5F5FA81 
 111 0029 861A720B 		.ascii	"\206\032r\013\247\320\312\212F\267\227HS\344\020\271"
 111      A7D0CA8A 
 111      46B79748 
 111      53E410B9 
 112 0039 B4448383 		.ascii	"\264D\203\2034\330?\004\372:\327.\034\316\341;\347\373"
 112      34D83F04 
 112      FA3AD72E 
 112      1CCEE13B 
 112      E7FB
 113 004b CE774F1F 		.ascii	"\316wO\037\201\364\233\3434\305y\214\003\222 \016\356"
 113      81F49BE3 
 113      34C5798C 
 113      0392200E 
 113      EE
 114 005c 89B21E01 		.ascii	"\211\262\036\001\350By@\031\201\014\276DG\240\272\323"
 114      E8427940 
 114      19810CBE 
 114      4447A0BA 
 114      D3
 115 006d AC087F51 		.ascii	"\254\010\177Q\361{\266\273\001Ur`K\"W\364\224\010E\370"
 115      F17BB6BB 
 115      01557260 
 115      4B2257F4 
 115      940845F8 
 116 0081 79EAB6F1 		.ascii	"y\352\266\361\276?\"'A\\\227m\367w\310w\242TN\251\303"
 116      BE3F2227 
 116      415C976D 
 116      F777C877 
 116      A2544EA9 
 117 0096 15256D09 		.ascii	"\025%m\011\224 \231\201\031/\002^b\200p\012\237\036"
 117      94209981 
 117      192F025E 
 117      6280700A 
 117      9F1E
 118 00a8 7EB9EE1E 		.ascii	"~\271\356\036\015\017li\371\361\177Q\234a@\333\274Z"
 118      0D0F6C69 
 118      F9F17F51 
 118      9C6140DB 
 118      BC5A
 119 00ba 7494EB5A 		.ascii	"t\224\353Z\312\3710n\276\215~@S\004\223y\250\315\241"
ARM GAS  C:\Users\JEFFSN~1\AppData\Local\Temp\cckhmVCS.s 			page 9


 119      CAF9306E 
 119      BE8D7E40 
 119      53049379 
 119      A8CDA1
 120 00cd ADBE09A1 		.ascii	"\255\276\011\241\263l\302\312o7\012K\232kIaI\260\364"
 120      B36CC2CA 
 120      6F370A4B 
 120      9A6B4961 
 120      49B0F4
 121 00e0 8355ABCB 		.ascii	"\203U\253\313O\241\327\273\3009\274\324D.\017=\303\335"
 121      4FA1D7BB 
 121      C039BCD4 
 121      442E0F3D 
 121      C3DD
 122 00f2 BC5DAD1B 		.ascii	"\274]\255\033\272+{\246+\225\327'#\323Q\273J\2152\266"
 122      BA2B7BA6 
 122      2B95D727 
 122      23D351BB 
 122      4A8D32B6 
 123 0106 C75FD470 		.ascii	"\307_\324p\353\356\2616X\300qV\365p\340\202\357Rf)\302"
 123      EBEEB136 
 123      58C07156 
 123      F570E082 
 123      EF526629 
 124 011b 250AE05D 		.ascii	"%\012\340]\324B\316\371\011i\325\336A\332\002\332\022"
 124      D442CEF9 
 124      0969D5DE 
 124      41DA02DA 
 124      12
 125 012c 1B9C0899 		.ascii	"\033\234\010\231q3\271\2322\327\242\341D:\0313#\013"
 125      7133B99A 
 125      32D7A2E1 
 125      443A1933 
 125      230B
 126 013e E1447036 		.ascii	"\341Dp6\262\034\236\217nl\306\246c\344YO\307\203\211"
 126      B21C9E8F 
 126      6E6CC6A6 
 126      63E4594F 
 126      C78389
 127 0151 743CF507 		.ascii	"t<\365\007P=|~"
 127      503D7C7E 
 128              		.text
 129              		.section	.gnu.lto_USB_MSC_GetLunCount.ba2da09c,"",%progbits
 130 0000 789C2D4F 		.ascii	"x\234-O;H\003A\024|\263\033.\341@\2607\205b\225F\004"
 130      3B480341 
 130      147CB31B 
 130      2EE140B0 
 130      37856295 
 131 0016 B1B0D5C2 		.ascii	"\261\260\325\302V<\354\002A\342\225\032\210Z\337&\347"
 131      563CEC02 
 131      41E2951A 
 131      885ADF26 
 131      E7
 132 0027 A182858D 		.ascii	"\241\202\205\215g%)/~@\256\260He\014\012\202AA\264\262"
 132      6725292F 
 132      7E40AEB0 
 132      48650C0A 
ARM GAS  C:\Users\JEFFSN~1\AppData\Local\Temp\cckhmVCS.s 			page 10


 132      824141B4 
 133 003c 118B14C1 		.ascii	"\021\213\024\301BA\261\212\347{\211\017\226Yf\347\315"
 133      4241B18A 
 133      E77B890F 
 133      965966E7 
 133      CD
 134 004d CCA60824 		.ascii	"\314\246\010$\223f\030g\034\341\003MP\373\367D\225\214"
 134      93661867 
 134      1CE1034D 
 134      50FBF744 
 134      958C
 135 005f 02E46232 		.ascii	"\002\344b2 O\301\303\267\352)\334\375\334\356\331\271"
 135      204FC1C3 
 135      B7EA29DC 
 135      FDDCEED9 
 135      B9
 136 0070 C898AA79 		.ascii	"\310\230\252y\275\211f\016\353M\004\232(Q\204\251,&"
 136      BD89660E 
 136      EB4D049A 
 136      285184A9 
 136      2C26
 137 0082 B3621121 		.ascii	"\263b\021!G,}\213\177\017\206\254-\3033*\002~\251\303"
 137      472C7D8B 
 137      7F0F86AC 
 137      2DC3332A 
 137      027EA9C3 
 138 0096 92C8F3C5 		.ascii	"\222\310\363\305\246I\022\3374/\355\253G;\245(\320\234"
 138      A64912DF 
 138      342FEDAB 
 138      473BA528 
 138      D09C
 139 00a8 2B3EF4C1 		.ascii	"+>\364\301:I\375TJPwP\015\343\247\226\226U_K\2030h="
 139      3A49FD54 
 139      4A507750 
 139      0DE3A796 
 139      96555F4B 
 140 00c0 A4BF54A0 		.ascii	"\244\277T\240\025$\245\321x\177I{=\263c\3140s\273b\302"
 140      1524A5D1 
 140      787F497B 
 140      3DB363CC 
 140      3073BB62 
 141 00d5 74B7FD7C 		.ascii	"t\267\375|m\327pT1}\236p\302?8\006\367\303)j\240\016"
 141      6DD77054 
 141      317D9E70 
 141      C23F3806 
 141      F7C3296A 
 142 00eb FCD01A98 		.ascii	"\374\320\032\230\352\201\357\305v;\266\305\227\000\234"
 142      EA81EFC5 
 142      763BB6C5 
 142      97009C
 143 00fa B1B20BF5 		.ascii	"\261\262\013\365/\240~1H!\25676\357\256\271\345\345"
 143      2FA07E31 
 143      4821AE37 
 143      36EFAEB9 
 143      E5E5
 144 010c 0D77A5E0 		.ascii	"\015w\245\340\2246\313E7\277\340\224\346\246\363K\316"
 144      9436CB45 
ARM GAS  C:\Users\JEFFSN~1\AppData\Local\Temp\cckhmVCS.s 			page 11


 144      37BFE094 
 144      E6A6F34B 
 144      CE
 145 011d 6C6175BD 		.ascii	"lau\2758Q\244?\323\237d}"
 145      3851A43F 
 145      D39F647D 
 146              		.text
 147              		.section	.gnu.lto_.symbol_nodes.ba2da09c,"",%progbits
 148 0000 789C558C 		.ascii	"x\234U\214\261\021\2000\014\003\337v\222\212\212\011"
 148      B1118030 
 148      0C03DF76 
 148      928A8A09 
 149 0010 604606B0 		.ascii	"`F\006\260\013j\216!\250\230\203\232\202\211\360Q\021"
 149      0B6A8E21 
 149      A898839A 
 149      8289F051 
 149      11
 150 0021 353ABD4E 		.ascii	"5:\275N*\010\013)\025\207\375\206\2643f\250\205)yEb"
 150      2A080B29 
 150      1587FD86 
 150      B43366A8 
 150      85297945 
 151 0036 045375E9 		.ascii	"\004Su\351z5\327\016Hs\373\000D\344T\252\227\1776\032"
 151      7A35D70E 
 151      4873FB00 
 151      44E454AA 
 151      977F361A 
 152 004a C736585E 		.ascii	"\3076X^\256\317%\274\277\335\025\271"
 152      AECF25BC 
 152      BFDD15B9 
 153              		.text
 154              		.section	.gnu.lto_.refs.ba2da09c,"",%progbits
 155 0000 789C05C1 		.ascii	"x\234\005\301\261\001\000 \014\3030;\344\207\322\211"
 155      B1010020 
 155      0CC3303B 
 155      E487D289 
 156 0010 FFBF442A 		.ascii	"\377\277D*\262@\321IF\257>\217\211%\362\001\013\203"
 156      B240D149 
 156      46AF3E8F 
 156      8925F201 
 156      0B83
 157 0022 00A3     		.ascii	"\000\243"
 158              		.text
 159              		.section	.gnu.lto_.decls.ba2da09c,"",%progbits
 160 0000 789C8D56 		.ascii	"x\234\215ViLTW\024~g\0363\214\217\315\200Q\177\214\321"
 160      694C5457 
 160      147E671E 
 160      338C8FCD 
 160      80517F8C 
 161 0015 1A4AF8A5 		.ascii	"\032J\370\245\222\306\306\246I\027\261jS\253\215\240"
 161      92C6C6A6 
 161      4917B16A 
 161      53AB8DA0 
 162 0025 E90F13A4 		.ascii	"\351\017\023\244\343TM\351@\231G\023\1774\2710@\215"
 162      E3544DE9 
 162      40994713 
 162      7F34B930 
ARM GAS  C:\Users\JEFFSN~1\AppData\Local\Temp\cckhmVCS.s 			page 12


 162      408D
 163 0037 5BC07DC5 		.ascii	"[\300}\305}\305e\004\027\026\251\243\002\" \025\261"
 163      7DC56504 
 163      1716A9A3 
 163      02222015 
 163      B1
 164 0048 CA082A8A 		.ascii	"\312\010*\212\270\242\242\240\200\266\322s\227\341\275"
 164      B8A2A2A0 
 164      80B6D273 
 164      97E1BD
 165 0057 5120BEE4 		.ascii	"Q \276\344\233\367\316}\347|\347\273\347\236{\337\370"
 165      9BF7CE7D 
 165      E77CE7BB 
 165      E79E7BDF 
 165      F8
 166 0068 4920D12B 		.ascii	"I \321+#@\222\226\341\343\004D\017^~86[\322.#\"\017"
 166      23409296 
 166      E1E30444 
 166      0F5E7E38 
 166      365BD22E 
 167 007f 71025180 		.ascii	"q\002Q\200(B\234B\030\020M\210f\311\367\242\276a\010"
 167      28429C42 
 167      18104D88 
 167      66C9F7A2 
 167      BE6108
 168 0092 17221431 		.ascii	"\027\"\0241\004Q\211\260 \"\020w\0213\020\355\210\027"
 168      045189B0 
 168      20221077 
 168      113310ED 
 168      8817
 169 00a4 880EC459 		.ascii	"\210\016\304Y\304K\304-\304+D'\242\013\321\2158\212"
 169      C44BC42D 
 169      C42B4427 
 169      A20BD18D 
 169      388A
 170 00b6 90114F10 		.ascii	"\220\021O\020\365\010\217\260\363\204\216\242\001\264"
 170      F5088FB0 
 170      F3848EA2 
 170      01B4
 171 00c4 50CDDEF9 		.ascii	"P\315\336\371\270\204\206N\361\016\304{\350#\256@\344"
 171      B884864E 
 171      F10EC47B 
 171      E823AE40 
 171      E4
 172 00d5 E82BA6A0 		.ascii	"\350+\246\240\237\230\377\014\260\371L\3169c\003x\000"
 172      9F98FF0C 
 172      B0F94CCE 
 172      39630378 
 172      00
 173 00e6 24609724 		.ascii	"$`\227$j,\321\021q\247\017\300\015\203\227\023\274N"
 173      6A2CD111 
 173      71A70FC0 
 173      0D839713 
 173      BC4E
 174 00f8 DE34CC1D 		.ascii	"\3364\314\035$\003\363\357\035\367\372\365\346\354\361"
 174      2403F3EF 
 174      1DF7FAF5 
ARM GAS  C:\Users\JEFFSN~1\AppData\Local\Temp\cckhmVCS.s 			page 13


 174      E6ECF1
 175 0107 5EDA10F4 		.ascii	"^\332\020\364^^O\360%\245\254\232\211\266A\013\320\361"
 175      5E5E4FF0 
 175      25A5AC9A 
 175      89B6410B 
 175      D0F1
 176 0119 09F5223F 		.ascii	"\011\365\"?\350\3232j\331;iOzQ\211IFN|\276\325\275o"
 176      E8D3326A 
 176      D93B694F 
 176      7A518949 
 176      464E7CBE 
 177 0130 F2988304 		.ascii	"\362\230\203\004\257,B\014\237k\225\251Mwm\226;\014"
 177      AF2C420C 
 177      9F6B95A9 
 177      4D776D96 
 177      3B0C
 178 0142 10AA801F 		.ascii	"\020\252\200\037\232\317/nl\016Fs\210\002\243\320<\222"
 178      9ACF2F6E 
 178      6C0E4673 
 178      8802A3D0 
 178      3C92
 179 0154 7177BF19 		.ascii	"qw\277\031M\213\002=@\355\326\302\356 n\323\340\015"
 179      4D8B023D 
 179      40EDD6C2 
 179      EE206ED3 
 179      E00D
 180 0166 D9CD6F03 		.ascii	"\331\315o\003\344p\372l\250k\316}\350\007\221\312\036"
 180      E470FA6C 
 180      A86BCE7D 
 180      E80791CA 
 180      1E
 181 0177 9AA4E978 		.ascii	"\232\244\351x\313\027\205\204\014\006\027(p\030d\330"
 181      CB178584 
 181      0C061728 
 181      701864D8 
 182 0187 0F63A83E 		.ascii	"\017c\250>\213\202\277\213\011I#m;\210i\270\004\237"
 182      8B82BF8B 
 182      0949236D 
 182      3B8869B8 
 182      049F
 183 0199 58609C45 		.ascii	"X`\234E\202#\020I9\251\027\034\002\013\034\004\013\345"
 183      82231049 
 183      39A9171C 
 183      020B1C04 
 183      0BE5
 184 01ab BFB4B4CC 		.ascii	"\277\264\264\314\0312|-\223\355$\243\374\030].\276?"
 184      19327C2D 
 184      93ED24A3 
 184      FC185D2E 
 184      BE3F
 185 01bd 80EF2538 		.ascii	"\200\357%8\012\303\361\367'?>\223jO\346n\323\350md\233"
 185      0AC3F1F7 
 185      273F3E93 
 185      6A4FE66E 
 185      D3E86D64 
 186 01d2 8B341566 		.ascii	"\2134\025f\216_\347$\025\0307\212z\301>M\002>\322\333"
 186      8E5FE724 
ARM GAS  C:\Users\JEFFSN~1\AppData\Local\Temp\cckhmVCS.s 			page 14


 186      1518378A 
 186      7AC13E4D 
 186      023ED2DB 
 187 01e6 5E68C0E2 		.ascii	"^h\300\342\345\301h\214\314\331\233\372\320,\333\331"
 187      E5C1688C 
 187      CCD99BFA 
 187      D02CDBD9 
 188 01f6 945AD66D 		.ascii	"\224Z\326m}l\362\303\365g\271\220\033\307\016\0265\266"
 188      7D6CF2C3 
 188      F567B990 
 188      1BC70E16 
 188      35B6
 189 0208 9AF43266 		.ascii	"\232\3642f\017\325\2518\316T\034\003!\343\312\226\226"
 189      0FD5A938 
 189      CE541C03 
 189      21E3CA96 
 189      96
 190 0219 0621C3FD 		.ascii	"\006!\303\375\374Oy\003q\247c\234\201\272A\276&#_/\343"
 190      FC4F7903 
 190      71A7639C 
 190      81BA41BE 
 190      26235F2F 
 191 022e 049351DF 		.ascii	"\004\223Q\337\225\377(DN\003\246\343f\327\375\227FA"
 191      95FF2844 
 191      4E03A6E3 
 191      66D7FD97 
 191      4641
 192 0240 5352E9A5 		.ascii	"SR\351\245\011e\2639\251\321\234\324\323\0240\232\313"
 192      0965B339 
 192      A9D19CD4 
 192      D314309A 
 192      CB
 193 0251 AB2AB38D 		.ascii	"\253*\263\215\362ZN\263\362\336\253C\203\220\246\011"
 193      F25A4EB3 
 193      F2DEAB43 
 193      8390A609 
 194 0261 D7A4BE2A 		.ascii	"\327\244\276*e\245s\333TFQ\250Q\024\002\357\030(b\341"
 194      65A573DB 
 194      544651A8 
 194      511402EF 
 194      182862E1 
 195 0275 E73C8DFF 		.ascii	"\347<\215\377\372\313Wyxi\371\235\225\006\036\356\316"
 195      FACB5779 
 195      7869F99D 
 195      95061EEE 
 195      CE
 196 0286 AB0A7467 		.ascii	"\253\012tg\001\213.\326\242\213\275\321\247X\364\206"
 196      018B2ED6 
 196      A28BBDD1 
 196      A758F486 
 197 0296 32B26C90 		.ascii	"2\262l\220\374\210G\277y\260\332\003\274\267\002\321"
 197      FC8847BF 
 197      79B0DA03 
 197      BCB702D1 
 198 02a6 4C2BF664 		.ascii	"L+\366d\207\360\336j\242\2577\026wT\032\371k3\232\255"
 198      87F0DE6A 
 198      A2AF3716 
ARM GAS  C:\Users\JEFFSN~1\AppData\Local\Temp\cckhmVCS.s 			page 15


 198      77541AF9 
 198      6B339AAD 
 199 02ba ABF6EC34 		.ascii	"\253\366\3544\313]<\264#\275\375\252I\301Nq~X\247\254"
 199      CB5D3CB4 
 199      23BDFDAA 
 199      49C14E71 
 199      7E58A7AC 
 200 02ce 5FB3E775 		.ascii	"_\263\347up\340\022\332Y\270D\241S\341\254O\247\234"
 200      70E012DA 
 200      59B844A1 
 200      53E1AC4F 
 200      A79C
 201 02e0 8340D1EF 		.ascii	"\203@\321\357e=\235\356\020\236\324@\213\325V\275%\200"
 201      653D9DEE 
 201      109ED440 
 201      8BD556BD 
 201      2580
 202 02f2 6B1A4C25 		.ascii	"k\032L%\276\315\2545\310o\271\206\335\257\337\264\321"
 202      BECDAC35 
 202      C86FB986 
 202      DDAFDFB4 
 202      D1
 203 0303 AD1181CD 		.ascii	"\255\021\201\315\337#\353\272?\202w\377\276\355\345"
 203      DF23EBBA 
 203      3F8277FF 
 203      BEEDE5
 204 0312 F98A9CCE 		.ascii	"\371\212\234\3166\230\341\351\261\363\365A\240D\262"
 204      3698E1E9 
 204      B1F3F541 
 204      A044B2
 205 0321 E646D54A 		.ascii	"\346F\325J\244\004e\230\277\024\363C\025\212\216\020"
 205      A4046598 
 205      BF14F343 
 205      158A8E10 
 206 0331 A22B70F0 		.ascii	"\242+p\360<\016\212}\362\220\357\223J\224{A\253j\204"
 206      3C0E8A7D 
 206      F290EF93 
 206      4A947B41 
 206      AB6A84
 207 0344 C2D55EEE 		.ascii	"\302\325^\356\271\333h\220\227\362=\374 \203\034\032"
 207      B9DB6890 
 207      97F23DFC 
 207      20831C1A 
 208 0354 24AFE746 		.ascii	"$\257\347F\343\262\366S oe\206\337U\247\353\201\002"
 208      E3B2F653 
 208      206F6586 
 208      DF55A7EB 
 208      8102
 209 0366 61E1E191 		.ascii	"a\341\341\221\331\254I\335\204\340\021\246\233\377\337"
 209      D9AC49DD 
 209      84E011A6 
 209      9BFFDF
 210 0375 1046A9E1 		.ascii	"\020F\251\3412\012\251\205p\270\004\341l\325vP\265M"
 210      320AA985 
 210      70B804E1 
 210      6CD57650 
 210      B54D
ARM GAS  C:\Users\JEFFSN~1\AppData\Local\Temp\cckhmVCS.s 			page 16


 211 0387 5BEAE69F 		.ascii	"[\352\346\237uf\222Ks\231\214\032\224A\375{\325\217"
 211      7566924B 
 211      73998C1A 
 211      9441FD7B 
 211      D58F
 212 0399 A50C6594 		.ascii	"\245\014e\224\207\373\2737W\005\020\327\\\266A.\012"
 212      87FBBB37 
 212      570510D7 
 212      5CB6412E 
 212      0A
 213 03aa 67B13ACC 		.ascii	"g\261:\3145\212z\262\351\2717T\005\022b\246\036\222"
 213      358A7AB2 
 213      E9B93754 
 213      051262A6 
 213      1E92
 214 03bc 989A5886 		.ascii	"\230\232X\206%\247*7\232\345R^\273\364u\256{\301\020"
 214      25A72A37 
 214      9AE5525E 
 214      BBF475AE 
 214      7BC110
 215 03cf 19C6638E 		.ascii	"\031\306c\216V\001\215\371\007Y\353\264\212P\012I\352"
 215      56018DF9 
 215      0759EBB4 
 215      8A500A49 
 215      EA
 216 03e0 737A7005 		.ascii	"szp\005g\325\337\0141\327\353\033\235\027\374\365\275"
 216      67D5DF0C 
 216      31D7EB1B 
 216      9D17FCF5 
 216      BD
 217 03f1 41A9B5DA 		.ascii	"A\251\265\332\\\365\366\206\361\370n\347r#+cx\2668*"
 217      5CF5F686 
 217      F1F86EE7 
 217      72232B63 
 217      78B6382A 
 218 0405 096E6B38 		.ascii	"\011nk8\215\276\1771\337k\"\313u\314\342\301,\365\210"
 218      8DBE7F31 
 218      DF6B22CB 
 218      75CCE2C1 
 218      2CF588
 219 0418 067D2DDD 		.ascii	"\006}-\335\305UC\351^\225i\313\301\031\324\177M\227"
 219      C55543E9 
 219      5E9569CB 
 219      C119D47F 
 219      4D97
 220 042a 8CD72757 		.ascii	"\214\327'WW\312\302\252\340\365\304\235&\263\312\227"
 220      57CAC2AA 
 220      E0F5C49D 
 220      26B3CA97 
 221 043a 0B77DFCA 		.ascii	"\013w\337\312\353\312y\234\227\363\232o99S\311\322\221"
 221      EBCA799C 
 221      97F39A6F 
 221      393953C9 
 221      D291
 222 044c 3C31CE07 		.ascii	"<1\316\007\252\337M\354\206^*\254\310\341\025\251\025"
 222      AADF4DEC 
 222      865E2AAC 
ARM GAS  C:\Users\JEFFSN~1\AppData\Local\Temp\cckhmVCS.s 			page 17


 222      C8E115A9 
 222      15
 223 045d FE7223AF 		.ascii	"\376r#\257\376\352\214\334\265\346\336\352\237\346\325"
 223      FEEA8CDC 
 223      B5E6DEEA 
 223      9FE6D5
 224 046c BF89C18D 		.ascii	"\277\211\301\215Z\365\257\351\252\377NQ\340\006\326"
 224      5AF5AFE9 
 224      AAFF4E51 
 224      E006D6
 225 047b 62A0BA60 		.ascii	"b\240\272`\276\\\217\353\2149\014\303S\007\014\227\372"
 225      BE5C8FEB 
 225      8C390CC3 
 225      53070C97 
 225      FA
 226 048c 8ADDDBB3 		.ascii	"\212\335\333\263\370E\310\307;\311\256T\322\344Y\372"
 226      F845C8C7 
 226      3BC9AE54 
 226      D2E459FA 
 227 049c C7F6BDC4 		.ascii	"\307\366\275\304\235\225\012p\013CJ\270@\335\372\224"
 227      9D950A70 
 227      0B434AB8 
 227      40DDFA94 
 228 04ac D0D3089A 		.ascii	"\320\323\010\232\340c\014\254i\250\370\0147+\355R\312"
 228      E0630CAC 
 228      69A8F80C 
 228      372BED52 
 228      CA
 229 04bd 733D3D73 		.ascii	"s==s\227\"\267\360\335\223\231\373tM\020\222\272w\320"
 229      9722B7F0 
 229      DD9399FB 
 229      744D1092 
 229      BA77D0
 230 04d0 6FC5C89C 		.ascii	"o\305\310\234\303\204\310\314\363\216\240\344\375,1"
 230      C384C8CC 
 230      F38EA0E4 
 230      FD2C31
 231 04df FB3695D9 		.ascii	"\3736\225\331L9\345\322\272#\247\025P,\200\031a1-G["
 231      4C39E5D2 
 231      BA23A715 
 231      502C8019 
 231      61312D47 
 232 04f4 9AEE7492 		.ascii	"\232\356t\222\340.\340\316\205\026|}\017\2436\022\352"
 232      E02EE0CE 
 232      85167C7D 
 232      0FA33612 
 232      EA
 233 0505 530B6C98 		.ascii	"S\013l\230\031m_\262g\372\2032N>\315=\031\304O\0377"
 233      196D5FB2 
 233      67FA8332 
 233      4E3ECD3D 
 233      19C44F1F 
 234 051a 9555F4BA 		.ascii	"\225U\364\272\364M\260\374\202k\354X\222\321)\276\314"
 234      F44DB0FC 
 234      826BEC58 
 234      92D129BE 
 234      CC
ARM GAS  C:\Users\JEFFSN~1\AppData\Local\Temp\cckhmVCS.s 			page 18


 235 052b FE683E29 		.ascii	"\376h>)|{4@Y,>B\330\305\241\372\003\356\021\313;\326"
 235      7C7B3440 
 235      592C3E42 
 235      D8C5A1FA 
 235      03EE11CB 
 236 0541 020FF979 		.ascii	"\002\017\371y\230\337~\254^\011\315\022\333\345+`\223"
 236      98DF7EAC 
 236      5E09CD12 
 236      DBE52B60 
 236      93
 237 0552 BB8FEEBC 		.ascii	"\273\217\356\274\021\036C\2507\010\275\345\234K\347"
 237      111E43A8 
 237      3708BDE5 
 237      9C4BE7
 238 0561 2F18B0F1 		.ascii	"/\030\260\361u\307\007~N4\367V\261\274Oq\255\236h\355"
 238      75C7077E 
 238      4E34F756 
 238      B1BC4F71 
 238      AD9E68ED 
 239 0575 4EE8D131 		.ascii	"N\350\3211%\177'\241\247\001R\302\003\254\026\365\365"
 239      257F27A1 
 239      A70152C2 
 239      03AC16F5 
 239      F5
 240 0586 46BED7C0 		.ascii	"F\276\327\300\233jX\003\267\276w\036\334ih\034&w\363"
 240      9B6A5803 
 240      B7BE771E 
 240      DC69681C 
 240      2677F3
 241 0599 86CC5B91 		.ascii	"\206\314[\221\343\014\206\260\276\305\300s\324\320\227"
 241      E30C86B0 
 241      BEC5C073 
 241      D4D097
 242 05a8 1E7178D4 		.ascii	"\036qx\324\260\366mC\207gZ\373\266\262\366\3054\304"
 242      B0F66D43 
 242      87675AFB 
 242      B6B2F6C5 
 242      34C4
 243 05ba 597DD15F 		.ascii	"Y}\321_4\342\000\304R/+\335,\267\033\262|\216\217\027"
 243      34E200C4 
 243      522F2BDD 
 243      2CB71BB2 
 243      7C8E8F17 
 244 05ce 3EC7473B 		.ascii	">\307G;?>\350\035\235\017\325/\177\026\250\257\373\331"
 244      3F3EE81D 
 244      9D0FD52F 
 244      7F16A8AF 
 244      FBD9
 245 05e0 7EEB0E1D 		.ascii	"~\353\016\035\020\212\021\367\235$\333\250\247\277\345"
 245      108A11F7 
 245      9D24DBA8 
 245      A7BFE5
 246 05ef 43FF52D0 		.ascii	"C\377R\320\277\344\364\025[\312e\352\354\034\3503\007"
 246      BFE4F415 
 246      5BCA65EA 
 246      EC1CE833 
 246      07
ARM GAS  C:\Users\JEFFSN~1\AppData\Local\Temp\cckhmVCS.s 			page 19


 247 0600 AF9873EA 		.ascii	"\257\230s\352\246\355+C\364\314\276\377\236:\205s's"
 247      A6ED2B43 
 247      F4CCBEFF 
 247      9E3A8573 
 247      2773
 248 0612 BE776EFD 		.ascii	"\276wn\375\023\003\377\340~\310\327\013\272X\003\037"
 248      1303FFE0 
 248      7EC8D70B 
 248      BA58031F 
 249 0622 A82EAF91 		.ascii	"\250.\257\221\365)\350\277\003-E\267HA\357\303g\305"
 249      F529E8BF 
 249      032D45B7 
 249      4841EFC3 
 249      67C5
 250 0634 4C8C9BB4 		.ascii	"L\214\233\264\320\221\024\257Z\027|\037\023\035\235"
 250      D09114AF 
 250      5A177C1F 
 250      131D9D
 251 0643 10EF70CC 		.ascii	"\020\357p\314\374\315\241\232\247L\2375*:*J2\246,\264"
 251      FCCDA19A 
 251      A74C9F35 
 251      2A3A2A4A 
 251      32A62CB4 
 252 0657 AB133E9A 		.ascii	"\253\023>\232b\263\333\222\343U\333\274\270\230\304"
 252      62B3DB92 
 252      E355DBBC 
 252      B898C4
 253 0666 9464AB6D 		.ascii	"\224d\253m\316\0171\211\321\343\347X\027\251\213\222"
 253      CE0F3189 
 253      D1E3E758 
 253      17A98B92 
 254 0676 6C8E310B 		.ascii	"l\2161\013\244\376<h\202_\035\3261V)\214>b\216\270\030"
 254      A4FE3C68 
 254      825F1DD6 
 254      3156298C 
 254      3E628EB8 
 255 068b 9B3A2DC5 		.ascii	"\233:-\305\036\235\230bW{\307\246hc#\350\330\267\366"
 255      1E9D9862 
 255      577BC7A6 
 255      686323E8 
 255      D8B7F6
 256 069e 85EAF4C4 		.ascii	"\205\352\364\304I\361j|t\242]MNL\210M\216\267;~\266"
 256      49F16A7C 
 256      74A25D4D 
 256      4E4C884D 
 256      8EB73B7E 
 257 06b3 250F9427 		.ascii	"%\017\224'\351w\025\225\204y\343E\344L[\374\274 :fM"
 257      E9771595 
 257      8479E345 
 257      E44C5BFC 
 257      BC203A66 
 258 06c8 494EB6D9 		.ascii	"IN\266\331\325\330I\306$Jl\264\322l&:\277\250O\003\223"
 258      D5D849C6 
 258      244A6CB4 
 258      D26C263A 
 258      BFA84F03 
 259 06dd 62D47835 		.ascii	"b\324x5\30511!\321\372\213\311\301\236M\0116\373|u\301"
ARM GAS  C:\Users\JEFFSN~1\AppData\Local\Temp\cckhmVCS.s 			page 20


 259      C5313121 
 259      D1FA8BC9 
 259      C19E4D09 
 259      36FB7C75 
 260 06f2 88FE3362 		.ascii	"\210\3763b\266a\261q\224\373\307\311\337\314\214\213"
 260      B661B171 
 260      94FBC7C9 
 260      DFCC8C8B 
 261 0702 89FD3A76 		.ascii	"\211\375:vVL\334\304i3\242\2773\363\361\330I\201\364"
 261      564CDCC4 
 261      6933A2BF 
 261      33F3F1D8 
 261      4981F4
 262 0715 9620E666 		.ascii	"\226 \346f\262\261\324L\242-i\\\334<4\342\034jr\212"
 262      B2B1D44C 
 262      A22D695C 
 262      DC3C34E2 
 262      1C6A728A 
 263 0729 55FD1F21 		.ascii	"U\375\037!N\355\300"
 263      4EEDC0
 264              		.text
 265              		.section	.gnu.lto_.symtab.ba2da09c,"",%progbits
 266 0000 5553425F 		.ascii	"USB_DispatchMSCClassRqst\000"
 266      44697370 
 266      61746368 
 266      4D534343 
 266      6C617373 
 267 0019 00       		.ascii	"\000"
 268 001a 00       		.ascii	"\000"
 269 001b 00       		.ascii	"\000"
 270 001c 00000000 		.ascii	"\000\000\000\000\000\000\000\000"
 270      00000000 
 271 0024 B2000000 		.ascii	"\262\000\000\000"
 272 0028 5553425F 		.ascii	"USB_MSC_SetLunCount\000"
 272      4D53435F 
 272      5365744C 
 272      756E436F 
 272      756E7400 
 273 003c 00       		.ascii	"\000"
 274 003d 00       		.ascii	"\000"
 275 003e 00       		.ascii	"\000"
 276 003f 00000000 		.ascii	"\000\000\000\000\000\000\000\000"
 276      00000000 
 277 0047 B6000000 		.ascii	"\266\000\000\000"
 278 004b 5553425F 		.ascii	"USB_MSC_GetLunCount\000"
 278      4D53435F 
 278      4765744C 
 278      756E436F 
 278      756E7400 
 279 005f 00       		.ascii	"\000"
 280 0060 00       		.ascii	"\000"
 281 0061 00       		.ascii	"\000"
 282 0062 00000000 		.ascii	"\000\000\000\000\000\000\000\000"
 282      00000000 
 283 006a B8000000 		.ascii	"\270\000\000\000"
 284 006e 5553425F 		.ascii	"USB_currentTD\000"
 284      63757272 
ARM GAS  C:\Users\JEFFSN~1\AppData\Local\Temp\cckhmVCS.s 			page 21


 284      656E7454 
 284      4400
 285 007c 00       		.ascii	"\000"
 286 007d 02       		.ascii	"\002"
 287 007e 00       		.ascii	"\000"
 288 007f 00000000 		.ascii	"\000\000\000\000\000\000\000\000"
 288      00000000 
 289 0087 E0000000 		.ascii	"\340\000\000\000"
 290 008b 5553425F 		.ascii	"USB_InitNoDataControlTransfer\000"
 290      496E6974 
 290      4E6F4461 
 290      7461436F 
 290      6E74726F 
 291 00a9 00       		.ascii	"\000"
 292 00aa 02       		.ascii	"\002"
 293 00ab 00       		.ascii	"\000"
 294 00ac 00000000 		.ascii	"\000\000\000\000\000\000\000\000"
 294      00000000 
 295 00b4 BA000000 		.ascii	"\272\000\000\000"
 296 00b8 5553425F 		.ascii	"USB_InitControlRead\000"
 296      496E6974 
 296      436F6E74 
 296      726F6C52 
 296      65616400 
 297 00cc 00       		.ascii	"\000"
 298 00cd 02       		.ascii	"\002"
 299 00ce 00       		.ascii	"\000"
 300 00cf 00000000 		.ascii	"\000\000\000\000\000\000\000\000"
 300      00000000 
 301 00d7 BC000000 		.ascii	"\274\000\000\000"
 302              		.text
 303              		.section	.gnu.lto_.opts,"",%progbits
 304 0000 272D666D 		.ascii	"'-fmath-errno' '-fsigned-zeros' '-ftrapping-math' '"
 304      6174682D 
 304      6572726E 
 304      6F272027 
 304      2D667369 
 305 0033 2D666E6F 		.ascii	"-fno-trapv' '-fno-strict-overflow' '-fno-openmp' '-"
 305      2D747261 
 305      70762720 
 305      272D666E 
 305      6F2D7374 
 306 0066 666E6F2D 		.ascii	"fno-openacc' '-mcpu=cortex-m3' '-mthumb' '-g' '-Og'"
 306      6F70656E 
 306      61636327 
 306      20272D6D 
 306      6370753D 
 307 0099 20272D66 		.ascii	" '-ffunction-sections' '-ffat-lto-objects' '-finlin"
 307      66756E63 
 307      74696F6E 
 307      2D736563 
 307      74696F6E 
 308 00cc 652D6675 		.ascii	"e-functions' '-flto'\000"
 308      6E637469 
 308      6F6E7327 
 308      20272D66 
 308      6C746F27 
ARM GAS  C:\Users\JEFFSN~1\AppData\Local\Temp\cckhmVCS.s 			page 22


 309              		.text
 310              		.cfi_sections	.debug_frame
 311              		.section	.text.USB_DispatchMSCClassRqst,"ax",%progbits
 312              		.align	2
 313              		.global	USB_DispatchMSCClassRqst
 314              		.thumb
 315              		.thumb_func
 316              		.type	USB_DispatchMSCClassRqst, %function
 317              	USB_DispatchMSCClassRqst:
 318              	.LFB0:
 319              		.file 1 "Generated_Source\\PSoC5\\USB_msc.c"
   1:Generated_Source\PSoC5/USB_msc.c **** /***************************************************************************//**
   2:Generated_Source\PSoC5/USB_msc.c **** * \file USB_cdc.c
   3:Generated_Source\PSoC5/USB_msc.c **** * \version 3.20
   4:Generated_Source\PSoC5/USB_msc.c **** *
   5:Generated_Source\PSoC5/USB_msc.c **** * \brief
   6:Generated_Source\PSoC5/USB_msc.c **** *  This file contains the USB MSC Class request handler and global API for MSC 
   7:Generated_Source\PSoC5/USB_msc.c **** *  class.
   8:Generated_Source\PSoC5/USB_msc.c **** *
   9:Generated_Source\PSoC5/USB_msc.c **** * Related Document:
  10:Generated_Source\PSoC5/USB_msc.c **** *  Universal Serial Bus Class Definitions for Communication Devices Version 1.1
  11:Generated_Source\PSoC5/USB_msc.c **** *
  12:Generated_Source\PSoC5/USB_msc.c **** ********************************************************************************
  13:Generated_Source\PSoC5/USB_msc.c **** * \copyright
  14:Generated_Source\PSoC5/USB_msc.c **** * Copyright 2012-2016, Cypress Semiconductor Corporation.  All rights reserved.
  15:Generated_Source\PSoC5/USB_msc.c **** * You may use this file only in accordance with the license, terms, conditions,
  16:Generated_Source\PSoC5/USB_msc.c **** * disclaimers, and limitations in the end user license agreement accompanying
  17:Generated_Source\PSoC5/USB_msc.c **** * the software package with which this file was provided.
  18:Generated_Source\PSoC5/USB_msc.c **** *******************************************************************************/
  19:Generated_Source\PSoC5/USB_msc.c **** 
  20:Generated_Source\PSoC5/USB_msc.c **** #include "USB_msc.h"
  21:Generated_Source\PSoC5/USB_msc.c **** #include "USB_pvt.h"
  22:Generated_Source\PSoC5/USB_msc.c **** 
  23:Generated_Source\PSoC5/USB_msc.c **** 
  24:Generated_Source\PSoC5/USB_msc.c **** #if (USB_HANDLE_MSC_REQUESTS)
  25:Generated_Source\PSoC5/USB_msc.c **** 
  26:Generated_Source\PSoC5/USB_msc.c **** /***************************************
  27:Generated_Source\PSoC5/USB_msc.c **** *          Internal variables
  28:Generated_Source\PSoC5/USB_msc.c **** ***************************************/
  29:Generated_Source\PSoC5/USB_msc.c **** 
  30:Generated_Source\PSoC5/USB_msc.c **** static uint8 USB_lunCount = USB_MSC_LUN_NUMBER;
  31:Generated_Source\PSoC5/USB_msc.c **** 
  32:Generated_Source\PSoC5/USB_msc.c **** 
  33:Generated_Source\PSoC5/USB_msc.c **** /*******************************************************************************
  34:Generated_Source\PSoC5/USB_msc.c **** * Function Name: USB_DispatchMSCClassRqst
  35:Generated_Source\PSoC5/USB_msc.c **** ****************************************************************************//**
  36:Generated_Source\PSoC5/USB_msc.c **** *   
  37:Generated_Source\PSoC5/USB_msc.c **** *  \internal 
  38:Generated_Source\PSoC5/USB_msc.c **** *  This routine dispatches MSC class requests.
  39:Generated_Source\PSoC5/USB_msc.c **** *
  40:Generated_Source\PSoC5/USB_msc.c **** * \return
  41:Generated_Source\PSoC5/USB_msc.c **** *  Status of request processing: handled or not handled.
  42:Generated_Source\PSoC5/USB_msc.c **** *
  43:Generated_Source\PSoC5/USB_msc.c **** * \globalvars
  44:Generated_Source\PSoC5/USB_msc.c **** *  USB_lunCount - stores number of LUN (logical units).
  45:Generated_Source\PSoC5/USB_msc.c **** *
  46:Generated_Source\PSoC5/USB_msc.c **** * \reentrant
ARM GAS  C:\Users\JEFFSN~1\AppData\Local\Temp\cckhmVCS.s 			page 23


  47:Generated_Source\PSoC5/USB_msc.c **** *  No.
  48:Generated_Source\PSoC5/USB_msc.c **** *
  49:Generated_Source\PSoC5/USB_msc.c **** *******************************************************************************/
  50:Generated_Source\PSoC5/USB_msc.c **** uint8 USB_DispatchMSCClassRqst(void) 
  51:Generated_Source\PSoC5/USB_msc.c **** {
 320              		.loc 1 51 0
 321              		.cfi_startproc
 322              		@ args = 0, pretend = 0, frame = 0
 323              		@ frame_needed = 0, uses_anonymous_args = 0
 324 0000 08B5     		push	{r3, lr}
 325              		.cfi_def_cfa_offset 8
 326              		.cfi_offset 3, -8
 327              		.cfi_offset 14, -4
 328              	.LVL0:
  52:Generated_Source\PSoC5/USB_msc.c ****     uint8 requestHandled = USB_FALSE;
  53:Generated_Source\PSoC5/USB_msc.c ****     
  54:Generated_Source\PSoC5/USB_msc.c ****     /* Get request data. */
  55:Generated_Source\PSoC5/USB_msc.c ****     uint16 value  = USB_GET_UINT16(USB_wValueHiReg,  USB_wValueLoReg);
 329              		.loc 1 55 0
 330 0002 1A4B     		ldr	r3, .L11
 331 0004 D978     		ldrb	r1, [r3, #3]	@ zero_extendqisi2
 332 0006 9A78     		ldrb	r2, [r3, #2]	@ zero_extendqisi2
 333 0008 42EA0122 		orr	r2, r2, r1, lsl #8
 334              	.LVL1:
  56:Generated_Source\PSoC5/USB_msc.c ****     uint16 dataLength = USB_GET_UINT16(USB_wLengthHiReg, USB_wLengthLoReg);
 335              		.loc 1 56 0
 336 000c D879     		ldrb	r0, [r3, #7]	@ zero_extendqisi2
 337 000e 9979     		ldrb	r1, [r3, #6]	@ zero_extendqisi2
 338 0010 41EA0021 		orr	r1, r1, r0, lsl #8
 339              	.LVL2:
  57:Generated_Source\PSoC5/USB_msc.c ****        
  58:Generated_Source\PSoC5/USB_msc.c ****     /* Check request direction: D2H or H2D. */
  59:Generated_Source\PSoC5/USB_msc.c ****     if (0u != (USB_bmRequestTypeReg & USB_RQST_DIR_D2H))
 340              		.loc 1 59 0
 341 0014 1B78     		ldrb	r3, [r3]	@ zero_extendqisi2
 342 0016 13F0800F 		tst	r3, #128
 343 001a 0FD0     		beq	.L2
  60:Generated_Source\PSoC5/USB_msc.c ****     {
  61:Generated_Source\PSoC5/USB_msc.c ****         /* Handle direction from device to host. */
  62:Generated_Source\PSoC5/USB_msc.c ****         
  63:Generated_Source\PSoC5/USB_msc.c ****         if (USB_MSC_GET_MAX_LUN == USB_bRequestReg)
 344              		.loc 1 63 0
 345 001c 134B     		ldr	r3, .L11
 346 001e 5B78     		ldrb	r3, [r3, #1]	@ zero_extendqisi2
 347 0020 DBB2     		uxtb	r3, r3
 348 0022 FE2B     		cmp	r3, #254
 349 0024 16D1     		bne	.L4
  64:Generated_Source\PSoC5/USB_msc.c ****         {
  65:Generated_Source\PSoC5/USB_msc.c ****             /* Check request fields. */
  66:Generated_Source\PSoC5/USB_msc.c ****             if ((value  == USB_MSC_GET_MAX_LUN_WVALUE) &&
 350              		.loc 1 66 0
 351 0026 BAB9     		cbnz	r2, .L5
 352              		.loc 1 66 0 is_stmt 0 discriminator 1
 353 0028 0129     		cmp	r1, #1
 354 002a 17D1     		bne	.L6
  67:Generated_Source\PSoC5/USB_msc.c ****                 (dataLength == USB_MSC_GET_MAX_LUN_WLENGTH))
  68:Generated_Source\PSoC5/USB_msc.c ****             {
ARM GAS  C:\Users\JEFFSN~1\AppData\Local\Temp\cckhmVCS.s 			page 24


  69:Generated_Source\PSoC5/USB_msc.c ****                 /* Reply to Get Max LUN request: setup control read. */
  70:Generated_Source\PSoC5/USB_msc.c ****                 USB_currentTD.pData = &USB_lunCount;
 355              		.loc 1 70 0 is_stmt 1
 356 002c 104B     		ldr	r3, .L11+4
 357 002e 114A     		ldr	r2, .L11+8
 358              	.LVL3:
 359 0030 5A60     		str	r2, [r3, #4]
  71:Generated_Source\PSoC5/USB_msc.c ****                 USB_currentTD.count =  USB_MSC_GET_MAX_LUN_WLENGTH;
 360              		.loc 1 71 0
 361 0032 0122     		movs	r2, #1
 362 0034 1A80     		strh	r2, [r3]	@ movhi
  72:Generated_Source\PSoC5/USB_msc.c ****                 
  73:Generated_Source\PSoC5/USB_msc.c ****                 requestHandled  = USB_InitControlRead();
 363              		.loc 1 73 0
 364 0036 FFF7FEFF 		bl	USB_InitControlRead
 365              	.LVL4:
 366 003a 08BD     		pop	{r3, pc}
 367              	.LVL5:
 368              	.L2:
  74:Generated_Source\PSoC5/USB_msc.c ****             }
  75:Generated_Source\PSoC5/USB_msc.c ****         }
  76:Generated_Source\PSoC5/USB_msc.c ****     }
  77:Generated_Source\PSoC5/USB_msc.c ****     else
  78:Generated_Source\PSoC5/USB_msc.c ****     {
  79:Generated_Source\PSoC5/USB_msc.c ****         /* Handle direction from host to device. */
  80:Generated_Source\PSoC5/USB_msc.c ****         
  81:Generated_Source\PSoC5/USB_msc.c ****         if (USB_MSC_RESET == USB_bRequestReg)
 369              		.loc 1 81 0
 370 003c 0B4B     		ldr	r3, .L11
 371 003e 5B78     		ldrb	r3, [r3, #1]	@ zero_extendqisi2
 372 0040 DBB2     		uxtb	r3, r3
 373 0042 FF2B     		cmp	r3, #255
 374 0044 0CD1     		bne	.L7
  82:Generated_Source\PSoC5/USB_msc.c ****         {
  83:Generated_Source\PSoC5/USB_msc.c ****             /* Check request fields. */
  84:Generated_Source\PSoC5/USB_msc.c ****             if ((value  == USB_MSC_RESET_WVALUE) &&
 375              		.loc 1 84 0
 376 0046 6AB9     		cbnz	r2, .L8
 377              		.loc 1 84 0 is_stmt 0 discriminator 1
 378 0048 71B9     		cbnz	r1, .L9
  85:Generated_Source\PSoC5/USB_msc.c ****                 (dataLength == USB_MSC_RESET_WLENGTH))
  86:Generated_Source\PSoC5/USB_msc.c ****             {
  87:Generated_Source\PSoC5/USB_msc.c ****                 /* Handle to Bulk-Only Reset request: no data control transfer. */
  88:Generated_Source\PSoC5/USB_msc.c ****                 USB_currentTD.count = USB_MSC_RESET_WLENGTH;
 379              		.loc 1 88 0 is_stmt 1
 380 004a 094B     		ldr	r3, .L11+4
 381 004c 1A80     		strh	r2, [r3]	@ movhi
  89:Generated_Source\PSoC5/USB_msc.c ****                 
  90:Generated_Source\PSoC5/USB_msc.c ****             #ifdef USB_DISPATCH_MSC_CLASS_MSC_RESET_RQST_CALLBACK
  91:Generated_Source\PSoC5/USB_msc.c ****                 USB_DispatchMSCClass_MSC_RESET_RQST_Callback();
  92:Generated_Source\PSoC5/USB_msc.c ****             #endif /* (USB_DISPATCH_MSC_CLASS_MSC_RESET_RQST_CALLBACK) */
  93:Generated_Source\PSoC5/USB_msc.c ****                 
  94:Generated_Source\PSoC5/USB_msc.c ****                 requestHandled = USB_InitNoDataControlTransfer();
 382              		.loc 1 94 0
 383 004e FFF7FEFF 		bl	USB_InitNoDataControlTransfer
 384              	.LVL6:
 385 0052 08BD     		pop	{r3, pc}
ARM GAS  C:\Users\JEFFSN~1\AppData\Local\Temp\cckhmVCS.s 			page 25


 386              	.LVL7:
 387              	.L4:
  52:Generated_Source\PSoC5/USB_msc.c ****     
 388              		.loc 1 52 0
 389 0054 0020     		movs	r0, #0
 390 0056 08BD     		pop	{r3, pc}
 391              	.L5:
 392 0058 0020     		movs	r0, #0
 393 005a 08BD     		pop	{r3, pc}
 394              	.L6:
 395 005c 0020     		movs	r0, #0
 396 005e 08BD     		pop	{r3, pc}
 397              	.L7:
 398 0060 0020     		movs	r0, #0
 399 0062 08BD     		pop	{r3, pc}
 400              	.L8:
 401 0064 0020     		movs	r0, #0
 402 0066 08BD     		pop	{r3, pc}
 403              	.L9:
 404 0068 0020     		movs	r0, #0
 405              	.LVL8:
  95:Generated_Source\PSoC5/USB_msc.c ****             }
  96:Generated_Source\PSoC5/USB_msc.c ****         }
  97:Generated_Source\PSoC5/USB_msc.c ****     }
  98:Generated_Source\PSoC5/USB_msc.c ****     
  99:Generated_Source\PSoC5/USB_msc.c ****     return (requestHandled);
 100:Generated_Source\PSoC5/USB_msc.c **** }
 406              		.loc 1 100 0
 407 006a 08BD     		pop	{r3, pc}
 408              	.L12:
 409              		.align	2
 410              	.L11:
 411 006c 00600040 		.word	1073766400
 412 0070 00000000 		.word	USB_currentTD
 413 0074 00000000 		.word	.LANCHOR0
 414              		.cfi_endproc
 415              	.LFE0:
 416              		.size	USB_DispatchMSCClassRqst, .-USB_DispatchMSCClassRqst
 417              		.section	.text.USB_MSC_SetLunCount,"ax",%progbits
 418              		.align	2
 419              		.global	USB_MSC_SetLunCount
 420              		.thumb
 421              		.thumb_func
 422              		.type	USB_MSC_SetLunCount, %function
 423              	USB_MSC_SetLunCount:
 424              	.LFB1:
 101:Generated_Source\PSoC5/USB_msc.c **** 
 102:Generated_Source\PSoC5/USB_msc.c **** 
 103:Generated_Source\PSoC5/USB_msc.c **** /*******************************************************************************
 104:Generated_Source\PSoC5/USB_msc.c **** * Function Name: USB_MSC_SetLunCount
 105:Generated_Source\PSoC5/USB_msc.c **** ****************************************************************************//**
 106:Generated_Source\PSoC5/USB_msc.c **** *
 107:Generated_Source\PSoC5/USB_msc.c **** *  This function sets the number of logical units supported in the application. 
 108:Generated_Source\PSoC5/USB_msc.c **** *  The default number of logical units is set in the component customizer.
 109:Generated_Source\PSoC5/USB_msc.c **** *
 110:Generated_Source\PSoC5/USB_msc.c **** *  \param lunCount: Count of the logical units. Valid range is between 1 and 16.
 111:Generated_Source\PSoC5/USB_msc.c **** *
ARM GAS  C:\Users\JEFFSN~1\AppData\Local\Temp\cckhmVCS.s 			page 26


 112:Generated_Source\PSoC5/USB_msc.c **** *
 113:Generated_Source\PSoC5/USB_msc.c **** * \globalvars
 114:Generated_Source\PSoC5/USB_msc.c **** *  USB_lunCount - stores number of LUN (logical units).
 115:Generated_Source\PSoC5/USB_msc.c **** *
 116:Generated_Source\PSoC5/USB_msc.c **** * \reentrant
 117:Generated_Source\PSoC5/USB_msc.c **** *  No.
 118:Generated_Source\PSoC5/USB_msc.c **** *
 119:Generated_Source\PSoC5/USB_msc.c **** *******************************************************************************/
 120:Generated_Source\PSoC5/USB_msc.c **** void USB_MSC_SetLunCount(uint8 lunCount) 
 121:Generated_Source\PSoC5/USB_msc.c **** {
 425              		.loc 1 121 0
 426              		.cfi_startproc
 427              		@ args = 0, pretend = 0, frame = 0
 428              		@ frame_needed = 0, uses_anonymous_args = 0
 429              		@ link register save eliminated.
 430              	.LVL9:
 122:Generated_Source\PSoC5/USB_msc.c ****     USB_lunCount = (lunCount - 1u);
 431              		.loc 1 122 0
 432 0000 0138     		subs	r0, r0, #1
 433              	.LVL10:
 434 0002 014B     		ldr	r3, .L14
 435 0004 1870     		strb	r0, [r3]
 436 0006 7047     		bx	lr
 437              	.L15:
 438              		.align	2
 439              	.L14:
 440 0008 00000000 		.word	.LANCHOR0
 441              		.cfi_endproc
 442              	.LFE1:
 443              		.size	USB_MSC_SetLunCount, .-USB_MSC_SetLunCount
 444              		.section	.text.USB_MSC_GetLunCount,"ax",%progbits
 445              		.align	2
 446              		.global	USB_MSC_GetLunCount
 447              		.thumb
 448              		.thumb_func
 449              		.type	USB_MSC_GetLunCount, %function
 450              	USB_MSC_GetLunCount:
 451              	.LFB2:
 123:Generated_Source\PSoC5/USB_msc.c **** }
 124:Generated_Source\PSoC5/USB_msc.c **** 
 125:Generated_Source\PSoC5/USB_msc.c **** 
 126:Generated_Source\PSoC5/USB_msc.c **** /*******************************************************************************
 127:Generated_Source\PSoC5/USB_msc.c **** * Function Name: USB_MSC_GetLunCount
 128:Generated_Source\PSoC5/USB_msc.c **** ****************************************************************************//**
 129:Generated_Source\PSoC5/USB_msc.c **** *
 130:Generated_Source\PSoC5/USB_msc.c **** *  This function returns the number of logical units.
 131:Generated_Source\PSoC5/USB_msc.c **** *
 132:Generated_Source\PSoC5/USB_msc.c **** * \return
 133:Generated_Source\PSoC5/USB_msc.c **** *   Number of the logical units.
 134:Generated_Source\PSoC5/USB_msc.c **** *
 135:Generated_Source\PSoC5/USB_msc.c **** * \globalvars
 136:Generated_Source\PSoC5/USB_msc.c **** *  USB_lunCount - stores number of LUN (logical units).
 137:Generated_Source\PSoC5/USB_msc.c **** *
 138:Generated_Source\PSoC5/USB_msc.c **** * \reentrant
 139:Generated_Source\PSoC5/USB_msc.c **** *  No.
 140:Generated_Source\PSoC5/USB_msc.c **** *
 141:Generated_Source\PSoC5/USB_msc.c **** *******************************************************************************/
ARM GAS  C:\Users\JEFFSN~1\AppData\Local\Temp\cckhmVCS.s 			page 27


 142:Generated_Source\PSoC5/USB_msc.c **** uint8 USB_MSC_GetLunCount(void) 
 143:Generated_Source\PSoC5/USB_msc.c **** {
 452              		.loc 1 143 0
 453              		.cfi_startproc
 454              		@ args = 0, pretend = 0, frame = 0
 455              		@ frame_needed = 0, uses_anonymous_args = 0
 456              		@ link register save eliminated.
 144:Generated_Source\PSoC5/USB_msc.c ****     return (USB_lunCount + 1u);
 457              		.loc 1 144 0
 458 0000 024B     		ldr	r3, .L17
 459 0002 1878     		ldrb	r0, [r3]	@ zero_extendqisi2
 460 0004 0130     		adds	r0, r0, #1
 145:Generated_Source\PSoC5/USB_msc.c **** }   
 461              		.loc 1 145 0
 462 0006 C0B2     		uxtb	r0, r0
 463 0008 7047     		bx	lr
 464              	.L18:
 465 000a 00BF     		.align	2
 466              	.L17:
 467 000c 00000000 		.word	.LANCHOR0
 468              		.cfi_endproc
 469              	.LFE2:
 470              		.size	USB_MSC_GetLunCount, .-USB_MSC_GetLunCount
 471              		.bss
 472              		.set	.LANCHOR0,. + 0
 473              		.type	USB_lunCount, %object
 474              		.size	USB_lunCount, 1
 475              	USB_lunCount:
 476 0000 00       		.space	1
 477              		.text
 478              	.Letext0:
 479              		.file 2 "Generated_Source\\PSoC5\\cytypes.h"
 480              		.file 3 "Generated_Source\\PSoC5\\USB.h"
 481              		.file 4 "Generated_Source\\PSoC5\\USB_pvt.h"