ARM GAS  C:\Users\JEFFSN~1\AppData\Local\Temp\ccSAXzKy.s 			page 1


   1              		.syntax unified
   2              		.cpu cortex-m3
   3              		.fpu softvfp
   4              		.eabi_attribute 20, 1
   5              		.eabi_attribute 21, 1
   6              		.eabi_attribute 23, 3
   7              		.eabi_attribute 24, 1
   8              		.eabi_attribute 25, 1
   9              		.eabi_attribute 26, 1
  10              		.eabi_attribute 30, 2
  11              		.eabi_attribute 34, 1
  12              		.eabi_attribute 18, 4
  13              		.thumb
  14              		.syntax unified
  15              		.file	"USB_EP17_DMA_Done_SR.c"
  16              		.text
  17              	.Ltext0:
  18              		.section	.gnu.lto_.profile.807d6242,"",%progbits
  19 0000 789C6361 		.ascii	"x\234ca`d`a`\000\222\016\342\000\001\001\000b"
  19      60646061 
  19      6000920E 
  19      E2000101 
  19      0062
  20              		.text
  21              		.section	.gnu.lto_.icf.807d6242,"",%progbits
  22 0000 789C6361 		.ascii	"x\234ca`d\000\001\005\006\004`e8tv\301NV\306g?\336/"
  22      60640001 
  22      05060460 
  22      65387476 
  22      C14E56C6 
  23 0018 E065BAF1 		.ascii	"\340e\272\361\361\331V\016\346\376\2737\217\262\261"
  23      F1D9560E 
  23      E6FEBB37 
  23      8FB2B1
  24 0027 CC99F8A7 		.ascii	"\314\231\370\247\221\215\001\000\016I\017\310"
  24      918D0100 
  24      0E490FC8 
  25              		.text
  26              		.section	.gnu.lto_.jmpfuncs.807d6242,"",%progbits
  27 0000 789C6361 		.ascii	"x\234ca`d\000\001Y\006\004`\005b\240(\023\210\315\004"
  27      60640001 
  27      59060460 
  27      0562A028 
  27      1388CD04 
  28 0014 A5991919 		.ascii	"\245\231\031\031\031\353Y\200\014\000\011\230\000\270"
  28      19EB5980 
  28      0C000998 
  28      00B8
  29              		.text
  30              		.section	.gnu.lto_.inline.807d6242,"",%progbits
  31 0000 789C6361 		.ascii	"x\234ca`d\000\201f\006\004`e``afd`b\272\300\317\300"
  31      60640081 
  31      66060460 
  31      65606061 
  31      66646062 
  32 0018 B6409E09 		.ascii	"\266@\236\011$\306\310\300%\015\024b\373\240\007\027"
  32      24C6C8C0 
ARM GAS  C:\Users\JEFFSN~1\AppData\Local\Temp\ccSAXzKy.s 			page 2


  32      250D1462 
  32      FBA00717 
  33 0028 62E2060A 		.ascii	"b\342\006\012O\360\003Q\014L\370\245\231\031XY\030\031"
  33      4FF00351 
  33      0C4CF8A5 
  33      99195859 
  33      1819
  34 003a 19388076 		.ascii	"\0318\200v1\303M\0052X@\012Y0mc\000\000s$\014\270"
  34      31C34D05 
  34      3258400A 
  34      59306D63 
  34      00007324 
  35              		.text
  36              		.section	.gnu.lto_.pureconst.807d6242,"",%progbits
  37 0000 789C6361 		.ascii	"x\234ca`d\340f```e\220b\224b\222b\226b\221\002\000\003"
  37      6064E066 
  37      60606065 
  37      90629462 
  37      92629662 
  38 0018 FE00A2   		.ascii	"\376\000\242"
  39              		.text
  40              		.section	.gnu.lto_USB_EP17_DMA_Done_SR_Read.807d6242,"",%progbits
  41 0000 789C6361 		.ascii	"x\234ca`d\000\201\033@l\000\304\322@\314\310\314\300"
  41      60640081 
  41      1B406C00 
  41      C4D240CC 
  41      C8CCC0
  42 0013 C834E11C 		.ascii	"\3104\341\034\003C#\007\023##\210\321\300\301\310P\317"
  42      03432307 
  42      13232388 
  42      D1C0C1C8 
  42      50CF
  43 0025 C458CFF8 		.ascii	"\304X\317\370\225\351/\023\343\351\357'z\2704\22774"
  43      95E92F13 
  43      E3E9EF27 
  43      7AB83497 
  43      3734
  44 0037 34353C58 		.ascii	"45<Xz\231y\372\212\003\214\255\314\014\014\377\231\030"
  44      7A9979FA 
  44      8A038CAD 
  44      CC0C0CFF 
  44      9918
  45 0049 188D6518 		.ascii	"\030\215e\030\015d@F,g\324d\000*}\264\361\337T^\266"
  45      0D644046 
  45      2C67D464 
  45      002A7DB4 
  45      F1DF545E 
  46 005e 96062050 		.ascii	"\226\006 P\000)\000\312\254`d\003Y\271>\350@\303\377"
  46      002900CA 
  46      AC606403 
  46      59B93EE8 
  46      40C3FF
  47 0071 FFCD0D07 		.ascii	"\377\315\015\007\346\262>dbfb\000\231\300\360\001\250"
  47      E6B23E64 
  47      62666200 
  47      99C0F001 
  47      A8
ARM GAS  C:\Users\JEFFSN~1\AppData\Local\Temp\ccSAXzKy.s 			page 3


  48 0082 0264DF47 		.ascii	"\002d\337G&&\020\315\374\214\361\320\257\256\177G\230"
  48      262610CD 
  48      FC8CF1D0 
  48      AFAE7F47 
  48      98
  49 0093 419A9A99 		.ascii	"A\232\232\231AvOk=t\236\375\013S+3##\310\374\011\237"
  49      41764F6B 
  49      3D749EFD 
  49      0B532B33 
  49      2323C8FC 
  50 00a9 FAF6F241 		.ascii	"\372\366\362A\270OO46\260\000\205v\237\230x\231s>\343"
  50      B84F4F34 
  50      36B00085 
  50      769F9878 
  50      99733EE3 
  51 00bd DCC616A0 		.ascii	"\334\306\026\240\253\230\030W1\3120\256d\004\272\211"
  51      AB981857 
  51      31CA30AE 
  51      6404BA89 
  52 00cd 7135E37C 		.ascii	"q5\343|F\206W\214LP\303\030\300\3661\202\354\001\262"
  52      4686578C 
  52      4C50C318 
  52      C0F63182 
  52      EC01B2
  53 00e0 F5DC53F3 		.ascii	"\365\334S\363R\213\022KRS\342\203\363K\213\222Sc\002"
  53      528B124B 
  53      5253E283 
  53      F34B8B92 
  53      536302
  54 00f3 82F39D4D 		.ascii	"\202\363\235McB\203\235\342]\003\014\315\343]|\035\343"
  54      6342839D 
  54      E25D030C 
  54      CDE35D7C 
  54      1DE3
  55 0105 5DF2F352 		.ascii	"]\362\363R\343\203\203\364\222\031\000)\357[\304"
  55      E38383F4 
  55      92190029 
  55      EF5BC4
  56              		.text
  57              		.section	.gnu.lto_USB_EP17_DMA_Done_SR_InterruptEnable.807d6242,"",%progbits
  58 0000 789C7D90 		.ascii	"x\234}\220?H\033Q\034\307\177\337\367r\227\240(.\235"
  58      3F481B51 
  58      1CC77FDF 
  58      F77297A0 
  58      282E9D
  59 0013 CCE0E2E0 		.ascii	"\314\340\342\340\022*R:\026[\305I\020\0177\341(\361"
  59      122A523A 
  59      165BC549 
  59      100F37E1 
  59      28F1
  60 0025 06079312 		.ascii	"\006\007\223\022\342\234\027\223C\351P\004Q'u\020\211"
  60      E29C1793 
  60      43E95004 
  60      51277510 
  60      89
  61 0036 FF3553CD 		.ascii	"\3775S\315vdR\250\212\216\026\241d\020\021\261Q*\255"
  61      766452A8 
ARM GAS  C:\Users\JEFFSN~1\AppData\Local\Temp\ccSAXzKy.s 			page 4


  61      8A8E16A1 
  61      641011B1 
  61      512AAD
  62 0049 42BCFEDE 		.ascii	"B\274\376\336\335X\350\017\336\375\336=\276\337\317"
  62      DD58E80F 
  62      DEFDDE3D 
  62      BEDFCF
  63 0058 EF4F8440 		.ascii	"\357O\204@:.8\275\343\334\316\007\222 fO\210\3621\001"
  63      3A2E38BD 
  63      E3DCCE07 
  63      9220664F 
  63      88F23101 
  64 006c E88B8A81 		.ascii	"\350\213\212\201r\0029<\212\206@u\372\252\"\272J\212"
  64      7202393C 
  64      8A864075 
  64      FAAA22BA 
  64      4A8A
  65 007e E3C7DAB2 		.ascii	"\343\307\332\262T\353\036\\I\344\213\200D(\241\213X"
  65      54EB1E5C 
  65      49E48B80 
  65      4428A18B 
  65      58
  66 008f 36F77079 		.ascii	"6\367py`\312n\350\373\305\356l\261\251sU\251)\345\375"
  66      60CA6EE8 
  66      FBC5EE6C 
  66      B1A97355 
  66      A929E5FD 
  67 00a3 9E58545E 		.ascii	"\236XT^\276\303\225\300:$\273\320\023\307\353x\340e"
  67      BEC395C0 
  67      3A24BBD0 
  67      13C7EB78 
  67      E065
  68 00b5 69ADFC32 		.ascii	"i\255\3742\337b\0265\275\003\033\350\014\271\330\204"
  68      DF621635 
  68      BD031BE8 
  68      0CB9D884 
  69 00c5 C92D42BF 		.ascii	"\311-B\277\354\015{\312\367\013\312{4\0322\306\315\362"
  69      EC0D7BCA 
  69      F70BCA7B 
  69      341A32C6 
  69      CDF2
  70 00d7 5B845C29 		.ascii	"[\204\\)\014\375!\252\363\321]\337\013\241\263\274F"
  70      0CFD21AA 
  70      F3D15DDF 
  70      0BA1B3BC 
  70      46
  71 00e8 C17B2A43 		.ascii	"\301{*C#\012Rr\211J\345\366{4\327P3J\265\271\222[\320"
  71      230A5272 
  71      894AE5F6 
  71      7B34D750 
  71      334AB5B9 
  72 00ff E42DE4D8 		.ascii	"\344-\344\330\036\241\032DP\214\241\254\246+T\237?\337"
  72      1EA11A44 
  72      508CA1AC 
  72      A62B549F 
  72      3FDF
  73 0111 959A4377 		.ascii	"\225\232Cw\204\335\013n\3654\372K\270\322\010F;\376"
ARM GAS  C:\Users\JEFFSN~1\AppData\Local\Temp\ccSAXzKy.s 			page 5


  73      84DD0B6E 
  73      F534FA4B 
  73      B8D20846 
  73      3BFE
  74 0123 BAFDB339 		.ascii	"\272\375\2639\374\235?\312+\2558<\373Rk]\301R\276\310"
  74      FC9D3FCA 
  74      2BAD383C 
  74      FB526B5D 
  74      C152BEC8 
  75 0137 8B31B183 		.ascii	"\2131\261\2038\266\301\003b\027+`b\341\217\031\342\214"
  75      38B6C103 
  75      62172B60 
  75      62E18F19 
  75      E28C
  76 0149 90785EFF 		.ascii	"\220x^\377\266\024 \004\332\260\307J.\272\020\364\373"
  76      B6142004 
  76      DAB0C74A 
  76      2EBA10F4 
  76      FB
  77 015a 3FD83EC3 		.ascii	"?\330>\303\030A\327(z\215WZM\377\314\026\365y\007\204"
  77      1841D728 
  77      7A8D575A 
  77      4DFFCC16 
  77      F5790784 
  78 016e 32CFC6C3 		.ascii	"2\317\306\303\2702F7\230\362|#P\353\250\363\354\274"
  78      B8324637 
  78      98F27C23 
  78      50EBA8F3 
  78      ECBC
  79 0180 23162506 		.ascii	"#\026%\006\234\224\223\371\230u\306l+=\231I:\243CV\372"
  79      9C9493F9 
  79      9875C66C 
  79      2B3D9949 
  79      3AA34356 
  80 0195 C39BD111 		.ascii	"\303\233\321\021\353\275\335?\324\375\326\356\033\354"
  80      EBBDDD3F 
  80      D4FDD6EE 
  80      1BEC
  81 01a3 B5FBD229 		.ascii	"\265\373\322)\307\266\206\023Ij\035Oe\235Lf\362S\326"
  81      C7B68613 
  81      496A1D4F 
  81      659D4C66 
  81      F253D6
  82 01b6 CAB2E92F 		.ascii	"\312\262\351/w\007\263\016"
  82      7707B30E 
  83              		.text
  84              		.section	.gnu.lto_USB_EP17_DMA_Done_SR_InterruptDisable.807d6242,"",%progbits
  85 0000 789C7D90 		.ascii	"x\234}\220KH\033Q\024\206\317\177\357d\022,\011\256"
  85      4B481B51 
  85      1486CF7F 
  85      EF64122C 
  85      09AE
  86 0012 BA69166E 		.ascii	"\272i\026n\\\270\021\203\210K\361\321\272*\210Cw\302"
  86      5CB81183 
  86      884BF1D1 
  86      BA2A8843 
  86      77C2
ARM GAS  C:\Users\JEFFSN~1\AppData\Local\Temp\ccSAXzKy.s 			page 6


  87 0024 207616DD 		.ascii	" v\026\335$2\304unLF\245\213\"\024\025\012\"\264\013"
  87      2432C475 
  87      6E4C46A5 
  87      8B221415 
  87      0A22B40B 
  88 0038 6D6BB582 		.ascii	"mk\265\202\320f7\315B\332B\025\021\021\324\240d\021"
  88      D06637CD 
  88      42DA4215 
  88      1111D4A0 
  88      6411
  89 004a 44041FE8 		.ascii	"D\004\037\350F\324\364\334\231e\241\007\356\234;\227"
  89      46D4F4DC 
  89      9965A107 
  89      EE9C3B97 
  90 005a FFFFCEC3 		.ascii	"\377\377\316\303 \220\216#N]\234\237\360\201$\210\351"
  90      20908E23 
  90      4E5D9C9F 
  90      F0812488 
  90      E9
  91 006b 4DA27C4C 		.ascii	"M\242|L\000\372\242b\240\234@\0167\342^\240<Y+\211\226"
  91      00FAA262 
  91      A09C400E 
  91      37E25EA0 
  91      3C592B89 
  92 0080 45C571EC 		.ascii	"E\305q\354\235\266\251%\037\236$\252\213\200DXD\013"
  92      9DB6A925 
  92      1F9E24AA 
  92      8B804458 
  92      440B
  93 0092 B1ECED55 		.ascii	"\261\354\355U\345\273)S\320\367\375\225\351bC\363\007"
  93      E5BB2953 
  93      D0F7FD95 
  93      E96243F3 
  93      07
  94 00a3 A5C695BF 		.ascii	"\245\306\225\277\273\021\237S~\276\311\223\300\022$"
  94      BB119F53 
  94      7EBEC993 
  94      C01224
  95 00b2 DBD09E44 		.ascii	"\333\320\236D[20\263\266\272\3660\0237\213\032\337\204"
  95      5B3230B3 
  95      B6BAF630 
  95      13378B1A 
  95      DF84
  96 00c4 8F680EC1 		.ascii	"\217h\016\301\370\004\223{\204~Y\035\364U\275^P\376"
  96      F804937B 
  96      847E591D 
  96      F455BD5E 
  96      50FE
  97 00d6 8EF9E3D0 		.ascii	"\216\371\343\320\214q\273\374h\220'ED\177\210.\370\350"
  97      8C71BBFC 
  97      68902745 
  97      447F882E 
  97      F8E8
  98 00e8 BE2F85D0 		.ascii	"\276/\205\320Y\236\240\340\357M<\326\214\202\224\\\243"
  98      599EA0E0 
  98      EF4D3CD6 
  98      8C82945C 
ARM GAS  C:\Users\JEFFSN~1\AppData\Local\Temp\ccSAXzKy.s 			page 7


  98      A3
  99 00f9 543A3B88 		.ascii	"T:;\210\346\356\325\224R\215\236\344\0364\3723rl7\250"
  99      E6EED594 
  99      528D9EE4 
  99      1E34FA33 
  99      726C37A8 
 100 010d 0A115463 		.ascii	"\012\021Tc(\253\251\206\362\355\353\332\273u\204v\203"
 100      28ABA986 
 100      F2EDEBDA 
 100      BB758476 
 100      83
 101 011e EDB35E79 		.ascii	"\355\263^y+z-<\031\011\246\373\363m\371\374Q\370;\363"
 101      2B7A2D3C 
 101      1909A6FB 
 101      F36DF9FC 
 101      51F83BF3 
 102 0132 2BAFB4E2 		.ascii	"+\257\264\342\347\366\233jb\001\363\371\"\357\306\304"
 102      E7F69B6A 
 102      6201F3F9 
 102      22EFC6C4 
 103 0142 1724B10C 		.ascii	"\027$\261\014\036\021+X\000#\013wf\210\213\204\304\367"
 103      1E112B58 
 103      00230B77 
 103      66888B84 
 103      C4F7
 104 0154 BFE7CB0D 		.ascii	"\277\347\313\015\032a\342\034Xe)\227\235\015J\376\217"
 104      1A61E21C 
 104      58652997 
 104      9D0D4AFE 
 104      8F
 105 0165 F69569CC 		.ascii	"\366\225i\314\240\023\024\375\203\215\240m\372g\274"
 105      A01314FD 
 105      838DA06D 
 105      FA67BC
 106 0174 689DD740 		.ascii	"h\235\327@X\343\361x\036O\306\350\024\343~\345Y\240"
 106      58E3F178 
 106      1E4FC6E8 
 106      14E37EE5 
 106      59A0
 107 0186 D671C1E3 		.ascii	"\326q\301\343\363\232X\324\332\357\244\035w8\353\274"
 107      F39A58D4 
 107      DAEFA41D 
 107      7738EBBC 
 108 0196 B4ADCC98 		.ascii	"\264\255\314\230;\342\014\015X\231\336\216\241\027V"
 108      3BE20C0D 
 108      5899DE8E 
 108      A11756
 109 01a5 8FFD7420 		.ascii	"\217\375t \325i\367=\357\266\3732i\307\266\006[G(\361"
 109      D569F73D 
 109      EFB6FB32 
 109      69C7B606 
 109      5B4728F1 
 110 01b9 2A9D755C 		.ascii	"*\235u\\wl4ke\331\364\027@\031\265\306"
 110      776C346B 
 110      65D9F417 
 110      4019B5C6 
 111              		.text
ARM GAS  C:\Users\JEFFSN~1\AppData\Local\Temp\ccSAXzKy.s 			page 8


 112              		.section	.gnu.lto_USB_EP17_DMA_Done_SR_WriteMask.807d6242,"",%progbits
 113 0000 789C2590 		.ascii	"x\234%\220\275/\203Q\024\306\317so\351+\"\376\000\035"
 113      BD2F8351 
 113      14C6CF73 
 113      6FE92B22 
 113      FE001D
 114 0013 6C629136 		.ascii	"lb\2216RfT:\021\321\330\310\233\246\336I\264I1\273\375"
 114      5266543A 
 114      11D1D8C8 
 114      9BA6DE49 
 114      B44931BB 
 115 0028 782B360B 		.ascii	"x+6\013\021Ic\242\276\351$eP\035\032]\210E\214\010\035"
 115      114963A2 
 115      BEE92465 
 115      501D1A5D 
 115      88458C08 
 116 003d 0C421083 		.ascii	"\014B\020\203\217\327\271\355Mn\316\271'\317\363\273"
 116      8FD7B9ED 
 116      4D6ECEB9 
 116      27CFF3BB 
 117 004d CFBD2E02 		.ascii	"\317\275.\002\3515\314\305\317\265\2157$A,]\022%\014"
 117      E935CCC5 
 117      CFB58D37 
 117      24412C5D 
 117      12250C
 118 0060 01E84619 		.ascii	"\001\350F\031\240y\201y|\212_\201\322B\265 :s\212\327"
 118      A0798179 
 118      7C8A5F81 
 118      D242B520 
 118      3A738AD7 
 119 0074 DDD3BB57 		.ascii	"\335\323\273Wm\025aK\"G\324H\204\034:Y\345l\036-\032"
 119      6D15614B 
 119      2247D448 
 119      841C3A59 
 119      E56C1E2D 
 120 0089 D207E27E 		.ascii	"\322\007\342~5\363Xn\351\330P*\251\324\361\204\222\266"
 120      35F3586E 
 120      E9D8502A 
 120      A9D4F184 
 120      92B6
 121 009b 04B620D9 		.ascii	"\004\266 \331\201n\017\274\036\342\001a\033\035Z\374"
 121      816E0FBC 
 121      1EE20161 
 121      1B1D5AFC 
 122 00ab 90FF5B6E 		.ascii	"\220\377[niLk|{\035\212\0354\352\230\207\243E\3458)"
 122      694C6B7C 
 122      7B1D8A1D 
 122      34EA9887 
 122      A345E538 
 123 00c0 55CCBBCF 		.ascii	"U\314\273\317O\334\015\200\266\210\272\221^Y\251\263"
 123      4FDC0D80 
 123      B688BA91 
 123      5E59A9B3 
 124 00d0 BE09A1AB 		.ascii	"\276\011\241\253\254\"\365\223\271\311\366hsJ\212\224"
 124      AC22F593 
 124      B9C9F668 
 124      734A8A94 
ARM GAS  C:\Users\JEFFSN~1\AppData\Local\Temp\ccSAXzKy.s 			page 9


 125 00e0 04B3BF2F 		.ascii	"\004\263\277/\252g\255\037B\337\357\020v\341\241\007"
 125      AA67AD1F 
 125      42DFEF10 
 125      76E1A107 
 126 00f0 881A9E19 		.ascii	"\210\032\236\031\254\242*Jk\371\227\373&=c\375\212]"
 126      ACA22A4A 
 126      6BF997FB 
 126      263D63FD 
 126      8A5D
 127 0102 BA726BBD 		.ascii	"\272rk\275\250\275\243\220\316]\243~\264+\011\345\342"
 127      A8BDA390 
 127      CE5DA37E 
 127      B42B09E5 
 127      E2
 128 0113 51F9AB72 		.ascii	"Q\371\253rk\254#\233H'\224j\266\245\304><\330c2\341"
 128      6BAC239B 
 128      4827946A 
 128      B6A5C43E 
 128      3CD86332 
 129 0128 00EBD0D0 		.ascii	"\000\353\320\320g$\213\247A\215\254}\320+\3038!\347"
 129      67248BA7 
 129      418DAC7D 
 129      D02BC338 
 129      21E7
 130 013a ED0A5A51 		.ascii	"\355\012ZQ+\036\236\265&\315Pl.\036\261\306GB\261\001"
 130      2B1E9EB5 
 130      26CD506C 
 130      2E1EB1C6 
 130      4742B101 
 131 014e FFF858A8 		.ascii	"\377\370X\250\337\034\034\361\365\232\201\241>3\020"
 131      DF1C1CF1 
 131      F59A81A1 
 131      3E3310
 132 015d 8B5A6668 		.ascii	"\213Zfh\264+B\256\351\360\314\324?\236\021\203\223"
 132      B42B42AE 
 132      E9F0CCD4 
 132      3F9E1183 
 132      93
 133              		.text
 134              		.section	.gnu.lto_USB_EP17_DMA_Done_SR_ReadMask.807d6242,"",%progbits
 135 0000 789C6361 		.ascii	"x\234ca`d\000\201\233@l\000\304\322@\314\310\314\300"
 135      60640081 
 135      9B406C00 
 135      C4D240CC 
 135      C8CCC0
 136 0013 C834E11C 		.ascii	"\3104\341\034\003C#\007\023##\210\321\300\301\310P\317"
 136      03432307 
 136      13232388 
 136      D1C0C1C8 
 136      50CF
 137 0025 C458CFF8 		.ascii	"\304X\317\370\225\351/\023\343\351\357'z\2704\22774"
 137      95E92F13 
 137      E3E9EF27 
 137      7AB83497 
 137      3734
 138 0037 34353C38 		.ascii	"45<8\372\337b\372\212\003\214\255\314\014\014\377\231"
 138      FADF62FA 
ARM GAS  C:\Users\JEFFSN~1\AppData\Local\Temp\ccSAXzKy.s 			page 10


 138      8A038CAD 
 138      CC0C0CFF 
 138      99
 139 0048 18188D65 		.ascii	"\030\030\215e\030\015d@F,g\324d\000*}\264\361\337T^"
 139      180D6440 
 139      462C67D4 
 139      64002A7D 
 139      B4F1DF54 
 140 005d B6960620 		.ascii	"\266\226\006 P\000)\000\312\254`d\003Y\271>\350@\303"
 140      50002900 
 140      CAAC6064 
 140      0359B93E 
 140      E840C3
 141 0070 FFFFCD0D 		.ascii	"\377\377\315\015\007\376\263\037\234\304\305\314\304"
 141      07FEB31F 
 141      9CC4C5CC 
 141      C4
 142 007d 003282E1 		.ascii	"\0002\202\341\003P\011\310\302\217LL \232\371\031\343"
 142      035009C8 
 142      C28F4C4C 
 142      209AF919 
 142      E3
 143 008e A15F5DC7 		.ascii	"\241_]\307VX\200t53\203,\237\326z\350<\373\027\246V"
 143      56588074 
 143      3533832C 
 143      9FD67AE8 
 143      3CFB17A6 
 144 00a3 66464690 		.ascii	"fFF\220\005;[\226_d\204p[O66\260\000\205\216}?y\203"
 144      053B5B96 
 144      5F648470 
 144      5B4F3636 
 144      B000858E 
 145 00bb 633EE3DC 		.ascii	"c>\343\334\306\026\240\263\230\030W1\3120\256d\004:"
 145      C616A0B3 
 145      98185731 
 145      CA30AE64 
 145      043A
 146 00cd 8A7135E3 		.ascii	"\212q5\343|F\206W\214LP\303\030\300\3661\202\354\001"
 146      7C468657 
 146      8C4C50C3 
 146      18C0F631 
 146      82EC01
 147 00e0 B2F5DC53 		.ascii	"\262\365\334S\363R\213\022KRS\342\203\363K\213\222S"
 147      F3528B12 
 147      4B5253E2 
 147      83F34B8B 
 147      9253
 148 00f2 630282F3 		.ascii	"c\002\202\363\235McB\203\235\342]\003\014\315\343]|"
 148      9D4D6342 
 148      839DE25D 
 148      030CCDE3 
 148      5D7C
 149 0104 1DE35DF2 		.ascii	"\035\343]\362\363R\343\203\203\364\222\031\000K2\\\367"
 149      F352E383 
 149      83F49219 
 149      004B325C 
 149      F7
ARM GAS  C:\Users\JEFFSN~1\AppData\Local\Temp\ccSAXzKy.s 			page 11


 150              		.text
 151              		.section	.gnu.lto_.symbol_nodes.807d6242,"",%progbits
 152 0000 789C55C8 		.ascii	"x\234U\310\261\021\204@\014CQ\311\336\335:\240Rm\011"
 152      B1118440 
 152      0C4351C9 
 152      DEDD3AA0 
 152      526D09
 153 0013 97D10055 		.ascii	"\227\321\000U\020\023S\0034\302`\340\002\254D\363_\001"
 153      10135303 
 153      34C260E0 
 153      02AC44F3 
 153      5F01
 154 0025 31216610 		.ascii	"1!f\020\360\333p\337\322\307\000\212\031L\226\301\345"
 154      F0DB70DF 
 154      D2C7008A 
 154      194C96C1 
 154      E5
 155 0036 198A4A02 		.ascii	"\031\212J\0026\325\007\200\336\207\350\252\366mg\303"
 155      36D50780 
 155      DE87E8AA 
 155      F66D67C3 
 156 0046 BC9F7456 		.ascii	"\274\237tV\254G\274\375\333\336\306\005\023\340#\326"
 156      AC47BCFD 
 156      DBDEC605 
 156      13E023D6 
 157              		.text
 158              		.section	.gnu.lto_.refs.807d6242,"",%progbits
 159 0000 789C6361 		.ascii	"x\234ca`\004B \000\000\0009\000\007"
 159      60044220 
 159      00000039 
 159      0007
 160              		.text
 161              		.section	.gnu.lto_.decls.807d6242,"",%progbits
 162 0000 789C9D53 		.ascii	"x\234\235SohSW\024\277\347\275\327\264\276\326:d+\035"
 162      6F685357 
 162      14BFE7BD 
 162      D7B4BED6 
 162      3A642B1D 
 163 0014 645B2753 		.ascii	"d['S\372)X\206La\310\\\332\311`\0161\253\373\"\2044"
 163      FA295886 
 163      4C61C85C 
 163      DAC9600E 
 163      31ABFB22 
 164 002a 3E5C98A4 		.ascii	">\\\230\244\222\276\202\005?\\\327\016\254\033L7\272"
 164      92BE8205 
 164      3F5CD70E 
 164      AC1B4C37 
 164      BA
 165 003b AE55D7EA 		.ascii	"\256U\327\352\334\372w\266\265\3254I\323\246Z\223n\240"
 165      DCFA77B6 
 165      B5D53449 
 165      D3A65A93 
 165      6EA0
 166 004d B48C8D89 		.ascii	"\264\214\215\211\212\205LY7\007\033\326\017Ejv\356}"
 166      8A854C59 
 166      37071BD6 
 166      0F456A76 
ARM GAS  C:\Users\JEFFSN~1\AppData\Local\Temp\ccSAXzKy.s 			page 12


 166      EE7D
 167 005f F7EDBD66 		.ascii	"\367\355\275fi\031;\344\274\334\363\336\357\367;\277"
 167      69193BE4 
 167      BCDCF3DE 
 167      EFF73BBF 
 168 006f 73EF7B0A 		.ascii	"s\357{\012\001\302b[\036!\325\270\32413\030\016\274"
 168      01C2625B 
 168      1E21D5B8 
 168      D4313318 
 168      0EBC
 169 0081 B7975891 		.ascii	"\267\227X\221\217y\021\363\022f\0303\206\031\307\234"
 169      8F7911F3 
 169      12661833 
 169      8619C79C 
 170 0091 C09C24FF 		.ascii	"\300\234$\377\016\206\2251\0071\223\230S\342>\210g\331"
 170      0E869531 
 170      07319398 
 170      53E23E88 
 170      67D9
 171 00a3 C174D788 		.ascii	"\301t\327\210\236\214\343\304La\016\331\370\323\230"
 171      9E8CE3C4 
 171      4C610ED9 
 171      F8D398
 172 00b2 51819705 		.ascii	"Q\201\227\005gRx\310\216\360\377\320\013\257\242\307"
 172      675278C8 
 172      8EF0FFD0 
 172      0BAFA2C7 
 173 00c2 E6556C7A 		.ascii	"\346Ulz\3313\305rp\342\253\354A<\007~I\202L\307\310"
 173      D933C572 
 173      70E2ABEC 
 173      413C077E 
 173      49824CC7 
 174 00d7 2705B7E0 		.ascii	"'\005\267\340&\310D\034\014\0010\256\300\223\030\311"
 174      26C8441C 
 174      0C0130AE 
 174      C09318C9 
 175 00e7 4B5C48C4 		.ascii	"K\\H\304X\230\267\376\011\" \222\271\264\304\370O\360"
 175      5898B7FE 
 175      09222092 
 175      B9B4C4F8 
 175      4FF0
 176 00f9 21630617 		.ascii	"!c\006\027\261\324A\220\214\332\364-H Y\015\300(M\206"
 176      B1D44190 
 176      8CDAF42D 
 176      4820590D 
 176      C0284D86 
 177 010d 4D2FCB91 		.ascii	"M/\313\221\351\331lC$s\350\310\317_\334[+K\300\326w"
 177      E9D96C43 
 177      2473E8C8 
 177      CF5FDC5B 
 177      2B4BC0D6 
 178 0122 17BBDF70 		.ascii	"\027\273\337p\365S\214\023\224J\257Z;3\3334xZ^\220`"
 178      F5538C13 
 178      944AAF5A 
 178      3B33DB34 
 178      785A5E90 
 179 0137 BD0A0A96 		.ascii	"\275\012\012\226\177]oO\027c\371\264\012eX\016|\370"
ARM GAS  C:\Users\JEFFSN~1\AppData\Local\Temp\ccSAXzKy.s 			page 13


 179      7F5D6F4F 
 179      1763F9B4 
 179      0A65580E 
 179      7CF8
 180 0149 4B4F0196 		.ascii	"KO\001\226N\0252\300\352\007\221\305\265F\315\310m'"
 180      4E1532C0 
 180      EA0791C5 
 180      B546CDC8 
 180      6D27
 181 015b D34F0AE5 		.ascii	"\323O\012\345\215l-\375\220\356\233W\240\\\375\2065"
 181      8D6C2DFD 
 181      90EE9B57 
 181      A05CFD86 
 181      35
 182 016c 990B0F6D 		.ascii	"\231\013\017m\217P\372\024\014\202\012\027@\206\036"
 182      8F50FA14 
 182      0C820A17 
 182      40861E
 183 017b 7031874E 		.ascii	"p1\207N\025\257\307(\375\200\376y\216:J\011\274\354"
 183      15AFC728 
 183      FD80FE79 
 183      8E3A4A09 
 183      BCEC
 184 018d 84CD4E02 		.ascii	"\204\315N\002\003P\3164\031\012\276\005'\364\203\223"
 184      0350CE34 
 184      190ABE05 
 184      27F48393 
 185 019d E9CF7C74 		.ascii	"\351\317|t\255q]\351\347\334v#-S\270\\\037>\357\305"
 185      AD715DE9 
 185      E7DC7623 
 185      2D53B85C 
 185      1F3EEFC5 
 186 01b1 E70486A0 		.ascii	"\347\004\206\240\024\2575\2121Ik\344L\252hC'\355\034"
 186      14AF358A 
 186      31496BE4 
 186      4CAA6843 
 186      27ED1C
 187 01c4 A473B1E4 		.ascii	"\244s\261\344\246\326F:\215\2742\206\202n\313B7{\007"
 187      A6D6463A 
 187      8DBC3286 
 187      826ECB42 
 187      377B07
 188 01d7 0874C12D 		.ascii	"\010t\301-\334\257\213\260\001\231wb\263\333\345#|\242"
 188      DCAF8BB0 
 188      01997762 
 188      B3DBE523 
 188      7CA2
 189 01e9 A5EF4EB5 		.ascii	"\245\357N\265K\366\216{Kl\015G\2265<\177\277\343\267"
 189      4BF68E7B 
 189      4B6C0D47 
 189      96353C7F 
 189      BFE3B7
 190 01fc 62A361E2 		.ascii	"b\243a\342\341\315\"z\342(\245\2571\014\014[\355\206"
 190      E1CD227A 
 190      E228A5AF 
 190      310C0C5B 
 190      ED86
ARM GAS  C:\Users\JEFFSN~1\AppData\Local\Temp\ccSAXzKy.s 			page 14


 191 020e EDED2EF1 		.ascii	"\355\355.\361v\247\373\342%\362Y\340\375z{\226\222\222"
 191      76A7FBE2 
 191      25F259E0 
 191      FD7A7B96 
 191      9292
 192 0220 D09849DA 		.ascii	"\320\230I\3325.[\032\227\355\032a\2561\326\034\373\025"
 192      352E5B1A 
 192      97ED1A61 
 192      AE31D61C 
 192      FB15
 193 0232 E4942172 		.ascii	"\344\224!r\257\265\343w\207\202\347\316\367\007\355"
 193      AFB5E377 
 193      8782E7CE 
 193      F707ED
 194 0241 E1BDFEE8 		.ascii	"\341\275\376\350\355\007\216\025\007\211\362A\" &I\034"
 194      ED078E15 
 194      0789F241 
 194      22202649 
 194      1C
 195 0252 BF31BE46 		.ascii	"\2771\276F\270\3702e\272@\020\214Z.F\355.b\334E\313"
 195      B8F83265 
 195      BA40108C 
 195      5A2E46ED 
 195      2E62DC45 
 196 0267 D1AFBB24 		.ascii	"\321\257\273$\371\276\341ba\264\375\307|!\262\224\222"
 196      F9BEE162 
 196      61B4FDC7 
 196      7C21B294 
 196      92
 197 0278 DB68A209 		.ascii	"\333h\242\011\233K|\377\307,\2311\273L\234\313L\314"
 197      9B4B7CFF 
 197      C72C9931 
 197      BB4C9CCB 
 197      4CCC
 198 028a 7FDF25CB 		.ascii	"\177\337%\313M\306\233\232\376\352\324\307\205(3Gi\347"
 198      4DC69B9A 
 198      FEEAD4C7 
 198      85283347 
 198      69E7
 199 029c A34F51E6 		.ascii	"\243OQ\346\212\302\235\214[\022\343\\\002\027\023\234"
 199      8AC29D8C 
 199      5B12E35C 
 199      0217139C 
 200 02ac DE1F3BF3 		.ascii	"\336\037;\363\270@\216\032\364\356\363\237\235s\030"
 200      B8408E1A 
 200      F4EEF39F 
 200      9D7318
 201 02bb F4C4E394 		.ascii	"\364\304\343\224Ag\016\022\026=a\322'9}\241\351\341"
 201      41670E12 
 201      163D61D2 
 201      27397DA1 
 201      E9E1
 202 02cd 4F0E155F 		.ascii	"O\016\025_\312\306\377\366R^\237?\233\311\227gy;i\270"
 202      CAC6FFF6 
 202      525E9F3F 
 202      9BC99767 
 202      793B69B8 
ARM GAS  C:\Users\JEFFSN~1\AppData\Local\Temp\ccSAXzKy.s 			page 15


 203 02e1 A5AD251F 		.ascii	"\245\255%\037\324\362\034\364k9\350\342\343X|\347d3"
 203      D4F21CF4 
 203      6B39E8E2 
 203      E3587CE7 
 203      6433
 204 02f3 DB9A293C 		.ascii	"\333\232)<\256\253\226\261+\240\032\34712\363\307@^"
 204      AEAB96B1 
 204      2BA01AE7 
 204      3132F3C7 
 204      405E
 205 0305 D171F69D 		.ascii	"\321q\366\235\340\341\255\237.\346H\353\370\222P\304"
 205      E0E1AD9F 
 205      2EE648EB 
 205      F89250C4 
 206 0315 07C07F44 		.ascii	"\007\300\177D_\230j\356\225\226\241\331\300\026:%\320"
 206      5F986AEE 
 206      9596A1D9 
 206      C0163A25 
 206      D0
 207 0326 298EBE7B 		.ascii	")\216\276{\2739]\270\014\035]\206\236\026h\366\377l"
 207      BB395DB8 
 207      0C1D5D86 
 207      9E1668F6 
 207      FF6C
 208 0338 B5E7756F 		.ascii	"\265\347uo\325\356\212W\274\225\273vx+k\203\232\327"
 208      D5EE8A57 
 208      BC95BB76 
 208      782B6B83 
 208      9AD7
 209 034a B3C7BB47 		.ascii	"\263\307\273G\363\355/\330\371vu\231\273\242\202\344"
 209      F3ED2FD8 
 209      F9767599 
 209      BBA282E4 
 210 035a D50782FA 		.ascii	"\325\007\202\372\326\027wjA-\344\323\265\375^Om}\310"
 210      D617776A 
 210      412DE4D3 
 210      B5FD5E4F 
 210      6D7DC8
 211 036d AFEDDBED 		.ascii	"\257\355\333\355\251uo\331\347o\320\033\016iu\256\367"
 211      A9756FD9 
 211      E76FD01B 
 211      0E6975AE 
 211      F7
 212 037e 886B0544 		.ascii	"\210k\005D\256\016.?y)g\3477\203\272\026\012\325\037"
 212      AE0E2E3F 
 212      792967E7 
 212      3783BA16 
 212      0AD51F
 213 0391 D2AB82BE 		.ascii	"\322\253\202\276\232\203\332\306\325A\225\201:\206z"
 213      9A83DAC6 
 213      D5419581 
 213      3A867A
 214 03a0 3E27EADD 		.ascii	">'\352\335P@\327v\371\352\336\177n\305\031\331\323g"
 214      5040D776 
 214      F9EADE7F 
 214      6EC519D9 
 214      D367
ARM GAS  C:\Users\JEFFSN~1\AppData\Local\Temp\ccSAXzKy.s 			page 16


 215 03b2 DC0D5587 		.ascii	"\334\015U\207\003\272\033\321\001\277\357\240G\363\353"
 215      03BA1BD1 
 215      01BFEFA0 
 215      47F3EB
 216 03c1 81DAE00B 		.ascii	"\201\332\340\013+\014\343nx+P\203\303\226 \213\271\310"
 216      2B0CE36E 
 216      782B5083 
 216      C396208B 
 216      B9C8
 217 03d3 A22921ED 		.ascii	"\242)!\355\300\326\277\001\341Z\376q"
 217      C0D6BF01 
 217      E15AFE71 
 218              		.text
 219              		.section	.gnu.lto_.symtab.807d6242,"",%progbits
 220 0000 5553425F 		.ascii	"USB_EP17_DMA_Done_SR_Read\000"
 220      45503137 
 220      5F444D41 
 220      5F446F6E 
 220      655F5352 
 221 001a 00       		.ascii	"\000"
 222 001b 00       		.ascii	"\000"
 223 001c 00       		.ascii	"\000"
 224 001d 00000000 		.ascii	"\000\000\000\000\000\000\000\000"
 224      00000000 
 225 0025 B2000000 		.ascii	"\262\000\000\000"
 226 0029 5553425F 		.ascii	"USB_EP17_DMA_Done_SR_InterruptEnable\000"
 226      45503137 
 226      5F444D41 
 226      5F446F6E 
 226      655F5352 
 227 004e 00       		.ascii	"\000"
 228 004f 00       		.ascii	"\000"
 229 0050 00       		.ascii	"\000"
 230 0051 00000000 		.ascii	"\000\000\000\000\000\000\000\000"
 230      00000000 
 231 0059 B5000000 		.ascii	"\265\000\000\000"
 232 005d 5553425F 		.ascii	"USB_EP17_DMA_Done_SR_InterruptDisable\000"
 232      45503137 
 232      5F444D41 
 232      5F446F6E 
 232      655F5352 
 233 0083 00       		.ascii	"\000"
 234 0084 00       		.ascii	"\000"
 235 0085 00       		.ascii	"\000"
 236 0086 00000000 		.ascii	"\000\000\000\000\000\000\000\000"
 236      00000000 
 237 008e B7000000 		.ascii	"\267\000\000\000"
 238 0092 5553425F 		.ascii	"USB_EP17_DMA_Done_SR_WriteMask\000"
 238      45503137 
 238      5F444D41 
 238      5F446F6E 
 238      655F5352 
 239 00b1 00       		.ascii	"\000"
 240 00b2 00       		.ascii	"\000"
 241 00b3 00       		.ascii	"\000"
 242 00b4 00000000 		.ascii	"\000\000\000\000\000\000\000\000"
 242      00000000 
ARM GAS  C:\Users\JEFFSN~1\AppData\Local\Temp\ccSAXzKy.s 			page 17


 243 00bc BB000000 		.ascii	"\273\000\000\000"
 244 00c0 5553425F 		.ascii	"USB_EP17_DMA_Done_SR_ReadMask\000"
 244      45503137 
 244      5F444D41 
 244      5F446F6E 
 244      655F5352 
 245 00de 00       		.ascii	"\000"
 246 00df 00       		.ascii	"\000"
 247 00e0 00       		.ascii	"\000"
 248 00e1 00000000 		.ascii	"\000\000\000\000\000\000\000\000"
 248      00000000 
 249 00e9 BD000000 		.ascii	"\275\000\000\000"
 250 00ed 43794578 		.ascii	"CyExitCriticalSection\000"
 250      69744372 
 250      69746963 
 250      616C5365 
 250      6374696F 
 251 0103 00       		.ascii	"\000"
 252 0104 02       		.ascii	"\002"
 253 0105 00       		.ascii	"\000"
 254 0106 00000000 		.ascii	"\000\000\000\000\000\000\000\000"
 254      00000000 
 255 010e BF000000 		.ascii	"\277\000\000\000"
 256 0112 4379456E 		.ascii	"CyEnterCriticalSection\000"
 256      74657243 
 256      72697469 
 256      63616C53 
 256      65637469 
 257 0129 00       		.ascii	"\000"
 258 012a 02       		.ascii	"\002"
 259 012b 00       		.ascii	"\000"
 260 012c 00000000 		.ascii	"\000\000\000\000\000\000\000\000"
 260      00000000 
 261 0134 C1000000 		.ascii	"\301\000\000\000"
 262              		.text
 263              		.section	.gnu.lto_.opts,"",%progbits
 264 0000 272D666D 		.ascii	"'-fmath-errno' '-fsigned-zeros' '-ftrapping-math' '"
 264      6174682D 
 264      6572726E 
 264      6F272027 
 264      2D667369 
 265 0033 2D666E6F 		.ascii	"-fno-trapv' '-fno-openmp' '-fno-openacc' '-mcpu=cor"
 265      2D747261 
 265      70762720 
 265      272D666E 
 265      6F2D6F70 
 266 0066 7465782D 		.ascii	"tex-m3' '-mthumb' '-g' '-O3' '-ffunction-sections' "
 266      6D332720 
 266      272D6D74 
 266      68756D62 
 266      2720272D 
 267 0099 272D6666 		.ascii	"'-ffat-lto-objects' '-finline-functions' '-flto'\000"
 267      61742D6C 
 267      746F2D6F 
 267      626A6563 
 267      74732720 
 268              		.text
ARM GAS  C:\Users\JEFFSN~1\AppData\Local\Temp\ccSAXzKy.s 			page 18


 269              		.cfi_sections	.debug_frame
 270              		.section	.text.USB_EP17_DMA_Done_SR_Read,"ax",%progbits
 271              		.align	2
 272              		.global	USB_EP17_DMA_Done_SR_Read
 273              		.thumb
 274              		.thumb_func
 275              		.type	USB_EP17_DMA_Done_SR_Read, %function
 276              	USB_EP17_DMA_Done_SR_Read:
 277              	.LFB0:
 278              		.file 1 "Generated_Source\\PSoC5\\USB_EP17_DMA_Done_SR.c"
   1:Generated_Source\PSoC5/USB_EP17_DMA_Done_SR.c **** /*******************************************************************************
   2:Generated_Source\PSoC5/USB_EP17_DMA_Done_SR.c **** * File Name: USB_EP17_DMA_Done_SR.c  
   3:Generated_Source\PSoC5/USB_EP17_DMA_Done_SR.c **** * Version 1.90
   4:Generated_Source\PSoC5/USB_EP17_DMA_Done_SR.c **** *
   5:Generated_Source\PSoC5/USB_EP17_DMA_Done_SR.c **** * Description:
   6:Generated_Source\PSoC5/USB_EP17_DMA_Done_SR.c **** *  This file contains API to enable firmware to read the value of a Status 
   7:Generated_Source\PSoC5/USB_EP17_DMA_Done_SR.c **** *  Register.
   8:Generated_Source\PSoC5/USB_EP17_DMA_Done_SR.c **** *
   9:Generated_Source\PSoC5/USB_EP17_DMA_Done_SR.c **** * Note:
  10:Generated_Source\PSoC5/USB_EP17_DMA_Done_SR.c **** *
  11:Generated_Source\PSoC5/USB_EP17_DMA_Done_SR.c **** ********************************************************************************
  12:Generated_Source\PSoC5/USB_EP17_DMA_Done_SR.c **** * Copyright 2008-2015, Cypress Semiconductor Corporation.  All rights reserved.
  13:Generated_Source\PSoC5/USB_EP17_DMA_Done_SR.c **** * You may use this file only in accordance with the license, terms, conditions, 
  14:Generated_Source\PSoC5/USB_EP17_DMA_Done_SR.c **** * disclaimers, and limitations in the end user license agreement accompanying 
  15:Generated_Source\PSoC5/USB_EP17_DMA_Done_SR.c **** * the software package with which this file was provided.
  16:Generated_Source\PSoC5/USB_EP17_DMA_Done_SR.c **** *******************************************************************************/
  17:Generated_Source\PSoC5/USB_EP17_DMA_Done_SR.c **** 
  18:Generated_Source\PSoC5/USB_EP17_DMA_Done_SR.c **** #include "USB_EP17_DMA_Done_SR.h"
  19:Generated_Source\PSoC5/USB_EP17_DMA_Done_SR.c **** 
  20:Generated_Source\PSoC5/USB_EP17_DMA_Done_SR.c **** #if !defined(USB_EP17_DMA_Done_SR_sts_intr_sts_reg__REMOVED) /* Check for removal by optimization *
  21:Generated_Source\PSoC5/USB_EP17_DMA_Done_SR.c **** 
  22:Generated_Source\PSoC5/USB_EP17_DMA_Done_SR.c **** 
  23:Generated_Source\PSoC5/USB_EP17_DMA_Done_SR.c **** /*******************************************************************************
  24:Generated_Source\PSoC5/USB_EP17_DMA_Done_SR.c **** * Function Name: USB_EP17_DMA_Done_SR_Read
  25:Generated_Source\PSoC5/USB_EP17_DMA_Done_SR.c **** ********************************************************************************
  26:Generated_Source\PSoC5/USB_EP17_DMA_Done_SR.c **** *
  27:Generated_Source\PSoC5/USB_EP17_DMA_Done_SR.c **** * Summary:
  28:Generated_Source\PSoC5/USB_EP17_DMA_Done_SR.c **** *  Reads the current value assigned to the Status Register.
  29:Generated_Source\PSoC5/USB_EP17_DMA_Done_SR.c **** *
  30:Generated_Source\PSoC5/USB_EP17_DMA_Done_SR.c **** * Parameters:
  31:Generated_Source\PSoC5/USB_EP17_DMA_Done_SR.c **** *  None.
  32:Generated_Source\PSoC5/USB_EP17_DMA_Done_SR.c **** *
  33:Generated_Source\PSoC5/USB_EP17_DMA_Done_SR.c **** * Return:
  34:Generated_Source\PSoC5/USB_EP17_DMA_Done_SR.c **** *  The current value in the Status Register.
  35:Generated_Source\PSoC5/USB_EP17_DMA_Done_SR.c **** *
  36:Generated_Source\PSoC5/USB_EP17_DMA_Done_SR.c **** *******************************************************************************/
  37:Generated_Source\PSoC5/USB_EP17_DMA_Done_SR.c **** uint8 USB_EP17_DMA_Done_SR_Read(void) 
  38:Generated_Source\PSoC5/USB_EP17_DMA_Done_SR.c **** { 
 279              		.loc 1 38 0
 280              		.cfi_startproc
 281              		@ args = 0, pretend = 0, frame = 0
 282              		@ frame_needed = 0, uses_anonymous_args = 0
 283              		@ link register save eliminated.
  39:Generated_Source\PSoC5/USB_EP17_DMA_Done_SR.c ****     return USB_EP17_DMA_Done_SR_Status;
 284              		.loc 1 39 0
 285 0000 014B     		ldr	r3, .L2
 286 0002 1878     		ldrb	r0, [r3]	@ zero_extendqisi2
ARM GAS  C:\Users\JEFFSN~1\AppData\Local\Temp\ccSAXzKy.s 			page 19


  40:Generated_Source\PSoC5/USB_EP17_DMA_Done_SR.c **** }
 287              		.loc 1 40 0
 288 0004 7047     		bx	lr
 289              	.L3:
 290 0006 00BF     		.align	2
 291              	.L2:
 292 0008 65640040 		.word	1073767525
 293              		.cfi_endproc
 294              	.LFE0:
 295              		.size	USB_EP17_DMA_Done_SR_Read, .-USB_EP17_DMA_Done_SR_Read
 296              		.section	.text.USB_EP17_DMA_Done_SR_InterruptEnable,"ax",%progbits
 297              		.align	2
 298              		.global	USB_EP17_DMA_Done_SR_InterruptEnable
 299              		.thumb
 300              		.thumb_func
 301              		.type	USB_EP17_DMA_Done_SR_InterruptEnable, %function
 302              	USB_EP17_DMA_Done_SR_InterruptEnable:
 303              	.LFB1:
  41:Generated_Source\PSoC5/USB_EP17_DMA_Done_SR.c **** 
  42:Generated_Source\PSoC5/USB_EP17_DMA_Done_SR.c **** 
  43:Generated_Source\PSoC5/USB_EP17_DMA_Done_SR.c **** /*******************************************************************************
  44:Generated_Source\PSoC5/USB_EP17_DMA_Done_SR.c **** * Function Name: USB_EP17_DMA_Done_SR_InterruptEnable
  45:Generated_Source\PSoC5/USB_EP17_DMA_Done_SR.c **** ********************************************************************************
  46:Generated_Source\PSoC5/USB_EP17_DMA_Done_SR.c **** *
  47:Generated_Source\PSoC5/USB_EP17_DMA_Done_SR.c **** * Summary:
  48:Generated_Source\PSoC5/USB_EP17_DMA_Done_SR.c **** *  Enables the Status Register interrupt.
  49:Generated_Source\PSoC5/USB_EP17_DMA_Done_SR.c **** *
  50:Generated_Source\PSoC5/USB_EP17_DMA_Done_SR.c **** * Parameters:
  51:Generated_Source\PSoC5/USB_EP17_DMA_Done_SR.c **** *  None.
  52:Generated_Source\PSoC5/USB_EP17_DMA_Done_SR.c **** *
  53:Generated_Source\PSoC5/USB_EP17_DMA_Done_SR.c **** * Return:
  54:Generated_Source\PSoC5/USB_EP17_DMA_Done_SR.c **** *  None.
  55:Generated_Source\PSoC5/USB_EP17_DMA_Done_SR.c **** *
  56:Generated_Source\PSoC5/USB_EP17_DMA_Done_SR.c **** *******************************************************************************/
  57:Generated_Source\PSoC5/USB_EP17_DMA_Done_SR.c **** void USB_EP17_DMA_Done_SR_InterruptEnable(void) 
  58:Generated_Source\PSoC5/USB_EP17_DMA_Done_SR.c **** {
 304              		.loc 1 58 0
 305              		.cfi_startproc
 306              		@ args = 0, pretend = 0, frame = 0
 307              		@ frame_needed = 0, uses_anonymous_args = 0
 308 0000 08B5     		push	{r3, lr}
 309              		.cfi_def_cfa_offset 8
 310              		.cfi_offset 3, -8
 311              		.cfi_offset 14, -4
  59:Generated_Source\PSoC5/USB_EP17_DMA_Done_SR.c ****     uint8 interruptState;
  60:Generated_Source\PSoC5/USB_EP17_DMA_Done_SR.c ****     interruptState = CyEnterCriticalSection();
 312              		.loc 1 60 0
 313 0002 FFF7FEFF 		bl	CyEnterCriticalSection
 314              	.LVL0:
  61:Generated_Source\PSoC5/USB_EP17_DMA_Done_SR.c ****     USB_EP17_DMA_Done_SR_Status_Aux_Ctrl |= USB_EP17_DMA_Done_SR_STATUS_INTR_ENBL;
 315              		.loc 1 61 0
 316 0006 044A     		ldr	r2, .L6
 317 0008 1378     		ldrb	r3, [r2]	@ zero_extendqisi2
 318 000a 43F01003 		orr	r3, r3, #16
 319 000e 1370     		strb	r3, [r2]
  62:Generated_Source\PSoC5/USB_EP17_DMA_Done_SR.c ****     CyExitCriticalSection(interruptState);
  63:Generated_Source\PSoC5/USB_EP17_DMA_Done_SR.c **** }
ARM GAS  C:\Users\JEFFSN~1\AppData\Local\Temp\ccSAXzKy.s 			page 20


 320              		.loc 1 63 0
 321 0010 BDE80840 		pop	{r3, lr}
 322              		.cfi_restore 14
 323              		.cfi_restore 3
 324              		.cfi_def_cfa_offset 0
  62:Generated_Source\PSoC5/USB_EP17_DMA_Done_SR.c ****     CyExitCriticalSection(interruptState);
 325              		.loc 1 62 0
 326 0014 FFF7FEBF 		b	CyExitCriticalSection
 327              	.LVL1:
 328              	.L7:
 329              		.align	2
 330              	.L6:
 331 0018 95640040 		.word	1073767573
 332              		.cfi_endproc
 333              	.LFE1:
 334              		.size	USB_EP17_DMA_Done_SR_InterruptEnable, .-USB_EP17_DMA_Done_SR_InterruptEnable
 335              		.section	.text.USB_EP17_DMA_Done_SR_InterruptDisable,"ax",%progbits
 336              		.align	2
 337              		.global	USB_EP17_DMA_Done_SR_InterruptDisable
 338              		.thumb
 339              		.thumb_func
 340              		.type	USB_EP17_DMA_Done_SR_InterruptDisable, %function
 341              	USB_EP17_DMA_Done_SR_InterruptDisable:
 342              	.LFB2:
  64:Generated_Source\PSoC5/USB_EP17_DMA_Done_SR.c **** 
  65:Generated_Source\PSoC5/USB_EP17_DMA_Done_SR.c **** 
  66:Generated_Source\PSoC5/USB_EP17_DMA_Done_SR.c **** /*******************************************************************************
  67:Generated_Source\PSoC5/USB_EP17_DMA_Done_SR.c **** * Function Name: USB_EP17_DMA_Done_SR_InterruptDisable
  68:Generated_Source\PSoC5/USB_EP17_DMA_Done_SR.c **** ********************************************************************************
  69:Generated_Source\PSoC5/USB_EP17_DMA_Done_SR.c **** *
  70:Generated_Source\PSoC5/USB_EP17_DMA_Done_SR.c **** * Summary:
  71:Generated_Source\PSoC5/USB_EP17_DMA_Done_SR.c **** *  Disables the Status Register interrupt.
  72:Generated_Source\PSoC5/USB_EP17_DMA_Done_SR.c **** *
  73:Generated_Source\PSoC5/USB_EP17_DMA_Done_SR.c **** * Parameters:
  74:Generated_Source\PSoC5/USB_EP17_DMA_Done_SR.c **** *  None.
  75:Generated_Source\PSoC5/USB_EP17_DMA_Done_SR.c **** *
  76:Generated_Source\PSoC5/USB_EP17_DMA_Done_SR.c **** * Return:
  77:Generated_Source\PSoC5/USB_EP17_DMA_Done_SR.c **** *  None.
  78:Generated_Source\PSoC5/USB_EP17_DMA_Done_SR.c **** *
  79:Generated_Source\PSoC5/USB_EP17_DMA_Done_SR.c **** *******************************************************************************/
  80:Generated_Source\PSoC5/USB_EP17_DMA_Done_SR.c **** void USB_EP17_DMA_Done_SR_InterruptDisable(void) 
  81:Generated_Source\PSoC5/USB_EP17_DMA_Done_SR.c **** {
 343              		.loc 1 81 0
 344              		.cfi_startproc
 345              		@ args = 0, pretend = 0, frame = 0
 346              		@ frame_needed = 0, uses_anonymous_args = 0
 347 0000 08B5     		push	{r3, lr}
 348              		.cfi_def_cfa_offset 8
 349              		.cfi_offset 3, -8
 350              		.cfi_offset 14, -4
  82:Generated_Source\PSoC5/USB_EP17_DMA_Done_SR.c ****     uint8 interruptState;
  83:Generated_Source\PSoC5/USB_EP17_DMA_Done_SR.c ****     interruptState = CyEnterCriticalSection();
 351              		.loc 1 83 0
 352 0002 FFF7FEFF 		bl	CyEnterCriticalSection
 353              	.LVL2:
  84:Generated_Source\PSoC5/USB_EP17_DMA_Done_SR.c ****     USB_EP17_DMA_Done_SR_Status_Aux_Ctrl &= (uint8)(~USB_EP17_DMA_Done_SR_STATUS_INTR_ENBL);
 354              		.loc 1 84 0
ARM GAS  C:\Users\JEFFSN~1\AppData\Local\Temp\ccSAXzKy.s 			page 21


 355 0006 044A     		ldr	r2, .L10
 356 0008 1378     		ldrb	r3, [r2]	@ zero_extendqisi2
 357 000a 03F0EF03 		and	r3, r3, #239
 358 000e 1370     		strb	r3, [r2]
  85:Generated_Source\PSoC5/USB_EP17_DMA_Done_SR.c ****     CyExitCriticalSection(interruptState);
  86:Generated_Source\PSoC5/USB_EP17_DMA_Done_SR.c **** }
 359              		.loc 1 86 0
 360 0010 BDE80840 		pop	{r3, lr}
 361              		.cfi_restore 14
 362              		.cfi_restore 3
 363              		.cfi_def_cfa_offset 0
  85:Generated_Source\PSoC5/USB_EP17_DMA_Done_SR.c ****     CyExitCriticalSection(interruptState);
 364              		.loc 1 85 0
 365 0014 FFF7FEBF 		b	CyExitCriticalSection
 366              	.LVL3:
 367              	.L11:
 368              		.align	2
 369              	.L10:
 370 0018 95640040 		.word	1073767573
 371              		.cfi_endproc
 372              	.LFE2:
 373              		.size	USB_EP17_DMA_Done_SR_InterruptDisable, .-USB_EP17_DMA_Done_SR_InterruptDisable
 374              		.section	.text.USB_EP17_DMA_Done_SR_WriteMask,"ax",%progbits
 375              		.align	2
 376              		.global	USB_EP17_DMA_Done_SR_WriteMask
 377              		.thumb
 378              		.thumb_func
 379              		.type	USB_EP17_DMA_Done_SR_WriteMask, %function
 380              	USB_EP17_DMA_Done_SR_WriteMask:
 381              	.LFB3:
  87:Generated_Source\PSoC5/USB_EP17_DMA_Done_SR.c **** 
  88:Generated_Source\PSoC5/USB_EP17_DMA_Done_SR.c **** 
  89:Generated_Source\PSoC5/USB_EP17_DMA_Done_SR.c **** /*******************************************************************************
  90:Generated_Source\PSoC5/USB_EP17_DMA_Done_SR.c **** * Function Name: USB_EP17_DMA_Done_SR_WriteMask
  91:Generated_Source\PSoC5/USB_EP17_DMA_Done_SR.c **** ********************************************************************************
  92:Generated_Source\PSoC5/USB_EP17_DMA_Done_SR.c **** *
  93:Generated_Source\PSoC5/USB_EP17_DMA_Done_SR.c **** * Summary:
  94:Generated_Source\PSoC5/USB_EP17_DMA_Done_SR.c **** *  Writes the current mask value assigned to the Status Register.
  95:Generated_Source\PSoC5/USB_EP17_DMA_Done_SR.c **** *
  96:Generated_Source\PSoC5/USB_EP17_DMA_Done_SR.c **** * Parameters:
  97:Generated_Source\PSoC5/USB_EP17_DMA_Done_SR.c **** *  mask:  Value to write into the mask register.
  98:Generated_Source\PSoC5/USB_EP17_DMA_Done_SR.c **** *
  99:Generated_Source\PSoC5/USB_EP17_DMA_Done_SR.c **** * Return:
 100:Generated_Source\PSoC5/USB_EP17_DMA_Done_SR.c **** *  None.
 101:Generated_Source\PSoC5/USB_EP17_DMA_Done_SR.c **** *
 102:Generated_Source\PSoC5/USB_EP17_DMA_Done_SR.c **** *******************************************************************************/
 103:Generated_Source\PSoC5/USB_EP17_DMA_Done_SR.c **** void USB_EP17_DMA_Done_SR_WriteMask(uint8 mask) 
 104:Generated_Source\PSoC5/USB_EP17_DMA_Done_SR.c **** {
 382              		.loc 1 104 0
 383              		.cfi_startproc
 384              		@ args = 0, pretend = 0, frame = 0
 385              		@ frame_needed = 0, uses_anonymous_args = 0
 386              		@ link register save eliminated.
 387              	.LVL4:
 105:Generated_Source\PSoC5/USB_EP17_DMA_Done_SR.c ****     #if(USB_EP17_DMA_Done_SR_INPUTS < 8u)
 106:Generated_Source\PSoC5/USB_EP17_DMA_Done_SR.c ****     	mask &= ((uint8)(1u << USB_EP17_DMA_Done_SR_INPUTS) - 1u);
 107:Generated_Source\PSoC5/USB_EP17_DMA_Done_SR.c **** 	#endif /* End USB_EP17_DMA_Done_SR_INPUTS < 8u */
ARM GAS  C:\Users\JEFFSN~1\AppData\Local\Temp\ccSAXzKy.s 			page 22


 108:Generated_Source\PSoC5/USB_EP17_DMA_Done_SR.c ****     USB_EP17_DMA_Done_SR_Status_Mask = mask;
 388              		.loc 1 108 0
 389 0000 024B     		ldr	r3, .L13
 106:Generated_Source\PSoC5/USB_EP17_DMA_Done_SR.c **** 	#endif /* End USB_EP17_DMA_Done_SR_INPUTS < 8u */
 390              		.loc 1 106 0
 391 0002 00F07F00 		and	r0, r0, #127
 392              	.LVL5:
 393              		.loc 1 108 0
 394 0006 1870     		strb	r0, [r3]
 395 0008 7047     		bx	lr
 396              	.L14:
 397 000a 00BF     		.align	2
 398              	.L13:
 399 000c 85640040 		.word	1073767557
 400              		.cfi_endproc
 401              	.LFE3:
 402              		.size	USB_EP17_DMA_Done_SR_WriteMask, .-USB_EP17_DMA_Done_SR_WriteMask
 403              		.section	.text.USB_EP17_DMA_Done_SR_ReadMask,"ax",%progbits
 404              		.align	2
 405              		.global	USB_EP17_DMA_Done_SR_ReadMask
 406              		.thumb
 407              		.thumb_func
 408              		.type	USB_EP17_DMA_Done_SR_ReadMask, %function
 409              	USB_EP17_DMA_Done_SR_ReadMask:
 410              	.LFB4:
 109:Generated_Source\PSoC5/USB_EP17_DMA_Done_SR.c **** }
 110:Generated_Source\PSoC5/USB_EP17_DMA_Done_SR.c **** 
 111:Generated_Source\PSoC5/USB_EP17_DMA_Done_SR.c **** 
 112:Generated_Source\PSoC5/USB_EP17_DMA_Done_SR.c **** /*******************************************************************************
 113:Generated_Source\PSoC5/USB_EP17_DMA_Done_SR.c **** * Function Name: USB_EP17_DMA_Done_SR_ReadMask
 114:Generated_Source\PSoC5/USB_EP17_DMA_Done_SR.c **** ********************************************************************************
 115:Generated_Source\PSoC5/USB_EP17_DMA_Done_SR.c **** *
 116:Generated_Source\PSoC5/USB_EP17_DMA_Done_SR.c **** * Summary:
 117:Generated_Source\PSoC5/USB_EP17_DMA_Done_SR.c **** *  Reads the current interrupt mask assigned to the Status Register.
 118:Generated_Source\PSoC5/USB_EP17_DMA_Done_SR.c **** *
 119:Generated_Source\PSoC5/USB_EP17_DMA_Done_SR.c **** * Parameters:
 120:Generated_Source\PSoC5/USB_EP17_DMA_Done_SR.c **** *  None.
 121:Generated_Source\PSoC5/USB_EP17_DMA_Done_SR.c **** *
 122:Generated_Source\PSoC5/USB_EP17_DMA_Done_SR.c **** * Return:
 123:Generated_Source\PSoC5/USB_EP17_DMA_Done_SR.c **** *  The value of the interrupt mask of the Status Register.
 124:Generated_Source\PSoC5/USB_EP17_DMA_Done_SR.c **** *
 125:Generated_Source\PSoC5/USB_EP17_DMA_Done_SR.c **** *******************************************************************************/
 126:Generated_Source\PSoC5/USB_EP17_DMA_Done_SR.c **** uint8 USB_EP17_DMA_Done_SR_ReadMask(void) 
 127:Generated_Source\PSoC5/USB_EP17_DMA_Done_SR.c **** {
 411              		.loc 1 127 0
 412              		.cfi_startproc
 413              		@ args = 0, pretend = 0, frame = 0
 414              		@ frame_needed = 0, uses_anonymous_args = 0
 415              		@ link register save eliminated.
 128:Generated_Source\PSoC5/USB_EP17_DMA_Done_SR.c ****     return USB_EP17_DMA_Done_SR_Status_Mask;
 416              		.loc 1 128 0
 417 0000 014B     		ldr	r3, .L16
 418 0002 1878     		ldrb	r0, [r3]	@ zero_extendqisi2
 129:Generated_Source\PSoC5/USB_EP17_DMA_Done_SR.c **** }
 419              		.loc 1 129 0
 420 0004 7047     		bx	lr
 421              	.L17:
ARM GAS  C:\Users\JEFFSN~1\AppData\Local\Temp\ccSAXzKy.s 			page 23


 422 0006 00BF     		.align	2
 423              	.L16:
 424 0008 85640040 		.word	1073767557
 425              		.cfi_endproc
 426              	.LFE4:
 427              		.size	USB_EP17_DMA_Done_SR_ReadMask, .-USB_EP17_DMA_Done_SR_ReadMask
 428              		.text
 429              	.Letext0:
 430              		.file 2 "Generated_Source\\PSoC5\\cytypes.h"
 431              		.file 3 "Generated_Source\\PSoC5\\CyLib.h"