ARM GAS  C:\Users\JEFFSN~1\AppData\Local\Temp\cccjU80Q.s 			page 1


   1              		.syntax unified
   2              		.cpu cortex-m3
   3              		.fpu softvfp
   4              		.eabi_attribute 20, 1
   5              		.eabi_attribute 21, 1
   6              		.eabi_attribute 23, 3
   7              		.eabi_attribute 24, 1
   8              		.eabi_attribute 25, 1
   9              		.eabi_attribute 26, 1
  10              		.eabi_attribute 30, 2
  11              		.eabi_attribute 34, 1
  12              		.eabi_attribute 18, 4
  13              		.thumb
  14              		.syntax unified
  15              		.file	"USB_Dp.c"
  16              		.text
  17              	.Ltext0:
  18              		.section	.gnu.lto_.profile.807d5088,"",%progbits
  19 0000 789C6361 		.ascii	"x\234ca`d`a`\000\222*r\000\000\320\000M"
  19      60646061 
  19      6000922A 
  19      720000D0 
  19      004D
  20              		.text
  21              		.section	.gnu.lto_.icf.807d5088,"",%progbits
  22 0000 789C6361 		.ascii	"x\234ca`d\000\0015\006\004`c8tg\327[~\306y\257V\357"
  22      60640001 
  22      35060460 
  22      63387467 
  22      D75B7EC6 
  23 0018 E366DABE 		.ascii	"\343f\332\276\341\350\001F\346W\0137\037\347d\351[?"
  23      E1E80146 
  23      E6570B37 
  23      1FE764E9 
  23      5B3F
  24 002a ED3837EB 		.ascii	"\35587\353\305Kk\367s3\000\000o\226\022K"
  24      C54B6BF7 
  24      73330000 
  24      6F96124B 
  25              		.text
  26              		.section	.gnu.lto_.jmpfuncs.807d5088,"",%progbits
  27 0000 789C45C9 		.ascii	"x\234E\311\261\001\000 \010\300\260\026\320+\374\225"
  27      B1010020 
  27      08C0B016 
  27      D02BFC95 
  28 0010 D795C90C 		.ascii	"\327\225\311\014]Z\3108|\033\265\235\004$Thv\257\367"
  28      5D5AC838 
  28      7C1BB59D 
  28      04245468 
  28      76AFF7
  29 0023 2E215502 		.ascii	".!U\002@"
  29      40
  30              		.text
  31              		.section	.gnu.lto_.inline.807d5088,"",%progbits
  32 0000 789C658C 		.ascii	"x\234e\214\261\001\200 \014\004?!\004\250t\0036p\004"
  32      B1018020 
  32      0C043F21 
ARM GAS  C:\Users\JEFFSN~1\AppData\Local\Temp\cccjU80Q.s 			page 2


  32      04A87403 
  32      367004
  33 0013 D7A46514 		.ascii	"\327\244e\024\013\007p\024G0\201\302\202+R\374}^@p\032"
  33      0B077014 
  33      473081C2 
  33      822B52FC 
  33      7D5E4070 
  34 0028 7E142899 		.ascii	"~\024(\231\010\331T\310\327\011\355\225!\275\212[\313"
  34      08D954C8 
  34      D709ED95 
  34      21BD8A5B 
  34      CB
  35 0039 D322F9D9 		.ascii	"\323\"\371\331\206dh$\260\276\307\314\215\260F\202\244"
  35      86646824 
  35      B0BEC7CC 
  35      8DB04682 
  35      A4
  36 004a C4D86D82 		.ascii	"\304\330m\202\374\004\276\313\224\326\032;q}\302\007"
  36      FC04BECB 
  36      94D61A3B 
  36      717DC207 
  37 005a 8AF40F13 		.ascii	"\212\364\017\023"
  38              		.text
  39              		.section	.gnu.lto_.pureconst.807d5088,"",%progbits
  40 0000 789C6361 		.ascii	"x\234ca`d\340e```c\220b\224b\222b\226b\221b\225\002"
  40      6064E065 
  40      60606063 
  40      90629462 
  40      92629662 
  41 0018 00059500 		.ascii	"\000\005\225\000\304"
  41      C4
  42              		.text
  43              		.section	.gnu.lto_USB_Dp_Write.807d5088,"",%progbits
  44 0000 789C5551 		.ascii	"x\234UQ\337K\024Q\024>\337\2753\263\326\246\377@\373"
  44      DF4B1451 
  44      143EDFBD 
  44      33B3D6A6 
  44      FF40FB
  45 0013 B010224B 		.ascii	"\260\020\"K\020\201\364\017X\320k\264\364\266 \3136"
  45      1081F40F 
  45      58D06BB4 
  45      F4B620CB 
  45      36
  46 0024 0F4265E8 		.ascii	"\017Be\350\332\253w\034w\205\"\020B}\252\005E\264\037"
  46      DAAB771C 
  46      77852210 
  46      427DAA05 
  46      45B41F
  47 0037 6A1A0445 		.ascii	"j\032\004E\3200\177@\275\030DD\204\304\004>M\324\346"
  47      D0307F40 
  47      BD184444 
  47      84C4043E 
  47      4DD4E6
  48 004a 96D676CE 		.ascii	"\226\326v\316\035\037\362\300\3751g\276\357;\3379\327"
  48      1D1FF2C0 
  48      FD3167BE 
  48      EF3BDF39 
ARM GAS  C:\Users\JEFFSN~1\AppData\Local\Temp\cccjU80Q.s 			page 3


  48      D7
  49 005b 2190C469 		.ascii	"!\220\304iE4\310\347I^\320\0045\373\206(\350Q\200\\"
  49      4534C8E7 
  49      495ED004 
  49      35FB8628 
  49      E851805C 
  50 006f 4C0F6852 		.ascii	"L\017hRa\022m\365G!\236I^\250\322\212\341\370\274\374"
  50      61126DF5 
  50      47219E49 
  50      5EA8D28A 
  50      E1F8BCFC 
  51 0083 409BD508 		.ascii	"@\233\325\010\015M\324UV\211\260\202\022\243\276\276"
  51      0D4DD455 
  51      5689B082 
  51      12A3BEBE 
  52 0093 9AD9863E 		.ascii	"\232\331\206>\005\342{3n\247\371\201ec\246\214\371^"
  52      05E27B33 
  52      6EA7F981 
  52      6563A68C 
  52      F95E
  53 00a5 31BAA181 		.ascii	"1\272\241\201Uhf`\260\200\263\005\342\004\341!\006\004"
  53      55686660 
  53      B080B305 
  53      E204E121 
  53      0604
  54 00b7 DCF9B0BD 		.ascii	"\334\371\260\275\336\247K\2268k\222\305\023\375KB\214"
  54      DEA74B96 
  54      386B92C5 
  54      13FD4B42 
  54      8C
  55 00c8 F6AE2F98 		.ascii	"\366\256/\230((\012\367\321\377\\\011\206\356l\376\235"
  55      28280AF7 
  55      D1FF5C09 
  55      86EE6CFE 
  55      9D
  56 00d9 EBF5A6C5 		.ascii	"\353\365\246\305U\021\217\321\237\371\301\023x\334!"
  56      55118FD1 
  56      9FF9C113 
  56      78DC21
  57 00e8 24B37139 		.ascii	"$\263q92\335nh\242\266\333\326\307\024\027U\334)\377"
  57      32DD6E68 
  57      A2B6DBD6 
  57      C7141755 
  57      DC29FF
  58 00fb 7020B55D 		.ascii	"p \265]Ix\262\345d#JyI\367\337\224\222S'\210\177\337"
  58      4978B2E5 
  58      64234A79 
  58      49F7DF94 
  58      92532788 
  59 0111 FEB49013 		.ascii	"\376\264\220\023\315P\313$\346\033\361\333\334\017\325"
  59      CD50CB24 
  59      E61BF1DB 
  59      DC0FD5
  60 0120 D0DABA7D 		.ascii	"\320\332\272}\037\266:\371\3543]\012\214\303\251{\317"
  60      1FB63AF9 
  60      EC335D0A 
  60      8CC3A97B 
ARM GAS  C:\Users\JEFFSN~1\AppData\Local\Temp\cccjU80Q.s 			page 4


  60      CF
  61 0131 E7769D16 		.ascii	"\347v\235\026\356\007\323<#\007\353(`\015\354\031\033"
  61      EE07D33C 
  61      2307EB28 
  61      600DEC19 
  61      1B
  62 0142 68811284 		.ascii	"h\201\022\204\007\315\217\310\004u\246y\347\327\326"
  62      07CD8FC8 
  62      0475A679 
  62      E7D7D6
  63 0151 BB5E1101 		.ascii	"\273^\021\001^\003O\031\274\003e\333`\247\214\022R\332"
  63      5E034F19 
  63      BC0365DB 
  63      60A78C12 
  63      52DA
  64 0163 4CF60E6D 		.ascii	"L\366\016m\270\241\226:_\366\327^\366\011\313e\340&"
  64      B8A1963A 
  64      5FF6D75E 
  64      F609CB65 
  64      E026
  65 0175 93ACF4C1 		.ascii	"\223\254\364\301\241\264\340\030\264\3703\274k\3759"
  65      A1B4E018 
  65      B4F833BC 
  65      6BFD39
  66 0184 88085B19 		.ascii	"\210\010[\031\252\343e\230\234u\340q*\236\267\264#\356"
  66      AAE36598 
  66      9C75E071 
  66      2A9EB7B4 
  66      23EE
  67 0196 0363F247 		.ascii	"\003c\362G\033x\306\0150\213v1\025\355\273B\260/\221"
  67      1B78C60D 
  67      308B7631 
  67      15EDBB42 
  67      B02F91
  68 01a9 2AC8B078 		.ascii	"*\310\260xt\305\213\376\015\177\254Z\367\257\016\227"
  68      74C58BFE 
  68      0D7FAC5A 
  68      F7AF0E97 
  69 01b9 4727C66A 		.ascii	"G'\306j~\345Ry\364\374\271\312\225\362\320\360\205\233"
  69      7EE55279 
  69      F4FCB9CA 
  69      95F2D0F0 
  69      859B
  70 01cb 676AE4DE 		.ascii	"gj\344\336\252^\233\360\217\217\327\253\365\221\332"
  70      AA5E9BF0 
  70      8F8FD7AB 
  70      F591DA
  71 01da D0487DFC 		.ascii	"\320H}\374\037\206\344\303\200"
  71      1F86E4C3 
  71      80
  72              		.text
  73              		.section	.gnu.lto_USB_Dp_SetDriveMode.807d5088,"",%progbits
  74 0000 789C7D51 		.ascii	"x\234}Q;/\004Q\024>\337\275\2633\273\021\376\200-$\212"
  74      3B2F0451 
  74      143EDFBD 
  74      B333BB11 
  74      FE802D24 
ARM GAS  C:\Users\JEFFSN~1\AppData\Local\Temp\cccjU80Q.s 			page 5


  75 0015 8D4624E2 		.ascii	"\215F$\342\017 \264b\243#\"L\311\"\324\356\356\332\010"
  75      0F20B462 
  75      A323224C 
  75      C922D4EE 
  75      EEDA08
  76 0028 0A446C23 		.ascii	"\012Dl#B#\336\257\250tk\023\312\325)\024\"\212%\022"
  76      4223DEAF 
  76      A8746B13 
  76      CAD52914 
  76      228A2512 
  77 003c B25E215E 		.ascii	"\262^!^\353\234\031\305Vn\346\236\307\227\357\373r\316"
  77      EB9C19C5 
  77      566EE69E 
  77      C797EFFB 
  77      72CE
  78 004e 1D8B4072 		.ascii	"\035\213@rn9E8W\362\205&\250\331\034Q<\250\000)L\020"
  78      6E394538 
  78      57F28526 
  78      A8D91C51 
  78      3CA80029 
  79 0064 34A63086 		.ascii	"4\2460\206W\365\255\220\235\310\037\251\2325\303\347"
  79      57F5AD90 
  79      9DC81FA9 
  79      9A35C3E7 
  80 0074 EAE4A1CE 		.ascii	"\352\344\241\316\254g\220\322DE\3459\021\326P\303\254"
  80      AC6790D2 
  80      4445E539 
  80      11D650C3 
  80      AC
  81 0085 E7C3D5F9 		.ascii	"\347\303\325\3712]\015\342\3721W\270\254\210\254\032"
  81      325D0DE2 
  81      FA3157B8 
  81      AC88AC1A 
  82 0095 933066AE 		.ascii	"\2230f\256\313\350\224\006\326\241Y\201\3720\352\302"
  82      CBE89406 
  82      D6A15981 
  82      FA30EAC2 
  83 00a5 C4006103 		.ascii	"\304\000a\003\021!_\037\374,\224\333\343b_\345\233b"
  83      11215F1F 
  83      FC2C94DB 
  83      E3625FE5 
  83      9B62
  84 00b7 13B68CB9 		.ascii	"\023\266\214\271\327\2361\305b\322d\336\354\343\017"
  84      D79E31C5 
  84      62D264DE 
  84      ECE30F
  85 00c6 BB4CB14C 		.ascii	"\273L\261Li\016\332\222\020\2008\330R:\022\202\022B"
  85      690EDA92 
  85      108038D8 
  85      523A1282 
  85      1242
  86 00d8 C2212AF0 		.ascii	"\302!*\360\225E\036\225\222\254\363\310~L\345\027-q"
  86      95451E95 
  86      92ACF3C8 
  86      7E4CE517 
  86      2D71
  87 00ea 4E6A592A 		.ascii	"NjY*\235\312\2369/*\245-o\342\317\231\311\234\345\267"
ARM GAS  C:\Users\JEFFSN~1\AppData\Local\Temp\cccjU80Q.s 			page 6


  87      9DCA9E39 
  87      2F2AA52D 
  87      6FE2CF99 
  87      C99CE5B7 
  88 00fe 3F2B7163 		.ascii	"?+qc1\2640\361uc/c)>\316\353\006\260\2150\266\020\346"
  88      31B430F1 
  88      75632F63 
  88      293ECEEB 
  88      06B08D30 
  89 0115 E976B00C 		.ascii	"\351v\260\014\312#\361\344\370v\232\035\271O~\331~o"
  89      CA23F1E4 
  89      F8769A1D 
  89      B94F7ED9 
  89      7E6F
  90 0127 31C4FA8B 		.ascii	"1\304\372\213\323\351\357\220Xj\014a\227\225%\022\376"
  90      D3E9EF90 
  90      586A0C61 
  90      97952512 
  90      FE
  91 0138 02A51287 		.ascii	"\002\245\022\207!\226\334\237omk_R\201=O\222|\377\243"
  91      2196DC9F 
  91      6F6D6B5F 
  91      52813D4F 
  91      927CFFA3 
  92 014c 043D63A7 		.ascii	"\004=c\247\324%\304(\367\3314\244\377o\344}\036\231"
  92      D425C428 
  92      F7D934A4 
  92      FF6FE47D 
  92      1E99
  93 015e F9748744 		.ascii	"\371t\207D\346\263E\330\336\257+(\310\363\360cU\265"
  93      E6B345D8 
  93      DEAF2B28 
  93      C8F3F063 
  93      55B5
  94 0170 BA03EE70 		.ascii	"\272\003\356p\317\210\333\327\035\215\215\016\367\272"
  94      CF88DBD7 
  94      1D8D8D0E 
  94      F7BA
  95 017e 9D6DD158 		.ascii	"\235m\321XSCgG\264\261\273y\260\266\227\254\376X\237"
  95      53436747 
  95      B4B1BB79 
  95      B0B697AC 
  95      FE589F
  96 0191 FB0B81CA 		.ascii	"\373\013\201\312\245\305"
  96      A5C5
  97              		.text
  98              		.section	.gnu.lto_USB_Dp_Read.807d5088,"",%progbits
  99 0000 789C354F 		.ascii	"x\2345O\317K\002Q\020\236\357\275\325\225\300\376\201"
  99      CF4B0251 
  99      109EEFBD 
  99      D595C0FE 
  99      81
 100 0011 3C44372F 		.ascii	"<D7/\021D\020\035+\352\032I\235\004\011[\272eH\235\335"
 100      1144101D 
 100      2BEA1A49 
 100      9D04095B 
 100      BA65489D 
ARM GAS  C:\Users\JEFFSN~1\AppData\Local\Temp\cccjU80Q.s 			page 7


 101 0026 75DD8228 		.ascii	"u\335\202(\360b\235\312C\210\226It\022:m\236\202\240"
 101      F0629DCA 
 101      43889649 
 101      74123A6D 
 101      9E82A0
 102 0039 4E41A788 		.ascii	"NA\247\210\020\203\016\221b\004f\331\274\266\006\336"
 102      10830E91 
 102      620466D9 
 102      BCB606DE 
 103 0049 CC7BF3BE 		.ascii	"\314{\363\276\0373\032\201T,r\031\342:\300\007\222 "
 103      1F331A81 
 103      542C7219 
 103      E23AC007 
 103      9220
 104 005b B2374456 		.ascii	"\2627DV@\000\352b\006@)\201\024\336\305\227\300\365"
 104      4000EA62 
 104      06402981 
 104      14DEC597 
 104      C0F5
 105 006d C7D54E5F 		.ascii	"\307\325N_\270h\232i\363\261\320\031\337/\271p$QO\020"
 105      B8689A69 
 105      F3B1D019 
 105      DF2FB970 
 105      24514F10 
 106 0081 46431809 		.ascii	"FC\030\011)\211\"\302\304\320\247\363\357\\\320\237"
 106      298922C2 
 106      C4D0A7F3 
 106      EF5CD09F 
 107 0091 31390615 		.ascii	"19\006\025\200\177J\360+\313\263y\327\354\365l\323\275"
 107      807F4AF0 
 107      2BCBB379 
 107      D7ECF56C 
 107      D3BD
 108 00a3 D32FEF75 		.ascii	"\323/\357u\035\344H\366\345\244q\022>\225\374\244d\351"
 108      1DE448F6 
 108      E5A47112 
 108      3E95FCA4 
 108      64E9
 109 00b5 8D696A88 		.ascii	"\215ij\210\246\020\252\312\006j\235\355\207\303\011"
 109      A610AACA 
 109      066A9DED 
 109      87C309
 110 00c4 A5644BC9 		.ascii	"\245dK\311.{N\355Vo\013GJ(\323\356n\356\031\336\263"
 110      2E7B4EED 
 110      566F0B47 
 110      4A28D3EE 
 110      6EEE19DE 
 111 00d9 7964991A 		.ascii	"yd\231\032\267\012Yk%\217\003+\303\223j8A\010\307\340"
 111      B70A596B 
 111      258F032B 
 111      C3936A38 
 111      4108C7E0 
 112 00ed 3951461E 		.ascii	"9QF\036\324\200\335\235![\302S\253\276\226\253AE\007"
 112      D480DD9D 
 112      215BC253 
 112      ABBE96AB 
 112      414507
ARM GAS  C:\Users\JEFFSN~1\AppData\Local\Temp\cccjU80Q.s 			page 8


 113 0100 5CC229E3 		.ascii	"\\\302)\343\032H\267\266\272\3023\324\030\250(\255\315"
 113      1A48B7B6 
 113      BAC233D4 
 113      18A828AD 
 113      CD
 114 0111 B6E6757C 		.ascii	"\266\346u|\334d^\375\263r\321\257x\2027\254\374\323"
 114      DC645EFD 
 114      B372D1AF 
 114      788237AC 
 114      FCD3
 115 0123 EAF0400A 		.ascii	"\352\360@\012G/\370\023\361\323\357bP\013\361z\203\263"
 115      472FF813 
 115      F1D3EF62 
 115      500BF17A 
 115      83B3
 116 0135 C6AA915C 		.ascii	"\306\252\221\\Z7\226c\221\304F2nD\347\"\211\251\261"
 116      5A379663 
 116      91C44632 
 116      6E44E722 
 116      89A9B1
 117 0148 E8426432 		.ascii	"\350Bd26\2756\034\247\037p\255{\333"
 117      36BD361C 
 117      A71F70AD 
 117      7BDB
 118              		.text
 119              		.section	.gnu.lto_USB_Dp_ReadDataReg.807d5088,"",%progbits
 120 0000 789C354F 		.ascii	"x\2345O\277KBQ\024>\337\275\317\247\030\366\017\344"
 120      BF4B4251 
 120      143EDFBD 
 120      CFA718F6 
 120      0FE4
 121 0012 206D2E11 		.ascii	" m.\021DC\215\025\265F\022-\202\204\2755Cj\366\351\363"
 121      44438D15 
 121      B546122D 
 121      8284BD35 
 121      436AF6E9 
 122 0027 15444310 		.ascii	"\025DC\020\326\024\016\021j&\321\222\020\004/\247 \250"
 122      D6140E11 
 122      6A26D192 
 122      10042FA7 
 122      20A8
 123 0039 C6C60871 		.ascii	"\306\306\010qp\010\023\243(\323\316\355\325\201{\316"
 123      700813A3 
 123      28D3CEED 
 123      D5817BCE 
 124 0049 BDE77E3F 		.ascii	"\275\347~?\316\321\010\244b\211\3130\327!>\220\004\261"
 124      CED108A4 
 124      6289CB30 
 124      D7213E90 
 124      04B1
 125 005b 7B4794F6 		.ascii	"{G\224\366\011@]L\037(%\220\302\233\370\026\270}\277"
 125      09405D4C 
 125      1F282590 
 125      C29BF816 
 125      B87DBF
 126 006e D9F1870B 		.ascii	"\331\361\207\013\246\2311\237\216\013\023\007E\007\266"
 126      A699319F 
ARM GAS  C:\Users\JEFFSN~1\AppData\Local\Temp\cccjU80Q.s 			page 9


 126      8E0B1307 
 126      4507B6
 127 007d 24EA0BC2 		.ascii	"$\352\013\302X\020\243A%Q@\230\030\372|\336\313\005"
 127      5810A341 
 127      25514098 
 127      18FA7CDE 
 127      CB05
 128 008f F4ACC911 		.ascii	"\364\254\311\021R\000\376)BW\226g\013\216\331\357[\246"
 128      5200FE29 
 128      42579667 
 128      0B8ED9EF 
 128      5BA6
 129 00a1 73E5BF7E 		.ascii	"s\345\277~\360{A\266d_N\032'\341QI'%K-\246\251!^\205"
 129      F07B41B6 
 129      645F4E1A 
 129      27E15149 
 129      27254B2D 
 130 00ba 50553650 		.ascii	"PU6P\373\334\356\225&\225\222%%\273\354\333\265{oG\330"
 130      FBDCEE95 
 130      26959225 
 130      25BBECDB 
 130      B57B6F47 
 131 00cf 5242993E 		.ascii	"RB\231>Z\371\217\001\367\331:J\233\032\267\366.rM-\217"
 131      5AF98F01 
 131      F7D93A4A 
 131      9B1AB7F6 
 131      2E724D2D 
 132 00e4 C3749647 		.ascii	"\303t\226G\325p\202 J\340AQF\036\324\200\325\235%K\302"
 132      D5708220 
 132      4AE04151 
 132      461ED480 
 132      D59D254B 
 133 00f9 95ABBE94 		.ascii	"\225\253\276\224\253\001\305\007\034\302)\343\032\310"
 133      AB01C507 
 133      1CC229E3 
 133      1AC8
 134 0107 B4B7BAC2 		.ascii	"\264\267\272\302u\324\030\250(\355\315\216\346v<\334"
 134      75D418A8 
 134      28EDCD8E 
 134      E6763CDC 
 135 0117 645EFDAB 		.ascii	"d^\375\253r9\250x\202W\254\374\323\352pA\012GM\374\211"
 135      7239A878 
 135      8257ACFC 
 135      D3EA7041 
 135      0A474DFC 
 136 012c E8F4BB19 		.ascii	"\350\364\273\031\324F\274_h\316X5\222\313\353\306J,"
 136      D446BC5F 
 136      68CE5835 
 136      92CBEBC6 
 136      4A2C
 137 013e 92D848C6 		.ascii	"\222\330H\306\215\350|$1=\036]\214L\305f\326F\342\364"
 137      8DE87C24 
 137      313D1E5D 
 137      8C4CC566 
 137      D646E2F4 
 138 0152 03C73D7C 		.ascii	"\003\307=|@"
 138      40
ARM GAS  C:\Users\JEFFSN~1\AppData\Local\Temp\cccjU80Q.s 			page 10


 139              		.text
 140              		.section	.gnu.lto_USB_Dp_SetInterruptMode.807d5088,"",%progbits
 141 0000 789C6D50 		.ascii	"x\234mP\317KTQ\024>\337\275\367\215\2033M\356la!\264"
 141      CF4B5451 
 141      143EDFBD 
 141      F78D8333 
 141      4DEE6C61 
 142 0016 1884C816 		.ascii	"\030\204\310\026\365\017T\344\266\032\332\011\"\372"
 142      F50F54E4 
 142      B61ADA09 
 142      22FA
 143 0024 162EF289 		.ascii	"\026.\362\211\031\264\363\276y\363\020\202\300\014g"
 143      19B4F3BE 
 143      79F31082 
 143      C00C67
 144 0033 2188240C 		.ascii	"!\210$\014\226V\223M\004A\304c\300]\024\204\320\242"
 144      9656934D 
 144      0441C463 
 144      C05D1484 
 144      D0A2
 145 0045 4D054EE0 		.ascii	"M\005N\340\"Fk\212\240f<\347=\027-:\334\313\371\301"
 145      22466B8A 
 145      A0663CE7 
 145      3D172D3A 
 145      DCCBF9C1 
 146 0059 F79DEF9C 		.ascii	"\367\235\357\234c\010$\266\303\356\014\373\263\374\341"
 146      630824B6 
 146      C3EE0CFB 
 146      B3FCE1
 147 0068 10D4FC5B 		.ascii	"\020\324\374[\"?\255\224\336\036$\333m^\235 \233\325"
 147      223FAD94 
 147      DE1E24DB 
 147      6D5E9D20 
 147      9BD5
 148 007a 3049D900 		.ascii	"0I\331\000\022\3304hVi\203Y\264\324_\205\372\\\343\245"
 148      12D83468 
 148      56698359 
 148      B4D45F85 
 148      FA5CE3A5 
 149 008e 1A58B36C 		.ascii	"\032X\263l\237v^_\361mx,\324D\035\025K\020\3260\300"
 149      9F765E5F 
 149      F16D782C 
 149      D4441D15 
 149      4B10D630 
 150 00a3 A8ADCEAF 		.ascii	"\250\255\316\257\350\350\017\025j@H\357\233o\2263\222"
 150      E8E80F15 
 150      6A4048EF 
 150      9B6F9633 
 150      92
 151 00b4 2AF470BA 		.ascii	"*\364p\272\264[)\347\364I\020\307_\237\257~\350\316"
 151      B45B29E7 
 151      F44910C7 
 151      5F9FAF7E 
 151      E8CE
 152 00c6 57AC2D5A 		.ascii	"W\254-Z[\033\265N\2505\326\241\271\037\036\242\017\017"
 152      5B1BB54E 
 152      A835D6A1 
ARM GAS  C:\Users\JEFFSN~1\AppData\Local\Temp\cccjU80Q.s 			page 11


 152      B91F1EA2 
 152      0F0F
 153 00d8 D0475C22 		.ascii	"\320G\\\"l \317\350\357\265\312\275\214>\0253\367\203"
 153      6C20CFE8 
 153      EFB5CABD 
 153      8C3E1533 
 153      F783
 154 00ea 4A903D64 		.ascii	"J\220=d\266\016\231\217\376\303|\214\274\300\277l\266"
 154      B60E998F 
 154      FEC37C8C 
 154      BCC0BF6C 
 154      B6
 155 00fb 178FA44A 		.ascii	"\027\217\244J2x\1772.\236 %\227\251^\215l\247\023\330"
 155      32787F32 
 155      2E9E2025 
 155      97A95E8D 
 155      6CA713D8 
 156 010f E877666B 		.ascii	"\350wfk!\227V\0201#d\007\302Nqh\210\232\314\221\213"
 156      21975610 
 156      31236407 
 156      C24E7168 
 156      889ACC91 
 157 0124 EC29255E 		.ascii	"\354)%^7\020\374\271D\2016\201\226\035W\177\006w\342"
 157      3710FCB9 
 157      44813681 
 157      961D577F 
 157      0677E2
 158 0137 1D352242 		.ascii	"\0355\"B\225\325?\243\3641h\365\212\014\243\030R\016"
 158      95D53FA3 
 158      F43168F5 
 158      8A0CA318 
 158      520E
 159 0149 EBEFBA12 		.ascii	"\353\357\272\022\010\341)#\304\366\224\246\355A\356"
 159      08E12923 
 159      C4F694A6 
 159      ED41EE
 160 0158 56DC9F6B 		.ascii	"V\334\237kWo%h~\0165P/\337?.\205\177\271N\274|\255\271"
 160      576F2568 
 160      7E0E3550 
 160      2FDF3F2E 
 160      857FB94E 
 161 0170 1E6493B4 		.ascii	"\036d\223\264}\333\267\322\375\356\213\215o]+X\366K"
 161      7DDBB7D2 
 161      FDEE8B8D 
 161      6F5D2B58 
 161      F64B
 162 0182 BEB59950 		.ascii	"\276\265\231P\247\360\214\317\260)2\250a\005\3345\226"
 162      A7F08CCF 
 162      B02932A8 
 162      6105DC35 
 162      96
 163 0193 33F1F4BB 		.ascii	"3\361\364\273(F\0139i\036O\321T\2202\257\330?\344N\272"
 163      28460B39 
 163      691E4FD1 
 163      549032AF 
 163      D83FE44E 
 164 01a8 D3A333EE 		.ascii	"\323\2433\356\370H\301\2739=\346\016_.x\027\316\015"
ARM GAS  C:\Users\JEFFSN~1\AppData\Local\Temp\cccjU80Q.s 			page 12


 164      F848C1BB 
 164      393DE60E 
 164      5F2E7817 
 164      CE0D
 165 01ba 5F2B9C1F 		.ascii	"_+\234\037\2718uz\214\322S\336\215\211\231\011o\322"
 165      B938757A 
 165      8CD253DE 
 165      8D899909 
 165      6FD2
 166 01cc 5CF7C6DD 		.ascii	"\\\367\306\335\003\313a\265\314"
 166      03CB61B5 
 166      CC
 167              		.text
 168              		.section	.gnu.lto_USB_Dp_ClearInterrupt.807d5088,"",%progbits
 169 0000 789C3D4F 		.ascii	"x\234=OMKBA\024\275g\346\371A\240\353 \027\322\316M"
 169      4D4B4241 
 169      14BD67E6 
 169      F941A0EB 
 169      2017D2CE 
 170 0015 04D11FA8 		.ascii	"\004\321\037\250\250m$\021\201 ao\233!\265v\364\371"
 170      A86D2411 
 170      8120616F 
 170      9B21B576 
 170      F4F9
 171 0027 0A2AB04D 		.ascii	"\012*\260MA\213\222VV&\021-\204\332\230\024\004A\355"
 171      418B9256 
 171      5626112D 
 171      84DA9814 
 171      0441ED
 172 003a 5A464448 		.ascii	"ZFDH\264\220\264/(\313\356\370\250\013s\357\314\235"
 172      B490B42F 
 172      28CBEEF8 
 172      A80B73EF 
 172      CC9D
 173 004c 73EEB9C7 		.ascii	"s\356\271\307 \220\216\011.\335\\\273\370@\022\304\352"
 173      20908E09 
 173      2EDD5CBB 
 173      F84012C4 
 173      EA
 174 005d 1551CA2B 		.ascii	"\025Q\312+\000}Q^PR \2117\361-p\371q\261\322\021\312"
 174      007D515E 
 174      50522089 
 174      37F12D70 
 174      F971B1D2 
 175 0073 2B955677 		.ascii	"+\225Vwvm\262\236\266;mI\324\022\204\276\000z\003zD"
 175      766DB29E 
 175      B63B6D49 
 175      D41284BE 
 175      007A037A 
 176 0088 1E2162E8 		.ascii	"\036!b\350\375\341\317\232\317\235Q\034A\015\340\237"
 176      FDE1CF9A 
 176      CF9D511C 
 176      410DE09F 
 177 0098 1DB8B5E4 		.ascii	"\035\270\265\344\301XY\265Z\226*\277\370\317\337\375"
 177      C15859B5 
 177      5A962ABF 
 177      F8CFDFFD 
ARM GAS  C:\Users\JEFFSN~1\AppData\Local\Temp\cccjU80Q.s 			page 13


 178 00a8 1E902D59 		.ascii	"\036\220-Y\227\223\301I\270tr\223\036K\317L\323K\324"
 178      9793C149 
 178      B8747293 
 178      1E4BCF4C 
 178      D34BD4
 179 00bb 85D05556 		.ascii	"\205\320UVQ\371\\\2729\031\323\223,)Ye\335\256\\{^\205"
 179      51F95CBA 
 179      3919D393 
 179      2C295965 
 179      DDAE5C7B 
 180 00d1 2D25B4E8 		.ascii	"-%\264\350\321\306\366\226\317yf\227S\312\340\326\351"
 180      D1C6F696 
 180      CF796697 
 180      53CAE0D6 
 180      E9
 181 00e2 ED63D695 		.ascii	"\355c\326\225\303f*\003[\032\330C\000\273\340EQ@\016"
 181      C3662A03 
 181      5B1AD843 
 181      00BBE045 
 181      51400E
 182 00f5 5485D51C 		.ascii	"T\205\325\034&K\302\031W\252\025Jm>P&\3543\256\212t"
 182      264BC219 
 182      57AA154A 
 182      6D3E5026 
 182      EC33AE8A 
 183 010a 63F1CC70 		.ascii	"c\361\314p\024\015\006jJc\241\351r:.n2\357\341\253x"
 183      140D066A 
 183      4A63A1E9 
 183      723A2E6E 
 183      32EFE1AB 
 184 011f ECD73CC1 		.ascii	"\354\327<\301\026\213\3774\341\2004\216\236\360\367"
 184      168BFF34 
 184      E180348E 
 184      9EF0F7
 185 012e A2B63368 		.ascii	"\242\2663hG\354/8b\316\230\211\2519s:\032\216\317'b"
 185      47EC2F38 
 185      62CE9889 
 185      A939733A 
 185      1A8ECF27 
 186 0143 6664341C 		.ascii	"fd4\034\037\354\217\214\207\007\242C\263=1\372\005$"
 186      1FEC8F8C 
 186      8707A243 
 186      B33D31FA 
 186      0524
 187 0155 D87C26   		.ascii	"\330|&"
 188              		.text
 189              		.section	.gnu.lto_.symbol_nodes.807d5088,"",%progbits
 190 0000 789C6361 		.ascii	"x\234ca`d\310`\000\002&\206z\006\206\011\347\030@\324"
 190      6064C860 
 190      00022686 
 190      7A068609 
 190      E71840D4 
 191 0014 AE0645A0 		.ascii	"\256\006E\240\000c=#\252\000S=\023\252\000s=3\252\000"
 191      00633D23 
 191      AA00533D 
 191      13AA0073 
 191      3D33AA00 
ARM GAS  C:\Users\JEFFSN~1\AppData\Local\Temp\cccjU80Q.s 			page 14


 192 0028 4B3D0BAA 		.ascii	"K=\013\252\000k=+\212\000\003\000\305\333\026\342"
 192      006B3D2B 
 192      8A000300 
 192      C5DB16E2 
 193              		.text
 194              		.section	.gnu.lto_.refs.807d5088,"",%progbits
 195 0000 789C6361 		.ascii	"x\234ca`\004B \000\000\0009\000\007"
 195      60044220 
 195      00000039 
 195      0007
 196              		.text
 197              		.section	.gnu.lto_.decls.807d5088,"",%progbits
 198 0000 789C8D54 		.ascii	"x\234\215T_lSU\030?\337\275wmsW:2Q\367\320\304\312\303"
 198      5F6C5355 
 198      183FDFBD 
 198      776D7357 
 198      3A3251F7 
 199 0018 B2A7C5C5 		.ascii	"\262\247\305\305@x0b\334\"\361A1L\346\013\311R\266\033"
 199      40783062 
 199      DC22F141 
 199      314CE60B 
 199      C952B61B 
 200 002c 5C62B6A5 		.ascii	"\\b\266\245t&<\220\034\326iP!\262\004\246\373\243\214"
 200      74263C90 
 200      1CD66950 
 200      21B204A6 
 200      FBA38C
 201 003f 994191C1 		.ascii	"\231A\221\301\006\355p+\177\\\201v\005\266\2721C4[\""
 201      06ED702B 
 201      7F5C8176 
 201      05B6BA31 
 201      43345B22 
 202 0053 C9E48138 		.ascii	"\311\344\2018c\311\232\350$\263~\347\317\355\275\316"
 202      63C99AE8 
 202      24B37EE7 
 202      CFEDBDCE 
 203 0063 92ECA4DF 		.ascii	"\222\354\244\337\355\371\316\375~\277\363;\277\363\265"
 203      EDF9CEFD 
 203      7EBFF33B 
 203      BFF3B5
 204 0072 1A01C246 		.ascii	"\032\001\302F\242\210\220i\374\356\3034\207\303\211"
 204      A2889069 
 204      FCEEC334 
 204      87C389
 205 0081 F33A620D 		.ascii	"\363:b\015\007F\004c\024c\014#\206\221\304H\221\377"
 205      07460463 
 205      14630C23 
 205      8691C448 
 205      91FF
 206 0093 8F88AC67 		.ascii	"\217\210\254g\370\013\030^\"\270\357b\354\2245 \353"
 206      F80B185E 
 206      22B8EF62 
 206      EC943520 
 206      EB
 207 00a4 D68ED102 		.ascii	"\326\216\321\002\330\031\033\336\304\216\026\3002]E"
 207      D8191BDE 
 207      C48E16C0 
ARM GAS  C:\Users\JEFFSN~1\AppData\Local\Temp\cccjU80Q.s 			page 15


 207      325D45
 208 00b3 36DCCE02 		.ascii	"6\334\316\002\270\261\002\270\330:p\261\0028v~\323\247"
 208      B8B102B8 
 208      D83A70B1 
 208      0238767E 
 208      D3A7
 209 00c5 528C4D18 		.ascii	"R\214M\030\3615\3475\361\311\002\370\324:\366-\344\357"
 209      F135E735 
 209      F1C902F8 
 209      D43AF62D 
 209      E4EF
 210 00d7 AA02B993 		.ascii	"\252\002\271\223\321\317]\363\3603\250D^ \001\020O\340"
 210      D1CF5DF3 
 210      F033A844 
 210      5E200110 
 210      4FE0
 211 00e9 4144F014 		.ascii	"AD\360\024'\012\021\023s)?\210,Q\314\251E\306?\022\017"
 211      270A1113 
 211      73293F88 
 211      2C51CCA9 
 211      45C63F12 
 212 00fe 39737012 		.ascii	"9sp\022\213\035$H\344\246n\011\002\305\332\000Dj\"l"
 212      8B1D2448 
 212      E4A66E09 
 212      02C5DA00 
 212      446A226C 
 213 0112 7C6B1499 		.ascii	"|k\024\231\232\315m\210b\036\372h:\273\340T\025`\363"
 213      9ACD6D88 
 213      621EFA68 
 213      3ABBE054 
 213      1560F3
 214 0125 5F56C26F 		.ascii	"_V\302oT\016Q\034\307(U^\260\234\031\376\350\327\263"
 214      540E511C 
 214      C728555E 
 214      B09C19FE 
 214      E8D7B3
 215 0138 AEAC025E 		.ascii	"\256\254\002^\035r\300\362\245\361\225\015\"g\257\273"
 215      1D72C0F2 
 215      A5F1950D 
 215      2267AFBB 
 216 0148 3B17FF29 		.ascii	";\027\377)V\313\330\\\231[<\367H\203\012\3754\243y\260"
 216      56CBD85C 
 216      995B3CF7 
 216      48830AFD 
 216      34A379B0 
 217 015c 3AF2EA38 		.ascii	":\362\3528\245\033\341\002\3500\004*\234\205J\246\301"
 217      A51BE102 
 217      E830042A 
 217      9C854AA6 
 217      C1
 218 016d ABE3F330 		.ascii	"\253\343\3630\245\35543@\035e\004^\366\302K^\002\347"
 218      A5ED3433 
 218      401D6504 
 218      5EF6C24B 
 218      5E02E7
 219 0180 A18271B2 		.ascii	"\241\202q\262*8\007^\370\026\274\214\377\341\027'\177"
 219      2A38075E 
ARM GAS  C:\Users\JEFFSN~1\AppData\Local\Temp\cccjU80Q.s 			page 16


 219      F816BC8C 
 219      FFE11727 
 219      7F
 220 0191 73682899 		.ascii	"sh(\231\363\354\325\330\332l\307H\237\212\022Ju\320"
 220      F3ECD5D8 
 220      DA6CC748 
 220      9F8A124A 
 220      75D0
 221 01a3 307D3CDD 		.ascii	"0}<\335\263\350\301t\223\016>L\207b\013K\216\262.~\224"
 221      B3E8C174 
 221      930E3E4C 
 221      87620B4B 
 221      8EB22E7E 
 222 01b8 10F56950 		.ascii	"\020\365iP\367\034\\D\302\021$$p\011\312\3609\014\232"
 222      F71C5C44 
 222      C2112424 
 222      7009CAF0 
 222      390C9A
 223 01cb 385D476F 		.ascii	"8]Go\357\274gs?\355\037\241\017:\223\257t\205h\012q"
 223      EFBC6773 
 223      3FED1FA1 
 223      0F3A93AF 
 223      7485680A 
 224 01e0 3E560661 		.ascii	">V\006aKt\230\365\005\20130\217\036F`3\"{n^?\355R\375"
 224      4B7498F5 
 224      05813330 
 224      8F1E4660 
 224      33227B6E 
 225 01f9 DC842783 		.ascii	"\334\204'\203\375?*\202e\"\233t\323c\207(}\215sD-\216"
 225      FD3F2A82 
 225      65229B74 
 225      D3638728 
 225      7D8D7344 
 226 020f A89D6394 		.ascii	"\250\235c\224s\334\032\\:\242\251m\234c\346\263D\250"
 226      73DC1A5C 
 226      3AA2A96D 
 226      9C63E6B3 
 226      44A8
 227 0221 C42E9B9D 		.ascii	"\304.\233\235\327\322\375\035\327\275W\312N\244\177"
 227      D7D2FD1D 
 227      D7BD57CA 
 227      4EA47F
 228 0230 3A5A2237 		.ascii	":Z\"7\234\233T\273\351D\007\342\024V\005\227\255-/\333"
 228      9C9B54BB 
 228      E94407E2 
 228      14560597 
 228      AD2D2FDB 
 229 0244 B71CE35B 		.ascii	"\267\034\343[\246\277>\263]=\004|\313\030]\356uJ\226"
 229      A6BF3EB3 
 229      5D3D047C 
 229      CB185DEE 
 229      754A96
 230 0257 D81D5336 		.ascii	"\330\035S6\343\030\2678\306\355\0341\316q\244\373\342"
 230      E318B738 
 230      C6ED1C31 
 230      CE71A4FB 
 230      E2
ARM GAS  C:\Users\JEFFSN~1\AppData\Local\Temp\cccjU80Q.s 			page 17


 231 0268 94A61E17 		.ascii	"\224\246\036\027$\203\177?\311\260\313(\307\376\310"
 231      24837F3F 
 231      C9B0CB28 
 231      C7FEC8
 232 0277 A9B60629 		.ascii	"\251\266\006)\027\015\022>\225\214\350\352\220(N\344"
 232      170D123E 
 232      958CE8EA 
 232      90284EE4 
 233 0287 FE9C2811 		.ascii	"\376\234(\0217\247`z/3\365U\261\270\271\215\330?}\307"
 233      37A7607A 
 233      2F33F555 
 233      B1B8B98D 
 233      D83F7DC7 
 234 029b E3E71DA0 		.ascii	"\343\347\035\240W\360\356\240!\252\207=\004&\320\202"
 234      57F0EEA0 
 234      21AA873D 
 234      0426D082 
 235 02ab EFD102B8 		.ascii	"\357\321\002\270\201\015R.\033\344\032.^\305E\331iQ"
 235      810D522E 
 235      1BE41A2E 
 235      5EC545D9 
 235      6951
 236 02bd D1697174 		.ascii	"\321iqt\354\272\245\274\\\027fu\315eW\200\267P<\337"
 236      ECBAA5BC 
 236      5C176675 
 236      CD655780 
 236      B7503CDF 
 237 02d1 42037F2C 		.ascii	"B\003\177,w\272\362k7\201/\2062\017g\235O\355\234\004"
 237      77BAF26B 
 237      37812F86 
 237      320F679D 
 237      4FED9C04 
 238 02e5 BF815B66 		.ascii	"\277\201[f\347\320\331X\324\235\357\234\203\003\337"
 238      E7D0D958 
 238      D49DEF9C 
 238      8303DF
 239 02f4 7C2CFCE3 		.ascii	"|,\374\343\205p\305\222q\305n`\222\033\270p)^\247F\204"
 239      8570C592 
 239      71C56E60 
 239      921BB870 
 239      295EA746 
 240 0309 254BEDD7 		.ascii	"%K\355\3272 /\341qz\303\177\256r\322b\231\264\263\244"
 240      32202FE1 
 240      717AC37F 
 240      AE72D262 
 240      99B4B3A4 
 241 031d 384BB663 		.ascii	"8K\266c\371\276C?\314\234Z\327Oi\372\321\251\234S\275"
 241      F9BE433F 
 241      CC9C5AD7 
 241      4F69FAD1 
 241      A99C53BD 
 242 0331 CDB75522 		.ascii	"\315\267U\"'\272O8\205\327k\341S\005\340\322\350\277"
 242      27BA4F38 
 242      85D76BE1 
 242      5305E0D2 
 242      E8BF
 243 0343 DEEDFC84 		.ascii	"\336\355\374\204\211\273\213\246\335\261\304\335\006"
ARM GAS  C:\Users\JEFFSN~1\AppData\Local\Temp\cccjU80Q.s 			page 18


 243      89BB8BA6 
 243      DDB1C4DD 
 243      06
 244 0350 697574E6 		.ascii	"iut\346\367\341\"\367\247\354\376\320\301\322\224\207"
 244      F7E122F7 
 244      A7ECFED0 
 244      C1D29487 
 245 0360 575A1E4E 		.ascii	"WZ\036N\203\233\377\021\341\367\252\242^\275\337\333"
 245      839BFF11 
 245      E1F7AAA2 
 245      5EBDDFDB 
 246 0370 A7E23BF6 		.ascii	"\247\342;\366\321{(J\241\263\0003H\306\223\314v>g\313"
 246      D17B284A 
 246      A1B30033 
 246      48C693CC 
 246      763E67CB 
 247 0384 34D34E1D 		.ascii	"4\323N\035_zL\211\204\277 \220F\344\017\2547X\352\336"
 247      5F7A4C89 
 247      84BF2090 
 247      46E40FAC 
 247      3758EADE 
 248 0398 5DFB7A7D 		.ascii	"]\373z}Mk\375{\201\246\240\341\332\361\366n_uU\025)"
 248      4D6BFD7B 
 248      81A6A0E1 
 248      DAF1F66E 
 248      5F755515 
 249 03ad 6A6B6A0E 		.ascii	"jkj\016n{q\207\321l\004\374A\243\261\276\266\245-\320"
 249      6E7B7187 
 249      D16C04FC 
 249      41A3B1BE 
 249      B6A52DD0 
 250 03c1 60EC79A7 		.ascii	"`\354y\247\266\245z\313\236\206\003\301\003\255\306"
 250      B6A57ACB 
 250      9E8603C1 
 250      03ADC6
 251 03d0 FECAF789 		.ascii	"\376\312\367\211\357)\025\202\264\262\201<#\351k\215"
 251      EF291582 
 251      B4B2813C 
 251      23E96B8D 
 252 03e0 604DA0E9 		.ascii	"`M\240\351C\343\255\226F\243X\256\3552\374\215\245\266"
 252      43E3AD96 
 252      46A358AE 
 252      ED32FC8D 
 252      A5B6
 253 03f2 798D3FE8 		.ascii	"y\215?\350\337e\354{\336\202\274\331\0344\002\201\266"
 253      DF65EC7B 
 253      DE82BCD9 
 253      1C340281 
 253      B6
 254 0403 D6208339 		.ascii	"\326 \2039\230\246\252\255\317\312\327\325\037\030\376"
 254      98A6AAAD 
 254      CFCAD7D5 
 254      1F18FE
 255 0412 40BE400B 		.ascii	"@\276@\013\030\373\266\375\013u%\375u"
 255      18FBB6FD 
 255      0B7525FD 
 255      75
ARM GAS  C:\Users\JEFFSN~1\AppData\Local\Temp\cccjU80Q.s 			page 19


 256              		.text
 257              		.section	.gnu.lto_.symtab.807d5088,"",%progbits
 258 0000 5553425F 		.ascii	"USB_Dp_Write\000"
 258      44705F57 
 258      72697465 
 258      00
 259 000d 00       		.ascii	"\000"
 260 000e 00       		.ascii	"\000"
 261 000f 00       		.ascii	"\000"
 262 0010 00000000 		.ascii	"\000\000\000\000\000\000\000\000"
 262      00000000 
 263 0018 B3000000 		.ascii	"\263\000\000\000"
 264 001c 5553425F 		.ascii	"USB_Dp_SetDriveMode\000"
 264      44705F53 
 264      65744472 
 264      6976654D 
 264      6F646500 
 265 0030 00       		.ascii	"\000"
 266 0031 00       		.ascii	"\000"
 267 0032 00       		.ascii	"\000"
 268 0033 00000000 		.ascii	"\000\000\000\000\000\000\000\000"
 268      00000000 
 269 003b B5000000 		.ascii	"\265\000\000\000"
 270 003f 5553425F 		.ascii	"USB_Dp_Read\000"
 270      44705F52 
 270      65616400 
 271 004b 00       		.ascii	"\000"
 272 004c 00       		.ascii	"\000"
 273 004d 00       		.ascii	"\000"
 274 004e 00000000 		.ascii	"\000\000\000\000\000\000\000\000"
 274      00000000 
 275 0056 B8000000 		.ascii	"\270\000\000\000"
 276 005a 5553425F 		.ascii	"USB_Dp_ReadDataReg\000"
 276      44705F52 
 276      65616444 
 276      61746152 
 276      656700
 277 006d 00       		.ascii	"\000"
 278 006e 00       		.ascii	"\000"
 279 006f 00       		.ascii	"\000"
 280 0070 00000000 		.ascii	"\000\000\000\000\000\000\000\000"
 280      00000000 
 281 0078 BA000000 		.ascii	"\272\000\000\000"
 282 007c 5553425F 		.ascii	"USB_Dp_SetInterruptMode\000"
 282      44705F53 
 282      6574496E 
 282      74657272 
 282      7570744D 
 283 0094 00       		.ascii	"\000"
 284 0095 00       		.ascii	"\000"
 285 0096 00       		.ascii	"\000"
 286 0097 00000000 		.ascii	"\000\000\000\000\000\000\000\000"
 286      00000000 
 287 009f C6000000 		.ascii	"\306\000\000\000"
 288 00a3 5553425F 		.ascii	"USB_Dp_ClearInterrupt\000"
 288      44705F43 
 288      6C656172 
ARM GAS  C:\Users\JEFFSN~1\AppData\Local\Temp\cccjU80Q.s 			page 20


 288      496E7465 
 288      72727570 
 289 00b9 00       		.ascii	"\000"
 290 00ba 00       		.ascii	"\000"
 291 00bb 00       		.ascii	"\000"
 292 00bc 00000000 		.ascii	"\000\000\000\000\000\000\000\000"
 292      00000000 
 293 00c4 C8000000 		.ascii	"\310\000\000\000"
 294              		.text
 295              		.section	.gnu.lto_.opts,"",%progbits
 296 0000 272D666D 		.ascii	"'-fmath-errno' '-fsigned-zeros' '-ftrapping-math' '"
 296      6174682D 
 296      6572726E 
 296      6F272027 
 296      2D667369 
 297 0033 2D666E6F 		.ascii	"-fno-trapv' '-fno-openmp' '-fno-openacc' '-mcpu=cor"
 297      2D747261 
 297      70762720 
 297      272D666E 
 297      6F2D6F70 
 298 0066 7465782D 		.ascii	"tex-m3' '-mthumb' '-g' '-O3' '-ffunction-sections' "
 298      6D332720 
 298      272D6D74 
 298      68756D62 
 298      2720272D 
 299 0099 272D6666 		.ascii	"'-ffat-lto-objects' '-finline-functions' '-flto'\000"
 299      61742D6C 
 299      746F2D6F 
 299      626A6563 
 299      74732720 
 300              		.text
 301              		.cfi_sections	.debug_frame
 302              		.section	.text.USB_Dp_Write,"ax",%progbits
 303              		.align	2
 304              		.global	USB_Dp_Write
 305              		.thumb
 306              		.thumb_func
 307              		.type	USB_Dp_Write, %function
 308              	USB_Dp_Write:
 309              	.LFB0:
 310              		.file 1 "Generated_Source\\PSoC5\\USB_Dp.c"
   1:Generated_Source\PSoC5/USB_Dp.c **** /*******************************************************************************
   2:Generated_Source\PSoC5/USB_Dp.c **** * File Name: USB_Dp.c  
   3:Generated_Source\PSoC5/USB_Dp.c **** * Version 2.20
   4:Generated_Source\PSoC5/USB_Dp.c **** *
   5:Generated_Source\PSoC5/USB_Dp.c **** * Description:
   6:Generated_Source\PSoC5/USB_Dp.c **** *  This file contains API to enable firmware control of a Pins component.
   7:Generated_Source\PSoC5/USB_Dp.c **** *
   8:Generated_Source\PSoC5/USB_Dp.c **** * Note:
   9:Generated_Source\PSoC5/USB_Dp.c **** *
  10:Generated_Source\PSoC5/USB_Dp.c **** ********************************************************************************
  11:Generated_Source\PSoC5/USB_Dp.c **** * Copyright 2008-2015, Cypress Semiconductor Corporation.  All rights reserved.
  12:Generated_Source\PSoC5/USB_Dp.c **** * You may use this file only in accordance with the license, terms, conditions, 
  13:Generated_Source\PSoC5/USB_Dp.c **** * disclaimers, and limitations in the end user license agreement accompanying 
  14:Generated_Source\PSoC5/USB_Dp.c **** * the software package with which this file was provided.
  15:Generated_Source\PSoC5/USB_Dp.c **** *******************************************************************************/
  16:Generated_Source\PSoC5/USB_Dp.c **** 
ARM GAS  C:\Users\JEFFSN~1\AppData\Local\Temp\cccjU80Q.s 			page 21


  17:Generated_Source\PSoC5/USB_Dp.c **** #include "cytypes.h"
  18:Generated_Source\PSoC5/USB_Dp.c **** #include "USB_Dp.h"
  19:Generated_Source\PSoC5/USB_Dp.c **** 
  20:Generated_Source\PSoC5/USB_Dp.c **** /* APIs are not generated for P15[7:6] on PSoC 5 */
  21:Generated_Source\PSoC5/USB_Dp.c **** #if !(CY_PSOC5A &&\
  22:Generated_Source\PSoC5/USB_Dp.c **** 	 USB_Dp__PORT == 15 && ((USB_Dp__MASK & 0xC0) != 0))
  23:Generated_Source\PSoC5/USB_Dp.c **** 
  24:Generated_Source\PSoC5/USB_Dp.c **** 
  25:Generated_Source\PSoC5/USB_Dp.c **** /*******************************************************************************
  26:Generated_Source\PSoC5/USB_Dp.c **** * Function Name: USB_Dp_Write
  27:Generated_Source\PSoC5/USB_Dp.c **** ****************************************************************************//**
  28:Generated_Source\PSoC5/USB_Dp.c **** *
  29:Generated_Source\PSoC5/USB_Dp.c **** * \brief Writes the value to the physical port (data output register), masking
  30:Generated_Source\PSoC5/USB_Dp.c **** *  and shifting the bits appropriately. 
  31:Generated_Source\PSoC5/USB_Dp.c **** *
  32:Generated_Source\PSoC5/USB_Dp.c **** * The data output register controls the signal applied to the physical pin in 
  33:Generated_Source\PSoC5/USB_Dp.c **** * conjunction with the drive mode parameter. This function avoids changing 
  34:Generated_Source\PSoC5/USB_Dp.c **** * other bits in the port by using the appropriate method (read-modify-write or
  35:Generated_Source\PSoC5/USB_Dp.c **** * bit banding).
  36:Generated_Source\PSoC5/USB_Dp.c **** *
  37:Generated_Source\PSoC5/USB_Dp.c **** * <b>Note</b> This function should not be used on a hardware digital output pin 
  38:Generated_Source\PSoC5/USB_Dp.c **** * as it is driven by the hardware signal attached to it.
  39:Generated_Source\PSoC5/USB_Dp.c **** *
  40:Generated_Source\PSoC5/USB_Dp.c **** * \param value
  41:Generated_Source\PSoC5/USB_Dp.c **** *  Value to write to the component instance.
  42:Generated_Source\PSoC5/USB_Dp.c **** *
  43:Generated_Source\PSoC5/USB_Dp.c **** * \return 
  44:Generated_Source\PSoC5/USB_Dp.c **** *  None 
  45:Generated_Source\PSoC5/USB_Dp.c **** *
  46:Generated_Source\PSoC5/USB_Dp.c **** * \sideeffect
  47:Generated_Source\PSoC5/USB_Dp.c **** *  If you use read-modify-write operations that are not atomic; the Interrupt 
  48:Generated_Source\PSoC5/USB_Dp.c **** *  Service Routines (ISR) can cause corruption of this function. An ISR that 
  49:Generated_Source\PSoC5/USB_Dp.c **** *  interrupts this function and performs writes to the Pins component data 
  50:Generated_Source\PSoC5/USB_Dp.c **** *  register can cause corrupted port data. To avoid this issue, you should 
  51:Generated_Source\PSoC5/USB_Dp.c **** *  either use the Per-Pin APIs (primary method) or disable interrupts around 
  52:Generated_Source\PSoC5/USB_Dp.c **** *  this function.
  53:Generated_Source\PSoC5/USB_Dp.c **** *
  54:Generated_Source\PSoC5/USB_Dp.c **** * \funcusage
  55:Generated_Source\PSoC5/USB_Dp.c **** *  \snippet USB_Dp_SUT.c usage_USB_Dp_Write
  56:Generated_Source\PSoC5/USB_Dp.c **** *******************************************************************************/
  57:Generated_Source\PSoC5/USB_Dp.c **** void USB_Dp_Write(uint8 value)
  58:Generated_Source\PSoC5/USB_Dp.c **** {
 311              		.loc 1 58 0
 312              		.cfi_startproc
 313              		@ args = 0, pretend = 0, frame = 0
 314              		@ frame_needed = 0, uses_anonymous_args = 0
 315              		@ link register save eliminated.
 316              	.LVL0:
  59:Generated_Source\PSoC5/USB_Dp.c ****     uint8 staticBits = (USB_Dp_DR & (uint8)(~USB_Dp_MASK));
 317              		.loc 1 59 0
 318 0000 044A     		ldr	r2, .L2
  60:Generated_Source\PSoC5/USB_Dp.c ****     USB_Dp_DR = staticBits | ((uint8)(value << USB_Dp_SHIFT) & USB_Dp_MASK);
 319              		.loc 1 60 0
 320 0002 8001     		lsls	r0, r0, #6
 321              	.LVL1:
  59:Generated_Source\PSoC5/USB_Dp.c ****     uint8 staticBits = (USB_Dp_DR & (uint8)(~USB_Dp_MASK));
 322              		.loc 1 59 0
ARM GAS  C:\Users\JEFFSN~1\AppData\Local\Temp\cccjU80Q.s 			page 22


 323 0004 1378     		ldrb	r3, [r2]	@ zero_extendqisi2
 324              	.LVL2:
 325              		.loc 1 60 0
 326 0006 00F04000 		and	r0, r0, #64
 327 000a 03F0BF03 		and	r3, r3, #191
 328              	.LVL3:
 329 000e 1843     		orrs	r0, r0, r3
 330 0010 1070     		strb	r0, [r2]
 331 0012 7047     		bx	lr
 332              	.L3:
 333              		.align	2
 334              	.L2:
 335 0014 F0510040 		.word	1073762800
 336              		.cfi_endproc
 337              	.LFE0:
 338              		.size	USB_Dp_Write, .-USB_Dp_Write
 339              		.section	.text.USB_Dp_SetDriveMode,"ax",%progbits
 340              		.align	2
 341              		.global	USB_Dp_SetDriveMode
 342              		.thumb
 343              		.thumb_func
 344              		.type	USB_Dp_SetDriveMode, %function
 345              	USB_Dp_SetDriveMode:
 346              	.LFB1:
  61:Generated_Source\PSoC5/USB_Dp.c **** }
  62:Generated_Source\PSoC5/USB_Dp.c **** 
  63:Generated_Source\PSoC5/USB_Dp.c **** 
  64:Generated_Source\PSoC5/USB_Dp.c **** /*******************************************************************************
  65:Generated_Source\PSoC5/USB_Dp.c **** * Function Name: USB_Dp_SetDriveMode
  66:Generated_Source\PSoC5/USB_Dp.c **** ****************************************************************************//**
  67:Generated_Source\PSoC5/USB_Dp.c **** *
  68:Generated_Source\PSoC5/USB_Dp.c **** * \brief Sets the drive mode for each of the Pins component's pins.
  69:Generated_Source\PSoC5/USB_Dp.c **** * 
  70:Generated_Source\PSoC5/USB_Dp.c **** * <b>Note</b> This affects all pins in the Pins component instance. Use the
  71:Generated_Source\PSoC5/USB_Dp.c **** * Per-Pin APIs if you wish to control individual pin's drive modes.
  72:Generated_Source\PSoC5/USB_Dp.c **** *
  73:Generated_Source\PSoC5/USB_Dp.c **** * \param mode
  74:Generated_Source\PSoC5/USB_Dp.c **** *  Mode for the selected signals. Valid options are documented in 
  75:Generated_Source\PSoC5/USB_Dp.c **** *  \ref driveMode.
  76:Generated_Source\PSoC5/USB_Dp.c **** *
  77:Generated_Source\PSoC5/USB_Dp.c **** * \return
  78:Generated_Source\PSoC5/USB_Dp.c **** *  None
  79:Generated_Source\PSoC5/USB_Dp.c **** *
  80:Generated_Source\PSoC5/USB_Dp.c **** * \sideeffect
  81:Generated_Source\PSoC5/USB_Dp.c **** *  If you use read-modify-write operations that are not atomic, the ISR can
  82:Generated_Source\PSoC5/USB_Dp.c **** *  cause corruption of this function. An ISR that interrupts this function 
  83:Generated_Source\PSoC5/USB_Dp.c **** *  and performs writes to the Pins component Drive Mode registers can cause 
  84:Generated_Source\PSoC5/USB_Dp.c **** *  corrupted port data. To avoid this issue, you should either use the Per-Pin
  85:Generated_Source\PSoC5/USB_Dp.c **** *  APIs (primary method) or disable interrupts around this function.
  86:Generated_Source\PSoC5/USB_Dp.c **** *
  87:Generated_Source\PSoC5/USB_Dp.c **** * \funcusage
  88:Generated_Source\PSoC5/USB_Dp.c **** *  \snippet USB_Dp_SUT.c usage_USB_Dp_SetDriveMode
  89:Generated_Source\PSoC5/USB_Dp.c **** *******************************************************************************/
  90:Generated_Source\PSoC5/USB_Dp.c **** void USB_Dp_SetDriveMode(uint8 mode)
  91:Generated_Source\PSoC5/USB_Dp.c **** {
 347              		.loc 1 91 0
 348              		.cfi_startproc
ARM GAS  C:\Users\JEFFSN~1\AppData\Local\Temp\cccjU80Q.s 			page 23


 349              		@ args = 0, pretend = 0, frame = 0
 350              		@ frame_needed = 0, uses_anonymous_args = 0
 351              		@ link register save eliminated.
 352              	.LVL4:
  92:Generated_Source\PSoC5/USB_Dp.c **** 	CyPins_SetPinDriveMode(USB_Dp_0, mode);
 353              		.loc 1 92 0
 354 0000 044A     		ldr	r2, .L5
 355 0002 00F00E00 		and	r0, r0, #14
 356              	.LVL5:
 357 0006 1378     		ldrb	r3, [r2]	@ zero_extendqisi2
 358 0008 03F0F103 		and	r3, r3, #241
 359 000c 1843     		orrs	r0, r0, r3
 360 000e 1070     		strb	r0, [r2]
 361 0010 7047     		bx	lr
 362              	.L6:
 363 0012 00BF     		.align	2
 364              	.L5:
 365 0014 7E500040 		.word	1073762430
 366              		.cfi_endproc
 367              	.LFE1:
 368              		.size	USB_Dp_SetDriveMode, .-USB_Dp_SetDriveMode
 369              		.section	.text.USB_Dp_Read,"ax",%progbits
 370              		.align	2
 371              		.global	USB_Dp_Read
 372              		.thumb
 373              		.thumb_func
 374              		.type	USB_Dp_Read, %function
 375              	USB_Dp_Read:
 376              	.LFB2:
  93:Generated_Source\PSoC5/USB_Dp.c **** }
  94:Generated_Source\PSoC5/USB_Dp.c **** 
  95:Generated_Source\PSoC5/USB_Dp.c **** 
  96:Generated_Source\PSoC5/USB_Dp.c **** /*******************************************************************************
  97:Generated_Source\PSoC5/USB_Dp.c **** * Function Name: USB_Dp_Read
  98:Generated_Source\PSoC5/USB_Dp.c **** ****************************************************************************//**
  99:Generated_Source\PSoC5/USB_Dp.c **** *
 100:Generated_Source\PSoC5/USB_Dp.c **** * \brief Reads the associated physical port (pin status register) and masks 
 101:Generated_Source\PSoC5/USB_Dp.c **** *  the required bits according to the width and bit position of the component
 102:Generated_Source\PSoC5/USB_Dp.c **** *  instance. 
 103:Generated_Source\PSoC5/USB_Dp.c **** *
 104:Generated_Source\PSoC5/USB_Dp.c **** * The pin's status register returns the current logic level present on the 
 105:Generated_Source\PSoC5/USB_Dp.c **** * physical pin.
 106:Generated_Source\PSoC5/USB_Dp.c **** *
 107:Generated_Source\PSoC5/USB_Dp.c **** * \return 
 108:Generated_Source\PSoC5/USB_Dp.c **** *  The current value for the pins in the component as a right justified number.
 109:Generated_Source\PSoC5/USB_Dp.c **** *
 110:Generated_Source\PSoC5/USB_Dp.c **** * \funcusage
 111:Generated_Source\PSoC5/USB_Dp.c **** *  \snippet USB_Dp_SUT.c usage_USB_Dp_Read  
 112:Generated_Source\PSoC5/USB_Dp.c **** *******************************************************************************/
 113:Generated_Source\PSoC5/USB_Dp.c **** uint8 USB_Dp_Read(void)
 114:Generated_Source\PSoC5/USB_Dp.c **** {
 377              		.loc 1 114 0
 378              		.cfi_startproc
 379              		@ args = 0, pretend = 0, frame = 0
 380              		@ frame_needed = 0, uses_anonymous_args = 0
 381              		@ link register save eliminated.
 115:Generated_Source\PSoC5/USB_Dp.c ****     return (USB_Dp_PS & USB_Dp_MASK) >> USB_Dp_SHIFT;
ARM GAS  C:\Users\JEFFSN~1\AppData\Local\Temp\cccjU80Q.s 			page 24


 382              		.loc 1 115 0
 383 0000 024B     		ldr	r3, .L8
 384 0002 1878     		ldrb	r0, [r3]	@ zero_extendqisi2
 116:Generated_Source\PSoC5/USB_Dp.c **** }
 385              		.loc 1 116 0
 386 0004 C0F38010 		ubfx	r0, r0, #6, #1
 387 0008 7047     		bx	lr
 388              	.L9:
 389 000a 00BF     		.align	2
 390              	.L8:
 391 000c F1510040 		.word	1073762801
 392              		.cfi_endproc
 393              	.LFE2:
 394              		.size	USB_Dp_Read, .-USB_Dp_Read
 395              		.section	.text.USB_Dp_ReadDataReg,"ax",%progbits
 396              		.align	2
 397              		.global	USB_Dp_ReadDataReg
 398              		.thumb
 399              		.thumb_func
 400              		.type	USB_Dp_ReadDataReg, %function
 401              	USB_Dp_ReadDataReg:
 402              	.LFB3:
 117:Generated_Source\PSoC5/USB_Dp.c **** 
 118:Generated_Source\PSoC5/USB_Dp.c **** 
 119:Generated_Source\PSoC5/USB_Dp.c **** /*******************************************************************************
 120:Generated_Source\PSoC5/USB_Dp.c **** * Function Name: USB_Dp_ReadDataReg
 121:Generated_Source\PSoC5/USB_Dp.c **** ****************************************************************************//**
 122:Generated_Source\PSoC5/USB_Dp.c **** *
 123:Generated_Source\PSoC5/USB_Dp.c **** * \brief Reads the associated physical port's data output register and masks 
 124:Generated_Source\PSoC5/USB_Dp.c **** *  the correct bits according to the width and bit position of the component 
 125:Generated_Source\PSoC5/USB_Dp.c **** *  instance. 
 126:Generated_Source\PSoC5/USB_Dp.c **** *
 127:Generated_Source\PSoC5/USB_Dp.c **** * The data output register controls the signal applied to the physical pin in 
 128:Generated_Source\PSoC5/USB_Dp.c **** * conjunction with the drive mode parameter. This is not the same as the 
 129:Generated_Source\PSoC5/USB_Dp.c **** * preferred USB_Dp_Read() API because the 
 130:Generated_Source\PSoC5/USB_Dp.c **** * USB_Dp_ReadDataReg() reads the data register instead of the status 
 131:Generated_Source\PSoC5/USB_Dp.c **** * register. For output pins this is a useful function to determine the value 
 132:Generated_Source\PSoC5/USB_Dp.c **** * just written to the pin.
 133:Generated_Source\PSoC5/USB_Dp.c **** *
 134:Generated_Source\PSoC5/USB_Dp.c **** * \return 
 135:Generated_Source\PSoC5/USB_Dp.c **** *  The current value of the data register masked and shifted into a right 
 136:Generated_Source\PSoC5/USB_Dp.c **** *  justified number for the component instance.
 137:Generated_Source\PSoC5/USB_Dp.c **** *
 138:Generated_Source\PSoC5/USB_Dp.c **** * \funcusage
 139:Generated_Source\PSoC5/USB_Dp.c **** *  \snippet USB_Dp_SUT.c usage_USB_Dp_ReadDataReg 
 140:Generated_Source\PSoC5/USB_Dp.c **** *******************************************************************************/
 141:Generated_Source\PSoC5/USB_Dp.c **** uint8 USB_Dp_ReadDataReg(void)
 142:Generated_Source\PSoC5/USB_Dp.c **** {
 403              		.loc 1 142 0
 404              		.cfi_startproc
 405              		@ args = 0, pretend = 0, frame = 0
 406              		@ frame_needed = 0, uses_anonymous_args = 0
 407              		@ link register save eliminated.
 143:Generated_Source\PSoC5/USB_Dp.c ****     return (USB_Dp_DR & USB_Dp_MASK) >> USB_Dp_SHIFT;
 408              		.loc 1 143 0
 409 0000 024B     		ldr	r3, .L11
 410 0002 1878     		ldrb	r0, [r3]	@ zero_extendqisi2
ARM GAS  C:\Users\JEFFSN~1\AppData\Local\Temp\cccjU80Q.s 			page 25


 144:Generated_Source\PSoC5/USB_Dp.c **** }
 411              		.loc 1 144 0
 412 0004 C0F38010 		ubfx	r0, r0, #6, #1
 413 0008 7047     		bx	lr
 414              	.L12:
 415 000a 00BF     		.align	2
 416              	.L11:
 417 000c F0510040 		.word	1073762800
 418              		.cfi_endproc
 419              	.LFE3:
 420              		.size	USB_Dp_ReadDataReg, .-USB_Dp_ReadDataReg
 421              		.section	.text.USB_Dp_SetInterruptMode,"ax",%progbits
 422              		.align	2
 423              		.global	USB_Dp_SetInterruptMode
 424              		.thumb
 425              		.thumb_func
 426              		.type	USB_Dp_SetInterruptMode, %function
 427              	USB_Dp_SetInterruptMode:
 428              	.LFB4:
 145:Generated_Source\PSoC5/USB_Dp.c **** 
 146:Generated_Source\PSoC5/USB_Dp.c **** 
 147:Generated_Source\PSoC5/USB_Dp.c **** /* If interrupt is connected for this Pins component */ 
 148:Generated_Source\PSoC5/USB_Dp.c **** #if defined(USB_Dp_INTSTAT) 
 149:Generated_Source\PSoC5/USB_Dp.c **** 
 150:Generated_Source\PSoC5/USB_Dp.c ****     /*******************************************************************************
 151:Generated_Source\PSoC5/USB_Dp.c ****     * Function Name: USB_Dp_SetInterruptMode
 152:Generated_Source\PSoC5/USB_Dp.c ****     ****************************************************************************//**
 153:Generated_Source\PSoC5/USB_Dp.c ****     *
 154:Generated_Source\PSoC5/USB_Dp.c ****     * \brief Configures the interrupt mode for each of the Pins component's
 155:Generated_Source\PSoC5/USB_Dp.c ****     *  pins. Alternatively you may set the interrupt mode for all the pins
 156:Generated_Source\PSoC5/USB_Dp.c ****     *  specified in the Pins component.
 157:Generated_Source\PSoC5/USB_Dp.c ****     *
 158:Generated_Source\PSoC5/USB_Dp.c ****     *  <b>Note</b> The interrupt is port-wide and therefore any enabled pin
 159:Generated_Source\PSoC5/USB_Dp.c ****     *  interrupt may trigger it.
 160:Generated_Source\PSoC5/USB_Dp.c ****     *
 161:Generated_Source\PSoC5/USB_Dp.c ****     * \param position
 162:Generated_Source\PSoC5/USB_Dp.c ****     *  The pin position as listed in the Pins component. You may OR these to be 
 163:Generated_Source\PSoC5/USB_Dp.c ****     *  able to configure the interrupt mode of multiple pins within a Pins 
 164:Generated_Source\PSoC5/USB_Dp.c ****     *  component. Or you may use USB_Dp_INTR_ALL to configure the
 165:Generated_Source\PSoC5/USB_Dp.c ****     *  interrupt mode of all the pins in the Pins component.       
 166:Generated_Source\PSoC5/USB_Dp.c ****     *  - USB_Dp_0_INTR       (First pin in the list)
 167:Generated_Source\PSoC5/USB_Dp.c ****     *  - USB_Dp_1_INTR       (Second pin in the list)
 168:Generated_Source\PSoC5/USB_Dp.c ****     *  - ...
 169:Generated_Source\PSoC5/USB_Dp.c ****     *  - USB_Dp_INTR_ALL     (All pins in Pins component)
 170:Generated_Source\PSoC5/USB_Dp.c ****     *
 171:Generated_Source\PSoC5/USB_Dp.c ****     * \param mode
 172:Generated_Source\PSoC5/USB_Dp.c ****     *  Interrupt mode for the selected pins. Valid options are documented in
 173:Generated_Source\PSoC5/USB_Dp.c ****     *  \ref intrMode.
 174:Generated_Source\PSoC5/USB_Dp.c ****     *
 175:Generated_Source\PSoC5/USB_Dp.c ****     * \return 
 176:Generated_Source\PSoC5/USB_Dp.c ****     *  None
 177:Generated_Source\PSoC5/USB_Dp.c ****     *  
 178:Generated_Source\PSoC5/USB_Dp.c ****     * \sideeffect
 179:Generated_Source\PSoC5/USB_Dp.c ****     *  It is recommended that the interrupt be disabled before calling this 
 180:Generated_Source\PSoC5/USB_Dp.c ****     *  function to avoid unintended interrupt requests. Note that the interrupt
 181:Generated_Source\PSoC5/USB_Dp.c ****     *  type is port wide, and therefore will trigger for any enabled pin on the 
 182:Generated_Source\PSoC5/USB_Dp.c ****     *  port.
ARM GAS  C:\Users\JEFFSN~1\AppData\Local\Temp\cccjU80Q.s 			page 26


 183:Generated_Source\PSoC5/USB_Dp.c ****     *
 184:Generated_Source\PSoC5/USB_Dp.c ****     * \funcusage
 185:Generated_Source\PSoC5/USB_Dp.c ****     *  \snippet USB_Dp_SUT.c usage_USB_Dp_SetInterruptMode
 186:Generated_Source\PSoC5/USB_Dp.c ****     *******************************************************************************/
 187:Generated_Source\PSoC5/USB_Dp.c ****     void USB_Dp_SetInterruptMode(uint16 position, uint16 mode)
 188:Generated_Source\PSoC5/USB_Dp.c ****     {
 429              		.loc 1 188 0
 430              		.cfi_startproc
 431              		@ args = 0, pretend = 0, frame = 0
 432              		@ frame_needed = 0, uses_anonymous_args = 0
 433              		@ link register save eliminated.
 434              	.LVL6:
 189:Generated_Source\PSoC5/USB_Dp.c **** 		if((position & USB_Dp_0_INTR) != 0u) 
 435              		.loc 1 189 0
 436 0000 4306     		lsls	r3, r0, #25
 437 0002 02D5     		bpl	.L13
 190:Generated_Source\PSoC5/USB_Dp.c **** 		{ 
 191:Generated_Source\PSoC5/USB_Dp.c **** 			 USB_Dp_0_INTTYPE_REG = (uint8)mode; 
 438              		.loc 1 191 0
 439 0004 014B     		ldr	r3, .L19
 440 0006 C9B2     		uxtb	r1, r1
 441              	.LVL7:
 442 0008 1970     		strb	r1, [r3]
 443              	.L13:
 444 000a 7047     		bx	lr
 445              	.L20:
 446              		.align	2
 447              	.L19:
 448 000c 7E450040 		.word	1073759614
 449              		.cfi_endproc
 450              	.LFE4:
 451              		.size	USB_Dp_SetInterruptMode, .-USB_Dp_SetInterruptMode
 452              		.section	.text.USB_Dp_ClearInterrupt,"ax",%progbits
 453              		.align	2
 454              		.global	USB_Dp_ClearInterrupt
 455              		.thumb
 456              		.thumb_func
 457              		.type	USB_Dp_ClearInterrupt, %function
 458              	USB_Dp_ClearInterrupt:
 459              	.LFB5:
 192:Generated_Source\PSoC5/USB_Dp.c **** 		}
 193:Generated_Source\PSoC5/USB_Dp.c ****     }
 194:Generated_Source\PSoC5/USB_Dp.c ****     
 195:Generated_Source\PSoC5/USB_Dp.c ****     
 196:Generated_Source\PSoC5/USB_Dp.c ****     /*******************************************************************************
 197:Generated_Source\PSoC5/USB_Dp.c ****     * Function Name: USB_Dp_ClearInterrupt
 198:Generated_Source\PSoC5/USB_Dp.c ****     ****************************************************************************//**
 199:Generated_Source\PSoC5/USB_Dp.c ****     *
 200:Generated_Source\PSoC5/USB_Dp.c ****     * \brief Clears any active interrupts attached with the component and returns 
 201:Generated_Source\PSoC5/USB_Dp.c ****     *  the value of the interrupt status register allowing determination of which
 202:Generated_Source\PSoC5/USB_Dp.c ****     *  pins generated an interrupt event.
 203:Generated_Source\PSoC5/USB_Dp.c ****     *
 204:Generated_Source\PSoC5/USB_Dp.c ****     * \return 
 205:Generated_Source\PSoC5/USB_Dp.c ****     *  The right-shifted current value of the interrupt status register. Each pin 
 206:Generated_Source\PSoC5/USB_Dp.c ****     *  has one bit set if it generated an interrupt event. For example, bit 0 is 
 207:Generated_Source\PSoC5/USB_Dp.c ****     *  for pin 0 and bit 1 is for pin 1 of the Pins component.
 208:Generated_Source\PSoC5/USB_Dp.c ****     *  
ARM GAS  C:\Users\JEFFSN~1\AppData\Local\Temp\cccjU80Q.s 			page 27


 209:Generated_Source\PSoC5/USB_Dp.c ****     * \sideeffect
 210:Generated_Source\PSoC5/USB_Dp.c ****     *  Clears all bits of the physical port's interrupt status register, not just
 211:Generated_Source\PSoC5/USB_Dp.c ****     *  those associated with the Pins component.
 212:Generated_Source\PSoC5/USB_Dp.c ****     *
 213:Generated_Source\PSoC5/USB_Dp.c ****     * \funcusage
 214:Generated_Source\PSoC5/USB_Dp.c ****     *  \snippet USB_Dp_SUT.c usage_USB_Dp_ClearInterrupt
 215:Generated_Source\PSoC5/USB_Dp.c ****     *******************************************************************************/
 216:Generated_Source\PSoC5/USB_Dp.c ****     uint8 USB_Dp_ClearInterrupt(void)
 217:Generated_Source\PSoC5/USB_Dp.c ****     {
 460              		.loc 1 217 0
 461              		.cfi_startproc
 462              		@ args = 0, pretend = 0, frame = 0
 463              		@ frame_needed = 0, uses_anonymous_args = 0
 464              		@ link register save eliminated.
 218:Generated_Source\PSoC5/USB_Dp.c ****         return (USB_Dp_INTSTAT & USB_Dp_MASK) >> USB_Dp_SHIFT;
 465              		.loc 1 218 0
 466 0000 024B     		ldr	r3, .L22
 467 0002 1878     		ldrb	r0, [r3]	@ zero_extendqisi2
 219:Generated_Source\PSoC5/USB_Dp.c ****     }
 468              		.loc 1 219 0
 469 0004 C0F38010 		ubfx	r0, r0, #6, #1
 470 0008 7047     		bx	lr
 471              	.L23:
 472 000a 00BF     		.align	2
 473              	.L22:
 474 000c 8F450040 		.word	1073759631
 475              		.cfi_endproc
 476              	.LFE5:
 477              		.size	USB_Dp_ClearInterrupt, .-USB_Dp_ClearInterrupt
 478              		.text
 479              	.Letext0:
 480              		.file 2 "Generated_Source\\PSoC5\\cytypes.h"