ARM GAS  C:\Users\JEFFSN~1\AppData\Local\Temp\ccMJA9GM.s 			page 1


   1              		.syntax unified
   2              		.cpu cortex-m3
   3              		.fpu softvfp
   4              		.eabi_attribute 20, 1
   5              		.eabi_attribute 21, 1
   6              		.eabi_attribute 23, 3
   7              		.eabi_attribute 24, 1
   8              		.eabi_attribute 25, 1
   9              		.eabi_attribute 26, 1
  10              		.eabi_attribute 30, 2
  11              		.eabi_attribute 34, 1
  12              		.eabi_attribute 18, 4
  13              		.thumb
  14              		.syntax unified
  15              		.file	"USB_pm.c"
  16              		.text
  17              	.Ltext0:
  18              		.section	.gnu.lto_.profile.f743eb49,"",%progbits
  19 0000 789C6361 		.ascii	"x\234ca`d`e`\000\222\363\230\362\000\002\312\001\032"
  19      60646065 
  19      600092F3 
  19      98F20002 
  19      CA011A
  20              		.text
  21              		.section	.gnu.lto_.icf.f743eb49,"",%progbits
  22 0000 789C6361 		.ascii	"x\234ca`d\000\0015\006\004`c\230?\363\3201.\306\365"
  22      60640001 
  22      35060460 
  22      63983FF3 
  22      D0312EC6 
  23 0015 331FB430 		.ascii	"3\037\26401\365\267\0379\311\317r\367\300\266\363,\254"
  23      31F5B71F 
  23      39C9CF72 
  23      F7C0B6F3 
  23      2CAC
  24 0027 67BE5EDA 		.ascii	"g\276^\332\314\3016\345\336\211}\034\014\000W$\021\342"
  24      CCC136E5 
  24      DE897D1C 
  24      0C005724 
  24      11E2
  25              		.text
  26              		.section	.gnu.lto_.jmpfuncs.f743eb49,"",%progbits
  27 0000 789C6361 		.ascii	"x\234ca`d\000\201\303\014\010\300\012\"\200\302L \232"
  27      60640081 
  27      C30C08C0 
  27      0A2280C2 
  27      4C209A
  28 0013 8501C260 		.ascii	"\205\001\302`b\374\313\304\270\265\375\314F\256/L\255"
  28      62FCCBC4 
  28      B8B5FDCC 
  28      46AE2F4C 
  28      AD
  29 0024 CC0C8C8C 		.ascii	"\314\014\214\214\214\313\031e@\3020\032(=\255\365\320"
  29      8CCB1965 
  29      40C2301A 
  29      283DADF5 
  29      D0
ARM GAS  C:\Users\JEFFSN~1\AppData\Local\Temp\ccMJA9GM.s 			page 2


  30 0035 79768834 		.ascii	"yv\2104\003\343\012\250\364\012\204\364\331\211\273"
  30      03E30AA8 
  30      F40A84F4 
  30      D989BB
  31 0044 D840D28C 		.ascii	"\330@\322\214\214\234\214+A\302\014lP[\320\214\007j"
  31      8C9C8C2B 
  31      41C20C6C 
  31      505BD08C 
  31      076A
  32 0056 635C05D7 		.ascii	"c\\\005\327\267g~\317J\250\255L\214\2531\214\335z\372"
  32      B7677ECF 
  32      4AA8AD4C 
  32      8CAB318C 
  32      DD7AFA
  33 0069 C02DA8AD 		.ascii	"\300-\250\255\032\214k\300\3062\000\000G\273'\322"
  33      1A8C6BC0 
  33      C6320000 
  33      47BB27D2 
  34              		.text
  35              		.section	.gnu.lto_.inline.f743eb49,"",%progbits
  36 0000 789C6361 		.ascii	"x\234ca`d\000\201\263\014\010\300\312\300\300\302\303"
  36      60640081 
  36      B30C08C0 
  36      CAC0C0C2 
  36      C3
  37 0011 C8C00464 		.ascii	"\310\300\004d\262-\220\007Q\014\214\\ \202\201\231\011"
  37      B22D9007 
  37      510C8C5C 
  37      20828199 
  37      09
  38 0022 55988981 		.ascii	"U\230\211\201\203\027(\302\366A\017M%\210`a0\321\007"
  38      831728C2 
  38      F6410F4D 
  38      25886061 
  38      30D107
  39 0035 4ABABC6B 		.ascii	"J\272\274kbD\225e\342\0062&\370\201)\006|$\003\033\203"
  39      62449565 
  39      E2063226 
  39      F8812906 
  39      7C24031B 
  40 004a A90D90E9 		.ascii	"\251\015\220\351\261\353;\302\010\250n\204=xM`\000\000"
  40      B1EB3BC2 
  40      08A86E84 
  40      3D784D60 
  40      0000
  41 005c 07790D5A 		.ascii	"\007y\015Z"
  42              		.text
  43              		.section	.gnu.lto_.pureconst.f743eb49,"",%progbits
  44 0000 789C6361 		.ascii	"x\234ca`d\340f```e\220`d`\222b\221b\223\002\000\003"
  44      6064E066 
  44      60606065 
  44      90606460 
  44      92629162 
  45 0018 3E0089   		.ascii	">\000\211"
  46              		.text
  47              		.section	.gnu.lto_USB_DP_ISR.f743eb49,"",%progbits
  48 0000 789C6361 		.ascii	"x\234ca`d\000\201\025@\254\004\304\322@\314\310\314"
ARM GAS  C:\Users\JEFFSN~1\AppData\Local\Temp\ccMJA9GM.s 			page 3


  48      60640081 
  48      1540AC04 
  48      C4D240CC 
  48      C8CC
  49 0012 C0C834E1 		.ascii	"\300\3104\341\034\003C#\007\023##\210\321\300\301\310"
  49      1C034323 
  49      07132323 
  49      88D1C0C1 
  49      C8
  50 0023 50CFC458 		.ascii	"P\317\304X\317\370\225\351/\023\343\241\366g;\2314\227"
  50      CFF895E9 
  50      2F13E3A1 
  50      F6673B99 
  50      3497
  51 0035 3700C183 		.ascii	"7\000\301\203\247\327\230\032V\034`lef`\370\317\004"
  51      A7D7981A 
  51      561C606C 
  51      656660F8 
  51      CF04
  52 0047 36898171 		.ascii	"6\211\201q9\243&\003P\331\243\215\377\246\362\262\265"
  52      39A32603 
  52      50D9A38D 
  52      FFA6F2B2 
  52      B5
  53 0058 80942940 		.ascii	"\200\224)@$\031W0\262\201\254[\037t\240\341\377\377"
  53      24195730 
  53      B281AC5B 
  53      1F74A0E1 
  53      FFFF
  54 006a E686033B 		.ascii	"\346\206\003;\004\253\200\032?\000\345@\266|db\002\321"
  54      04AB801A 
  54      3F00E540 
  54      B67C6462 
  54      02D1
  55 007c CC2F189B 		.ascii	"\314/\030\233\017\334N\005)\006\031\263s\347\233\333"
  55      0FDC4E05 
  55      290619B3 
  55      73E79BDB 
  56 008c ECF57F1B 		.ascii	"\354\365\177\033:\032\032\004Z\231\031\3773\001M`\\"
  56      3A1A1A04 
  56      5A9919FF 
  56      33014D60 
  56      5C
  57 009d C958CFD0 		.ascii	"\311X\317\320\312\314\304\360\212\261\351\300WQ\260"
  57      CACCC4F0 
  57      8AB1E9C0 
  57      5751B0
  58 00ac 5210F800 		.ascii	"R\020\370\000\224\004\232\0004O\301=5/\265(\261$5%>"
  58      94049A00 
  58      344FC13D 
  58      352FB528 
  58      B1243525 
  59 00c1 38BFB428 		.ascii	"8\277\264(95& 8\337\3314&4\330)\276 W/\231\001\000L"
  59      39352620 
  59      38DFD934 
  59      2634D829 
  59      BE20572F 
ARM GAS  C:\Users\JEFFSN~1\AppData\Local\Temp\ccMJA9GM.s 			page 4


  60 00d9 0E49B6   		.ascii	"\016I\266"
  61              		.text
  62              		.section	.gnu.lto_USB_SaveConfig.f743eb49,"",%progbits
  63 0000 789C6361 		.ascii	"x\234ca`d\000\201\032 V\002bi fdf`d\232p\216\201\241"
  63      60640081 
  63      1A205602 
  63      62692066 
  63      64666064 
  64 0019 91838991 		.ascii	"\221\203\211\221\021\304h\340`d\250gb\254g\374\312\364"
  64      11C468E0 
  64      6064A867 
  64      62AC67FC 
  64      CAF4
  65 002b 9789F150 		.ascii	"\227\211\361P\373\263\235L\232\313\033\200\340A\353"
  65      FBB39D4C 
  65      9ACB1B80 
  65      E041EB
  66 003a 33838615 		.ascii	"3\203\206\025\007\030[\231\031\030\3763\201Mb`\\\316"
  66      07185B99 
  66      1918FE33 
  66      814D6260 
  66      5CCE
  67 004c A8C90054 		.ascii	"\250\311\000T\366h\343\277\251\274l- e\012\020I\306"
  67      F668E3BF 
  67      A9BC6C2D 
  67      20650A10 
  67      49C6
  68 005e 158C6C20 		.ascii	"\025\214l \353\326\007\035h\370\377\277\271\341\300"
  68      EBD6071D 
  68      68F8FFBF 
  68      B9E1C0
  69 006d 66B683DB 		.ascii	"f\266\203\333\330\2002\037\200\030d\317G&&\020\315\374"
  69      D880321F 
  69      801864CF 
  69      47262610 
  69      CDFC
  70 007f 8A9109A4 		.ascii	"\212\221\011\244\026l\334\007&F\220\030P\205\202{j^"
  70      166CDC07 
  70      26469018 
  70      5085827B 
  70      6A5E
  71 0091 6A516249 		.ascii	"jQbIjJ|p~iQrjL@p\276\263iLh\260S|A\256^2\003\000\324"
  71      6A4A7C70 
  71      7E695172 
  71      6A4C4070 
  71      BEB3694C 
  72 00b0 6938E1   		.ascii	"i8\341"
  73              		.text
  74              		.section	.gnu.lto_USB_RestoreConfig.f743eb49,"",%progbits
  75 0000 789C758F 		.ascii	"x\234u\217\277KBQ\024\307\317\271\367\372\224R\350\017"
  75      BF4B4251 
  75      14C7CFB9 
  75      F7FA9452 
  75      E80F
  76 0012 08913697 		.ascii	"\010\2216\227j\250\177\240\240\326H\332\004){CC\031"
  76      6AA87FA0 
  76      A0D648DA 
ARM GAS  C:\Users\JEFFSN~1\AppData\Local\Temp\ccMJA9GM.s 			page 5


  76      04297B43 
  76      4319
  77 0024 52F3BBF6 		.ascii	"R\363\273\366|T[Kn\341\250\375\024\307\347\364rh\264"
  77      7C545B4B 
  77      6EE1A8FD 
  77      14C7E7F4 
  77      7268B4
  78 0037 AD458272 		.ascii	"\255E\202r\220\010\011\243\032\014\364u\216\005\015"
  78      900809A3 
  78      1A0CF475 
  78      8E050D
  79 0046 D181CBB9 		.ascii	"\321\201\313\271|\357\347~\317\367(@\340\332\2406A}"
  79      7CEFE77E 
  79      CFF72840 
  79      E0DAA036 
  79      417D
  80 0058 860E0600 		.ascii	"\206\016\006\000\305Q\003 \027\022B\326\242\240G\324"
  80      C5510320 
  80      171242D6 
  80      A2A047D4 
  81 0068 DD14E8B0 		.ascii	"\335\024\350\260D\365-+D\276\350\020\202%\244B\013?"
  81      44F52D2B 
  81      44BEE810 
  81      8225A442 
  81      0B3F
  82 007a 445F607D 		.ascii	"D_`}\277\355\212xIS=8/\323\272\354\241#\001|1\034\001"
  82      BFED8A78 
  82      49533D38 
  82      2FD3BAEC 
  82      A123017C 
  83 0091 58C23810 		.ascii	"X\3028\020\326\252\016\216#F\236\261\330\367#\226\321"
  83      D6AA0E8E 
  83      23469EB1 
  83      D8F72396 
  83      D1
  84 00a2 E01C9565 		.ascii	"\340\034\225eO\373\276\255\2757\343z`\030\022\034Ir"
  84      4FFBBEAD 
  84      BD37E37A 
  84      6018121C 
  84      4972
  85 00b4 97101EF7 		.ascii	"\227\020\036\367*\004w\331\306z\241z_\015\362/[Jr,8"
  85      2A0477D9 
  85      C67AA17A 
  85      5F0DF22F 
  85      5B4A722C 
  86 00c9 F5DBE0BB 		.ascii	"\365\333\340\273p\244@\036\340\272\235f\320\352\353"
  86      70A4401E 
  86      E0BA9D66 
  86      D0EAEB
  87 00d8 03ADC748 		.ascii	"\003\255\307H;\244\014,w\362\255\306h\021Or:\307\272"
  87      3BA40C2C 
  87      77F2ADC6 
  87      68114F72 
  87      3AC7BA
  88 00eb C4330A7E 		.ascii	"\3043\012~\212\3434\377\034\213\010\217\230o\332k\277"
  88      8AE334FF 
  88      1C8B088F 
ARM GAS  C:\Users\JEFFSN~1\AppData\Local\Temp\ccMJA9GM.s 			page 6


  88      986FDA6B 
  88      BF
  89 00fc AE958EDB 		.ascii	"\256\225\216\333\213\260+\"\340\005s\300!$\324\242\362"
  89      8BB02B22 
  89      E00573C0 
  89      2124D4A2 
  89      F2
  90 010d 096DAF77 		.ascii	"\011m\257w\023f\370\357D\345S\016\300K\264h\201\000"
  90      1366F8EF 
  90      44E5530E 
  90      C04BB468 
  90      8100
  91 011f 30FB69FC 		.ascii	"0\373i\374\213\322vx\365\203\262\277\032.\371\214{\236"
  91      8BD27678 
  91      F583B2BF 
  91      1A2EF98C 
  91      7B9E
  92 0131 BF30FCC4 		.ascii	"\2770\374\304\325%G\222\211\215-\232[fvu\307\\O%2\273"
  92      D5254792 
  92      898D2D9A 
  92      5B667675 
  92      C75C4F25 
  93 0147 D9B4995C 		.ascii	"\331\264\231\\Jd\346g\223+\211\271\324\366\346d\032"
  93      4A64E667 
  93      932B89B9 
  93      D4F6E664 
  93      1A
  94 0158 BE007A8C 		.ascii	"\276\000z\214\216\220"
  94      8E90
  95              		.text
  96              		.section	.gnu.lto_USB_Suspend.f743eb49,"",%progbits
  97 0000 789C8D56 		.ascii	"x\234\215V]LTW\020>s\357\376\313.\220h q#H\341\301\207"
  97      5D4C5457 
  97      103E73EF 
  97      FECB2E90 
  97      68207123 
  98 0018 8A89E973 		.ascii	"\212\211\351s\223\366\241\351KcJ\232&\215\211Q\273o"
  98      93F6A1E9 
  98      4B634A9A 
  98      268D8951 
  98      BB6F
  99 002a 2D1A8A4D 		.ascii	"-\032\212M\323\027.\273,?6m\251ATlK\253\261P\001\371"
  99      D3172EBB 
  99      2C3F366D 
  99      A941546C 
  99      4BABB150 
 100 0040 29B4425B 		.ascii	")\264B[\271l\227\237\362\017U\212\205\026A\005\253\304"
 100      B96C979F 
 100      F20F558A 
 100      85164105 
 100      ABC4
 101 0052 B02D1A40 		.ascii	"\260-\032@a;s\316a\027\227\356\352Mv\366\356\335\231"
 101      613B73CE 
 101      611797EE 
 101      EA4D76F6 
 101      EEDD99
 102 0065 EF7CF39D 		.ascii	"\357|\363\235\2313\327\300\200\321\225hcl/~\277\210"
ARM GAS  C:\Users\JEFFSN~1\AppData\Local\Temp\ccMJA9GM.s 			page 7


 102      9933D7C0 
 102      80D19568 
 102      636C2F7E 
 102      BF88
 103 0077 1F303150 		.ascii	"\03701PJ\007\031\313\267(\212\03201\315f\250\354fL\213"
 103      4A0719CB 
 103      B7288A1A 
 103      3031CD66 
 103      A8EC664C 
 104 008c 53C1289E 		.ascii	"S\301(\236\033\326o\214\000t\243Y\200\345)\252\301\010"
 104      1BD66F8C 
 104      0074A359 
 104      80E529AA 
 104      C108
 105 009e 79F04059 		.ascii	"y\360@YU\300W4\333\252\354\252\322\360\272q{m\217V\255"
 105      55C05734 
 105      DBAAECAA 
 105      D2F0BA71 
 105      7B6D8F56 
 106 00b3 8357652C 		.ascii	"\203We,\250\360\325\030T\301.\206n_\006F\316X\325\347"
 106      A8F0D518 
 106      54C12E86 
 106      6E5F0646 
 106      CE58D5E7 
 107 00c7 80EEA74E 		.ascii	"\200\356\247N\037\037W3\316k\232[\323\037u\333Oiz~\252"
 107      1F1F5733 
 107      CE6B9A5B 
 107      D31F75DB 
 107      4F697A7E 
 108 00dc 5705A806 		.ascii	"W\005\250\006\025\303`\257\023\3668y0\372\3164\256\235"
 108      15C360AF 
 108      13F63879 
 108      30FACE34 
 108      AE9D
 109 00ee B49B0A08 		.ascii	"\264\233\012\010>\025\276\205\014\001\014\027\301\204"
 109      3E15BE85 
 109      0C010C17 
 109      C184
 110 00fc E9003DA9 		.ascii	"\351\000=\251\177]\327\202A\217\246/\233;*\034\317\033"
 110      7F5DD782 
 110      418FA62F 
 110      9B3B2A1C 
 110      CF1B
 111 010e 183D3432 		.ascii	"\030=42\257\252\230\320\250V\272\263\221\261\223q\220"
 111      AFAA98D0 
 111      A856BAB3 
 111      91B19371 
 111      90
 112 011f 49209348 		.ascii	"I \223Hf+\231md\222\310$\223\331N\306If\007\231\024"
 112      662B996D 
 112      6492C824 
 112      93D94EC6 
 112      49660799 
 113 0134 323BC9A4 		.ascii	"2;\311\244\221I'\223A\206\261\005\374\220(\001E\241"
 113      91492793 
 113      4186B105 
 113      FC902801 
ARM GAS  C:\Users\JEFFSN~1\AppData\Local\Temp\ccMJA9GM.s 			page 8


 113      45A1
 114 0146 6FF50E78 		.ascii	"o\365\016x\364`Q\022\261\363\250\006d\337\332:?a\316"
 114      F4605112 
 114      B1F3A806 
 114      64DFDA3A 
 114      3F61CE
 115 0159 5BD58A35 		.ascii	"[\325\2125-\301\253\032\202\012\221\256\201<\0147\262"
 115      2DC1AB1A 
 115      820A91AE 
 115      813C0C37 
 115      B2
 116 016a 1950781E 		.ascii	"\031Px\036H\027\275\331,\370V\216\017V\357\023\321F"
 116      4817BDD9 
 116      2CF8568E 
 116      0F56EF13 
 116      D146
 117 017c 8C2EF7FA 		.ascii	"\214.\367\372\206\314\213\212W5q\331>\257i\232\263\212"
 117      86CC8B8A 
 117      573571D9 
 117      3EAF699A 
 117      B38A
 118 018e 9FC57ABE 		.ascii	"\237\305z\276F\370\367F\346{\314\225\360E~\001\212n"
 118      46F8F746 
 118      E67BCC95 
 118      F0457E01 
 118      8A6E
 119 01a0 863A7042 		.ascii	"\206:pB-\240vp\011*\001\021\335\377\024\335\002\001"
 119      2DA07670 
 119      092A0111 
 119      DDFF14DD 
 119      0201
 120 01b2 48986C1A 		.ascii	"H\230l\032\012\006=\207\344\203\215+\250\300\240\036"
 120      0A063D87 
 120      E4838D2B 
 120      A8C0A01E 
 121 01c2 84EA0145 		.ascii	"\204\352\001Ee\001\223\212\321\213\015]n+yot\265p2O"
 121      6501938A 
 121      D18B0D5D 
 121      6E2B796F 
 121      74B57032 
 122 01d7 66662951 		.ascii	"ff)Q\305v\335\355\277\346\267\021!\215?\267B#\326I\003"
 122      C576DDED 
 122      BFE6B711 
 122      218D3FB7 
 122      4223D649 
 123 01ec 01E39F9F 		.ascii	"\001\343\237\237\\n(\261d\326\321^jo\322\2067!\3135"
 123      5C6E28B1 
 123      64D6D15E 
 123      6A6FD286 
 123      3721CB35 
 124 0200 5E28F01D 		.ascii	"^(\360\035d\242GKQ\177\243\215\026\001\274\2321\354"
 124      64A2474B 
 124      517FA38D 
 124      1601BC9A 
 124      31EC
 125 0212 0E14E895 		.ascii	"\016\024\350\225\275q\304a\363\252\266 \352\316\240"
 125      BD71C461 
ARM GAS  C:\Users\JEFFSN~1\AppData\Local\Temp\ccMJA9GM.s 			page 9


 125      F3AAB620 
 125      EACEA0
 126 0221 05F52482 		.ascii	"\005\365$\202\003\237\265\231D\254\025\276\007\247W"
 126      039FB599 
 126      44AC15BE 
 126      07A757
 127 0230 DD2234ED 		.ascii	"\335\"4\355\252y_dlE\257\257<W\212\245\210\245R\304"
 127      AA795F64 
 127      6C45AFAF 
 127      3C578AA5 
 127      88A552C4 
 128 0244 C2AA8B15 		.ascii	"\302\252\213\025JX\304\037B\"^\026\"z\036\233D\274M"
 128      4A58C41F 
 128      42225E16 
 128      227A1E9B 
 128      44BC4D
 129 0257 403CEA99 		.ascii	"@<\352\231m\217'\0103\004\031\264\242+.S\016R\247\250"
 129      6D8F2708 
 129      330419B4 
 129      A22B2E53 
 129      0E52A7A8 
 130 026b 686D8886 		.ascii	"hm\210\206\030<\245\177\243\245\024\027D\361\031\374"
 130      183CA57F 
 130      A3A51417 
 130      44F119FC 
 131 027b 28535AD7 		.ascii	"(SZ\327\334\216\333\363\023\245\344\020)\315\326| ("
 131      DC8EDBF3 
 131      13A5E410 
 131      29CDD67C 
 131      2028
 132 028d D9D1EBE1 		.ascii	"\331\321\353\341d_{\234H\251\254H\244\244\237\373\373"
 132      645F7B9C 
 132      48A9AC48 
 132      A4A49FFB 
 132      FB
 133 029e C286BAF8 		.ascii	"\302\206\272\3709D\342JDJ\016\001\321?^\326\250\210"
 133      3944E24A 
 133      444A0E01 
 133      D13F5ED6 
 133      A888
 134 02b0 949601DA 		.ascii	"\224\226\001\332#R\212\212\246\363\224$\247\256\332"
 134      23528A8A 
 134      A6F39424 
 134      A7AEDA
 135 02bf B7046642 		.ascii	"\267\004fB\254\302\354\210 \220\210\376\2334\214\032"
 135      ACC2EC88 
 135      209088FE 
 135      9B348C1A 
 136 02cf EDE30B26 		.ascii	"\355\343\013&r\015O\366\305\326\360\027\324\360I\321"
 136      720D4FF6 
 136      C5D6F017 
 136      D4F049D1 
 137 02df 6A4FCB5E 		.ascii	"jO\313^\330\2121\356\306Q\237Q\250V\"\013\341\301\211"
 137      D88A31EE 
 137      C6519F51 
 137      A856220B 
 137      E1C189
ARM GAS  C:\Users\JEFFSN~1\AppData\Local\Temp\ccMJA9GM.s 			page 10


 138 02f2 334DF1E1 		.ascii	"3M\361\341e\375\241e;\327I\027N\252\002a\233\000i\366"
 138      65FDA165 
 138      3BD74917 
 138      4EAA0261 
 138      9B0069F6 
 139 0306 77175A08 		.ascii	"w\027Z\010D\301z\355\342Y\270\313\247\2352\215g\355"
 139      44C17AED 
 139      E259B8CB 
 139      A79D328D 
 139      67ED
 140 0318 91EE583D 		.ascii	"\221\356X=\322\303{\204\316n\370\0252qe\221\314\375"
 140      D2C37B84 
 140      CE6EF815 
 140      32716591 
 140      CCFD
 141 032a DAA38249 		.ascii	"\332\243\202IR,\342\275\021j'\013\377\211\217\306\312"
 141      522CE2BD 
 141      116A270B 
 141      FF898FC6 
 141      CA
 142 033b EC62BBD7 		.ascii	"\354b\273\327\000\372\"\324\217\212\326\317\325O\026"
 142      00FA22D4 
 142      8F8AD6CF 
 142      D54F16
 143 034a 4DF914F5 		.ascii	"M\371\024\365\007D\005\207\032\332\216\002\015n\330"
 143      07440587 
 143      1ADA8E02 
 143      0D6ED8
 144 0359 8CB13A59 		.ascii	"\214\261:Y\301\333c\025\330P\004\177'\372o\342\0335"
 144      C1DB6315 
 144      D850047F 
 144      27FA6FE2 
 144      1B35
 145 036b 7A98F375 		.ascii	"z\230\363uJ\301\352\344)\260\203\246\321\324\352\210"
 145      4AC1EAE4 
 145      29B083A6 
 145      D1D4EA88 
 146 037b 6C991372 		.ascii	"l\231\023r\363{\203\347\257\332\302(#!\224Q\311aIrH"
 146      F37B83E7 
 146      AFDAC228 
 146      23219451 
 146      C9614972 
 147 0390 11108181 		.ascii	"\021\020\201\201\212\233\016\261\365\251\360[\004\245"
 147      8A9B0EB1 
 147      F5A9F05B 
 147      04A5
 148 039e A8605739 		.ascii	"\250`W9\245\024y\330_\372P@\356\244S\345\324R\265\244"
 148      A51479D8 
 148      5FFA5040 
 148      EEA453E5 
 148      D452B5A4 
 149 03b2 744176F1 		.ascii	"tAv\361\374\320\312\240#\214r-\2042\026!K\032Bl\222"
 149      FCD0CAA0 
 149      238C722D 
 149      84321621 
 149      4B1A426C 
 150 03c7 256AF4EF 		.ascii	"%j\364\357\234C\232\3400\272[@\244c\304\271o\006\316"
ARM GAS  C:\Users\JEFFSN~1\AppData\Local\Temp\ccMJA9GM.s 			page 11


 150      9C439AE0 
 150      30BA5B40 
 150      A463C4B9 
 150      6F06CE
 151 03da 6E11145A 		.ascii	"n\021\024Z$\205\262\372^K\030c<\204q=\202\001N\260\364"
 151      2485B2FA 
 151      5E4B1863 
 151      3C84713D 
 151      82014EB0 
 152 03ef 4D0CA205 		.ascii	"M\014\242\005\377\301\011d\360:\272\376\224:\232\240"
 152      FFC10964 
 152      F03ABAFE 
 152      943A9AA0 
 153 03ff 2E968543 		.ascii	".\226\205C\243\311\300\360\005\205\317\246\205\307\241"
 153      A3C9C0F0 
 153      0585CFA6 
 153      85C7A1
 154 040e D9F4AC8D 		.ascii	"\331\364\254\2156\031\253\321\376\014\017\243\277\370"
 154      3619ABD1 
 154      FE0C0FA3 
 154      BFF8
 155 041c 300A9DBE 		.ascii	"0\012\235\276\200\247\357\024\037\216\001\305(\007}"
 155      80A7EF14 
 155      1F8E01C5 
 155      28077D
 156 042b 81BEDCA7 		.ascii	"\201\276\334\247D\035K\006\004\271\201\314q\256\323"
 156      441D4B06 
 156      04B981CC 
 156      71AED3
 157 043a 18A2F782 		.ascii	"\030\242\367\202R\307\377{\343K\201\021\275\247\345"
 157      52C7FF7B 
 157      E34B8111 
 157      BDA7E5
 158 0449 4B01EAB7 		.ascii	"K\001\352\2678\354W#\207n<\037\272m+\037{T\361S\353"
 158      38EC5723 
 158      876E3C1F 
 158      BA6D2B1F 
 158      7B54F153 
 159 045e F4680E3A 		.ascii	"\364h\016:\201:&>U\327EN\200\233(\362\014\027\371\026"
 159      813A263E 
 159      55D7454E 
 159      809B28F2 
 159      0C17F916 
 160 0472 A683FFFB 		.ascii	"\246\203\377\373\375\301!\240\220D\300\027\250\333b"
 160      FDC121A0 
 160      9044C017 
 160      A8DB62
 161 0481 8716873B 		.ascii	"\207\026\207;\327Wh\376\372\376R\234\204\364\011\310"
 161      D75768FE 
 161      FAFE529C 
 161      84F409C8 
 162 0491 897B0FE7 		.ascii	"\211{\017\347\214a\310\331\020\344\034Br\210\273\340"
 162      8C61C8D9 
 162      10E41C42 
 162      7288BBE0 
 163 04a1 D6CFBEC6 		.ascii	"\326\317\276\306\363\241k\001\217'T\005\265K}\305\225"
 163      F3A16B01 
ARM GAS  C:\Users\JEFFSN~1\AppData\Local\Temp\ccMJA9GM.s 			page 12


 163      8F275405 
 163      B54B7DC5 
 163      95
 164 04b2 EDCA3998 		.ascii	"\355\3129\230\353z\373@\326\221c9\207]\373\367e\035"
 164      EB7AFB40 
 164      D6916339 
 164      875DFBF7 
 164      651D
 165 04c4 79F985FD 		.ascii	"y\371\205\375od\275t\340\350\273\273\017\263\004W\366"
 165      6F64BD74 
 165      E0E8BBBB 
 165      0FB30457 
 165      F6
 166 04d5 C143EFB8 		.ascii	"\301C\357\270^\315\316u\345\344\034;\232\373\336\177"
 166      5ECDCE75 
 166      E5E41C3B 
 166      9AFBDE7F 
 167 04e5 81CD68BD 		.ascii	"\201\315h\275"
 168              		.text
 169              		.section	.gnu.lto_USB_Resume.f743eb49,"",%progbits
 170 0000 789C9596 		.ascii	"x\234\225\226[LTW\024\206\367:gn\314\205\213E,\004\011"
 170      5B4C5457 
 170      1486F73A 
 170      676ECC85 
 170      8B452C04 
 171 0015 099854D3 		.ascii	"\011\230T\323\3266\246O}\253\017M\323\227\246\244}h"
 171      D636A64F 
 171      7DAB0F4D 
 171      D397A6A4 
 171      7D68
 172 0027 4C8CDA79 		.ascii	"L\214\332yk\321PL\332\276p`fP\214\326F\254\226\212\222"
 172      6BD1504C 
 172      DABE7060 
 172      66508CD6 
 172      46AC968A 
 173 003c 4AA9586C 		.ascii	"J\251Xla\270\250 \225\3038\242\334\035\005\264xA\260"
 173      61B8A820 
 173      95C338A2 
 173      DC1D05B4 
 173      7841B0
 174 004f 8097893A 		.ascii	"\200\227\211:\026\253\322\302t\255\275\317\014\303\340"
 174      16ABD2C2 
 174      74ADBDCF 
 174      0CC3E0
 175 005e A83DC9AC 		.ascii	"\250=\311\254\2319g\355\177}{\255\275\366\331:\006\214"
 175      993967ED 
 175      7F7D7BAD 
 175      BDF6D93A 
 175      068C
 176 0070 AEAFCC8C 		.ascii	"\256\257\314\214\255\302\357\325\370\001\003\003\351"
 176      ADC2EFD5 
 176      F8010303 
 176      E9
 177 007d DB3EC60A 		.ascii	"\333>\306\012M\222$\267d0\305\254\037Z\311\024\253,"
 177      4D9224B7 
 177      6430C5AC 
 177      1F5AC914 
ARM GAS  C:\Users\JEFFSN~1\AppData\Local\Temp\ccMJA9GM.s 			page 13


 177      AB2C
 178 008f E922FEE9 		.ascii	"\351\"\376\351@/\234\364\000\364C1\001+\220d\235\036"
 178      402F9CF4 
 178      00F44331 
 178      012B9064 
 178      9D1E
 179 00a1 0AE0A134 		.ascii	"\012\340\2414#\201g\313D\263\264\374\220\202\327\365"
 179      238167CB 
 179      44B3B4FC 
 179      9082D7F5 
 180 00b1 F1076F2A 		.ascii	"\361\007o*\325*\270d\306\202\022\217\310\340\020,g\350"
 180      D52AB864 
 180      C682128F 
 180      C8E0102C 
 180      67E8
 181 00c3 7620E02B 		.ascii	"v \340+\213\223\263\200~\217|\277\355\222\274\254RQ"
 181      8B93B380 
 181      7E8F7CBF 
 181      ED92BCAC 
 181      5251
 182 00d5 8A14755F 		.ascii	"\212\024u_\277m\257\242\026f\272d\200j\220q\030\254"
 182      BF6DAFA2 
 182      1666BA64 
 182      806A9071 
 182      18AC
 183 00e7 4A8737D2 		.ascii	"J\2077\322\371`\364\035s\317~g38I>\023\016\3032!\014"
 183      F960F41D 
 183      73CF7E67 
 183      3338493E 
 183      130EC332 
 184 00fd BF8001A7 		.ascii	"\277\200\001\247\004t\247\366CU\011\006\035\212Z\226"
 184      0474A7F6 
 184      43550906 
 184      1D8A5A96 
 185 010d D05E9FF2 		.ascii	"\320^\237\362\252\216\321M=s\311\222\221\214\211\214"
 185      AA8ED14D 
 185      3D73C992 
 185      918C898C 
 186 011d 998C858C 		.ascii	"\231\214\205\214\215L<\231D2Id\222\311,&\223B&\225L"
 186      8D4C3C99 
 186      44324964 
 186      92C92C26 
 186      93422695 
 187 0132 1A99A564 		.ascii	"\032\231\245d2\310d\221\311&\263\202\014c\367\361C\371"
 187      32C86491 
 187      C926B382 
 187      0C63F7F1 
 187      43F9
 188 0144 0848127D 		.ascii	"\010H\022}\3137\301\241V\354\\B`\016Y\207\340\315\315"
 188      CB37C1A1 
 188      56EC5C42 
 188      600E5987 
 188      E0CDCD
 189 0157 FECBC682 		.ascii	"\376\313\306\202\031e\253\242$\272d\234\030\361\326"
 189      1965ABA2 
 189      24BA649C 
 189      18F1D6
ARM GAS  C:\Users\JEFFSN~1\AppData\Local\Temp\ccMJA9GM.s 			page 14


 190 0166 40010ED7 		.ascii	"@\001\016\327\2611\220\370\024\220\024\275\331\004\024"
 190      B13190F8 
 190      149014BD 
 190      D90414
 191 0175 B504FCA5 		.ascii	"\265\004\374\245F1Z\217\243\367\270<\375\306)\311%\353"
 191      46315A8F 
 191      A3F7B83C 
 191      FDC629C9 
 191      25EB
 192 0187 79C6E68B 		.ascii	"y\306\346\213\351Kd\221\234\333=\203^s\005\354/T\370"
 192      E94B6491 
 192      9CDB3D83 
 192      5E7305EC 
 192      2F54F8
 193 019a 7D03FC8A 		.ascii	"}\003\374\212U9\002\351\374\3417\307\353JL+_\243\304"
 193      553902E9 
 193      FCE137C7 
 193      EB4A4C2B 
 193      5FA3C4
 194 01ad FE061530 		.ascii	"\376\006\0250\313\013\002\265\260\222\215\202\363\262"
 194      CB0B02B5 
 194      B0928D82 
 194      F3B2
 195 01bb 63FD5CB0 		.ascii	"c\375\\\260Z\177\363\023\033\005CF\250\003\221\373\200"
 195      5A7FF313 
 195      1B054346 
 195      A80391FB 
 195      80
 196 01cc 24B3960C 		.ascii	"$\263\226\014y\002<SuwKe\362\216\3442r\256\342\326\223"
 196      79023C53 
 196      75774B65 
 196      F28EE432 
 196      72AEE2D6 
 197 01e1 3B25F157 		.ascii	";%\361W9\345P\342\011\265thVOLN\\\007&\250\207tp\223"
 197      39E550E2 
 197      09B57468 
 197      564F4C4E 
 197      5C0726A8 
 198 01f9 24342004 		.ascii	"$4 \004>\367z\203\375@C\342\000+\332\210\2170\304\364"
 198      3EF77A83 
 198      FD4043E2 
 198      002BDA88 
 198      8F30C4F4 
 199 020d B6D9AEAF 		.ascii	"\266\331\256\257\005\22012\212\231G\371g\357\343j\253"
 199      05903132 
 199      8A9947F9 
 199      67EFE36A 
 199      AB
 200 021e F85BB5A5 		.ascii	"\370[\265\245P\241\354\372\373\247\373\342CQ,p\024\243"
 200      50A1ECFA 
 200      FBA7FBE2 
 200      43512C70 
 200      14A3
 201 0230 34F128C7 		.ascii	"4\361(\3070\012*:\036\033\204\234I(6z\317\024\233\304"
 201      300A2A3A 
 201      1E1B849C 
 201      4928367A 
ARM GAS  C:\Users\JEFFSN~1\AppData\Local\Temp\ccMJA9GM.s 			page 15


 201      CF149BC4 
 202 0244 14018E8B 		.ascii	"\024\001\216\213\240{@\233TL\261f\024C\011A\350y_(\232"
 202      A07B409B 
 202      544CB166 
 202      14430941 
 202      E8795F28 
 203 0259 71C4C19F 		.ascii	"q\304\301\237{\367Y\004Q\223F\264\273\266\3134\247\321"
 203      7BF75904 
 203      519346B4 
 203      BBB6CB34 
 203      A7D1
 204 026b 12D63811 		.ascii	"\022\3268\021\005dA\205\005\004\261\006\267r\000\213"
 204      05644185 
 204      0504B106 
 204      B772008B 
 205 027b 00B8D6FD 		.ascii	"\000\270\326\375\245\220\260\341\210\355\223#=\262 "
 205      A590B0E1 
 205      88ED9323 
 205      3DB220
 206 028a D8DF2E08 		.ascii	"\330\337.\010n4\266u\312s*\277\207UNF!\304\243\304\002"
 206      6E34B675 
 206      CA732ABF 
 206      87554E46 
 206      21C4A3C4 
 207 029f 8498A3DB 		.ascii	"\204\230\243\3338C\274`x\240%!\021G\374}\245\273M+\313"
 207      3843BC60 
 207      78A02521 
 207      1147FC7D 
 207      A5BB4D2B 
 208 02b4 6E2D09EA 		.ascii	"n-\011\352\301[U\3069\0215,\322\036\205\220\204\022"
 208      C15B55C6 
 208      3911352C 
 208      D21E8590 
 208      8412
 209 02c6 0B10628E 		.ascii	"\013\020b\216\366p\204$v\023\234j\351\005+\271/\354"
 209      F6708424 
 209      76139C6A 
 209      E9052BB9 
 209      2FEC
 210 02d8 0A6B105B 		.ascii	"\012k\020[\221\301)l1|\326\324\255\016\363%d\203W\300"
 210      91C1296C 
 210      317CD6D4 
 210      AD0EF325 
 210      648357C0 
 211 02ec 0BE9AED0 		.ascii	"\013\351\256\320\014\256\365|\"\020\222\321\253\310"
 211      0CAEF57C 
 211      221092D1 
 211      ABC8
 212 02fa 7DDEA317 		.ascii	"}\336\243\027S(Q\305\024\036\356*\253O\230\2038\035"
 212      532851C5 
 212      141EEE2A 
 212      AB4F9883 
 212      381D
 213 030c 86E81053 		.ascii	"\206\350\020S(j\371q\231\020X\374?\032\363\314\323\033"
 213      286AF971 
 213      991058FC 
 213      3F1AF3CC 
ARM GAS  C:\Users\JEFFSN~1\AppData\Local\Temp\ccMJA9GM.s 			page 16


 213      D31B
 214 031e F32C6F4C 		.ascii	"\363,oL\332\234\241\023\033\223\022T\354\227\204|\012"
 214      DA9CA113 
 214      1B931254 
 214      EC97847C 
 214      0A
 215 032f 22629079 		.ascii	"\"b\220y\031\212\011\327\3053\224\3023T\366\234\014"
 215      198A09D7 
 215      C53394C2 
 215      3354F69C 
 215      0C
 216 0340 758B0C85 		.ascii	"u\213\014\205\233\314\206]\337\023\221\241\331\036m"
 216      9BCC865D 
 216      DF1391A1 
 216      D91E6D
 217 034f 9DA53EAB 		.ascii	"\235\245>\253&\275Q\025M\023\376\247\203\217\324\004"
 217      26BD5115 
 217      4D13FEA7 
 217      838FD404 
 218 035f D16812F4 		.ascii	"\321h\022\364\275h\201\3739~\032\307w?\007\377\234\300"
 218      BD6881FB 
 218      397E1AC7 
 218      773F07FF 
 218      9CC0
 219 0371 6FADD87E 		.ascii	"o\255\330~\330,\360%\360E\340\017\365j\370K\237\025"
 219      D82CF025 
 219      F045E00F 
 219      F56AF84B 
 219      9F15
 220 0383 F17C147E 		.ascii	"\361|\024~\206\360\3679\353\312e\201\257\203\013/\212"
 220      86F0F739 
 220      EBCA6581 
 220      AF830B2F 
 220      8A
 221 0394 3FC0F133 		.ascii	"?\300\3613\030\337,\247\274q\232\377\017'\003\027\023"
 221      18DF2CA7 
 221      BC719AFF 
 221      0F270317 
 221      13
 222 03a5 C4EA3AA0 		.ascii	"\304\352:\240\365h\325O#\3436.\201K#\207\221\314`Xf"
 222      F568D54F 
 222      23E3362E 
 222      814B2387 
 222      91CC6058 
 223 03ba 48EC9025 		.ascii	"H\354\220%\345e5\2740\026\220\341\242`\230\252{4`\324"
 223      E56535BC 
 223      301690E1 
 223      A26098AA 
 223      7B3460D4 
 224 03ce 642BFF3A 		.ascii	"d+\377:vB'd\3135Yg`\326#\207d\337\346\262\227\302\262"
 224      76422764 
 224      CB355967 
 224      60D62387 
 224      64DFE6B2 
 225 03e5 7F08D9E1 		.ascii	"\177\010\331\341\177\357=\260\012\331s\014\206C\272"
 225      7FEF3DB0 
 225      0AD9730C 
ARM GAS  C:\Users\JEFFSN~1\AppData\Local\Temp\ccMJA9GM.s 			page 17


 225      8643BA
 226 03f4 33CE90EE 		.ascii	"3\316\220\356\216\340h\235\266\353Vk\315\340\3665\017"
 226      8EE0689D 
 226      B6EB566B 
 226      CDE0F635 
 226      0F
 227 0405 5A42BAAB 		.ascii	"ZB\272\253\270\356\345\260\356\025\324\015\361Mo\273"
 227      B8EEE5B0 
 227      EE15D40D 
 227      F14D6FBB 
 228 0415 DBAFF555 		.ascii	"\333\257\365U\026\216+\257\251\237\214\023R[5\251;>"
 228      168E2BAF 
 228      A99F8C13 
 228      525B35A9 
 228      3B3E
 229 0427 FFD988E4 		.ascii	"\377\331\210\344]\015\313\\\213\252D\266\2208:\321\331"
 229      5D0DCB5C 
 229      8BAA44B6 
 229      90383AD1 
 229      D9
 230 0438 61169550 		.ascii	"a\026\225P\000F\242J\021S\355:/E6_I3\261VRB\020_n\014"
 230      0046A24A 
 230      1153ED3A 
 230      2F45365F 
 230      4933B156 
 231 0452 46B5AD62 		.ascii	"F\265\255bK\217\233GJ\304w\303\030\255\244$\236\232"
 231      4B8F9B47 
 231      4AC477C3 
 231      18ADA424 
 231      9E9A
 232 0464 FBDEA650 		.ascii	"\373\336\246Pj\016\214\314\370\264\255n\2276\237\256"
 232      6A0E8CCC 
 232      F8B4AD6E 
 232      97369FAE 
 233 0474 60E58079 		.ascii	"`\345\200y~jn\204)\376\244\324\204\226\217\373\252\333"
 233      7E6A6E84 
 233      29FEA4D4 
 233      84968FFB 
 233      AADB
 234 0486 38FF24A3 		.ascii	"8\377$\2434\034I\345g\230\240\244\213>\3440\030Gd\006"
 234      341C49E5 
 234      6798A0A4 
 234      8B3EE430 
 234      18476406 
 235 049a 13948B15 		.ascii	"\023\224\213\025\221}\272\350)G\201E%2\360M\305\357"
 235      917DBAE8 
 235      29478145 
 235      2532F04D 
 235      C5EF
 236 04ac 1CEBE395 		.ascii	"\034\353\343\225R\012\351\376Kp\023w\234I\016s\213\022"
 236      520AE9FE 
 236      4B701377 
 236      9C490E73 
 236      8B12
 237 04be CCDFF977 		.ascii	"\314\337\371wv\274\254\351F\274\346u\354\236\205\037"
 237      76BCACE9 
 237      46BCE675 
ARM GAS  C:\Users\JEFFSN~1\AppData\Local\Temp\ccMJA9GM.s 			page 18


 237      EC9E851F 
 238 04ce 5F9E7458 		.ascii	"_\236tX\351\351\302 \311AI\317\251\3406?\277,f\344>"
 238      E9E9C220 
 238      C94149CF 
 238      A9E0363F 
 238      BF2C66E4 
 239 04e3 6D88E96D 		.ascii	"m\210\351m\020\336w4o\212\242\327NI\330\337C\322\323"
 239      10DE7734 
 239      6F8AA2D7 
 239      4E49D8DF 
 239      43D2D3
 240 04f6 AB9212C4 		.ascii	"\253\222\022\304\023\033\003?\216\302C\221K^\302nC\221"
 240      131B033F 
 240      8EC24391 
 240      4B5EC26E 
 240      4391
 241 0508 DAF031F7 		.ascii	"\332\3601\367\246\353>\356\224\250\202\233@\346\273"
 241      A6EB3EEE 
 241      94A8829B 
 241      40E6BB
 242 0517 F65C7BDE 		.ascii	"\366\\{\336\272|\373\247ks6n\316\333`_\363A\316\306"
 242      BA7CFBA7 
 242      6B73366E 
 242      CEDB605F 
 242      F341CEC6 
 243 052b D56FADF9 		.ascii	"\325o\255\371(\347\235\265\233>\177}\003K\264\347\256"
 243      28E79DB5 
 243      9B3E7F7D 
 243      034BB4E7 
 243      AE
 244 053c 5BFF99FD 		.ascii	"[\377\231\375\275\334|{^\336\346M\371_\374\007,\343"
 244      BDDC7C7B 
 244      5EDEE64D 
 244      F95FFC07 
 244      2CE3
 245 054e 973D     		.ascii	"\227="
 246              		.text
 247              		.section	.gnu.lto_.symbol_nodes.f743eb49,"",%progbits
 248 0000 789C558C 		.ascii	"x\234U\214\275\016AA\020F\277\331\331\273\367_\341\005"
 248      BD0E4141 
 248      1046BFD9 
 248      D9BBF75F 
 248      E105
 249 0012 F00EDE4E 		.ascii	"\360\016\336N1\267\020\205B$\022Op\037\201F-\012\022"
 249      31B71085 
 249      4224124F 
 249      701F8146 
 249      2D0A12
 250 0025 8D844641 		.ascii	"\215\204FA\262\245g\020\273\334\302T'\347L\276\261 "
 250      B2A56710 
 250      BBDCC254 
 250      27E74CBE 
 250      B120
 251 0037 4C088021 		.ascii	"L\010\200!\001\226g `\327\214B0B:\260\030\025\222\024"
 251      01966720 
 251      60D78C42 
 251      30423AB0 
ARM GAS  C:\Users\JEFFSN~1\AppData\Local\Temp\ccMJA9GM.s 			page 19


 251      18159214 
 252 004b C3B8B4C2 		.ascii	"\303\270\264\302\272\203\232>\300&\021\253\016\344$"
 252      BA839A3E 
 252      C02611AB 
 252      0EE424
 253 005a F906A069 		.ascii	"\371\006\240i\302\224rq\3123I\225\327\222)\257$W^J\241"
 253      C2947271 
 253      CA334995 
 253      D79229AF 
 253      24575E4A 
 254 006f BC905279 		.ascii	"\274\220RyO\252\177g\244h\037ob\223\303o\306l2L\267"
 254      4FAA7F67 
 254      A4681F6F 
 254      6293C36F 
 254      C66C324C 
 255 0084 63B6F5AF 		.ascii	"c\266\365\257\332\012\376Y\263-\341gw\212\334\317\177"
 255      DA0AFE59 
 255      B32DE167 
 255      778ADCCF 
 255      7F
 256 0095 6C179DAF 		.ascii	"l\027\235\257\"\013L\327\257\001\333\360,\322us\027"
 256      220B4CD7 
 256      AF01DBF0 
 256      2CD27573 
 256      17
 257 00a6 EEC7838B 		.ascii	"\356\307\203\213\364\247\216\347\310\036\332Kd\216\366"
 257      F4A78EE7 
 257      C81EDA4B 
 257      648EF6
 258 00b5 7A33EC32 		.ascii	"z3\3542\354\277,\340\303\036\037\361WXl"
 258      ECBF2CE0 
 258      C31E1FF1 
 258      57586C
 259              		.text
 260              		.section	.gnu.lto_.refs.f743eb49,"",%progbits
 261 0000 789C05C1 		.ascii	"x\234\005\301\301\001\000 \010\003\261\253\245L\200"
 261      C1010020 
 261      0803B1AB 
 261      A54C80
 262 000f 3FFFECBF 		.ascii	"?\377\354\277\241I!\036\240\203\345RZ\271\312\272\211"
 262      A149211E 
 262      A083E552 
 262      5AB9CABA 
 262      89
 263 0020 C9E0E503 		.ascii	"\311\340\345\003\014\036\000\330"
 263      0C1E00D8 
 264              		.text
 265              		.section	.gnu.lto_.decls.f743eb49,"",%progbits
 266 0000 789C8D56 		.ascii	"x\234\215VmPT\327\031\276\347\236e\201\335\005\2546"
 266      6D5054D7 
 266      19BEE79E 
 266      6581DD05 
 266      AC36
 267 0012 197FD086 		.ascii	"\031\177\320\206fH\340Ol\215m'\323\037m\315\232\246"
 267      6648E04F 
 267      6C8D6D27 
 267      D31F6DCD 
ARM GAS  C:\Users\JEFFSN~1\AppData\Local\Temp\ccMJA9GM.s 			page 20


 267      9AA6
 268 0024 4ED38C23 		.ascii	"N\323\214#\301\376\311\014E\334ZZ\004\012K\246\314t"
 268      C1FEC90C 
 268      45DC5A5A 
 268      040A4BA6 
 268      CC74
 269 0036 D213B1A0 		.ascii	"\322\023\261\240mGq\254\370\205\005%4\250\010\010\006"
 269      6D4771AC 
 269      F8850525 
 269      34A80808 
 269      06
 270 0047 5C455C89 		.ascii	"\\E\\\211\"\260\242\200\240\210\313\207\001\252\004"
 270      22B0A280 
 270      A088CB87 
 270      01AA04
 271 0056 30AC7C49 		.ascii	"0\254|I\020\350{\336s.w\227@\3333\274\3139\347\276\357"
 271      10E87BDE 
 271      732E7797 
 271      40DB33BC 
 271      CB39E7BE 
 272 006b F33CEF73 		.ascii	"\363<\357s\317\356\275\006\205(||\333\242(\2230}GU\224"
 272      CFEEBD06 
 272      85287C7C 
 272      DBA22893 
 272      307D4755 
 273 0080 791846D8 		.ascii	"y\030F\330\333\002A!\316BT@8\0241\202 j \234\020\265"
 273      DB024121 
 273      CE425440 
 273      38143182 
 273      206A209C 
 274 0096 10D720EA 		.ascii	"\020\327 \352 \032 \\\020M\020-\020\355\020\367 \356"
 274      201A205C 
 274      104D102D 
 274      10ED10F7 
 274      20EE
 275 00a8 43744100 		.ascii	"CtA\000\264\322\0131\244\370\216\032\311\303\371\206"
 275      B4D20B31 
 275      A4F88E1A 
 275      C9C3F986 
 276 00b8 21EAE5BE 		.ascii	"!\352\345\276*\2575(_\037\234\233\310\032E\316\235K"
 276      2AAF3528 
 276      5F1F9C9B 
 276      C81A45CE 
 276      9D4B
 277 00ca E4717D5A 		.ascii	"\344q}Z/\241\020#\020=\020O .\313\034*\363\232\244~"
 277      2FA11023 
 277      103D104F 
 277      202ECB1C 
 277      2AF39AA4 
 278 00df 22757A0F 		.ascii	"\"uz\017\336\343J\211S!\261<^z' \306 &!\006!\246 \232"
 278      DEE34A89 
 278      5321B13C 
 278      5E7A2720 
 278      C6202621 
 279 00f8 219E29C2 		.ascii	"!\236)\302\2776\210Y\210\031\210\010\331\333\000D\277"
 279      BF368859 
 279      88198808 
ARM GAS  C:\Users\JEFFSN~1\AppData\Local\Temp\ccMJA9GM.s 			page 21


 279      D9DB0044 
 279      BF
 280 0109 D4C7F1B9 		.ascii	"\324\307\361\271O\334/\356[\213\354\233kY\354\027\367"
 280      4FDC2FEE 
 280      5B8BEC9B 
 280      6B59EC17 
 280      F7
 281 011a 7AF5222D 		.ascii	"z\365\"-\232\016\215\337\233K\323\346\255eN\021\367"
 281      9A0E8DDF 
 281      9B4BD3E6 
 281      AD654E11 
 281      F7
 282 012b D3BD8427 		.ascii	"\323\275\204'\232vo\215\001\222\367\276\324\327\265"
 282      9A766F8D 
 282      0192F7BE 
 282      D4D7B5
 283 013a C8B31699 		.ascii	"\310\263\026\231?\264\204w\263*)\374jf\224\216\253\344"
 283      3FB48477 
 283      B32A29FC 
 283      6A66948E 
 283      ABE4
 284 014c 5513999F 		.ascii	"U\023\231\237\247\260Q:\354\230\016\022\033\374z\317"
 284      A7B0513A 
 284      EC980E12 
 284      1BFC7ACF 
 285 015c 74D1CFD6 		.ascii	"t\321\317\326\0243\030\331\214\251\252^Xt\242\256\302"
 285      143318D9 
 285      8CA9AA5E 
 285      5874A2AE 
 285      C2
 286 016d 44CD9874 		.ascii	"D\315\230t}~\312\031\0025+MD\205e\353\350\315\343fX"
 286      7D7ECA19 
 286      02352B4D 
 286      448565EB 
 286      E8CDE366 
 287 0182 7ED34456 		.ascii	"~\323DV\314\252j\356?\256\2365\022S\344n\306v2\226\301"
 287      CCAA6AEE 
 287      3FAE9E35 
 287      1253E46E 
 287      C6763296 
 288 0197 4C45C10A 		.ascii	"LE\301\012)&\241\344\014\011UH\011\211\344\\\247\310"
 288      2926A1E4 
 288      0C095548 
 288      0989E45C 
 288      A7C8
 289 01a9 1A8514C1 		.ascii	"\032\205\024\301\346'\260\371/\316\327\333\376\370\307"
 289      E627B0F9 
 289      2FCED7DB 
 289      FEF8C7
 290 01b8 0EC65690 		.ascii	"\016\306V\220\263\304DN\023\212)\340\373\253&\376\011"
 290      B3C4444E 
 290      138A29E0 
 290      FBAB26FE 
 290      09
 291 01c9 9B5CEC5F 		.ascii	"\233\\\354_\372O\005\000S(\250'^\342C\205\370#\373\373"
 291      FA4F0500 
 291      5328A827 
ARM GAS  C:\Users\JEFFSN~1\AppData\Local\Temp\ccMJA9GM.s 			page 22


 291      5EE24385 
 291      F823FBFB 
 292 01dd E6CCF4FB 		.ascii	"\346\314\364\373|\256\336\351;3h \221&\304v\226\277"
 292      7CAEDEE9 
 292      3B336820 
 292      9126C476 
 292      96BF
 293 01ef C4545201 		.ascii	"\304TR\001\300\347t\340P\016\214\"GO2\343j\205\254\013"
 293      C0E774E0 
 293      500E8C22 
 293      474F32E3 
 293      6A85AC0B 
 294 0203 25DF0385 		.ascii	"%\337\003\205\345\2400T*,\003\205\245\\v\005\362w\325"
 294      E5A03054 
 294      2A2C0385 
 294      A55C7605 
 294      F277D5
 295 0216 9F3AC3DD 		.ascii	"\237:\303\335\213\340\356\315\317\207xI\210\020\022"
 295      8BE0EECD 
 295      CF877849 
 295      881012
 296 0225 1A7B069E 		.ascii	"\032{\006\236\006\322\037\341\274eWY.\0256\031`\351"
 296      06D21FE1 
 296      BC655759 
 296      2E153619 
 296      60E9
 297 0237 693ADA17 		.ascii	"i:\332\027,l\012\003\201\225\005yc~\232M\331\031le="
 297      2C6C0A03 
 297      81950579 
 297      637E9A4D 
 297      D9196C65 
 298 024c D87401F8 		.ascii	"\330t\001\370\2528\337E\020\021!E|\012\233\3475\233"
 298      AA38DF45 
 298      10112145 
 298      7C0A9BE7 
 298      359B
 299 025e 9C95BC15 		.ascii	"\234\225\274\025\007\264R\251\267\022\201\0369P\343"
 299      07B452A9 
 299      B712811E 
 299      3950E3
 300 026d 7CDEF97D 		.ascii	"|\336\371}\001\017\310}B\025\371\223\242\020\">\011"
 300      010FC87D 
 300      4215F993 
 300      A210223E 
 300      09
 301 027e 86220297 		.ascii	"\206\"\002\2270Q\0251\321\266\026\206\"STm\252\203\341"
 301      30511531 
 301      D1B61686 
 301      2253546D 
 301      AA83E1
 302 0291 9FAC4727 		.ascii	"\237\254G'p \210\216Nd\221X\313bE\026\021U' b\251Ux"
 302      7020888E 
 302      4E649158 
 302      CB624516 
 302      11552720 
 303 02a9 E12D52A4 		.ascii	"\341-R\244i\326h\024U;\235\027r'\272-t=\332>\333p\354"
 303      69D66814 
ARM GAS  C:\Users\JEFFSN~1\AppData\Local\Temp\ccMJA9GM.s 			page 23


 303      553B9D17 
 303      7227BA2D 
 303      743DDA3E 
 304 02c0 A8BA3A07 		.ascii	"\250\272:\007\317p\006\0133\220-/.\370\252\220\313\004"
 304      CF70060B 
 304      33902D2F 
 304      2EF8AA90 
 304      CB04
 305 02d2 BEB164AB 		.ascii	"\276\261d\253A\324\345\334\236\365\004\277\234\317\362"
 305      41D4E5DC 
 305      9EF504BF 
 305      9CCFF2
 306 02e1 CB58AFA3 		.ascii	"\313X\257\243\356\265\203\031\254\036\312\302x\026\251"
 306      EEB58319 
 306      AC1ECAC2 
 306      7816A9
 307 02f0 D6FDADE6 		.ascii	"\326\375\255\346f*\344\022y\000\3045\344e\250|T;Y\031"
 307      662AE412 
 307      7900C435 
 307      E465A87C 
 307      543B5919 
 308 0304 427720E3 		.ascii	"Bw \343`\355t9\005\224\2622\346<\227I\2170\347.@Q\021"
 308      60ED7439 
 308      0594B232 
 308      E63C9749 
 308      8F30E72E 
 309 031b E58A8E72 		.ascii	"\345\212\216r\305\033\305\211(\3732o{\202\350\237\020"
 309      C51BC589 
 309      28FB326F 
 309      7B82E89F 
 309      10
 310 032c A5FD444D 		.ascii	"\245\375DMG\020\240\364\002\312h\235\205e\177\304\362"
 310      4710A0F4 
 310      02CA689D 
 310      85657FC4 
 310      F2
 311 033d 7F8A1857 		.ascii	"\177\212\030Wu\214\253\336\030\265\210\221u\272\265"
 311      758CABDE 
 311      18B58891 
 311      75BAB5
 312 034c 51A57B09 		.ascii	"Q\245{\011\202\024\237\363\024P\321\220s\362\006\202"
 312      82149FF3 
 312      1450D190 
 312      73F20682 
 313 035c 3001F299 		.ascii	"0\001\362\231\016\362\2317\3105\004y^U\275\323\237\036"
 313      0EF29937 
 313      C8350479 
 313      5E55BDD3 
 313      9F1E
 314 036e 1520E7DC 		.ascii	"\025 \347\334\335%\006\011\222s\333\033\344\272\016"
 314      DD250609 
 314      9273DB1B 
 314      E4BA0E
 315 037d 72DD1BA4 		.ascii	"r\335\033\244\016A\334\345W\267\320B\201\321\374\267"
 315      0E41DCE5 
 315      57B7D042 
 315      81D1FCB7 
ARM GAS  C:\Users\JEFFSN~1\AppData\Local\Temp\ccMJA9GM.s 			page 24


 316 038d EB1921DE 		.ascii	"\353\031!\336w\201\177\373\364\333P\357s\033F\016\\"
 316      77817FFB 
 316      F4DB50EF 
 316      731B460E 
 316      5C
 317 039e A90AE4AD 		.ascii	"\251\012\344\255\303\317\300\224\353\265#\345lW O!7"
 317      C3CFC094 
 317      EBB523E5 
 317      6C57204F 
 317      2137
 318 03b0 74BE1BC8 		.ascii	"t\276\033\310\007\223\006\344\232\273U]H\250[\220\325"
 318      079306E4 
 318      9ABB555D 
 318      48A85B90 
 318      D5
 319 03c1 E4BB8A4D 		.ascii	"\344\273\212M\262\336\261\357\303\317\261\236\353m\324"
 319      B2DEB1EF 
 319      C3CFB19E 
 319      EB6DD4
 320 03d0 EB1BB57A 		.ascii	"\353\033\265z\027\326\337\314\257\2325\322\275\252p"
 320      17D6DFCC 
 320      AF9A35D2 
 320      BDAA70
 321 03df EDE2EEBD 		.ascii	"\355\342\356\275\301\242\3369\351\2628\263\011V\337"
 321      C1A2DE39 
 321      E9B238B3 
 321      0956DF
 322 03ee D4AB6F6A 		.ascii	"\324\253oj\325MX}e\260\361\023JsE\365\300\241\274!\243"
 322      D54D587D 
 322      65B0F113 
 322      4A7345F5 
 322      C0A1BC21 
 323 0403 01CE22F6 		.ascii	"\001\316\"\366\010=!\242{\330\270\354!l\306\356o\023"
 323      083D21A2 
 323      7BD8B8EC 
 323      216CC6EE 
 323      6F13
 324 0415 D97E5FC1 		.ascii	"\331~_\301\261\277\233\245\374\266\003\177\336\237\221"
 324      B1BF9BA5 
 324      FCB6037F 
 324      DE9F91
 325 0424 FF739E42 		.ascii	"\377s\236Bn\351\374\2674\376\026\344/\351\254:o\246"
 325      6EE9FCB7 
 325      34FE16E4 
 325      2FE9AC3A 
 325      6FA6
 326 0436 AD823FE7 		.ascii	"\255\202?\347\316\3704A\376\263\013\374Y\031\225\027"
 326      CEF83441 
 326      FEB30BFC 
 326      59199517 
 327 0446 E9B2FC6D 		.ascii	"\351\262\374m\310\177G\343\037\356x8\033\"\333\357\276"
 327      C87F47E3 
 327      1FEE7838 
 327      1B22DBEF 
 327      BE
 328 0457 81ED4306 		.ascii	"\201\355C\006i\325\351[5\372v\244\357\277\\\330a\241"
 328      69D5E95B 
ARM GAS  C:\Users\JEFFSN~1\AppData\Local\Temp\ccMJA9GM.s 			page 25


 328      35FA76A4 
 328      EFBF5CD8 
 328      61A1
 329 0469 6E41CF2A 		.ascii	"nA\317*\216\227\032\244\372\212{\277*,\310\004\000\354"
 329      8E971AA4 
 329      FA8A7BBF 
 329      2A2CC804 
 329      00EC
 330 047b 91DCD511 		.ascii	"\221\334\325\021\356j\010\367\020\241\370\322\361\231"
 330      EE6A08F7 
 330      10A1F8D2 
 330      F199
 331 0489 009A4511 		.ascii	"\000\232E\021\241\350\343\003'\215\022\241\375\316\207"
 331      A1E8E303 
 331      278D12A1 
 331      FDCE87
 332 0498 9E85DBDF 		.ascii	"\236\205\333\337\241\327wh\365\367\261>oO\301\234\201"
 332      A1D77768 
 332      F5F7B13E 
 332      6F4FC19C 
 332      81
 333 04a9 FE53D48F 		.ascii	"\376S\324\217|\231\327\344\217\0068\026\014\230\030"
 333      7C99D7E4 
 333      8F063816 
 333      0C9818
 334 04b8 CBFF2260 		.ascii	"\313\377\"`Y\003\334h\300\003\315\000W\356\275~\213"
 334      5903DC68 
 334      C003CD00 
 334      57EEBD7E 
 334      8B
 335 04c9 34602C0B 		.ascii	"4`,\013\276\300\265\006\236B:u\376N\215\277\013\371"
 335      BEC0B506 
 335      9E423A75 
 335      FE4E8DBF 
 335      0BF9
 336 04db 6B3C8F59 		.ascii	"k<\217Y\010-\026\374\343\273\306\356\032M\273\371\303"
 336      082D16FC 
 336      E3BBC6EE 
 336      1A4DBBF9 
 336      C3
 337 04ec EE7F3F4A 		.ascii	"\356\177?J \177(\373y\245\361\225\002\366q\0068vh\313"
 337      207F28FB 
 337      79A5F195 
 337      02F67106 
 337      387668CB 
 338 0500 B16E37DB 		.ascii	"\261n7\333\235\271\202\364\200\370n\301(\001\024\276"
 338      9DB982F4 
 338      80F86EC1 
 338      280114BE 
 339 0510 86CF5EF2 		.ascii	"\206\317^\362\012\224\215\225\234~j\2445\202\2636\307"
 339      0A948D95 
 339      9C7E6AA4 
 339      3582B336 
 339      C7
 340 0521 DD66A10D 		.ascii	"\335f\241\015b1VQx\300L\333qaxz\270\253\324L\302\303"
 340      62315651 
 340      78C04CDB 
ARM GAS  C:\Users\JEFFSN~1\AppData\Local\Temp\ccMJA9GM.s 			page 26


 340      7161787A 
 340      B8ABD44C 
 341 0537 23579DE4 		.ascii	"#W\235\344\217\026\347\224+\350\020s~D\361t\366\001"
 341      8F16E794 
 341      2BE81073 
 341      7E44F174 
 341      F601
 342 0549 FE23B24A 		.ascii	"\376#\262J\023\370]\316\261\216\277\267\210\334q\227"
 342      13F85DCE 
 342      B18EBFB7 
 342      88DC7197 
 343 0559 9995FD1A 		.ascii	"\231\225\375\0323?_\"s-\317\024\217!\217\313\302X\000"
 343      333F5F22 
 343      732DCF14 
 343      8F218FCB 
 343      C25800
 344 056c CF50A445 		.ascii	"\317P\244E|\354G\277\235\214\221?\350\317|\005qxW\377"
 344      7CEC47BF 
 344      9D8C913F 
 344      E8CF7C05 
 344      717857FF 
 345 0580 063F0648 		.ascii	"\006?\006H8\351'\341\332/wgfV\273\201v\242tu\357\211"
 345      38E927E1 
 345      DA2F7767 
 345      6656BB81 
 345      76A27475 
 346 0596 C6D200B2 		.ascii	"\306\322\000\262*rI\030\362\005T/\207$D\315\273\010"
 346      2A724918 
 346      F205542F 
 346      872444CD 
 346      BB08
 347 05a8 17350849 		.ascii	"\0275\010I\217\365[\3075\"WcAO\263\037\370\316\340N"
 347      8FF55BC7 
 347      35225763 
 347      414FB31F 
 347      F8CEE04E 
 348 05bc 3B32C32F 		.ascii	";2\303/\301\353I &?\224\256\353\212\037\242\357C\350"
 348      C1EB4920 
 348      263F94AE 
 348      EB8A1FA2 
 348      EF43E8
 349 05cf 7BC9B53D 		.ascii	"{\311\265=\247U\313_\365\3474\236M\3750\015\023\013"
 349      A755CB5F 
 349      F5E7349E 
 349      4DFD300D 
 349      130B
 350 05e1 9E0CF8CF 		.ascii	"\236\014\370\317\177X\332\\5\376>\331=>\277|#2{\004"
 350      7F58DA5C 
 350      35FE3ED9 
 350      3D3EBF7C 
 350      23327B04 
 351 05f5 B367064A 		.ascii	"\263g\006J\037Y|\262/\373`?!\026\255\215'\274\200V\337"
 351      1F597CB2 
 351      2FFB603F 
 351      2116AD8D 
 351      27BC8056 
 352 060a 3D964BE1 		.ascii	"=\226K\3412\3773\035ep\350X\013!\036bRp1\372\023\234"
ARM GAS  C:\Users\JEFFSN~1\AppData\Local\Temp\ccMJA9GM.s 			page 27


 352      32FF331D 
 352      6570E858 
 352      0B211E62 
 352      527031FA 
 353 0620 F36D36BA 		.ascii	"\363m6\272\223\031\017\007+\013g\211_P\310\227P9\312"
 353      93190F07 
 353      2B0B6789 
 353      5F50C897 
 353      5039CA
 354 0633 EDF4E0EB 		.ascii	"\355\364\340\353B\323\340\211y\177:,\374\2578x\344\240"
 354      42D3E089 
 354      797F3A2C 
 354      FCAF3878 
 354      E4A0
 355 0645 BF782759 		.ascii	"\277x'Y|\224\307\2278\312\362\275\2558z\377\036\376"
 355      7C94C797 
 355      38CAF2BD 
 355      AD387AFF 
 355      1EFE
 356 0657 B81B833E 		.ascii	"\270\033\203>\237\352\266\367p:n\373\371\346\221R?\237"
 356      9FEAB6F7 
 356      703A6EFB 
 356      F9E69152 
 356      3F9F
 357 0669 1EC77C1C 		.ascii	"\036\307|\034\231\220\216L\240#\027/\224\234\014\361"
 357      99908E4C 
 357      A023172F 
 357      949C0CF1 
 358 0679 C9E67748 		.ascii	"\311\346wH\317\236\224\331\223\230\335\343\336\323g"
 358      CF9E94D9 
 358      9398DDE3 
 358      DED367
 359 0688 F6C96EF6 		.ascii	"\366\311n\366\361oJfO\211{S|\352\021\365\311n\363\311"
 359      F16F4A66 
 359      4F897B53 
 359      7CEA11F5 
 359      C96EF3C9 
 360 069c 7E26B39F 		.ascii	"~&\263\237\011%\305\245\207\251\370Z\377_\357g\274\244"
 360      0925C5A5 
 360      87A9F85A 
 360      FF5FEF67 
 360      BCA4
 361 06ae 9BE5FA51 		.ascii	"\233\345\372Q\217p\323qa\2508Xs\363k\010\317\227}\303"
 361      8F70D371 
 361      61A83858 
 361      73F36B08 
 361      CF977DC3 
 362 06c2 EBFC1D3F 		.ascii	"\353\374\035?\3043\340\321W\272\233\323\232\233\225"
 362      C433E0D1 
 362      57BA9BD3 
 362      9A9B95
 363 06d1 F52D9FFA 		.ascii	"\365-\237\372\236\257\031\0377ge\017\263\330\303T\315"
 363      9EAF191F 
 363      3767650F 
 363      B3D8C354 
 363      CD
 364 06e2 C0A86FB6 		.ascii	"\300\250o\266\333\247\3439\231\315\377\007\274\375n"
ARM GAS  C:\Users\JEFFSN~1\AppData\Local\Temp\ccMJA9GM.s 			page 28


 364      DBA7E339 
 364      99CDFF07 
 364      BCFD6E
 365 06f1 749875ED 		.ascii	"t\230u\355Z\305\230\026\237h_\373\303\357\274mK\264"
 365      5AC59816 
 365      9F685FFB 
 365      C3EFBC6D 
 365      4BB4
 366 0703 A5C4DA6D 		.ascii	"\245\304\332m\333b\242\222\322R\342l\357o\212J\262\376"
 366      DB62A292 
 366      D252E26C 
 366      EF6F8A4A 
 366      B2FE
 367 0715 E0FDB874 		.ascii	"\340\375\270t{z\262-u\315o\025?\236\370\006\246\257"
 367      7B7AB22D 
 367      75CD6F15 
 367      3F9EF806 
 367      A6AF
 368 0727 7BDD141D 		.ascii	"{\335\024\035\365f\314\206M1\033\2436\207-S\3113\222"
 368      F566CC86 
 368      4D311BA3 
 368      36872D53 
 368      C93392
 369 073a 77AC8953 		.ascii	"w\254\211S\202\371,*\366\003\2335)\3617\361\333\277"
 369      82F92C2A 
 369      F6039B35 
 369      29F137F1 
 369      DBBF
 370 074c C1979B6D 		.ascii	"\301\227\233m\251\366\244\024\271c\306\204\264\324d"
 370      A9F6A414 
 370      B963C684 
 370      B4D464
 371 075b 5BE23693 		.ascii	"[\3426\223\274\232\266\303\366\002r$\307X\023l\261)"
 371      BC9AB6C3 
 371      F6027224 
 371      C758136C 
 371      B129
 372 076d 1B13EDB6 		.ascii	"\033\023\355\266\224\224\264d\373\177\243\333\220\014"
 372      9494B464 
 372      FB7FA3DB 
 372      900C
 373 077b 3A43F8EC 		.ascii	":C\370\354\255\344(;\344lL\214\267/\327\031\352\373"
 373      ADE4283B 
 373      E46C4C8C 
 373      B72FD719 
 373      EAFB
 374 078d C00E1541 		.ascii	"\300\016\025A|*\244l\266m\177\301\232\376\326\037\343"
 374      7C2AA46C 
 374      B66D7FC1 
 374      9AFED61F 
 374      E3
 375 079e EDD69478 		.ascii	"\355\326\224x{|\\lB\224-\316\036\237\224\370\3222(\326"
 375      7B7C5C6C 
 375      42942DCE 
 375      1E9F94F8 
 375      D23228D6 
 376 07b2 F477E2B7 		.ascii	"\364w\342\267\002F\2405}\203-!6=:\325\202\335\330\223"
ARM GAS  C:\Users\JEFFSN~1\AppData\Local\Temp\ccMJA9GM.s 			page 29


 376      0246A035 
 376      7D832D21 
 376      363D3AD5 
 376      82DDD893 
 377 07c6 926336FC 		.ascii	"\222c6\374r\375\267\226'\207"
 377      72FDB796 
 377      2787
 378 07d0 A217818A 		.ascii	"\242\027\201\212\367\265\210+HbY\323\343\022l\251\350"
 378      F7B5882B 
 378      486259D3 
 378      E3126CA9 
 378      E8
 379 07e1 571CAA4B 		.ascii	"W\034\252K\003$\270\216\036m\215\215\373}Z\262\331\226"
 379      0324B88E 
 379      1E6D8D8D 
 379      FB7D5AB2 
 379      D996
 380 07f3 18BB35C1 		.ascii	"\030\2735\301\206\315\032v$m\263a\366\233\353\255\277"
 380      86CD1A76 
 380      246DB361 
 380      F69BEBAD 
 380      BF
 381 0804 88DE1413 		.ascii	"\210\336\024\023\365\336\346h\353{\206\024\333\3667"
 381      F5DEE668 
 381      EB7B8614 
 381      DBF637
 382 0813 FCE063DD 		.ascii	"\374\340c\335\353\377\001;\353\212\232"
 382      EBFF013B 
 382      EB8A9A
 383              		.text
 384              		.section	.gnu.lto_.symtab.f743eb49,"",%progbits
 385 0000 5553425F 		.ascii	"USB_DP_ISR\000"
 385      44505F49 
 385      535200
 386 000b 00       		.ascii	"\000"
 387 000c 00       		.ascii	"\000"
 388 000d 00       		.ascii	"\000"
 389 000e 00000000 		.ascii	"\000\000\000\000\000\000\000\000"
 389      00000000 
 390 0016 BE000000 		.ascii	"\276\000\000\000"
 391 001a 5553425F 		.ascii	"USB_SaveConfig\000"
 391      53617665 
 391      436F6E66 
 391      696700
 392 0029 00       		.ascii	"\000"
 393 002a 00       		.ascii	"\000"
 394 002b 00       		.ascii	"\000"
 395 002c 00000000 		.ascii	"\000\000\000\000\000\000\000\000"
 395      00000000 
 396 0034 C0000000 		.ascii	"\300\000\000\000"
 397 0038 5553425F 		.ascii	"USB_RestoreConfig\000"
 397      52657374 
 397      6F726543 
 397      6F6E6669 
 397      6700
 398 004a 00       		.ascii	"\000"
 399 004b 00       		.ascii	"\000"
ARM GAS  C:\Users\JEFFSN~1\AppData\Local\Temp\ccMJA9GM.s 			page 30


 400 004c 00       		.ascii	"\000"
 401 004d 00000000 		.ascii	"\000\000\000\000\000\000\000\000"
 401      00000000 
 402 0055 C2000000 		.ascii	"\302\000\000\000"
 403 0059 5553425F 		.ascii	"USB_Suspend\000"
 403      53757370 
 403      656E6400 
 404 0065 00       		.ascii	"\000"
 405 0066 00       		.ascii	"\000"
 406 0067 00       		.ascii	"\000"
 407 0068 00000000 		.ascii	"\000\000\000\000\000\000\000\000"
 407      00000000 
 408 0070 C4000000 		.ascii	"\304\000\000\000"
 409 0074 5553425F 		.ascii	"USB_Resume\000"
 409      52657375 
 409      6D6500
 410 007f 00       		.ascii	"\000"
 411 0080 00       		.ascii	"\000"
 412 0081 00       		.ascii	"\000"
 413 0082 00000000 		.ascii	"\000\000\000\000\000\000\000\000"
 413      00000000 
 414 008a C6000000 		.ascii	"\306\000\000\000"
 415 008e 5553425F 		.ascii	"USB_configuration\000"
 415      636F6E66 
 415      69677572 
 415      6174696F 
 415      6E00
 416 00a0 00       		.ascii	"\000"
 417 00a1 02       		.ascii	"\002"
 418 00a2 00       		.ascii	"\000"
 419 00a3 00000000 		.ascii	"\000\000\000\000\000\000\000\000"
 419      00000000 
 420 00ab E0000000 		.ascii	"\340\000\000\000"
 421 00af 5553425F 		.ascii	"USB_Dp_ClearInterrupt\000"
 421      44705F43 
 421      6C656172 
 421      496E7465 
 421      72727570 
 422 00c5 00       		.ascii	"\000"
 423 00c6 02       		.ascii	"\002"
 424 00c7 00       		.ascii	"\000"
 425 00c8 00000000 		.ascii	"\000\000\000\000\000\000\000\000"
 425      00000000 
 426 00d0 C9000000 		.ascii	"\311\000\000\000"
 427 00d4 5553425F 		.ascii	"USB_EpStateInit\000"
 427      45705374 
 427      61746549 
 427      6E697400 
 428 00e4 00       		.ascii	"\000"
 429 00e5 02       		.ascii	"\002"
 430 00e6 00       		.ascii	"\000"
 431 00e7 00000000 		.ascii	"\000\000\000\000\000\000\000\000"
 431      00000000 
 432 00ef CB000000 		.ascii	"\313\000\000\000"
 433 00f3 5553425F 		.ascii	"USB_ConfigReg\000"
 433      436F6E66 
 433      69675265 
ARM GAS  C:\Users\JEFFSN~1\AppData\Local\Temp\ccMJA9GM.s 			page 31


 433      6700
 434 0101 00       		.ascii	"\000"
 435 0102 02       		.ascii	"\002"
 436 0103 00       		.ascii	"\000"
 437 0104 00000000 		.ascii	"\000\000\000\000\000\000\000\000"
 437      00000000 
 438 010c CD000000 		.ascii	"\315\000\000\000"
 439 0110 43794578 		.ascii	"CyExitCriticalSection\000"
 439      69744372 
 439      69746963 
 439      616C5365 
 439      6374696F 
 440 0126 00       		.ascii	"\000"
 441 0127 02       		.ascii	"\002"
 442 0128 00       		.ascii	"\000"
 443 0129 00000000 		.ascii	"\000\000\000\000\000\000\000\000"
 443      00000000 
 444 0131 D1000000 		.ascii	"\321\000\000\000"
 445 0135 43794465 		.ascii	"CyDelayUs\000"
 445      6C617955 
 445      7300
 446 013f 00       		.ascii	"\000"
 447 0140 02       		.ascii	"\002"
 448 0141 00       		.ascii	"\000"
 449 0142 00000000 		.ascii	"\000\000\000\000\000\000\000\000"
 449      00000000 
 450 014a D5000000 		.ascii	"\325\000\000\000"
 451 014e 5553425F 		.ascii	"USB_Stop_DMA\000"
 451      53746F70 
 451      5F444D41 
 451      00
 452 015b 00       		.ascii	"\000"
 453 015c 02       		.ascii	"\002"
 454 015d 00       		.ascii	"\000"
 455 015e 00000000 		.ascii	"\000\000\000\000\000\000\000\000"
 455      00000000 
 456 0166 D7000000 		.ascii	"\327\000\000\000"
 457 016a 4379456E 		.ascii	"CyEnterCriticalSection\000"
 457      74657243 
 457      72697469 
 457      63616C53 
 457      65637469 
 458 0181 00       		.ascii	"\000"
 459 0182 02       		.ascii	"\002"
 460 0183 00       		.ascii	"\000"
 461 0184 00000000 		.ascii	"\000\000\000\000\000\000\000\000"
 461      00000000 
 462 018c D9000000 		.ascii	"\331\000\000\000"
 463 0190 43794465 		.ascii	"CyDelayCycles\000"
 463      6C617943 
 463      79636C65 
 463      7300
 464 019e 00       		.ascii	"\000"
 465 019f 02       		.ascii	"\002"
 466 01a0 00       		.ascii	"\000"
 467 01a1 00000000 		.ascii	"\000\000\000\000\000\000\000\000"
 467      00000000 
ARM GAS  C:\Users\JEFFSN~1\AppData\Local\Temp\ccMJA9GM.s 			page 32


 468 01a9 DD000000 		.ascii	"\335\000\000\000"
 469              		.text
 470              		.section	.gnu.lto_.opts,"",%progbits
 471 0000 272D666D 		.ascii	"'-fmath-errno' '-fsigned-zeros' '-ftrapping-math' '"
 471      6174682D 
 471      6572726E 
 471      6F272027 
 471      2D667369 
 472 0033 2D666E6F 		.ascii	"-fno-trapv' '-fno-openmp' '-fno-openacc' '-mcpu=cor"
 472      2D747261 
 472      70762720 
 472      272D666E 
 472      6F2D6F70 
 473 0066 7465782D 		.ascii	"tex-m3' '-mthumb' '-g' '-O3' '-ffunction-sections' "
 473      6D332720 
 473      272D6D74 
 473      68756D62 
 473      2720272D 
 474 0099 272D6666 		.ascii	"'-ffat-lto-objects' '-finline-functions' '-flto'\000"
 474      61742D6C 
 474      746F2D6F 
 474      626A6563 
 474      74732720 
 475              		.text
 476              		.cfi_sections	.debug_frame
 477              		.section	.text.USB_DP_ISR,"ax",%progbits
 478              		.align	2
 479              		.global	USB_DP_ISR
 480              		.thumb
 481              		.thumb_func
 482              		.type	USB_DP_ISR, %function
 483              	USB_DP_ISR:
 484              	.LFB0:
 485              		.file 1 "Generated_Source\\PSoC5\\USB_pm.c"
   1:Generated_Source\PSoC5/USB_pm.c **** /***************************************************************************//**
   2:Generated_Source\PSoC5/USB_pm.c **** * \file USB_pm.c
   3:Generated_Source\PSoC5/USB_pm.c **** * \version 3.20
   4:Generated_Source\PSoC5/USB_pm.c **** *
   5:Generated_Source\PSoC5/USB_pm.c **** * \brief
   6:Generated_Source\PSoC5/USB_pm.c **** *  This file provides Suspend/Resume APIs implementation.
   7:Generated_Source\PSoC5/USB_pm.c **** *
   8:Generated_Source\PSoC5/USB_pm.c **** ********************************************************************************
   9:Generated_Source\PSoC5/USB_pm.c **** * \copyright
  10:Generated_Source\PSoC5/USB_pm.c **** * Copyright 2008-2016, Cypress Semiconductor Corporation.  All rights reserved.
  11:Generated_Source\PSoC5/USB_pm.c **** * You may use this file only in accordance with the license, terms, conditions,
  12:Generated_Source\PSoC5/USB_pm.c **** * disclaimers, and limitations in the end user license agreement accompanying
  13:Generated_Source\PSoC5/USB_pm.c **** * the software package with which this file was provided.
  14:Generated_Source\PSoC5/USB_pm.c **** *******************************************************************************/
  15:Generated_Source\PSoC5/USB_pm.c **** 
  16:Generated_Source\PSoC5/USB_pm.c **** #include "USB_pvt.h"
  17:Generated_Source\PSoC5/USB_pm.c **** #include "USB_Dp.h"
  18:Generated_Source\PSoC5/USB_pm.c **** 
  19:Generated_Source\PSoC5/USB_pm.c **** 
  20:Generated_Source\PSoC5/USB_pm.c **** /***************************************
  21:Generated_Source\PSoC5/USB_pm.c **** * Custom Declarations
  22:Generated_Source\PSoC5/USB_pm.c **** ***************************************/
  23:Generated_Source\PSoC5/USB_pm.c **** /* `#START PM_CUSTOM_DECLARATIONS` Place your declaration here */
ARM GAS  C:\Users\JEFFSN~1\AppData\Local\Temp\ccMJA9GM.s 			page 33


  24:Generated_Source\PSoC5/USB_pm.c **** 
  25:Generated_Source\PSoC5/USB_pm.c **** /* `#END` */
  26:Generated_Source\PSoC5/USB_pm.c **** 
  27:Generated_Source\PSoC5/USB_pm.c **** 
  28:Generated_Source\PSoC5/USB_pm.c **** /***************************************
  29:Generated_Source\PSoC5/USB_pm.c **** * Local data allocation
  30:Generated_Source\PSoC5/USB_pm.c **** ***************************************/
  31:Generated_Source\PSoC5/USB_pm.c **** 
  32:Generated_Source\PSoC5/USB_pm.c **** static USB_BACKUP_STRUCT  USB_backup;
  33:Generated_Source\PSoC5/USB_pm.c **** 
  34:Generated_Source\PSoC5/USB_pm.c **** #if (USB_DP_ISR_ACTIVE)
  35:Generated_Source\PSoC5/USB_pm.c ****     /*******************************************************************************
  36:Generated_Source\PSoC5/USB_pm.c ****     * Function Name: USB_DP_ISR
  37:Generated_Source\PSoC5/USB_pm.c ****     ****************************************************************************//**
  38:Generated_Source\PSoC5/USB_pm.c ****     *
  39:Generated_Source\PSoC5/USB_pm.c ****     *  This Interrupt Service Routine handles DP pin changes for wake-up from
  40:Generated_Source\PSoC5/USB_pm.c ****     *  the sleep mode.
  41:Generated_Source\PSoC5/USB_pm.c ****     *
  42:Generated_Source\PSoC5/USB_pm.c ****     *******************************************************************************/
  43:Generated_Source\PSoC5/USB_pm.c ****     CY_ISR(USB_DP_ISR)
  44:Generated_Source\PSoC5/USB_pm.c ****     {
 486              		.loc 1 44 0
 487              		.cfi_startproc
 488              		@ args = 0, pretend = 0, frame = 0
 489              		@ frame_needed = 0, uses_anonymous_args = 0
 490              		@ link register save eliminated.
  45:Generated_Source\PSoC5/USB_pm.c ****     #ifdef USB_DP_ISR_ENTRY_CALLBACK
  46:Generated_Source\PSoC5/USB_pm.c ****         USB_DP_ISR_EntryCallback();
  47:Generated_Source\PSoC5/USB_pm.c ****     #endif /* (USB_DP_ISR_ENTRY_CALLBACK) */
  48:Generated_Source\PSoC5/USB_pm.c **** 
  49:Generated_Source\PSoC5/USB_pm.c ****         /* `#START DP_USER_CODE` Place your code here */
  50:Generated_Source\PSoC5/USB_pm.c **** 
  51:Generated_Source\PSoC5/USB_pm.c ****         /* `#END` */
  52:Generated_Source\PSoC5/USB_pm.c **** 
  53:Generated_Source\PSoC5/USB_pm.c ****         (void) USB_Dp_ClearInterrupt();
 491              		.loc 1 53 0
 492 0000 FFF7FEBF 		b	USB_Dp_ClearInterrupt
 493              	.LVL0:
 494              		.cfi_endproc
 495              	.LFE0:
 496              		.size	USB_DP_ISR, .-USB_DP_ISR
 497              		.section	.text.USB_SaveConfig,"ax",%progbits
 498              		.align	2
 499              		.global	USB_SaveConfig
 500              		.thumb
 501              		.thumb_func
 502              		.type	USB_SaveConfig, %function
 503              	USB_SaveConfig:
 504              	.LFB1:
  54:Generated_Source\PSoC5/USB_pm.c **** 		
  55:Generated_Source\PSoC5/USB_pm.c **** 	#ifdef USB_DP_ISR_EXIT_CALLBACK
  56:Generated_Source\PSoC5/USB_pm.c ****         USB_DP_ISR_ExitCallback();
  57:Generated_Source\PSoC5/USB_pm.c ****     #endif /* (USB_DP_ISR_EXIT_CALLBACK) */
  58:Generated_Source\PSoC5/USB_pm.c ****     }
  59:Generated_Source\PSoC5/USB_pm.c **** #endif /* (USB_DP_ISR_ACTIVE) */
  60:Generated_Source\PSoC5/USB_pm.c **** 
  61:Generated_Source\PSoC5/USB_pm.c **** 
ARM GAS  C:\Users\JEFFSN~1\AppData\Local\Temp\ccMJA9GM.s 			page 34


  62:Generated_Source\PSoC5/USB_pm.c **** /*******************************************************************************
  63:Generated_Source\PSoC5/USB_pm.c **** * Function Name: USB_SaveConfig
  64:Generated_Source\PSoC5/USB_pm.c **** ****************************************************************************//**
  65:Generated_Source\PSoC5/USB_pm.c **** *
  66:Generated_Source\PSoC5/USB_pm.c **** *  Saves the current user configuration.
  67:Generated_Source\PSoC5/USB_pm.c **** *
  68:Generated_Source\PSoC5/USB_pm.c **** * \reentrant
  69:Generated_Source\PSoC5/USB_pm.c **** *  No.
  70:Generated_Source\PSoC5/USB_pm.c **** *
  71:Generated_Source\PSoC5/USB_pm.c **** *******************************************************************************/
  72:Generated_Source\PSoC5/USB_pm.c **** void USB_SaveConfig(void) 
  73:Generated_Source\PSoC5/USB_pm.c **** {
 505              		.loc 1 73 0
 506              		.cfi_startproc
 507              		@ args = 0, pretend = 0, frame = 0
 508              		@ frame_needed = 0, uses_anonymous_args = 0
 509              		@ link register save eliminated.
 510 0000 7047     		bx	lr
 511              		.cfi_endproc
 512              	.LFE1:
 513              		.size	USB_SaveConfig, .-USB_SaveConfig
 514 0002 00BF     		.section	.text.USB_RestoreConfig,"ax",%progbits
 515              		.align	2
 516              		.global	USB_RestoreConfig
 517              		.thumb
 518              		.thumb_func
 519              		.type	USB_RestoreConfig, %function
 520              	USB_RestoreConfig:
 521              	.LFB2:
  74:Generated_Source\PSoC5/USB_pm.c ****     /* Empty function added for the compatibility purpose. */
  75:Generated_Source\PSoC5/USB_pm.c **** }
  76:Generated_Source\PSoC5/USB_pm.c **** 
  77:Generated_Source\PSoC5/USB_pm.c **** 
  78:Generated_Source\PSoC5/USB_pm.c **** /*******************************************************************************
  79:Generated_Source\PSoC5/USB_pm.c **** * Function Name: USB_RestoreConfig
  80:Generated_Source\PSoC5/USB_pm.c **** ****************************************************************************//**
  81:Generated_Source\PSoC5/USB_pm.c **** *
  82:Generated_Source\PSoC5/USB_pm.c **** *  Restores the current user configuration.
  83:Generated_Source\PSoC5/USB_pm.c **** *
  84:Generated_Source\PSoC5/USB_pm.c **** * \reentrant
  85:Generated_Source\PSoC5/USB_pm.c **** *  No.
  86:Generated_Source\PSoC5/USB_pm.c **** *
  87:Generated_Source\PSoC5/USB_pm.c **** *******************************************************************************/
  88:Generated_Source\PSoC5/USB_pm.c **** void USB_RestoreConfig(void) 
  89:Generated_Source\PSoC5/USB_pm.c **** {
 522              		.loc 1 89 0
 523              		.cfi_startproc
 524              		@ args = 0, pretend = 0, frame = 0
 525              		@ frame_needed = 0, uses_anonymous_args = 0
 526              		.loc 1 89 0
 527 0000 08B5     		push	{r3, lr}
 528              		.cfi_def_cfa_offset 8
 529              		.cfi_offset 3, -8
 530              		.cfi_offset 14, -4
  90:Generated_Source\PSoC5/USB_pm.c ****     if (USB_configuration != 0u)
 531              		.loc 1 90 0
 532 0002 054B     		ldr	r3, .L8
ARM GAS  C:\Users\JEFFSN~1\AppData\Local\Temp\ccMJA9GM.s 			page 35


 533 0004 1B78     		ldrb	r3, [r3]	@ zero_extendqisi2
 534 0006 03B9     		cbnz	r3, .L7
 535 0008 08BD     		pop	{r3, pc}
 536              	.L7:
  91:Generated_Source\PSoC5/USB_pm.c ****     {
  92:Generated_Source\PSoC5/USB_pm.c ****         USB_ConfigReg();
 537              		.loc 1 92 0
 538 000a FFF7FEFF 		bl	USB_ConfigReg
 539              	.LVL1:
  93:Generated_Source\PSoC5/USB_pm.c ****         USB_EpStateInit();
  94:Generated_Source\PSoC5/USB_pm.c ****     }
  95:Generated_Source\PSoC5/USB_pm.c **** }
 540              		.loc 1 95 0
 541 000e BDE80840 		pop	{r3, lr}
 542              		.cfi_restore 14
 543              		.cfi_restore 3
 544              		.cfi_def_cfa_offset 0
  93:Generated_Source\PSoC5/USB_pm.c ****         USB_EpStateInit();
 545              		.loc 1 93 0
 546 0012 FFF7FEBF 		b	USB_EpStateInit
 547              	.LVL2:
 548              	.L9:
 549 0016 00BF     		.align	2
 550              	.L8:
 551 0018 00000000 		.word	USB_configuration
 552              		.cfi_endproc
 553              	.LFE2:
 554              		.size	USB_RestoreConfig, .-USB_RestoreConfig
 555              		.section	.text.USB_Suspend,"ax",%progbits
 556              		.align	2
 557              		.global	USB_Suspend
 558              		.thumb
 559              		.thumb_func
 560              		.type	USB_Suspend, %function
 561              	USB_Suspend:
 562              	.LFB3:
  96:Generated_Source\PSoC5/USB_pm.c **** 
  97:Generated_Source\PSoC5/USB_pm.c **** 
  98:Generated_Source\PSoC5/USB_pm.c **** /*******************************************************************************
  99:Generated_Source\PSoC5/USB_pm.c **** * Function Name: USB_Suspend
 100:Generated_Source\PSoC5/USB_pm.c **** ****************************************************************************//**
 101:Generated_Source\PSoC5/USB_pm.c **** *
 102:Generated_Source\PSoC5/USB_pm.c **** *  This function prepares the USBFS component to enter low power mode. The 
 103:Generated_Source\PSoC5/USB_pm.c **** *  interrupt on falling edge on Dp pin is configured to wakeup device when the 
 104:Generated_Source\PSoC5/USB_pm.c **** *  host drives resume condition. The pull-up is enabled on the Dp line while 
 105:Generated_Source\PSoC5/USB_pm.c **** *  device is in low power mode. The supported low power modes are Deep Sleep 
 106:Generated_Source\PSoC5/USB_pm.c **** *  (PSoC 4200L) and Sleep (PSoC 3/ PSoC 5LP).
 107:Generated_Source\PSoC5/USB_pm.c **** *  
 108:Generated_Source\PSoC5/USB_pm.c **** *  *Note* For PSoC 4200L devices, this function should not be called before 
 109:Generated_Source\PSoC5/USB_pm.c **** *  entering Sleep.
 110:Generated_Source\PSoC5/USB_pm.c **** *  
 111:Generated_Source\PSoC5/USB_pm.c **** *  *Note* After enter low power mode, the data which is left in the IN or OUT 
 112:Generated_Source\PSoC5/USB_pm.c **** *  endpoint buffers is not restored after wakeup and lost. Therefore it should 
 113:Generated_Source\PSoC5/USB_pm.c **** *  be stored in the SRAM for OUT endpoint or read by the host for IN endpoint 
 114:Generated_Source\PSoC5/USB_pm.c **** *  before enter low power mode.
 115:Generated_Source\PSoC5/USB_pm.c **** *
 116:Generated_Source\PSoC5/USB_pm.c **** * \globalvars
ARM GAS  C:\Users\JEFFSN~1\AppData\Local\Temp\ccMJA9GM.s 			page 36


 117:Generated_Source\PSoC5/USB_pm.c **** *  USB_backup.enable:  modified.
 118:Generated_Source\PSoC5/USB_pm.c **** *
 119:Generated_Source\PSoC5/USB_pm.c **** * \reentrant
 120:Generated_Source\PSoC5/USB_pm.c **** *  No.
 121:Generated_Source\PSoC5/USB_pm.c **** *
 122:Generated_Source\PSoC5/USB_pm.c **** *******************************************************************************/
 123:Generated_Source\PSoC5/USB_pm.c **** void USB_Suspend(void) 
 124:Generated_Source\PSoC5/USB_pm.c **** {
 563              		.loc 1 124 0
 564              		.cfi_startproc
 565              		@ args = 0, pretend = 0, frame = 0
 566              		@ frame_needed = 0, uses_anonymous_args = 0
 567 0000 2DE9F041 		push	{r4, r5, r6, r7, r8, lr}
 568              		.cfi_def_cfa_offset 24
 569              		.cfi_offset 4, -24
 570              		.cfi_offset 5, -20
 571              		.cfi_offset 6, -16
 572              		.cfi_offset 7, -12
 573              		.cfi_offset 8, -8
 574              		.cfi_offset 14, -4
 125:Generated_Source\PSoC5/USB_pm.c ****     uint8 enableInterrupts;
 126:Generated_Source\PSoC5/USB_pm.c **** 
 127:Generated_Source\PSoC5/USB_pm.c ****     enableInterrupts = CyEnterCriticalSection();
 575              		.loc 1 127 0
 576 0004 FFF7FEFF 		bl	CyEnterCriticalSection
 577              	.LVL3:
 128:Generated_Source\PSoC5/USB_pm.c **** 
 129:Generated_Source\PSoC5/USB_pm.c ****     if (0u != (USB_CR0_REG & USB_CR0_ENABLE))
 578              		.loc 1 129 0
 579 0008 2A4C     		ldr	r4, .L15
 127:Generated_Source\PSoC5/USB_pm.c **** 
 580              		.loc 1 127 0
 581 000a 0546     		mov	r5, r0
 582              	.LVL4:
 583              		.loc 1 129 0
 584 000c 2378     		ldrb	r3, [r4]	@ zero_extendqisi2
 585 000e 1B06     		lsls	r3, r3, #24
 586 0010 0FD4     		bmi	.L14
 130:Generated_Source\PSoC5/USB_pm.c ****     {
 131:Generated_Source\PSoC5/USB_pm.c ****         /* USB block is enabled. */
 132:Generated_Source\PSoC5/USB_pm.c ****         USB_backup.enableState = 1u;
 133:Generated_Source\PSoC5/USB_pm.c **** 
 134:Generated_Source\PSoC5/USB_pm.c ****     #if (USB_EP_MANAGEMENT_DMA)
 135:Generated_Source\PSoC5/USB_pm.c ****         USB_Stop_DMA(USB_MAX_EP);
 136:Generated_Source\PSoC5/USB_pm.c ****     #endif /* (USB_EP_MANAGEMENT_DMA) */
 137:Generated_Source\PSoC5/USB_pm.c **** 
 138:Generated_Source\PSoC5/USB_pm.c ****     #if (CY_PSOC4)
 139:Generated_Source\PSoC5/USB_pm.c ****         /* Suspend enter sequence. */
 140:Generated_Source\PSoC5/USB_pm.c ****         USB_POWER_CTRL_REG |= (USB_POWER_CTRL_SUSPEND |
 141:Generated_Source\PSoC5/USB_pm.c ****                                             USB_POWER_CTRL_SUSPEND_DEL);
 142:Generated_Source\PSoC5/USB_pm.c **** 
 143:Generated_Source\PSoC5/USB_pm.c ****         /* Store state of USB regulator and disable it. */
 144:Generated_Source\PSoC5/USB_pm.c ****         USB_backup.mode = (uint8)  (USB_CR1_REG & USB_CR1_REG_ENABLE);
 145:Generated_Source\PSoC5/USB_pm.c ****         USB_CR1_REG    &= (uint32) ~USB_CR1_REG_ENABLE;
 146:Generated_Source\PSoC5/USB_pm.c ****         
 147:Generated_Source\PSoC5/USB_pm.c ****         /* Store SIE interrupt sources. Valid bits are 0 - 4. */
 148:Generated_Source\PSoC5/USB_pm.c ****         USB_backup.intrSeiMask = (uint8) USB_INTR_SIE_MASK_REG;
ARM GAS  C:\Users\JEFFSN~1\AppData\Local\Temp\ccMJA9GM.s 			page 37


 149:Generated_Source\PSoC5/USB_pm.c **** 
 150:Generated_Source\PSoC5/USB_pm.c ****     #else
 151:Generated_Source\PSoC5/USB_pm.c ****         /* Ensure USB transmit enable is low (USB_USBIO_CR0.ten). - Manual Transmission - Disabled.
 152:Generated_Source\PSoC5/USB_pm.c ****         USB_USBIO_CR0_REG &= (uint8) ~USB_USBIO_CR0_TEN;
 153:Generated_Source\PSoC5/USB_pm.c ****         CyDelayUs(USB_WAIT_REG_STABILITY_50NS);  /*~50ns delay. */
 154:Generated_Source\PSoC5/USB_pm.c **** 
 155:Generated_Source\PSoC5/USB_pm.c ****         /* Disable the USBIO by asserting PM.USB_CR0.fsusbio_pd_n(Inverted) and pd_pullup_hv(Invert
 156:Generated_Source\PSoC5/USB_pm.c ****         USB_PM_USB_CR0_REG &= (uint8) ~(USB_PM_USB_CR0_PD_N |
 157:Generated_Source\PSoC5/USB_pm.c ****                                                      USB_PM_USB_CR0_PD_PULLUP_N);
 158:Generated_Source\PSoC5/USB_pm.c **** 
 159:Generated_Source\PSoC5/USB_pm.c ****         /* Disable the SIE. */
 160:Generated_Source\PSoC5/USB_pm.c ****         USB_CR0_REG &= (uint8) ~USB_CR0_ENABLE;
 161:Generated_Source\PSoC5/USB_pm.c **** 
 162:Generated_Source\PSoC5/USB_pm.c ****         CyDelayUs(USB_WAIT_REG_STABILITY_50NS);  /* ~50ns delay. */
 163:Generated_Source\PSoC5/USB_pm.c ****         /* Store mode and disable VRegulator. */
 164:Generated_Source\PSoC5/USB_pm.c ****         USB_backup.mode = (uint8) (USB_CR1_REG & USB_CR1_REG_ENABLE);
 165:Generated_Source\PSoC5/USB_pm.c ****         USB_CR1_REG    &= (uint8) ~USB_CR1_REG_ENABLE;
 166:Generated_Source\PSoC5/USB_pm.c **** 
 167:Generated_Source\PSoC5/USB_pm.c ****         CyDelayUs(USB_WAIT_REG_STABILITY_1US); /* min 0.5us delay required. */
 168:Generated_Source\PSoC5/USB_pm.c **** 
 169:Generated_Source\PSoC5/USB_pm.c ****         /* Disable the USBIO reference by setting PM.USB_CR0.fsusbio_ref_en.*/
 170:Generated_Source\PSoC5/USB_pm.c ****         USB_PM_USB_CR0_REG &= (uint8) ~USB_PM_USB_CR0_REF_EN;
 171:Generated_Source\PSoC5/USB_pm.c **** 
 172:Generated_Source\PSoC5/USB_pm.c ****         /* Switch DP and DM terminals to GPIO mode and disconnect 1.5k pull-up. */
 173:Generated_Source\PSoC5/USB_pm.c ****         USB_USBIO_CR1_REG |= USB_USBIO_CR1_IOMODE;
 174:Generated_Source\PSoC5/USB_pm.c **** 
 175:Generated_Source\PSoC5/USB_pm.c ****         /* Disable USBFS block. */
 176:Generated_Source\PSoC5/USB_pm.c ****         /* Clear power active and standby mode templates: disable USB block. */
 177:Generated_Source\PSoC5/USB_pm.c ****         USB_PM_ACT_CFG_REG  &= (uint8) ~USB_PM_ACT_EN_FSUSB;
 178:Generated_Source\PSoC5/USB_pm.c ****         USB_PM_STBY_CFG_REG &= (uint8) ~USB_PM_STBY_EN_FSUSB;
 179:Generated_Source\PSoC5/USB_pm.c **** 
 180:Generated_Source\PSoC5/USB_pm.c ****         CyDelayUs(USB_WAIT_REG_STABILITY_1US); /* min 0.5us delay required. */
 181:Generated_Source\PSoC5/USB_pm.c ****     #endif /* (CY_PSOC4) */
 182:Generated_Source\PSoC5/USB_pm.c ****     }
 183:Generated_Source\PSoC5/USB_pm.c ****     else
 184:Generated_Source\PSoC5/USB_pm.c ****     {
 185:Generated_Source\PSoC5/USB_pm.c ****         USB_backup.enableState = 0u;
 587              		.loc 1 185 0
 588 0012 294B     		ldr	r3, .L15+4
 589 0014 0022     		movs	r2, #0
 590 0016 1A70     		strb	r2, [r3]
 591              	.L12:
 186:Generated_Source\PSoC5/USB_pm.c ****     }
 187:Generated_Source\PSoC5/USB_pm.c **** 
 188:Generated_Source\PSoC5/USB_pm.c ****     CyExitCriticalSection(enableInterrupts);
 592              		.loc 1 188 0
 593 0018 2846     		mov	r0, r5
 594 001a FFF7FEFF 		bl	CyExitCriticalSection
 595              	.LVL5:
 189:Generated_Source\PSoC5/USB_pm.c **** 
 190:Generated_Source\PSoC5/USB_pm.c **** #if (USB_DP_ISR_ACTIVE)
 191:Generated_Source\PSoC5/USB_pm.c ****     /* Clear active mode Dp interrupt source history. */
 192:Generated_Source\PSoC5/USB_pm.c ****     (void) USB_Dp_ClearInterrupt();
 596              		.loc 1 192 0
 597 001e FFF7FEFF 		bl	USB_Dp_ClearInterrupt
 598              	.LVL6:
 193:Generated_Source\PSoC5/USB_pm.c ****     CyIntClearPending(USB_DP_INTC_VECT_NUM);
ARM GAS  C:\Users\JEFFSN~1\AppData\Local\Temp\ccMJA9GM.s 			page 38


 599              		.loc 1 193 0
 600 0022 2649     		ldr	r1, .L15+8
 194:Generated_Source\PSoC5/USB_pm.c **** 
 195:Generated_Source\PSoC5/USB_pm.c ****     CyIntEnable      (USB_DP_INTC_VECT_NUM);
 601              		.loc 1 195 0
 602 0024 264A     		ldr	r2, .L15+12
 193:Generated_Source\PSoC5/USB_pm.c ****     CyIntClearPending(USB_DP_INTC_VECT_NUM);
 603              		.loc 1 193 0
 604 0026 4FF48053 		mov	r3, #4096
 605 002a 0B60     		str	r3, [r1]
 606              		.loc 1 195 0
 607 002c 1360     		str	r3, [r2]
 608 002e BDE8F081 		pop	{r4, r5, r6, r7, r8, pc}
 609              	.LVL7:
 610              	.L14:
 132:Generated_Source\PSoC5/USB_pm.c **** 
 611              		.loc 1 132 0
 612 0032 DFF88480 		ldr	r8, .L15+4
 613 0036 0127     		movs	r7, #1
 135:Generated_Source\PSoC5/USB_pm.c ****     #endif /* (USB_EP_MANAGEMENT_DMA) */
 614              		.loc 1 135 0
 615 0038 0920     		movs	r0, #9
 132:Generated_Source\PSoC5/USB_pm.c **** 
 616              		.loc 1 132 0
 617 003a 88F80070 		strb	r7, [r8]
 135:Generated_Source\PSoC5/USB_pm.c ****     #endif /* (USB_EP_MANAGEMENT_DMA) */
 618              		.loc 1 135 0
 619 003e FFF7FEFF 		bl	USB_Stop_DMA
 620              	.LVL8:
 152:Generated_Source\PSoC5/USB_pm.c ****         CyDelayUs(USB_WAIT_REG_STABILITY_50NS);  /*~50ns delay. */
 621              		.loc 1 152 0
 622 0042 204A     		ldr	r2, .L15+16
 156:Generated_Source\PSoC5/USB_pm.c ****                                                      USB_PM_USB_CR0_PD_PULLUP_N);
 623              		.loc 1 156 0
 624 0044 204E     		ldr	r6, .L15+20
 152:Generated_Source\PSoC5/USB_pm.c ****         CyDelayUs(USB_WAIT_REG_STABILITY_50NS);  /*~50ns delay. */
 625              		.loc 1 152 0
 626 0046 1378     		ldrb	r3, [r2]	@ zero_extendqisi2
 153:Generated_Source\PSoC5/USB_pm.c **** 
 627              		.loc 1 153 0
 628 0048 0020     		movs	r0, #0
 152:Generated_Source\PSoC5/USB_pm.c ****         CyDelayUs(USB_WAIT_REG_STABILITY_50NS);  /*~50ns delay. */
 629              		.loc 1 152 0
 630 004a 03F07F03 		and	r3, r3, #127
 631 004e 1370     		strb	r3, [r2]
 153:Generated_Source\PSoC5/USB_pm.c **** 
 632              		.loc 1 153 0
 633 0050 FFF7FEFF 		bl	CyDelayUs
 634              	.LVL9:
 156:Generated_Source\PSoC5/USB_pm.c ****                                                      USB_PM_USB_CR0_PD_PULLUP_N);
 635              		.loc 1 156 0
 636 0054 3378     		ldrb	r3, [r6]	@ zero_extendqisi2
 162:Generated_Source\PSoC5/USB_pm.c ****         /* Store mode and disable VRegulator. */
 637              		.loc 1 162 0
 638 0056 0020     		movs	r0, #0
 156:Generated_Source\PSoC5/USB_pm.c ****                                                      USB_PM_USB_CR0_PD_PULLUP_N);
 639              		.loc 1 156 0
ARM GAS  C:\Users\JEFFSN~1\AppData\Local\Temp\ccMJA9GM.s 			page 39


 640 0058 03F0F903 		and	r3, r3, #249
 641 005c 3370     		strb	r3, [r6]
 160:Generated_Source\PSoC5/USB_pm.c **** 
 642              		.loc 1 160 0
 643 005e 2378     		ldrb	r3, [r4]	@ zero_extendqisi2
 644 0060 03F07F03 		and	r3, r3, #127
 645 0064 2370     		strb	r3, [r4]
 162:Generated_Source\PSoC5/USB_pm.c ****         /* Store mode and disable VRegulator. */
 646              		.loc 1 162 0
 647 0066 FFF7FEFF 		bl	CyDelayUs
 648              	.LVL10:
 164:Generated_Source\PSoC5/USB_pm.c ****         USB_CR1_REG    &= (uint8) ~USB_CR1_REG_ENABLE;
 649              		.loc 1 164 0
 650 006a 184A     		ldr	r2, .L15+24
 167:Generated_Source\PSoC5/USB_pm.c **** 
 651              		.loc 1 167 0
 652 006c 3846     		mov	r0, r7
 164:Generated_Source\PSoC5/USB_pm.c ****         USB_CR1_REG    &= (uint8) ~USB_CR1_REG_ENABLE;
 653              		.loc 1 164 0
 654 006e 1378     		ldrb	r3, [r2]	@ zero_extendqisi2
 165:Generated_Source\PSoC5/USB_pm.c **** 
 655              		.loc 1 165 0
 656 0070 1178     		ldrb	r1, [r2]	@ zero_extendqisi2
 164:Generated_Source\PSoC5/USB_pm.c ****         USB_CR1_REG    &= (uint8) ~USB_CR1_REG_ENABLE;
 657              		.loc 1 164 0
 658 0072 3B40     		ands	r3, r3, r7
 165:Generated_Source\PSoC5/USB_pm.c **** 
 659              		.loc 1 165 0
 660 0074 01F0FE01 		and	r1, r1, #254
 661 0078 1170     		strb	r1, [r2]
 164:Generated_Source\PSoC5/USB_pm.c ****         USB_CR1_REG    &= (uint8) ~USB_CR1_REG_ENABLE;
 662              		.loc 1 164 0
 663 007a 88F80130 		strb	r3, [r8, #1]
 167:Generated_Source\PSoC5/USB_pm.c **** 
 664              		.loc 1 167 0
 665 007e FFF7FEFF 		bl	CyDelayUs
 666              	.LVL11:
 170:Generated_Source\PSoC5/USB_pm.c **** 
 667              		.loc 1 170 0
 668 0082 3378     		ldrb	r3, [r6]	@ zero_extendqisi2
 173:Generated_Source\PSoC5/USB_pm.c **** 
 669              		.loc 1 173 0
 670 0084 124A     		ldr	r2, .L15+28
 170:Generated_Source\PSoC5/USB_pm.c **** 
 671              		.loc 1 170 0
 672 0086 03F0FE03 		and	r3, r3, #254
 673 008a 3370     		strb	r3, [r6]
 173:Generated_Source\PSoC5/USB_pm.c **** 
 674              		.loc 1 173 0
 675 008c 1378     		ldrb	r3, [r2]	@ zero_extendqisi2
 177:Generated_Source\PSoC5/USB_pm.c ****         USB_PM_STBY_CFG_REG &= (uint8) ~USB_PM_STBY_EN_FSUSB;
 676              		.loc 1 177 0
 677 008e 1149     		ldr	r1, .L15+32
 173:Generated_Source\PSoC5/USB_pm.c **** 
 678              		.loc 1 173 0
 679 0090 43F02003 		orr	r3, r3, #32
 680 0094 1370     		strb	r3, [r2]
ARM GAS  C:\Users\JEFFSN~1\AppData\Local\Temp\ccMJA9GM.s 			page 40


 177:Generated_Source\PSoC5/USB_pm.c ****         USB_PM_STBY_CFG_REG &= (uint8) ~USB_PM_STBY_EN_FSUSB;
 681              		.loc 1 177 0
 682 0096 0B78     		ldrb	r3, [r1]	@ zero_extendqisi2
 178:Generated_Source\PSoC5/USB_pm.c **** 
 683              		.loc 1 178 0
 684 0098 A2F5E252 		sub	r2, r2, #7232
 177:Generated_Source\PSoC5/USB_pm.c ****         USB_PM_STBY_CFG_REG &= (uint8) ~USB_PM_STBY_EN_FSUSB;
 685              		.loc 1 177 0
 686 009c 03F0FE03 		and	r3, r3, #254
 178:Generated_Source\PSoC5/USB_pm.c **** 
 687              		.loc 1 178 0
 688 00a0 1D3A     		subs	r2, r2, #29
 177:Generated_Source\PSoC5/USB_pm.c ****         USB_PM_STBY_CFG_REG &= (uint8) ~USB_PM_STBY_EN_FSUSB;
 689              		.loc 1 177 0
 690 00a2 0B70     		strb	r3, [r1]
 178:Generated_Source\PSoC5/USB_pm.c **** 
 691              		.loc 1 178 0
 692 00a4 1378     		ldrb	r3, [r2]	@ zero_extendqisi2
 180:Generated_Source\PSoC5/USB_pm.c ****     #endif /* (CY_PSOC4) */
 693              		.loc 1 180 0
 694 00a6 3846     		mov	r0, r7
 178:Generated_Source\PSoC5/USB_pm.c **** 
 695              		.loc 1 178 0
 696 00a8 03F0FE03 		and	r3, r3, #254
 697 00ac 1370     		strb	r3, [r2]
 180:Generated_Source\PSoC5/USB_pm.c ****     #endif /* (CY_PSOC4) */
 698              		.loc 1 180 0
 699 00ae FFF7FEFF 		bl	CyDelayUs
 700              	.LVL12:
 701 00b2 B1E7     		b	.L12
 702              	.L16:
 703              		.align	2
 704              	.L15:
 705 00b4 08600040 		.word	1073766408
 706 00b8 00000000 		.word	.LANCHOR0
 707 00bc 80E200E0 		.word	-536812928
 708 00c0 00E100E0 		.word	-536813312
 709 00c4 10600040 		.word	1073766416
 710 00c8 94430040 		.word	1073759124
 711 00cc 09600040 		.word	1073766409
 712 00d0 12600040 		.word	1073766418
 713 00d4 A5430040 		.word	1073759141
 714              		.cfi_endproc
 715              	.LFE3:
 716              		.size	USB_Suspend, .-USB_Suspend
 717              		.section	.text.USB_Resume,"ax",%progbits
 718              		.align	2
 719              		.global	USB_Resume
 720              		.thumb
 721              		.thumb_func
 722              		.type	USB_Resume, %function
 723              	USB_Resume:
 724              	.LFB4:
 196:Generated_Source\PSoC5/USB_pm.c **** #endif /* (USB_DP_ISR_ACTIVE). */
 197:Generated_Source\PSoC5/USB_pm.c **** }
 198:Generated_Source\PSoC5/USB_pm.c **** 
 199:Generated_Source\PSoC5/USB_pm.c **** 
ARM GAS  C:\Users\JEFFSN~1\AppData\Local\Temp\ccMJA9GM.s 			page 41


 200:Generated_Source\PSoC5/USB_pm.c **** /*******************************************************************************
 201:Generated_Source\PSoC5/USB_pm.c **** * Function Name: USB_Resume
 202:Generated_Source\PSoC5/USB_pm.c **** ****************************************************************************//**
 203:Generated_Source\PSoC5/USB_pm.c **** *
 204:Generated_Source\PSoC5/USB_pm.c **** *  This function prepares the USBFS component for active mode operation after 
 205:Generated_Source\PSoC5/USB_pm.c **** *  exit low power mode. It restores the component active mode configuration such 
 206:Generated_Source\PSoC5/USB_pm.c **** *  as device address assigned previously by the host, endpoints buffer and disables 
 207:Generated_Source\PSoC5/USB_pm.c **** *  interrupt on Dp pin.
 208:Generated_Source\PSoC5/USB_pm.c **** *  The supported low power modes are Deep Sleep (PSoC 4200L) and Sleep 
 209:Generated_Source\PSoC5/USB_pm.c **** *  (PSoC 3/ PSoC 5LP).
 210:Generated_Source\PSoC5/USB_pm.c **** *  
 211:Generated_Source\PSoC5/USB_pm.c **** *  *Note* For PSoC 4200L devices, this function should not be called after 
 212:Generated_Source\PSoC5/USB_pm.c **** *  exiting Sleep.
 213:Generated_Source\PSoC5/USB_pm.c **** *  
 214:Generated_Source\PSoC5/USB_pm.c **** *  *Note* To resume communication with the host, the data endpoints must be 
 215:Generated_Source\PSoC5/USB_pm.c **** *  managed: the OUT endpoints must be enabled and IN endpoints must be loaded 
 216:Generated_Source\PSoC5/USB_pm.c **** *  with data. For DMA with Automatic Buffer Management, all endpoints buffers 
 217:Generated_Source\PSoC5/USB_pm.c **** *  must be initialized again before making them available to the host.
 218:Generated_Source\PSoC5/USB_pm.c **** *
 219:Generated_Source\PSoC5/USB_pm.c **** *
 220:Generated_Source\PSoC5/USB_pm.c **** * \globalvars
 221:Generated_Source\PSoC5/USB_pm.c **** *  USB_backup - checked.
 222:Generated_Source\PSoC5/USB_pm.c **** *
 223:Generated_Source\PSoC5/USB_pm.c **** * \reentrant
 224:Generated_Source\PSoC5/USB_pm.c **** *  No.
 225:Generated_Source\PSoC5/USB_pm.c **** *
 226:Generated_Source\PSoC5/USB_pm.c **** *******************************************************************************/
 227:Generated_Source\PSoC5/USB_pm.c **** void USB_Resume(void) 
 228:Generated_Source\PSoC5/USB_pm.c **** {
 725              		.loc 1 228 0
 726              		.cfi_startproc
 727              		@ args = 0, pretend = 0, frame = 0
 728              		@ frame_needed = 0, uses_anonymous_args = 0
 729 0000 F8B5     		push	{r3, r4, r5, r6, r7, lr}
 730              		.cfi_def_cfa_offset 24
 731              		.cfi_offset 3, -24
 732              		.cfi_offset 4, -20
 733              		.cfi_offset 5, -16
 734              		.cfi_offset 6, -12
 735              		.cfi_offset 7, -8
 736              		.cfi_offset 14, -4
 229:Generated_Source\PSoC5/USB_pm.c ****     uint8 enableInterrupts;
 230:Generated_Source\PSoC5/USB_pm.c **** 
 231:Generated_Source\PSoC5/USB_pm.c ****     enableInterrupts = CyEnterCriticalSection();
 737              		.loc 1 231 0
 738 0002 FFF7FEFF 		bl	CyEnterCriticalSection
 739              	.LVL13:
 232:Generated_Source\PSoC5/USB_pm.c **** 
 233:Generated_Source\PSoC5/USB_pm.c ****     if (0u != USB_backup.enableState)
 740              		.loc 1 233 0
 741 0006 2D4D     		ldr	r5, .L26
 231:Generated_Source\PSoC5/USB_pm.c **** 
 742              		.loc 1 231 0
 743 0008 0646     		mov	r6, r0
 744              	.LVL14:
 745              		.loc 1 233 0
 746 000a 2B78     		ldrb	r3, [r5]	@ zero_extendqisi2
ARM GAS  C:\Users\JEFFSN~1\AppData\Local\Temp\ccMJA9GM.s 			page 42


 747 000c 23B9     		cbnz	r3, .L25
 748              	.L19:
 234:Generated_Source\PSoC5/USB_pm.c ****     {
 235:Generated_Source\PSoC5/USB_pm.c ****     #if (USB_DP_ISR_ACTIVE)
 236:Generated_Source\PSoC5/USB_pm.c ****         CyIntDisable(USB_DP_INTC_VECT_NUM);
 237:Generated_Source\PSoC5/USB_pm.c ****     #endif /* (USB_DP_ISR_ACTIVE) */
 238:Generated_Source\PSoC5/USB_pm.c **** 
 239:Generated_Source\PSoC5/USB_pm.c ****     #if (CY_PSOC4)
 240:Generated_Source\PSoC5/USB_pm.c ****         /* Enable clock to USB IP. */
 241:Generated_Source\PSoC5/USB_pm.c ****         USB_USB_CLK_EN_REG |= USB_USB_CLK_CSR_CLK_EN;
 242:Generated_Source\PSoC5/USB_pm.c **** 
 243:Generated_Source\PSoC5/USB_pm.c ****         /* Restore arbiter configuration for DMA transfers. */
 244:Generated_Source\PSoC5/USB_pm.c ****         #if (USB_EP_MANAGEMENT_DMA)
 245:Generated_Source\PSoC5/USB_pm.c ****             #if (USB_ARB_ISR_ACTIVE)
 246:Generated_Source\PSoC5/USB_pm.c ****                 /* Enable ARB EP interrupt sources. */
 247:Generated_Source\PSoC5/USB_pm.c ****                 USB_ARB_INT_EN_REG = USB_DEFAULT_ARB_INT_EN;
 248:Generated_Source\PSoC5/USB_pm.c ****             #endif /* (USB_EP_MANAGEMENT_DMA) */
 249:Generated_Source\PSoC5/USB_pm.c **** 
 250:Generated_Source\PSoC5/USB_pm.c ****             /* Configure arbiter for Manual or Auto DMA operation and clear 
 251:Generated_Source\PSoC5/USB_pm.c ****             * configuration completion. 
 252:Generated_Source\PSoC5/USB_pm.c ****             */
 253:Generated_Source\PSoC5/USB_pm.c ****             USB_ARB_CFG_REG = USB_DEFAULT_ARB_CFG;
 254:Generated_Source\PSoC5/USB_pm.c ****         #endif /* (USB_EP_MANAGEMENT_DMA) */
 255:Generated_Source\PSoC5/USB_pm.c **** 
 256:Generated_Source\PSoC5/USB_pm.c ****         /* Restore level (hi, lo, med) for each interrupt source. */
 257:Generated_Source\PSoC5/USB_pm.c ****         USB_INTR_LVL_SEL_REG = USB_DEFAULT_INTR_LVL_SEL;
 258:Generated_Source\PSoC5/USB_pm.c ****         
 259:Generated_Source\PSoC5/USB_pm.c ****         /* Store SIE interrupt sources. */
 260:Generated_Source\PSoC5/USB_pm.c ****         USB_INTR_SIE_MASK_REG = (uint32) USB_backup.intrSeiMask;
 261:Generated_Source\PSoC5/USB_pm.c **** 
 262:Generated_Source\PSoC5/USB_pm.c ****         /* Set EP0.CR: ACK Setup, NAK IN/OUT. */
 263:Generated_Source\PSoC5/USB_pm.c ****         USB_EP0_CR_REG = USB_MODE_NAK_IN_OUT;
 264:Generated_Source\PSoC5/USB_pm.c **** 
 265:Generated_Source\PSoC5/USB_pm.c ****         /* Restore data EP1-8 configuration. */
 266:Generated_Source\PSoC5/USB_pm.c ****         USB_RestoreConfig();
 267:Generated_Source\PSoC5/USB_pm.c **** 
 268:Generated_Source\PSoC5/USB_pm.c ****         /* Restore state of USB regulator and wait until it supples stable power. */
 269:Generated_Source\PSoC5/USB_pm.c ****         USB_CR1_REG |= USB_backup.mode;
 270:Generated_Source\PSoC5/USB_pm.c ****         CyDelayUs(USB_WAIT_VREF_STABILITY);
 271:Generated_Source\PSoC5/USB_pm.c **** 
 272:Generated_Source\PSoC5/USB_pm.c ****         /* Suspend exit sequence. */
 273:Generated_Source\PSoC5/USB_pm.c ****         USB_POWER_CTRL_REG &= (uint32) ~USB_POWER_CTRL_SUSPEND;
 274:Generated_Source\PSoC5/USB_pm.c ****         CyDelayUs(USB_WAIT_SUSPEND_DEL_DISABLE);
 275:Generated_Source\PSoC5/USB_pm.c ****         USB_POWER_CTRL_REG &= (uint32) ~USB_POWER_CTRL_SUSPEND_DEL;
 276:Generated_Source\PSoC5/USB_pm.c **** 
 277:Generated_Source\PSoC5/USB_pm.c ****     #else
 278:Generated_Source\PSoC5/USB_pm.c ****         /* Set power active and standby mode templates: enable USB block. */
 279:Generated_Source\PSoC5/USB_pm.c ****         USB_PM_ACT_CFG_REG  |= USB_PM_ACT_EN_FSUSB;
 280:Generated_Source\PSoC5/USB_pm.c ****         USB_PM_STBY_CFG_REG |= USB_PM_STBY_EN_FSUSB;
 281:Generated_Source\PSoC5/USB_pm.c **** 
 282:Generated_Source\PSoC5/USB_pm.c ****         /* Enable core clock. */
 283:Generated_Source\PSoC5/USB_pm.c ****         USB_USB_CLK_EN_REG |= USB_USB_CLK_ENABLE;
 284:Generated_Source\PSoC5/USB_pm.c **** 
 285:Generated_Source\PSoC5/USB_pm.c ****         /* Enable the USBIO reference by setting PM.USB_CR0.fsusbio_ref_en.*/
 286:Generated_Source\PSoC5/USB_pm.c ****         USB_PM_USB_CR0_REG |= USB_PM_USB_CR0_REF_EN;
 287:Generated_Source\PSoC5/USB_pm.c **** 
 288:Generated_Source\PSoC5/USB_pm.c ****         /* The reference is available ~40us after power restored. */
ARM GAS  C:\Users\JEFFSN~1\AppData\Local\Temp\ccMJA9GM.s 			page 43


 289:Generated_Source\PSoC5/USB_pm.c ****         CyDelayUs(USB_WAIT_VREF_RESTORE);
 290:Generated_Source\PSoC5/USB_pm.c ****         /* Restore state of USB regulator and wait until it supples stable power. */
 291:Generated_Source\PSoC5/USB_pm.c ****         USB_CR1_REG |= USB_backup.mode;
 292:Generated_Source\PSoC5/USB_pm.c ****         CyDelayUs(USB_WAIT_VREF_STABILITY);   /*~50ns delay. */
 293:Generated_Source\PSoC5/USB_pm.c **** 
 294:Generated_Source\PSoC5/USB_pm.c ****         /* Enable USBIO. */
 295:Generated_Source\PSoC5/USB_pm.c ****         USB_PM_USB_CR0_REG |= USB_PM_USB_CR0_PD_N;
 296:Generated_Source\PSoC5/USB_pm.c ****         CyDelayUs(USB_WAIT_PD_PULLUP_N_ENABLE);
 297:Generated_Source\PSoC5/USB_pm.c ****         /* Set the USBIO pull-up enable. */
 298:Generated_Source\PSoC5/USB_pm.c ****         USB_PM_USB_CR0_REG |= USB_PM_USB_CR0_PD_PULLUP_N;
 299:Generated_Source\PSoC5/USB_pm.c **** 
 300:Generated_Source\PSoC5/USB_pm.c ****         /* Restore arbiter configuration for DMA transfers. */
 301:Generated_Source\PSoC5/USB_pm.c ****         #if (USB_EP_MANAGEMENT_DMA)
 302:Generated_Source\PSoC5/USB_pm.c ****             #if (USB_ARB_ISR_ACTIVE)
 303:Generated_Source\PSoC5/USB_pm.c ****                 /* Enable ARB EP interrupt sources. */
 304:Generated_Source\PSoC5/USB_pm.c ****                 USB_ARB_INT_EN_REG = USB_DEFAULT_ARB_INT_EN;
 305:Generated_Source\PSoC5/USB_pm.c ****             #endif /* (USB_EP_MANAGEMENT_DMA) */
 306:Generated_Source\PSoC5/USB_pm.c **** 
 307:Generated_Source\PSoC5/USB_pm.c ****             /* Configure arbiter for Manual or Auto DMA operation and clear 
 308:Generated_Source\PSoC5/USB_pm.c ****             * configuration completion. 
 309:Generated_Source\PSoC5/USB_pm.c ****             */
 310:Generated_Source\PSoC5/USB_pm.c ****             USB_ARB_CFG_REG = USB_DEFAULT_ARB_CFG;
 311:Generated_Source\PSoC5/USB_pm.c ****         #endif /* (USB_EP_MANAGEMENT_DMA) */
 312:Generated_Source\PSoC5/USB_pm.c **** 
 313:Generated_Source\PSoC5/USB_pm.c ****         /* Set EP0.CR: ACK Setup, STALL IN/OUT. */
 314:Generated_Source\PSoC5/USB_pm.c ****         USB_EP0_CR_REG = USB_MODE_STALL_IN_OUT;
 315:Generated_Source\PSoC5/USB_pm.c **** 
 316:Generated_Source\PSoC5/USB_pm.c ****         /* Enable the USB IP to respond to USB traffic with the last address. */
 317:Generated_Source\PSoC5/USB_pm.c ****         USB_CR0_REG |= USB_CR0_ENABLE;
 318:Generated_Source\PSoC5/USB_pm.c ****         CyDelayCycles(USB_WAIT_CR0_REG_STABILITY);
 319:Generated_Source\PSoC5/USB_pm.c **** 
 320:Generated_Source\PSoC5/USB_pm.c ****         /* Enable D+ pull-up and keep USB control on IO. */
 321:Generated_Source\PSoC5/USB_pm.c ****         USB_USBIO_CR1_REG = USB_USBIO_CR1_USBPUEN;
 322:Generated_Source\PSoC5/USB_pm.c **** 
 323:Generated_Source\PSoC5/USB_pm.c ****         /* Restore data EP1-8 configuration. */
 324:Generated_Source\PSoC5/USB_pm.c ****         USB_RestoreConfig();
 325:Generated_Source\PSoC5/USB_pm.c ****     #endif /* (CY_PSOC4) */
 326:Generated_Source\PSoC5/USB_pm.c ****     }
 327:Generated_Source\PSoC5/USB_pm.c **** 
 328:Generated_Source\PSoC5/USB_pm.c ****     CyExitCriticalSection(enableInterrupts);
 749              		.loc 1 328 0
 750 000e 3046     		mov	r0, r6
 329:Generated_Source\PSoC5/USB_pm.c **** }
 751              		.loc 1 329 0
 752 0010 BDE8F840 		pop	{r3, r4, r5, r6, r7, lr}
 753              		.cfi_remember_state
 754              		.cfi_restore 14
 755              		.cfi_restore 7
 756              		.cfi_restore 6
 757              		.cfi_restore 5
 758              		.cfi_restore 4
 759              		.cfi_restore 3
 760              		.cfi_def_cfa_offset 0
 761              	.LVL15:
 328:Generated_Source\PSoC5/USB_pm.c **** }
 762              		.loc 1 328 0
 763 0014 FFF7FEBF 		b	CyExitCriticalSection
ARM GAS  C:\Users\JEFFSN~1\AppData\Local\Temp\ccMJA9GM.s 			page 44


 764              	.LVL16:
 765              	.L25:
 766              		.cfi_restore_state
 236:Generated_Source\PSoC5/USB_pm.c ****     #endif /* (USB_DP_ISR_ACTIVE) */
 767              		.loc 1 236 0
 768 0018 294B     		ldr	r3, .L26+4
 279:Generated_Source\PSoC5/USB_pm.c ****         USB_PM_STBY_CFG_REG |= USB_PM_STBY_EN_FSUSB;
 769              		.loc 1 279 0
 770 001a 2A4A     		ldr	r2, .L26+8
 236:Generated_Source\PSoC5/USB_pm.c ****     #endif /* (USB_DP_ISR_ACTIVE) */
 771              		.loc 1 236 0
 772 001c 4FF48051 		mov	r1, #4096
 773 0020 1960     		str	r1, [r3]
 279:Generated_Source\PSoC5/USB_pm.c ****         USB_PM_STBY_CFG_REG |= USB_PM_STBY_EN_FSUSB;
 774              		.loc 1 279 0
 775 0022 1378     		ldrb	r3, [r2]	@ zero_extendqisi2
 280:Generated_Source\PSoC5/USB_pm.c **** 
 776              		.loc 1 280 0
 777 0024 2849     		ldr	r1, .L26+12
 279:Generated_Source\PSoC5/USB_pm.c ****         USB_PM_STBY_CFG_REG |= USB_PM_STBY_EN_FSUSB;
 778              		.loc 1 279 0
 779 0026 43F00103 		orr	r3, r3, #1
 780 002a 1370     		strb	r3, [r2]
 280:Generated_Source\PSoC5/USB_pm.c **** 
 781              		.loc 1 280 0
 782 002c 0B78     		ldrb	r3, [r1]	@ zero_extendqisi2
 283:Generated_Source\PSoC5/USB_pm.c **** 
 783              		.loc 1 283 0
 784 002e 02F5E752 		add	r2, r2, #7392
 280:Generated_Source\PSoC5/USB_pm.c **** 
 785              		.loc 1 280 0
 786 0032 43F00103 		orr	r3, r3, #1
 787 0036 0B70     		strb	r3, [r1]
 283:Generated_Source\PSoC5/USB_pm.c **** 
 788              		.loc 1 283 0
 789 0038 1832     		adds	r2, r2, #24
 790 003a 1378     		ldrb	r3, [r2]	@ zero_extendqisi2
 286:Generated_Source\PSoC5/USB_pm.c **** 
 791              		.loc 1 286 0
 792 003c 234C     		ldr	r4, .L26+16
 283:Generated_Source\PSoC5/USB_pm.c **** 
 793              		.loc 1 283 0
 794 003e 43F00103 		orr	r3, r3, #1
 795 0042 1370     		strb	r3, [r2]
 286:Generated_Source\PSoC5/USB_pm.c **** 
 796              		.loc 1 286 0
 797 0044 2378     		ldrb	r3, [r4]	@ zero_extendqisi2
 289:Generated_Source\PSoC5/USB_pm.c ****         /* Restore state of USB regulator and wait until it supples stable power. */
 798              		.loc 1 289 0
 799 0046 2820     		movs	r0, #40
 286:Generated_Source\PSoC5/USB_pm.c **** 
 800              		.loc 1 286 0
 801 0048 43F00103 		orr	r3, r3, #1
 802 004c 2370     		strb	r3, [r4]
 289:Generated_Source\PSoC5/USB_pm.c ****         /* Restore state of USB regulator and wait until it supples stable power. */
 803              		.loc 1 289 0
 804 004e FFF7FEFF 		bl	CyDelayUs
ARM GAS  C:\Users\JEFFSN~1\AppData\Local\Temp\ccMJA9GM.s 			page 45


 805              	.LVL17:
 291:Generated_Source\PSoC5/USB_pm.c ****         CyDelayUs(USB_WAIT_VREF_STABILITY);   /*~50ns delay. */
 806              		.loc 1 291 0
 807 0052 1F4A     		ldr	r2, .L26+20
 808 0054 6B78     		ldrb	r3, [r5, #1]	@ zero_extendqisi2
 809 0056 1178     		ldrb	r1, [r2]	@ zero_extendqisi2
 292:Generated_Source\PSoC5/USB_pm.c **** 
 810              		.loc 1 292 0
 811 0058 0020     		movs	r0, #0
 291:Generated_Source\PSoC5/USB_pm.c ****         CyDelayUs(USB_WAIT_VREF_STABILITY);   /*~50ns delay. */
 812              		.loc 1 291 0
 813 005a 0B43     		orrs	r3, r3, r1
 814 005c 1370     		strb	r3, [r2]
 292:Generated_Source\PSoC5/USB_pm.c **** 
 815              		.loc 1 292 0
 816 005e FFF7FEFF 		bl	CyDelayUs
 817              	.LVL18:
 295:Generated_Source\PSoC5/USB_pm.c ****         CyDelayUs(USB_WAIT_PD_PULLUP_N_ENABLE);
 818              		.loc 1 295 0
 819 0062 2378     		ldrb	r3, [r4]	@ zero_extendqisi2
 296:Generated_Source\PSoC5/USB_pm.c ****         /* Set the USBIO pull-up enable. */
 820              		.loc 1 296 0
 821 0064 0220     		movs	r0, #2
 295:Generated_Source\PSoC5/USB_pm.c ****         CyDelayUs(USB_WAIT_PD_PULLUP_N_ENABLE);
 822              		.loc 1 295 0
 823 0066 0343     		orrs	r3, r3, r0
 824 0068 2370     		strb	r3, [r4]
 296:Generated_Source\PSoC5/USB_pm.c ****         /* Set the USBIO pull-up enable. */
 825              		.loc 1 296 0
 826 006a FFF7FEFF 		bl	CyDelayUs
 827              	.LVL19:
 298:Generated_Source\PSoC5/USB_pm.c **** 
 828              		.loc 1 298 0
 829 006e 2378     		ldrb	r3, [r4]	@ zero_extendqisi2
 304:Generated_Source\PSoC5/USB_pm.c ****             #endif /* (USB_EP_MANAGEMENT_DMA) */
 830              		.loc 1 304 0
 831 0070 DFF874E0 		ldr	lr, .L26+44
 314:Generated_Source\PSoC5/USB_pm.c **** 
 832              		.loc 1 314 0
 833 0074 1748     		ldr	r0, .L26+24
 310:Generated_Source\PSoC5/USB_pm.c ****         #endif /* (USB_EP_MANAGEMENT_DMA) */
 834              		.loc 1 310 0
 835 0076 184D     		ldr	r5, .L26+28
 304:Generated_Source\PSoC5/USB_pm.c ****             #endif /* (USB_EP_MANAGEMENT_DMA) */
 836              		.loc 1 304 0
 837 0078 0321     		movs	r1, #3
 317:Generated_Source\PSoC5/USB_pm.c ****         CyDelayCycles(USB_WAIT_CR0_REG_STABILITY);
 838              		.loc 1 317 0
 839 007a 184A     		ldr	r2, .L26+32
 298:Generated_Source\PSoC5/USB_pm.c **** 
 840              		.loc 1 298 0
 841 007c 43F00403 		orr	r3, r3, #4
 310:Generated_Source\PSoC5/USB_pm.c ****         #endif /* (USB_EP_MANAGEMENT_DMA) */
 842              		.loc 1 310 0
 843 0080 5027     		movs	r7, #80
 298:Generated_Source\PSoC5/USB_pm.c **** 
 844              		.loc 1 298 0
ARM GAS  C:\Users\JEFFSN~1\AppData\Local\Temp\ccMJA9GM.s 			page 46


 845 0082 2370     		strb	r3, [r4]
 304:Generated_Source\PSoC5/USB_pm.c ****             #endif /* (USB_EP_MANAGEMENT_DMA) */
 846              		.loc 1 304 0
 847 0084 8EF80010 		strb	r1, [lr]
 310:Generated_Source\PSoC5/USB_pm.c ****         #endif /* (USB_EP_MANAGEMENT_DMA) */
 848              		.loc 1 310 0
 849 0088 2F70     		strb	r7, [r5]
 314:Generated_Source\PSoC5/USB_pm.c **** 
 850              		.loc 1 314 0
 851 008a 0170     		strb	r1, [r0]
 317:Generated_Source\PSoC5/USB_pm.c ****         CyDelayCycles(USB_WAIT_CR0_REG_STABILITY);
 852              		.loc 1 317 0
 853 008c 1378     		ldrb	r3, [r2]	@ zero_extendqisi2
 318:Generated_Source\PSoC5/USB_pm.c **** 
 854              		.loc 1 318 0
 855 008e 0120     		movs	r0, #1
 317:Generated_Source\PSoC5/USB_pm.c ****         CyDelayCycles(USB_WAIT_CR0_REG_STABILITY);
 856              		.loc 1 317 0
 857 0090 43F08003 		orr	r3, r3, #128
 858 0094 1370     		strb	r3, [r2]
 318:Generated_Source\PSoC5/USB_pm.c **** 
 859              		.loc 1 318 0
 860 0096 FFF7FEFF 		bl	CyDelayCycles
 861              	.LVL20:
 321:Generated_Source\PSoC5/USB_pm.c **** 
 862              		.loc 1 321 0
 863 009a 114A     		ldr	r2, .L26+36
 864 009c 0421     		movs	r1, #4
 865              	.LBB4:
 866              	.LBB5:
  90:Generated_Source\PSoC5/USB_pm.c ****     {
 867              		.loc 1 90 0
 868 009e 114B     		ldr	r3, .L26+40
 869              	.LBE5:
 870              	.LBE4:
 321:Generated_Source\PSoC5/USB_pm.c **** 
 871              		.loc 1 321 0
 872 00a0 1170     		strb	r1, [r2]
 873              	.LBB7:
 874              	.LBB6:
  90:Generated_Source\PSoC5/USB_pm.c ****     {
 875              		.loc 1 90 0
 876 00a2 1B78     		ldrb	r3, [r3]	@ zero_extendqisi2
 877 00a4 002B     		cmp	r3, #0
 878 00a6 B2D0     		beq	.L19
  92:Generated_Source\PSoC5/USB_pm.c ****         USB_EpStateInit();
 879              		.loc 1 92 0
 880 00a8 FFF7FEFF 		bl	USB_ConfigReg
 881              	.LVL21:
  93:Generated_Source\PSoC5/USB_pm.c ****     }
 882              		.loc 1 93 0
 883 00ac FFF7FEFF 		bl	USB_EpStateInit
 884              	.LVL22:
 885              	.LBE6:
 886              	.LBE7:
 328:Generated_Source\PSoC5/USB_pm.c **** }
 887              		.loc 1 328 0
ARM GAS  C:\Users\JEFFSN~1\AppData\Local\Temp\ccMJA9GM.s 			page 47


 888 00b0 3046     		mov	r0, r6
 889              		.loc 1 329 0
 890 00b2 BDE8F840 		pop	{r3, r4, r5, r6, r7, lr}
 891              		.cfi_restore 3
 892              		.cfi_restore 4
 893              		.cfi_restore 5
 894              		.cfi_restore 6
 895              		.cfi_restore 7
 896              		.cfi_restore 14
 897              		.cfi_def_cfa_offset 0
 898              	.LVL23:
 328:Generated_Source\PSoC5/USB_pm.c **** }
 899              		.loc 1 328 0
 900 00b6 FFF7FEBF 		b	CyExitCriticalSection
 901              	.LVL24:
 902              	.L27:
 903 00ba 00BF     		.align	2
 904              	.L26:
 905 00bc 00000000 		.word	.LANCHOR0
 906 00c0 80E100E0 		.word	-536813184
 907 00c4 A5430040 		.word	1073759141
 908 00c8 B5430040 		.word	1073759157
 909 00cc 94430040 		.word	1073759124
 910 00d0 09600040 		.word	1073766409
 911 00d4 28600040 		.word	1073766440
 912 00d8 9C600040 		.word	1073766556
 913 00dc 08600040 		.word	1073766408
 914 00e0 12600040 		.word	1073766418
 915 00e4 00000000 		.word	USB_configuration
 916 00e8 9E600040 		.word	1073766558
 917              		.cfi_endproc
 918              	.LFE4:
 919              		.size	USB_Resume, .-USB_Resume
 920              		.bss
 921              		.align	2
 922              		.set	.LANCHOR0,. + 0
 923              		.type	USB_backup, %object
 924              		.size	USB_backup, 2
 925              	USB_backup:
 926 0000 0000     		.space	2
 927              		.text
 928              	.Letext0:
 929              		.file 2 "Generated_Source\\PSoC5\\cytypes.h"
 930              		.file 3 "Generated_Source\\PSoC5\\USB.h"
 931              		.file 4 "Generated_Source\\PSoC5\\USB_Dp.h"
 932              		.file 5 "Generated_Source\\PSoC5\\USB_pvt.h"
 933              		.file 6 "Generated_Source\\PSoC5\\CyLib.h"