ARM GAS  C:\Users\JEFFSN~1\AppData\Local\Temp\ccB4OmnA.s 			page 1


   1              		.syntax unified
   2              		.cpu cortex-m3
   3              		.fpu softvfp
   4              		.eabi_attribute 20, 1
   5              		.eabi_attribute 21, 1
   6              		.eabi_attribute 23, 3
   7              		.eabi_attribute 24, 1
   8              		.eabi_attribute 25, 1
   9              		.eabi_attribute 26, 1
  10              		.eabi_attribute 30, 1
  11              		.eabi_attribute 34, 1
  12              		.eabi_attribute 18, 4
  13              		.thumb
  14              		.syntax unified
  15              		.file	"USB_EP_DMA_Done_isr.c"
  16              		.text
  17              	.Ltext0:
  18              		.section	.gnu.lto_.profile.7239a87d,"",%progbits
  19 0000 789C6361 		.ascii	"x\234ca`d`e`\000\222\223\031u\000\002e\000\314"
  19      60646065 
  19      60009293 
  19      19750002 
  19      6500CC
  20              		.text
  21              		.section	.gnu.lto_.inline.7239a87d,"",%progbits
  22 0000 789C6361 		.ascii	"x\234ca`d\000\001]\010\005\006\274\014\014\314L\214"
  22      60640001 
  22      5D080506 
  22      BC0C0CCC 
  22      4C8C
  23 0012 0C4C4026 		.ascii	"\014L@&\333\002y\020\005T\304\312\002\024aY \017\027"
  23      DB027910 
  23      0554C4CA 
  23      02146159 
  23      200F17
  24 0025 62C21462 		.ascii	"b\302\024b\306\024b\301\024be`a\006\0121]\340\207\013"
  24      C61462C1 
  24      14626560 
  24      61060A31 
  24      5DE0870B 
  25 0039 B131B0B3 		.ascii	"\2611\260\263\001\2058\016\330\301\205\3301Uq0p\352"
  25      0185380E 
  25      D8C185D8 
  25      31557130 
  25      70EA
  26 004b A0398B0B 		.ascii	"\2409\213\013\344\020n\220\373 $X\200\223\240\272\011"
  26      E4106E90 
  26      FB202458 
  26      8093A0BA 
  26      09
  27 005c 7E60112E 		.ascii	"~`\021.\0066qT\205H\246\360`:\200\027S\210\001\000\334"
  27      06367154 
  27      8548A6F0 
  27      603A8017 
  27      53880100 
  28 0071 94149D   		.ascii	"\224\024\235"
  29              		.text
ARM GAS  C:\Users\JEFFSN~1\AppData\Local\Temp\ccB4OmnA.s 			page 2


  30              		.section	.gnu.lto_.jmpfuncs.7239a87d,"",%progbits
  31 0000 789C458A 		.ascii	"x\234E\212\333\015\000 \014\002O\255\317\3504\356\277"
  31      DB0D0020 
  31      0C024FAD 
  31      CFE834EE 
  31      BF
  32 0011 9B6DF8F0 		.ascii	"\233m\370\360\022 \001\214Dp\371\034\227\267\031\012"
  32      1220018C 
  32      4470F91C 
  32      97B7190A 
  33 0021 185468D0 		.ascii	"\030Th\320ah\237\212\025\266u\177\027\033\000\226"
  33      61689F8A 
  33      15B6757F 
  33      171B0096 
  34              		.text
  35              		.section	.gnu.lto_.pureconst.7239a87d,"",%progbits
  36 0000 789C05C1 		.ascii	"x\234\005\301I\022\000 \010\004\261A\301\255\344N\265"
  36      49120020 
  36      0804B141 
  36      C1ADE44E 
  36      B5
  37 0011 FFFFA789 		.ascii	"\377\377\247\211\313\364$\245d\264\3508\301`\262j\327"
  37      CBF424A5 
  37      64B4E838 
  37      C160B26A 
  37      D7
  38 0022 A94BF201 		.ascii	"\251K\362\001\025\017\001\233"
  38      150F019B 
  39              		.text
  40              		.section	.gnu.lto_USB_EP_DMA_Done_isr_Interrupt.7239a87d,"",%progbits
  41 0000 789C6361 		.ascii	"x\234ca`d\000\201j \326\007bi fdf`d\232p\216\201\241"
  41      60640081 
  41      6A20D607 
  41      62692066 
  41      64666064 
  42 0019 91838991 		.ascii	"\221\203\211\221\021\304h\340`d\250gb\254g\374\312\364"
  42      11C468E0 
  42      6064A867 
  42      62AC67FC 
  42      CAF4
  43 002b 9789F150 		.ascii	"\227\211\361P\373\263\235L\232\313\033\200\340A\353"
  43      FBB39D4C 
  43      9ACB1B80 
  43      E041EB
  44 003a 26CE8615 		.ascii	"&\316\206\025\007\030[\231\031\030\3763\201Mb`\\\316"
  44      07185B99 
  44      1918FE33 
  44      814D6260 
  44      5CCE
  45 004c A8C90054 		.ascii	"\250\311\000T\366h\343\277\251\274l- e\012\020I\306"
  45      F668E3BF 
  45      A9BC6C2D 
  45      20650A10 
  45      49C6
  46 005e 158C6C20 		.ascii	"\025\214l \353\326\007\035h\370\377\277\271\341\300"
  46      EBD6071D 
  46      68F8FFBF 
ARM GAS  C:\Users\JEFFSN~1\AppData\Local\Temp\ccB4OmnA.s 			page 3


  46      B9E1C0
  47 006d 24EE9762 		.ascii	"$\356\227b@\211\017@\014\262\346#\023\023\210f~\305"
  47      40890F40 
  47      0CB2E623 
  47      13138866 
  47      7EC5
  48 007f C804520A 		.ascii	"\310\004R\0126\355\003\023#H\014\250B\327=5/\265(\261"
  48      36ED0313 
  48      23480CA8 
  48      42D73D35 
  48      2FB528B1 
  49 0093 2435253E 		.ascii	"$5%>8\277\264(95& 8\337\3314&4\330)\3365 \336\305\327"
  49      38BFB428 
  49      39352620 
  49      38DFD934 
  49      2634D829 
  50 00ad 31DE253F 		.ascii	"1\336%?/5>\263\270H/\231\001\000U\025<\200"
  50      2F353EB3 
  50      B8482F99 
  50      01005515 
  50      3C80
  51              		.text
  52              		.section	.gnu.lto_USB_EP_DMA_Done_isr_SetVector.7239a87d,"",%progbits
  53 0000 789C5590 		.ascii	"x\234U\220=h\024Q\020\307\347\377\336&w\012\256\235"
  53      3D681451 
  53      10C7E7FF 
  53      DE26770A 
  53      AE9D
  54 0012 8D29AE09 		.ascii	"\215)\256\011!\205\242\210`\253F\255\224\340\231\250"
  54      2185A288 
  54      60AB46AD 
  54      94E099A8 
  55 0022 1059CEBB 		.ascii	"\020Y\316\273W\010\232\203\275X\347\345\366\026\203"
  55      57089A83 
  55      BD58E7E5 
  55      F61683
  56 0031 85D82818 		.ascii	"\205\330(\030\225\010!\037\032\363q\006\221m\314&\205"
  56      9508211F 
  56      1AF37106 
  56      916DCC26 
  56      85
  57 0042 58C41CE1 		.ascii	"X\304\034\341\254,D\"\\\241\240\011*\004Q\317\231\015"
  57      AC2C4422 
  57      5CA1A009 
  57      2A0451CF 
  57      990D
  58 0054 160E3CE6 		.ascii	"\026\016<\346\3150\363\233\377\214C \261\032\273\223"
  58      CD30F39B 
  58      FF8C4320 
  58      B11ABB93 
  59 0064 ECF7F283 		.ascii	"\354\367\362\203&\250\333\253DCi\005\310\307\246A\203"
  59      26A8DBAB 
  59      44436905 
  59      C8C7A641 
  59      83
  60 0075 0A83F8A1 		.ascii	"\012\203\370\241~+,\337hD\252s\322\262}\010\033\007"
  60      7E2B2CDF 
ARM GAS  C:\Users\JEFFSN~1\AppData\Local\Temp\ccB4OmnA.s 			page 4


  60      6844AA73 
  60      D2B27D08 
  60      1B07
  61 0087 ED548C50 		.ascii	"\355T\214P\0235UB\"L\242\223\253\326*\363\017\364w\025"
  61      13355542 
  61      224CA293 
  61      ABD62AF3 
  61      0FF47715 
  62 009b 6AC0E170 		.ascii	"j\300\341p\363\315\310GWB\205\014\207o\253_W\225>\000"
  62      F3CDC847 
  62      5742850C 
  62      876FAB5F 
  62      57953E00 
  63 00af E2FFF497 		.ascii	"\342\377\364\227W\365t\307\270\265ek\353\306\356\010"
  63      57F574C7 
  63      B8B5656B 
  63      EBC6EE08 
  64 00bf B5C61368 		.ascii	"\265\306\023h\346\3411\3320\2056\342\024a\032\035R\276"
  64      E6E131DA 
  64      308536E2 
  64      14611A1D 
  64      52BE
  65 00d1 75FFC5A3 		.ascii	"u\377\305\243\224>\222\264\316L\254\205\273\333\307"
  65      943E92B4 
  65      CE4CAC85 
  65      BBDBC7
  66 00e0 A4357E7E 		.ascii	"\2445~~k\317=\033W2\241v\360\364\377v1\256^\257\376"
  66      6BCF3D1B 
  66      5732A176 
  66      F0F4FF76 
  66      31AE5EAF 
  67 00f5 B9B3ABB5 		.ascii	"\271\263\253\265\"\3023\230A\373\266d\314\242\225\267"
  67      22C23398 
  67      41FBB664 
  67      CCA295B7 
  68 0105 8764E6CE 		.ascii	"\207d\346\316\306\266\331\014l\274\340.\275t[\030\301"
  68      C6B6D90C 
  68      6CBCE02E 
  68      BD745B18 
  68      C1
  69 0116 49DE4046 		.ascii	"I\336@F\323\006W\31356\225\022\257\033(\377\274\331"
  69      D30657CB 
  69      35369512 
  69      AF1B28FF 
  69      BCD9
  70 0128 882E0820 		.ascii	"\210.\010 \320r\231\273\341r-%K\266$\352V~\325?\247"
  70      D07299BB 
  70      E1722D25 
  70      4BB624EA 
  70      567ED53F 
  71 013d B7C3E177 		.ascii	"\267\303\341w\201u95\274\262\364~\347(\036\016\211\210"
  71      81753935 
  71      BCB2F47E 
  71      E7281E0E 
  71      8988
  72 014f 4B245AE7 		.ascii	"K$Z\347Y\344\234\210D\025\243\240u\224\355\305D\023"
  72      59E49C88 
ARM GAS  C:\Users\JEFFSN~1\AppData\Local\Temp\ccB4OmnA.s 			page 5


  72      4415A3A0 
  72      7594EDC5 
  72      4413
  73 0161 8F662CF1 		.ascii	"\217f,\361\230\221j\355\333!\3111!\032\017\"%P\007\257"
  73      98916AED 
  73      DB21C931 
  73      211A0F22 
  73      255007AF 
  74 0175 654834BB 		.ascii	"eH4\273\270\345\374#\236\227Kq\023\236%\300\005\006"
  74      B8E5FC23 
  74      9E974B71 
  74      139E25C0 
  74      0506
  75 0187 067CBA4F 		.ascii	"\006|\272O(\307\213g\004\220\234bCA\026\340u\366\235"
  75      28C78B67 
  75      04909C62 
  75      434116E0 
  75      75F69D
  76 019a 32FDC6CF 		.ascii	"2\375\306\317\015\230\202\227-^\367\363\246\257;[<~"
  76      0D988297 
  76      2D5EF7F3 
  76      A6AF3B5B 
  76      3C7E
  77 01ac B8AF277B 		.ascii	"\270\257'{\314;\321\355u\235>\352u\025\373\215w\245"
  77      CC3BD1ED 
  77      759D3EEA 
  77      7515FB8D 
  77      77A5
  78 01be E4EFCF53 		.ascii	"\344\357\317S*W(\370\246Tr\375\334\265^\223\037(\372"
  78      2A5728F8 
  78      A65472FD 
  78      DCB55E93 
  78      1F28FA
  79 01d1 E77297AF 		.ascii	"\347r\227\257\232\277b\252\270K"
  79      9ABF62AA 
  79      B84B
  80              		.text
  81              		.section	.gnu.lto_USB_EP_DMA_Done_isr_GetVector.7239a87d,"",%progbits
  82 0000 789C6361 		.ascii	"x\234ca`d\000\201\351@\312\016HK\0031#3\003#\323\204"
  82      60640081 
  82      E940CA0E 
  82      484B0331 
  82      23330323 
  83 0016 730C0C8D 		.ascii	"s\014\014\215\034L\214\214 F\003\007#C=\023c=\343W\246"
  83      1C4C8C8C 
  83      20460307 
  83      23433D13 
  83      633DE357 
  84 002b BF4C8C17 		.ascii	"\277L\214\027[6\314a\376\302\324\012T\306\002\344~<"
  84      5B36CC61 
  84      FEC2D40A 
  84      54C602E4 
  84      7E3C
  85 003d 3BEB311F 		.ascii	";\3531\037\210\313\310\250\000\344\316n\270\324\311"
  85      88CBC8A8 
  85      00E4CE6E 
  85      B8D4C9
ARM GAS  C:\Users\JEFFSN~1\AppData\Local\Temp\ccB4OmnA.s 			page 6


  86 004c AEB9BCA1 		.ascii	"\256\271\274\241\241\251\341A\353\247\302\211\315\255"
  86      A1A9E141 
  86      EBA7C289 
  86      CDAD
  87 005a 1EADCC4C 		.ascii	"\036\255\314L\014\377\231\030\030W0\3120.g\224\001Y"
  87      0CFF9918 
  87      185730CA 
  87      302E6794 
  87      0159
  88 006c B1925193 		.ascii	"\261\222Q\223\001\250\370\307\354\355\013\330\231\015"
  88      01A8F8C7 
  88      ECED0BD8 
  88      990D
  89 007a 1841ECB5 		.ascii	"\030A\354\265\313.\266\362\253.\006i<0\265_lf\303\201"
  89      CB2EB6F2 
  89      AB2E0669 
  89      3C30B55F 
  89      6C66C381 
  90 008e 16855666 		.ascii	"\026\205Vff\306U\214\314\250\232\031@\252\037m\3747"
  90      66C6558C 
  90      CCA89A19 
  90      40AA1F6D 
  90      FC37
  91 00a0 9597ADA5 		.ascii	"\225\227\255\245\001\010\024\030W3\252\202,\000\232"
  91      01081418 
  91      5733AA82 
  91      2C009A
  92 00af BB86910D 		.ascii	"\273\206\221\015\350\023F\220\310\372\240\003\015\377"
  92      E8134690 
  92      C8FAA003 
  92      0DFF
  93 00bd FF37371C 		.ascii	"\37777\034\230\314\177p\036?\013\320\010\240 3\003\310"
  93      98CC7F70 
  93      1E3F0BD0 
  93      08A02033 
  93      03C8
  94 00cf 310C1F80 		.ascii	"1\014\037\200\030\344\261\217LL \232\371\031c\323\257"
  94      18E4B18F 
  94      4C4C209A 
  94      F91963D3 
  94      AF
  95 00e0 AE677B22 		.ascii	"\256g{\"@\372\233\231A\236\234\326z\350<;\310W,`\307"
  95      40FA9B99 
  95      419E9CD6 
  95      7AE83C3B 
  95      C8572C60 
  96 00f5 9DF973F9 		.ascii	"\235\371s\3715\007\204\333q\253\271\201\017(\324q\346"
  96      350784DB 
  96      71ABB981 
  96      0F28D471 
  96      E6
  97 0106 E03DAEF9 		.ascii	"\340=\256\371\214s\033An\210e\0009u\035\320\215kAnd"
  97      8C731B41 
  97      6E886500 
  97      39751DD0 
  97      8D6B416E 
  98 011b 5CCF389F 		.ascii	"\\\3178\237\221\341\021cSC$\330I@\233\201\3062\200\255"
ARM GAS  C:\Users\JEFFSN~1\AppData\Local\Temp\ccB4OmnA.s 			page 7


  98      91E11163 
  98      534324D8 
  98      49409B81 
  98      C63280AD 
  99 012f F9B6C702 		.ascii	"\371\266\307\002b\0153\320\220\235K\233w2\201\314ef"
  99      620D33D0 
  99      909D4B9B 
  99      773281CC 
  99      6566
 100 0141 3C01B267 		.ascii	"<\001\262g\347\272\375?X\240\206\012\000\235\012\324"
 100      E7BAFD3F 
 100      58A0860A 
 100      009D0AD4 
 101 0151 C5B8016C 		.ascii	"\305\270\001l\342F\220\211\257\030\231\240zA\301\360"
 101      E2469089 
 101      AF1899A0 
 101      7A41C1F0 
 102 0161 818911E4 		.ascii	"\201\211\021\344z\240_t\335S\363R\213\022KRS\342\203"
 102      7AA05F74 
 102      DD53F352 
 102      8B124B52 
 102      53E283
 103 0174 F34B8B92 		.ascii	"\363K\213\222Sc\002\202\363\235McB\203\235\342]\003"
 103      53630282 
 103      F39D4D63 
 103      42839DE2 
 103      5D03
 104 0186 E25D7C1D 		.ascii	"\342]|\035\343]\362\363R\3433\213\213\364\222\031\370"
 104      E35DF2F3 
 104      52E3338B 
 104      8BF49219 
 104      F8
 105 0197 8A1273C3 		.ascii	"\212\022s\303R\223K\362\213B\022\223rR\001l\244\240"
 105      52934BF2 
 105      8B421293 
 105      7252016C 
 105      A4A0
 106 01a9 6B       		.ascii	"k"
 107              		.text
 108              		.section	.gnu.lto_USB_EP_DMA_Done_isr_SetPriority.7239a87d,"",%progbits
 109 0000 789C2550 		.ascii	"x\234%P=K\003A\020\335\267\353\305\210\037\205\255W"
 109      3D4B0341 
 109      10DDB7EB 
 109      C5881F85 
 109      AD57
 110 0012 D885148A 		.ascii	"\330\205\024\212(\202`\245F\254\204\220`\0279D\257H"
 110      288260A5 
 110      46AC8490 
 110      60173944 
 110      AF48
 111 0024 E3C9190B 		.ascii	"\343\311\031\013\253lr^\304\316\306\010\221 Hb\3427"
 111      AB6C725E 
 111      C4CEC608 
 111      91204862 
 111      E237
 112 0036 36825667 		.ascii	"6\202Vg@Q\004\375\013\222\"\240U\004\305F\215\263\311"
 112      405104FD 
ARM GAS  C:\Users\JEFFSN~1\AppData\Local\Temp\ccB4OmnA.s 			page 8


 112      0B9222A0 
 112      5504C546 
 112      8DB3C9
 113 0049 C030B333 		.ascii	"\3000\2633\357\275yl\033\003S1Ne\214j\037%\004\003\337"
 113      EFBD796C 
 113      1B035331 
 113      4E658C6A 
 113      1F250403 
 114 005e 7E662CE5 		.ascii	"~f,\345\347\200j\244\037,\311\221\304\027\377\345\250"
 114      E7806AA4 
 114      1F2CC991 
 114      C417FFE5 
 114      A8
 115 006f 6CD6AE79 		.ascii	"l\326\256y\260$)^\357\016\206e\331\203+\030k\360\246"
 115      B024295E 
 115      EF0E8665 
 115      D9832B18 
 115      6BF0A6
 116 0082 12430941 		.ascii	"\022C\011AB}\337_d41\004F}\276X(t\004\212R\246\245\274"
 116      427DDF5F 
 116      64343104 
 116      467DBE58 
 116      2874048A 
 117 009a 9E97C215 		.ascii	"\236\227\302\025@\031\202\030\030\3211\2443\0320\034"
 117      40198218 
 117      18D131A4 
 117      331A301C 
 118 00aa 21A0C0D5 		.ascii	"!\240\300\325\313\277\235n\337\206\222\357o\211\342"
 118      CBBF9D6E 
 118      DF8692EF 
 118      6F89E2
 119 00b9 183E65F3 		.ascii	"\030>e\363\"\342\311F\303\221\336n\357m\256W\003\024"
 119      22E2C946 
 119      C391DE6E 
 119      EF6DAE57 
 119      0314
 120 00cb 85139940 		.ascii	"\205\023\231@uJe\365\203sUE\015N=S{\310A\221\035\301"
 120      754A65F5 
 120      83735545 
 120      0D4E3D53 
 120      7BC84191 
 121 00e1 1D01D27E 		.ascii	"\035\001\322~,\334\374t}rW\010h8\201\316j\250d\233\020"
 121      2CDCFC74 
 121      7D725708 
 121      683881CE 
 121      6AA8649B 
 122 00f6 5A66DDCA 		.ascii	"Zf\335\312K\273Z\2665M\037\276UozZ\317\364\203#{h\364"
 122      4BBB5AB6 
 122      354D1FBE 
 122      556F7A5A 
 122      CFF48323 
 123 010d 7455D9C2 		.ascii	"tU\331\302>\362\251\215\224\224\235\256\320p\006\035"
 123      3EF2A98D 
 123      94949DAE 
 123      D070061D 
 124 011d A7A4C370 		.ascii	"\247\244\303pN\013\272\303\336\221\366\366\"J\262\371"
 124      4E0BBAC3 
ARM GAS  C:\Users\JEFFSN~1\AppData\Local\Temp\ccB4OmnA.s 			page 9


 124      DE91F6F6 
 124      224AB2F9 
 125 012d 1B750EE5 		.ascii	"\033u\016\345\207\334\015\314\230\313\246\275\2200\227"
 125      87DC0DCC 
 125      98CBA6BD 
 125      903097
 126 013c 8CA8B566 		.ascii	"\214\250\265f/\232\261p\324\232\032\215\315E'\215\351"
 126      2F9AB170 
 126      D49A1A8D 
 126      CD45278D 
 126      E9
 127 014d B0119A9D 		.ascii	"\260\021\232\2350B\326\262i\304W\355\301E\346_\261\343"
 127      3042D6B2 
 127      69C457ED 
 127      C145E65F 
 127      B1E3
 128 015f 961D4FAC 		.ascii	"\226\035O\254\377\003g\373~L"
 128      FF0367FB 
 128      7E4C
 129              		.text
 130              		.section	.gnu.lto_USB_EP_DMA_Done_isr_GetPriority.7239a87d,"",%progbits
 131 0000 789C4D8F 		.ascii	"x\234M\217\275K\003A\020\305\367\355&\032DShi\012\033"
 131      BD4B0341 
 131      10C5F7ED 
 131      261A4453 
 131      68690A1B 
 132 0014 0B0B4510 		.ascii	"\013\013E\020A\354\374\302J\010\006\261\021\016\211"
 132      41ECFCC2 
 132      4A0806B1 
 132      110E89
 133 0023 57A4F1E4 		.ascii	"W\244\361\344\214\205U69OP,\202\242Vb\241h\374\306\306"
 133      8C855536 
 133      394F502C 
 133      82A25662 
 133      A168FCC6 
 134 0038 22D59942 		.ascii	"\"\325\231B\024A\301\277@R\010ZH\374B\020\365\2341\026"
 134      1441C1BF 
 134      4052085A 
 134      48FC4210 
 134      F59C3116 
 135 004c 0E2C33BB 		.ascii	"\016,3\273\274\367\3667\001\001\3015L\255\203z=\035"
 135      BCF7F637 
 135      0101C135 
 135      4CAD837A 
 135      3D1D
 136 005e 280199BD 		.ascii	"(\001\231\275\022\"\035\222\000\017:\004\221\222H\341"
 136      12221D92 
 136      000F3A04 
 136      919248E1 
 137 006e 4D7E495C 		.ascii	"M~I\\\276\237/T5mk\235\321\267\356a\347j\316\203\253"
 137      BE9F2F54 
 137      356D6B9D 
 137      D1B7EE61 
 137      E76ACE83 
 138 0083 84F0A540 		.ascii	"\204\360\245@[\004\255\021\216\330F\223 \351\373\331"
 138      5B04AD11 
 138      8ED84693 
ARM GAS  C:\Users\JEFFSN~1\AppData\Local\Temp\ccB4OmnA.s 			page 10


 138      20E9FBD9 
 139 0093 D16C50B5 		.ascii	"\321lP\265\202\347\334\313\222\023h\334`\233\367vS\263"
 139      82E7DCCB 
 139      921368DC 
 139      609BF776 
 139      53B3
 140 00a5 AABD7403 		.ascii	"\252\275t\003\371\220\203\372o\025\254-\036\177/\327"
 140      F99083FA 
 140      6F15AC2D 
 140      1E7F2FD7 
 141 00b5 54CC68AA 		.ascii	"T\314h\252\006\354\240\221\303)u\027\025\304\011~9\032"
 141      06ECA091 
 141      C3297517 
 141      15C4097E 
 141      391A
 142 00c7 F4B4EF3B 		.ascii	"\364\264\357;\332{\251=\315\326\005\244p\025s\263V\224"
 142      DA7BA93D 
 142      CDD605A4 
 142      701573B3 
 142      5694
 143 00d9 48CCD84F 		.ascii	"H\314\330ORrWw(|\314?^F\331\357(^a\305-\\W\276JW\311"
 143      52725777 
 143      287CCC3F 
 143      5E46D9EF 
 143      285E61C5 
 144 00f4 5FB4ADFB 		.ascii	"_\264\255\373b>\\\276f\316\035\035\346%O\012sX\307Z"
 144      623E5CBE 
 144      66CE1D1D 
 144      E6254F0A 
 144      7358C75A 
 145 0108 7A869653 		.ascii	"z\206\226S\330G\004{ >\034\320\253\270\203\363<\373"
 145      D847047B 
 145      203E1CD0 
 145      ABB883F3 
 145      3CFB
 146 011a 8A72A02A 		.ascii	"\212r\240*g^l\346?\2539$\200 \016I[\204\374%&&\022\211"
 146      675E6CE6 
 146      3FAB3924 
 146      80200E49 
 146      5B84FC25 
 147 0132 07643C7F 		.ascii	"\007d<\1771\374\347\341EK\364;\361\021ms\2779n\332\243"
 147      31FCE7E1 
 147      454BF43B 
 147      F1116D73 
 147      BF396EDA 
 148 0147 4973CC88 		.ascii	"Is\314\210YSv\334\034\211\306\254\236\366\221\241X\267"
 148      595376DC 
 148      1C89C6AC 
 148      9EF691A1 
 148      58B7
 149 0159 D117357A 		.ascii	"\321\0275z\007\272\214^k\3344\022\223vK\\\204&\354\204"
 149      07BA8C5E 
 149      6BDC3412 
 149      93764B5C 
 149      8426EC84 
 150 016d 652792D3 		.ascii	"e'\222\323?\311\377\207\017"
 150      3FC9FF87 
ARM GAS  C:\Users\JEFFSN~1\AppData\Local\Temp\ccB4OmnA.s 			page 11


 150      0F
 151              		.text
 152              		.section	.gnu.lto_USB_EP_DMA_Done_isr_Enable.7239a87d,"",%progbits
 153 0000 789C6361 		.ascii	"x\234ca`d\000\201'@\254\017\304\322@\314\310\314\300"
 153      60640081 
 153      2740AC0F 
 153      C4D240CC 
 153      C8CCC0
 154 0013 C834E11C 		.ascii	"\3104\341\034\003C#\007\023##\210\321\300\301\310P\317"
 154      03432307 
 154      13232388 
 154      D1C0C1C8 
 154      50CF
 155 0025 C458CFF8 		.ascii	"\304X\317\370\225\351/\023\343\241\366g;\2314\2277\000"
 155      95E92F13 
 155      E3A1F667 
 155      3B993497 
 155      3700
 156 0037 C183A7BB 		.ascii	"\301\203\247\273\214\032V\034`lef`\370\317\0046\211"
 156      8C1A561C 
 156      606C6566 
 156      60F8CF04 
 156      3689
 157 0049 817139A3 		.ascii	"\201q9\243&\003P\331\243\215\377\246\362\262\265\200"
 157      260350D9 
 157      A38DFFA6 
 157      F2B2B580 
 158 0059 94294024 		.ascii	"\224)@$\031W0\262\201\254[\037t\240\341\377\377\346"
 158      195730B2 
 158      81AC5B1F 
 158      74A0E1FF 
 158      FFE6
 159 006b 86033785 		.ascii	"\206\0037\205\017\336\023\006j\375\000\224\005\331\363"
 159      0FDE1306 
 159      6AFD0094 
 159      05D9F3
 160 007a 91890944 		.ascii	"\221\211\011D3?c<\364e\303\367'\234 \015@\223\246\265"
 160      333F633C 
 160      F465C3F7 
 160      279C200D 
 160      4093A6B5 
 161 008e 1E3ACFFE 		.ascii	"\036:\317\376\205\251\225\231\221\021d\360\226\205\357"
 161      85A99599 
 161      911164F0 
 161      9685EF
 162 009d 7EF040B8 		.ascii	"~\360@\270\015\207\232\033\370\200B\267_\177{\316:\237"
 162      0D879A1B 
 162      F88042B7 
 162      5F7F7BCE 
 162      3A9F
 163 00af 716E634B 		.ascii	"qncKcC\003w+3\023\343*F\031\306\225\2142@KW3\316g\004"
 163      63430377 
 163      2B3313E3 
 163      2A4619C6 
 163      958C3240 
 164 00c9 2A39F860 		.ascii	"*9\370`\323Gn\220.&F\026\3065@\231W\214M\007\356\007"
 164      D3476E90 
ARM GAS  C:\Users\JEFFSN~1\AppData\Local\Temp\ccB4OmnA.s 			page 12


 164      2E264616 
 164      C6354099 
 164      578C4D07 
 165 00df 83AC003B 		.ascii	"\203\254\000;\373\003\023#\310n\240Kt\335S\363R\213"
 165      FB031323 
 165      C86EA04B 
 165      74DD53F3 
 165      528B
 166 00f1 124B5253 		.ascii	"\022KRS\342\203\363K\213\222Sc\002\202\363\235McB\203"
 166      E283F34B 
 166      8B925363 
 166      0282F39D 
 166      4D634283 
 167 0105 9DE25D03 		.ascii	"\235\342]\003\342]|\035\343]\362\363R\3433\213\213\364"
 167      E25D7C1D 
 167      E35DF2F3 
 167      52E3338B 
 167      8BF4
 168 0117 9219003E 		.ascii	"\222\031\000>\233f\227"
 168      9B6697
 169              		.text
 170              		.section	.gnu.lto_USB_EP_DMA_Done_isr_GetState.7239a87d,"",%progbits
 171 0000 789C4D91 		.ascii	"x\234M\221=hSQ\024\307\317\377\336\373j\011\215c\246"
 171      3D685351 
 171      14C7CFFF 
 171      DEFB6A09 
 171      8D63A6
 172 0013 4771CDA0 		.ascii	"Gq\315\240\021j\027q\251V:\025JC\267\300C\342\033\262"
 172      116A1771 
 172      A9563A15 
 172      4A43B7C0 
 172      43E21BB2 
 173 0027 34F0B473 		.ascii	"4\360\264sn|I\005\351\340\322\272\264\224N\375n,*(8"
 173      6E7C4905 
 173      E9E0D2BA 
 173      B4944EFD 
 173      6E2C2A28 
 174 003c C44C82A2 		.ascii	"\304L\202\242\024\262H@l\207\024\252\210)\375&\232\236"
 174      14B24840 
 174      6C8714AA 
 174      8829FD26 
 174      9A9E
 175 004e D3D7C10B 		.ascii	"\323\327\301\013\367\236\373\361?\277\363?\\C \0319"
 175      F79EFBF1 
 175      3FBFF33F 
 175      5C432019 
 175      39
 176 005f 0E298EB7 		.ascii	"\016)\216\267x\302!\250\347_\210\212\335J\231\367\275"
 176      78C221A8 
 176      E75F888A 
 176      DD4A99F7 
 176      BD
 177 0070 6463BA9E 		.ascii	"dc\272\236\"\333\243a\242k\003\310\306v\203\012J\033"
 177      22DBA361 
 177      A26B03C8 
 177      C676830A 
 177      4A1B
ARM GAS  C:\Users\JEFFSN~1\AppData\Local\Temp\ccB4OmnA.s 			page 13


 178 0082 1470A8FE 		.ascii	"\024p\250\376*|:\3768\025K.Z\373\304\376(7o\277X\252"
 178      2A7C3AFE 
 178      38154B2E 
 178      5AFBC4FE 
 178      28376FBF 
 179 0098 A2AC893A 		.ascii	"\242\254\211:\212\320\347\342\246+\354E$\211\245;\233"
 179      8AD0E7E2 
 179      A62BEC45 
 179      2489A53B 
 179      9B
 180 00a9 FFA6E35D 		.ascii	"\377\246\343]%\313\343\232\010\370e\011]\342\2452Z\265"
 180      25CBE39A 
 180      08F86509 
 180      5DE2A532 
 180      5AB5
 181 00bb 9D4E68AB 		.ascii	"\235Nh\253\257\022\037\336&\034\020#4/0\262\020\375"
 181      AF121FDE 
 181      261C1023 
 181      342F30B2 
 181      10FD
 182 00cd 61B1146F 		.ascii	"a\261\024o)%Q7Q;{\366\375\333\035\311\017\265f\366L"
 182      29255137 
 182      513B7BF6 
 182      FDDB1DC9 
 182      0FB566F6 
 183 00e2 B9F6F5CA 		.ascii	"\271\366\365\312\201*k\005)\365z\341\367IOt\264\265"
 183      812A6B05 
 183      29F57AE1 
 183      F7494F74 
 183      B4B5
 184 00f4 D05EE5AB 		.ascii	"\320^\345\253\306\317\243]g\036s\305\022\033\324X\201"
 184      C6CFA35D 
 184      671E73C5 
 184      121BD458 
 184      81
 185 0105 8B65B03D 		.ascii	"\213e\260=\254b\036\324D\330\236l;\021\320D\314\255"
 185      AC621ED4 
 185      44D89E6C 
 185      3B11D044 
 185      CCAD
 186 0117 D2CB592D 		.ascii	"\322\313Y-\020\300`\215\265\333(5\302\340R\303\202\312"
 186      10C0608D 
 186      B5DB2835 
 186      C2E052C3 
 186      82CA
 187 0129 AF77A7F1 		.ascii	"\257w\247\361H@X\027\030\211WM\365\224n)sau\017*J\220"
 187      48405817 
 187      1889574D 
 187      F5946E29 
 187      7361750F 
 188 0140 3EF7014E 		.ascii	">\367\001N{\363\364\363fL\322\010\300\006\\E\3777\300"
 188      7BF3F4F3 
 188      664CD208 
 188      C0065C45 
 188      FF37C0
 189 0153 9F830A5C 		.ascii	"\237\203\012\\-$\010\202{\277>\344\217\373\301\203\307"
 189      2D240882 
ARM GAS  C:\Users\JEFFSN~1\AppData\Local\Temp\ccB4OmnA.s 			page 14


 189      7BBF3EE4 
 189      8FFBC183 
 189      C7
 190 0164 FE432F9D 		.ascii	"\376C/\235\237\010\262~f$\235\277\327\237\031K\337\365"
 190      9F08B27E 
 190      66249DBF 
 190      D79F194B 
 190      DFF5
 191 0176 EE8F7883 		.ascii	"\356\217x\203\303\003\336`~\334\367r\217\202\033Y:\007"
 191      C303DE60 
 191      7EDCF772 
 191      8F821B59 
 191      3A07
 192 0188 A0F68BC4 		.ascii	"\240\366\213\304"
 193              		.text
 194              		.section	.gnu.lto_USB_EP_DMA_Done_isr_Disable.7239a87d,"",%progbits
 195 0000 789C6361 		.ascii	"x\234ca`d\000\201'@\254\017\304\322@\314\310\314\300"
 195      60640081 
 195      2740AC0F 
 195      C4D240CC 
 195      C8CCC0
 196 0013 C834E11C 		.ascii	"\3104\341\034\003C#\007\023##\210\321\300\301\310P\317"
 196      03432307 
 196      13232388 
 196      D1C0C1C8 
 196      50CF
 197 0025 C458CFF8 		.ascii	"\304X\317\370\225\351/\023\343\241\366g;\2314\2277\000"
 197      95E92F13 
 197      E3A1F667 
 197      3B993497 
 197      3700
 198 0037 C183A5EF 		.ascii	"\301\203\245\357\215\032V\034`lef`\370\317\0046\211"
 198      8D1A561C 
 198      606C6566 
 198      60F8CF04 
 198      3689
 199 0049 817139A3 		.ascii	"\201q9\243&\003P\331\243\215\377\246\362\262\265\200"
 199      260350D9 
 199      A38DFFA6 
 199      F2B2B580 
 200 0059 94294024 		.ascii	"\224)@$\031W0\262\201\254[\037t\240\341\377\377\346"
 200      195730B2 
 200      81AC5B1F 
 200      74A0E1FF 
 200      FFE6
 201 006b 86037FC5 		.ascii	"\206\003\177\305\016N\022\007j\375\000\224\005\331\363"
 201      0E4E1207 
 201      6AFD0094 
 201      05D9F3
 202 007a 91890944 		.ascii	"\221\211\011D3?c<\364e\303\223\247\234 \015@\223\246"
 202      333F633C 
 202      F465C393 
 202      A79C200D 
 202      4093A6
 203 008d B51E3ACF 		.ascii	"\265\036:\317\376\205\251\225\231\221\021dp\333\236"
 203      FE85A995 
 203      99911164 
ARM GAS  C:\Users\JEFFSN~1\AppData\Local\Temp\ccB4OmnA.s 			page 15


 203      70DB9E
 204 009c 7DFD4C10 		.ascii	"}\375L\020n\303\341\346\006>\240\320\316\311\327\376"
 204      6EC3E1E6 
 204      063EA0D0 
 204      CEC9D7FE 
 205 00ac B1CE679C 		.ascii	"\261\316g\234\333\330\322\330\320\300\335\312\314\304"
 205      DBD8D2D8 
 205      D0C0DDCA 
 205      CCC4
 206 00ba B88A5186 		.ascii	"\270\212Q\206q%\243\014\320\322\325\214\363\031\201"
 206      7125A30C 
 206      D0D2D58C 
 206      F31981
 207 00c9 4A0E3ED8 		.ascii	"J\016>\330\364\221\033\244\213\211\221\205q\015P\346"
 207      F4911BA4 
 207      8B899185 
 207      710D50E6 
 208 00d9 1563D381 		.ascii	"\025c\323\201\311\341 +\300\316\376\300\304\010\262"
 208      C9E1202B 
 208      C0CEFEC0 
 208      C408B2
 209 00e8 1BE8125D 		.ascii	"\033\350\022]\367\324\274\324\242\304\222\324\224\370"
 209      F7D4BCD4 
 209      A2C492D4 
 209      94F8
 210 00f6 E0FCD2A2 		.ascii	"\340\374\322\242\344\324\230\200\340|g\323\230\320`"
 210      E4D49880 
 210      E07C67D3 
 210      98D060
 211 0105 A778D780 		.ascii	"\247x\327\200x\027_\307x\227\374\274\324\370\314\342"
 211      78175FC7 
 211      7897FCBC 
 211      D4F8CCE2 
 212 0115 22BD6406 		.ascii	"\"\275d\006\000Z\313d\331"
 212      005ACB64 
 212      D9
 213              		.text
 214              		.section	.gnu.lto_USB_EP_DMA_Done_isr_Start.7239a87d,"",%progbits
 215 0000 789C758F 		.ascii	"x\234u\217?K\003A\020\305\347\315&w)\024\354\265\260"
 215      3F4B0341 
 215      10C5E7CD 
 215      26772914 
 215      ECB5B0
 216 0013 4DA1567E 		.ascii	"M\241V~\0005j%\004\203\205\0208$^a\223@\324\372V\223"
 216      00356A25 
 216      04838510 
 216      38245E61 
 216      9340D4FA 
 217 0029 45B1D242 		.ascii	"E\261\322B+\301J\022\377\243`\221\356\260\260\364\013"
 217      2BC14A12 
 217      FFA36091 
 217      EEB0B0F4 
 217      0B
 218 003a D8888544 		.ascii	"\330\210\205D\261\210\020\261\212\347\354\305\302\302"
 218      B18810B1 
 218      8AE7ECC5 
 218      C2C2
ARM GAS  C:\Users\JEFFSN~1\AppData\Local\Temp\ccB4OmnA.s 			page 16


 219 0048 0C2CB330 		.ascii	"\014,\2630\357\375\346M\202@\266\026\245\215I\037\224"
 219      EFFDE64D 
 219      8240B616 
 219      A58D491F 
 219      94
 220 0059 0745E0DD 		.ascii	"\007E\340\335\007\242\215\024\003\366\243S\240\200\021"
 220      07A28D14 
 220      03F6A353 
 220      A08011
 221 0068 E0933B8C 		.ascii	"\340\223;\214\273\255\227\006\247kZ\352\351\370H\351"
 221      BBAD9706 
 221      A76B5AEA 
 221      E9F848E9 
 222 0078 7A08A388 		.ascii	"z\010\243\210\"\216I\204\032\322$\262\347\353\357\375"
 222      228E4984 
 222      1AD224B2 
 222      E7EBEFFD 
 223 0088 7EA76A65 		.ascii	"~\247je\303\335!\352p\354\272\253\371PGQE\207\235\344"
 223      C3DD21EA 
 223      70ECBAAB 
 223      F9504751 
 223      45879DE4 
 224 009c 6B9F43D4 		.ascii	"k\237C\324\222\241]\363\301l\273j\242\022\356\335\263"
 224      92A15DF3 
 224      C16CBB6A 
 224      A212EEDD 
 224      B3
 225 00ad 955B50A3 		.ascii	"\225[P\243\361\376\350\006\035\275\255\365\200Q\210"
 225      F1FEE806 
 225      1DBDADF5 
 225      805188
 226 00bc 58183841 		.ascii	"X\0308A@F15Q\015\017\234\377\245*\022 \341T\244\177"
 226      40463135 
 226      510D0F9C 
 226      FFA52A12 
 226      20E154A4 
 227 00d1 66A998A1 		.ascii	"f\251\230\241b\013\316\020\030\225\210)\207=(\311\210"
 227      620BCE10 
 227      18958829 
 227      873D28C9 
 227      88
 228 00e2 134239EF 		.ascii	"\023B9\357R\332;\346K\265\331(\007..0d\224K6\357M\017"
 228      52DA3BE6 
 228      4BB5D928 
 228      072E2E30 
 228      64944B36 
 229 00f9 B7AC4A8A 		.ascii	"\267\254J\212\373\3627\356\0336\303\333\231Xj\253%\267"
 229      FBF237EE 
 229      1B36C3DB 
 229      99586AAB 
 229      25B7
 230 010b C8C59272 		.ascii	"\310\305\222rd\326/\372\345\2455\177\331\313\225\326"
 230      64D62FFA 
 230      E5A5357F 
 230      D9CB95D6 
 231 011b CB053F9F 		.ascii	"\313\005?\237\315\225\246\306\363\013\271Io:\353e\346"
 231      CD95A6C6 
ARM GAS  C:\Users\JEFFSN~1\AppData\Local\Temp\ccB4OmnA.s 			page 17


 231      F30BB949 
 231      6F3AEB65 
 231      E6
 232 012c 26BC4CA9 		.ascii	"&\274L\251\350{+\253\345\321\002\375\000\325\007\212"
 232      E87B2BAB 
 232      E5D102FD 
 232      00D5078A 
 233 013c 2C       		.ascii	","
 234              		.text
 235              		.section	.gnu.lto_USB_EP_DMA_Done_isr_StartEx.7239a87d,"",%progbits
 236 0000 789C7590 		.ascii	"x\234u\220?,CQ\024\306\317wo\365\265\022b\327\301\326"
 236      3F2C4351 
 236      14C6CF77 
 236      6FF5B512 
 236      62D7C1D6 
 237 0014 18481731 		.ascii	"\030H\0271\243\322I\"\032\233\344E\364\015\2266i\231"
 237      A3D24922 
 237      1A9BE445 
 237      F40D9636 
 237      6999
 238 0026 7B695F88 		.ascii	"{i_\210\311b\021\203E\224\242\032\2034\221x\014L\232"
 238      C9621183 
 238      4594A21A 
 238      83349178 
 238      0C4C9A
 239 0039 F833882E 		.ascii	"\3703\210.B\"\"\202&\376L\365\234[F=\311\315\271\347"
 239      42222282 
 239      26FE4CF5 
 239      9C5B463D 
 239      C9CDB9E7 
 240 004d BDDFF9CE 		.ascii	"\275\337\371\316w\256\207@:V9\365rn\347\003I\020\213"
 240      77AE8740 
 240      3A5639F5 
 240      726EE703 
 240      49108B
 241 0060 65A2199F 		.ascii	"e\242\031\237\000\364E\371@i\2014>DM\340x\356\241$:"
 241      00F445F9 
 241      40698134 
 241      3E444DE0 
 241      78EEA124 
 242 0075 D715C7AD 		.ascii	"\327\025\307\255\375\031R9\007\266$rE]\211\260\216N"
 242      FD195239 
 242      07B62472 
 242      455D89B0 
 242      8E4E
 243 0087 A6CEB3BB 		.ascii	"\246\316\263\273+\362]\330\022\360pY=[\276o\325\245"
 243      2BF25DD8 
 243      12F07059 
 243      3D5BBE6F 
 243      D5A5
 244 0099 40079757 		.ascii	"@\007\227W\305\327\262\220!\020\337\363/'\227\276\340"
 244      C5D7B290 
 244      2110DFF3 
 244      2F2797BE 
 244      E0
 245 00aa 9A52B34A 		.ascii	"\232R\263J\035Z\312oK\211MH\326\303\006\002\310!@\374"
 245      1D5ACA6F 
ARM GAS  C:\Users\JEFFSN~1\AppData\Local\Temp\ccB4OmnA.s 			page 18


 245      4B894D48 
 245      D6C30602 
 245      C82140FC 
 246 00be 89904750 		.ascii	"\211\220GP\343w\305\357\245\026oV\217\357\370\035\212"
 246      E377C5EF 
 246      A5166F56 
 246      8FEFF81D 
 246      8A
 247 00cf 2D78F51A 		.ascii	"-x\365\032\205\021G\271nF9{\306\321\215a\360d\335Bo"
 247      851147B9 
 247      6E46397B 
 247      C6D18D61 
 247      F064DD42 
 248 00e4 CCE82DAA 		.ascii	"\314\350-\252B\350,\037\221q\366O\205\356\322z\245\322"
 248      42E82C1F 
 248      9171F64F 
 248      85EED27A 
 248      A5D2
 249 00f6 73C548D7 		.ascii	"s\305H\327\324\274Rm\266\364\270\202\245\260\2154\017"
 249      D4BC526D 
 249      B6F4B882 
 249      A5B08D34 
 249      0F
 250 0107 6DA24764 		.ascii	"m\242Gd\235\003\343\177\324\353\262 a\207\321\214\224"
 250      9D03E37F 
 250      D4EBB220 
 250      6187D18C 
 250      94
 251 0118 B634EAF4 		.ascii	"\2664\352\364E\003\332\347\012~$\024\230\346\177\357"
 251      4503DAE7 
 251      0A7E2414 
 251      98E67FEF 
 252 0128 0BF657FD 		.ascii	"\013\366W\375u\3740\260\213\200-\233I\373\272n\320\315"
 252      75FC30B0 
 252      8B802D9B 
 252      49FBBA6E 
 252      D0CD
 253 013a B63CDC5D 		.ascii	"\266<\334]\374\263\365\204Y\247\022\251\243:\336\330"
 253      FCB3F584 
 253      59A712A9 
 253      A33ADED8 
 254 014a 336FC66E 		.ascii	"3o\306n\272\"V\334J\216OY13\232\230NNXc\303\321\304"
 254      BA2256DC 
 254      4A8E4F59 
 254      31339A98 
 254      4E4E5863 
 255 0161 40CFD868 		.ascii	"@\317\330h\264\337\034\0346\303C}f8\021\267\314\311"
 255      B4DF1C1C 
 255      36C3437D 
 255      663811B7 
 255      CCC9
 256 0173 54B27B82 		.ascii	"T\262{\202\214\361X,i\245R?g6\244\341"
 256      8CF1582C 
 256      69A5523F 
 256      6736A4E1 
 257              		.text
 258              		.section	.gnu.lto_USB_EP_DMA_Done_isr_Stop.7239a87d,"",%progbits
ARM GAS  C:\Users\JEFFSN~1\AppData\Local\Temp\ccB4OmnA.s 			page 19


 259 0000 789C6361 		.ascii	"x\234ca`d\000\201\217@\254\017\304\322@\314\310\314"
 259      60640081 
 259      8F40AC0F 
 259      C4D240CC 
 259      C8CC
 260 0012 C0C834E1 		.ascii	"\300\3104\341\034\003C#\007\023##\210\321\300\301\310"
 260      1C034323 
 260      07132323 
 260      88D1C0C1 
 260      C8
 261 0023 50CFC458 		.ascii	"P\317\304X\317\370\225\351/\023\343\241\366g;\2314\227"
 261      CFF895E9 
 261      2F13E3A1 
 261      F6673B99 
 261      3497
 262 0035 3700C183 		.ascii	"7\000\301\203\243\213\015\033V\034`lef`\370\317\004"
 262      A38B0D1B 
 262      561C606C 
 262      656660F8 
 262      CF04
 263 0047 36898171 		.ascii	"6\211\201q9\243&\003P\331\243\215\377\246\362\262\265"
 263      39A32603 
 263      50D9A38D 
 263      FFA6F2B2 
 263      B5
 264 0058 80942940 		.ascii	"\200\224)@$\031W0\262\201\254[\037t\240\341\377\377"
 264      24195730 
 264      B281AC5B 
 264      1F74A0E1 
 264      FFFF
 265 006a E68603F3 		.ascii	"\346\206\003\363\271\016\356\342ba`\370\000\224\005"
 265      B90EEEE2 
 265      626160F8 
 265      009405
 266 0079 D9F39189 		.ascii	"\331\363\221\211\011D3\277`l>\260\371\024\023H=\310"
 266      094433BF 
 266      606C3EB0 
 266      F9141348 
 266      3DC8
 267 008b A49D3BDF 		.ascii	"\244\235;\337\334f\257\377\333\320\321\320 \320\312"
 267      DC66AFFF 
 267      DBD0D1D0 
 267      20D0CA
 268 009a CCF89F09 		.ascii	"\314\370\237\011h\010\343J\306z\206Vf&\206\027\214-"
 268      6808E34A 
 268      C67A8656 
 268      66268617 
 268      8C2D
 269 00ac 07767061 		.ascii	"\007vpaW\312\374\037h \003\343*\240R$9\016\260\031\314"
 269      57CAFC1F 
 269      682003E3 
 269      2AA05224 
 269      390EB019 
 270 00c1 602D8CAB 		.ascii	"`-\214\253\031\353[\231Y\030^16\035\330\355\005\026"
 270      19EB5B99 
 270      59185E31 
 270      361DD8ED 
ARM GAS  C:\Users\JEFFSN~1\AppData\Local\Temp\ccB4OmnA.s 			page 20


 270      0516
 271 00d3 02810F40 		.ascii	"\002\201\017@+\200\016\001j\326uO\315K-J,IM\211\017"
 271      2B800E01 
 271      6AD6754F 
 271      CD4B2D4A 
 271      2C494D89 
 272 00e8 CE2F2D4A 		.ascii	"\316/-JN\215\011\010\316w6\215\011\015v\212w\015\210"
 272      4E8D0908 
 272      CE77368D 
 272      090D768A 
 272      770D88
 273 00fb 77F1758C 		.ascii	"w\361u\214w\311\317K\215\317,.\322Kf\000\000\253\014"
 273      77C9CF4B 
 273      8DCF2C2E 
 273      D24B6600 
 273      00AB0C
 274 010e 67FB     		.ascii	"g\373"
 275              		.text
 276              		.section	.gnu.lto_USB_EP_DMA_Done_isr_SetPending.7239a87d,"",%progbits
 277 0000 789C6361 		.ascii	"x\234ca`d\000\201'@\254\017\304\322@\314\310\314\300"
 277      60640081 
 277      2740AC0F 
 277      C4D240CC 
 277      C8CCC0
 278 0013 C834E11C 		.ascii	"\3104\341\034\003C#\007\023##\210\321\300\301\310P\317"
 278      03432307 
 278      13232388 
 278      D1C0C1C8 
 278      50CF
 279 0025 C458CFF8 		.ascii	"\304X\317\370\225\351/\023\343\241\366g;\2314\2277\000"
 279      95E92F13 
 279      E3A1F667 
 279      3B993497 
 279      3700
 280 0037 C183D67F 		.ascii	"\301\203\326\177F\015+\0160\266230\374g\002\233\304"
 280      460D2B0E 
 280      30B63233 
 280      30FC6702 
 280      9BC4
 281 0049 C0B89C51 		.ascii	"\300\270\234Q\223\001\250\354\321\306\177Sy\331Z@\312"
 281      9301A8EC 
 281      D1C67F53 
 281      79D95A40 
 281      CA
 282 005a 1420928C 		.ascii	"\024 \222\214+\030\331@\326\255\017:\320\360\377\177"
 282      2B18D940 
 282      D6AD0F3A 
 282      D0F0FF7F 
 283 006a 73C381CF 		.ascii	"s\303\201\317\342\007\277\211\003\265~\000\312\202\354"
 283      E207BF89 
 283      03B57E00 
 283      CA82EC
 284 0079 F9C8C404 		.ascii	"\371\310\304\004\242\231\2371\036\372\262\341\357SN"
 284      A2999F31 
 284      1EFAB2E1 
 284      EF534E
 285 0088 9006A049 		.ascii	"\220\006\240I\323Z\017\235g\377\302\324\312\314\310"
ARM GAS  C:\Users\JEFFSN~1\AppData\Local\Temp\ccB4OmnA.s 			page 21


 285      D35A0F9D 
 285      67FFC2D4 
 285      CACCC8
 286 0097 083278C6 		.ascii	"\0102x\306\201\3169L\020n\303\221\346\006>\240\320\273"
 286      81CE394C 
 286      106EC391 
 286      E6063EA0 
 286      D0BB
 287 00a9 9D9F97F1 		.ascii	"\235\237\227\361\317g\234\333\330\322\330\320\300\335"
 287      CF679CDB 
 287      D8D2D8D0 
 287      C0DD
 288 00b7 CACCC4B8 		.ascii	"\312\314\304\270\212Q\206q%\243\014\320\322\325\214"
 288      8A518671 
 288      25A30CD0 
 288      D2D58C
 289 00c6 F319814A 		.ascii	"\363\031\201J\016>\330\364\221\033\244\213\211\221\205"
 289      0E3ED8F4 
 289      911BA48B 
 289      899185
 290 00d5 710D50E6 		.ascii	"q\015P\346\025c\323\201\357\341 +\300\316\376\300\304"
 290      1563D381 
 290      EFE1202B 
 290      C0CEFEC0 
 290      C4
 291 00e6 08B21BE8 		.ascii	"\010\262\033\350\022]\367\324\274\324\242\304\222\324"
 291      125DF7D4 
 291      BCD4A2C4 
 291      92D4
 292 00f4 94F8E0FC 		.ascii	"\224\370\340\374\322\242\344\324\230\200\340|g\323\230"
 292      D2A2E4D4 
 292      9880E07C 
 292      67D398
 293 0103 D060A778 		.ascii	"\320`\247x\327\200x\027_\307x\227\374\274\324\370\314"
 293      D7807817 
 293      5FC77897 
 293      FCBCD4F8 
 293      CC
 294 0114 E222BD64 		.ascii	"\342\"\275d\006\000\304\007e\271"
 294      0600C407 
 294      65B9
 295              		.text
 296              		.section	.gnu.lto_USB_EP_DMA_Done_isr_ClearPending.7239a87d,"",%progbits
 297 0000 789C6361 		.ascii	"x\234ca`d\000\201'@\254\017\304\322@\314\310\314\300"
 297      60640081 
 297      2740AC0F 
 297      C4D240CC 
 297      C8CCC0
 298 0013 C834E11C 		.ascii	"\3104\341\034\003C#\007\023##\210\321\300\301\310P\317"
 298      03432307 
 298      13232388 
 298      D1C0C1C8 
 298      50CF
 299 0025 C458CFF8 		.ascii	"\304X\317\370\225\351/\023\343\241\366g;\2314\2277\000"
 299      95E92F13 
 299      E3A1F667 
 299      3B993497 
ARM GAS  C:\Users\JEFFSN~1\AppData\Local\Temp\ccB4OmnA.s 			page 22


 299      3700
 300 0037 C183A5AB 		.ascii	"\301\203\245\253\214\033V\034`lef`\370\317\0046\211"
 300      8C1B561C 
 300      606C6566 
 300      60F8CF04 
 300      3689
 301 0049 817139A3 		.ascii	"\201q9\243&\003P\331\243\215\377\246\362\262\265\200"
 301      260350D9 
 301      A38DFFA6 
 301      F2B2B580 
 302 0059 94294024 		.ascii	"\224)@$\031W0\262\201\254[\037t\240\341\377\377\346"
 302      195730B2 
 302      81AC5B1F 
 302      74A0E1FF 
 302      FFE6
 303 006b 860357A5 		.ascii	"\206\003W\245\016\336\220\002j\375\000\224\005\331\363"
 303      0EDE9002 
 303      6AFD0094 
 303      05D9F3
 304 007a 91890944 		.ascii	"\221\211\011D3?c<\364\345\303\325g\234 \015@\223\246"
 304      333F633C 
 304      F4E5C3D5 
 304      679C200D 
 304      4093A6
 305 008d B51E3ACF 		.ascii	"\265\036:\317\376\205\251\225\231\221\021d\360\256_"
 305      FE85A995 
 305      99911164 
 305      F0AE5F
 306 009c BDCDCC10 		.ascii	"\275\315\314\020n\303\321\346\006>\240\320\226\203\267"
 306      6EC3D1E6 
 306      063EA0D0 
 306      9683B7
 307 00ab FB99E733 		.ascii	"\373\231\3473\316mlilh\340nefb\\\305(\303\270\222Q\006"
 307      CE6D6C69 
 307      6C68E06E 
 307      6566625C 
 307      C528C3B8 
 308 00c2 68E96AC6 		.ascii	"h\351j\306\371\214@%\007\037l\372\310\015\322\305\304"
 308      F98C4025 
 308      071F6CFA 
 308      C80DD2C5 
 308      C4
 309 00d3 C8C2B806 		.ascii	"\310\302\270\006(\363\212\261\351\300\315(\220\025`"
 309      28F38AB1 
 309      E9C0CD28 
 309      901560
 310 00e2 677F6062 		.ascii	"g\177`b\004\331\015t\211\256{j^jQbIjJ|p~iQrjL@p\276"
 310      04D90D74 
 310      89AE7B6A 
 310      5E6A5162 
 310      496A4A7C 
 311 0100 B3694C68 		.ascii	"\263iLh\260S\274k@\274\213\257c\274K~^j|fq\221^2\003"
 311      B053BC6B 
 311      40BC8BAF 
 311      63BC4B7E 
 311      5E6A7C66 
 312 0119 00661565 		.ascii	"\000f\025e*"
ARM GAS  C:\Users\JEFFSN~1\AppData\Local\Temp\ccB4OmnA.s 			page 23


 312      2A
 313              		.text
 314              		.section	.gnu.lto_.symbol_nodes.7239a87d,"",%progbits
 315 0000 789C55CB 		.ascii	"x\234U\313\333\015\3020\020D\321Y?b\257\223\364@*\241"
 315      DB0DC230 
 315      1044D159 
 315      3F62AF93 
 315      F4402AA1 
 316 0014 B489A820 		.ascii	"\264\211\250 %D|R\006\005P\003P\010\3021\026\322~\215"
 316      25447C52 
 316      06055003 
 316      5008C231 
 316      16D27E8D 
 317 0028 74EE6E80 		.ascii	"t\356n\200\340,\000\234'\260=\200:\267}\251\020(\177"
 317      E02C009C 
 317      27B03D80 
 317      3AB77DA9 
 317      10287F
 318 003b 580F8874 		.ascii	"X\017\210t\026\006z\013\211\301Bf\264\240\034,\024&"
 318      16067A0B 
 318      89C14266 
 318      B4A01C2C 
 318      1426
 319 004d 0B60B620 		.ascii	"\013`\266 T\013\216\305\200\314\034\033\000\353~\252"
 319      540B8EC5 
 319      80CC1C1B 
 319      00EB7EAA 
 320 005d 072327FB 		.ascii	"\007#'\3731q6\340s\302\365\371\021\237\005\367\266\036"
 320      317136E0 
 320      73C2F5F9 
 320      119F05F7 
 320      B61E
 321 006f EFB61197 		.ascii	"\357\266\021\227W]\355]{\327\336\265\367\322{\371u|"
 321      575DED5D 
 321      7BD7DEB5 
 321      F7D27BF9 
 321      757C
 322 0081 01CE034E 		.ascii	"\001\316\003N\031"
 322      19
 323              		.text
 324              		.section	.gnu.lto_.refs.7239a87d,"",%progbits
 325 0000 789C6361 		.ascii	"x\234ca`d\340f```\344`b`b\344b\342fb\000\000\001\365"
 325      6064E066 
 325      606060E4 
 325      60626062 
 325      E462E266 
 326 0019 0038     		.ascii	"\0008"
 327              		.text
 328              		.section	.gnu.lto_.decls.7239a87d,"",%progbits
 329 0000 789C8D55 		.ascii	"x\234\215U[LTG\030>\263\263\273\300\202\220\022ch\273"
 329      5B4C5447 
 329      183EB3B3 
 329      BBC08290 
 329      126368BB 
 330 0014 6D69D304 		.ascii	"mi\323\004^J\253\266\211\217m\305B\037\332\222\020\355"
 330      5E4AABB6 
 330      898F6DC5 
ARM GAS  C:\Users\JEFFSN~1\AppData\Local\Temp\ccB4OmnA.s 			page 24


 330      421FDA92 
 330      10ED
 331 0026 8B0959E1 		.ascii	"\213\011Y\341hI\311b\226%)oG\201*^*\250\213\345\322"
 331      6849C962 
 331      9625296F 
 331      47812A5E 
 331      2AA88BE5 
 332 003b 2ADA5429 		.ascii	"*\332T)\310EP\001\225.7Yn\312E\271# \202\240hQ)\365"
 332      C8455001 
 332      952E3759 
 332      6ECA45B9 
 332      232082A0 
 333 0053 5AFACF9C 		.ascii	"Z\372\317\2349\234\331zV\235\344\337s\346\314\367\177"
 333      399CD97A 
 333      569DE4DF 
 333      73E6CCF7 
 333      7F
 334 0064 FF37DF5C 		.ascii	"\3777\337\\V/ \201\264\026\037A\360\327\011\302F,\010"
 334      562F2081 
 334      B4161F41 
 334      F0D709C2 
 334      462C08
 335 0077 8BD0FCE1 		.ascii	"\213\320\374\341\333\006Am\244\177\022\3424D\025D\035"
 335      DB06416D 
 335      A47F12E2 
 335      34441544 
 335      1D
 336 0088 4423C445 		.ascii	"D#\304E\010\027D+D;\304%\210N\210n\210+\020\275\302"
 336      0817442B 
 336      443BC425 
 336      884E886E 
 336      882B10BD 
 337 009d F38DF020 		.ascii	"\363\215\360 \216\037\261o\377o\244\226\221\341\002"
 337      8E1FB16F 
 337      FF6FA496 
 337      91E102
 338 00ac 21964394 		.ascii	"!\226C\224C\364A\364s\271\2475r\211F\303K\362\2524\362"
 338      43F441F4 
 338      73B9A735 
 338      728946C3 
 338      4BF2AA34 
 339 00c1 EAB89AB5 		.ascii	"\352\270\232\265\020f\210o F \206\270\334:\215\334F"
 339      1066886F 
 339      20462086 
 339      B8DC3A8D 
 339      DC46
 340 00d3 5653C953 		.ascii	"VS\311Sr\242\270\274F\215<\342!f5oBLq\370\213\032x\342"
 340      72A2B8BC 
 340      468D3CE2 
 340      2166356F 
 340      424C71F8 
 341 00eb B79ED509 		.ascii	"\267\236\325\011\321\310qi\344\264\276\240F\253\006"
 341      D1C87169 
 341      E4B4BEA0 
 341      46AB06
 342 00fa 9EACA537 		.ascii	"\236\254\2457\303\227B\024CLCTB\314\260\3719\031\326"
 342      C3974214 
ARM GAS  C:\Users\JEFFSN~1\AppData\Local\Temp\ccB4OmnA.s 			page 25


 342      434C4354 
 342      42CCB0F9 
 342      3919D6
 343 010d C8F08487 		.ascii	"\310\360\204\207\254\005Y\313:\017\332\311\376\360\025"
 343      AC0559CB 
 343      3A0FDAC9 
 343      FEF015
 344 011c 9E5FD397 		.ascii	"\236_\323\227\3250\260\\\245\206'\376N\206\325\322M"
 344      D530B05C 
 344      A58627FE 
 344      4E86D5D2 
 344      4D
 345 012d 9A9E6114 		.ascii	"\232\236a\024\236n\015\016\262o=yuE\003\337\373\002"
 345      9E6E0D0E 
 345      B26F3D79 
 345      754503DF 
 345      FB02
 346 013f BCD6FE7F 		.ascii	"\274\326\376\177\246C\371u\2776\030\206\320\000B\002"
 346      A643F975 
 346      BF361886 
 346      D0004202 
 347 014f A24D60E7 		.ascii	"\242M`\347P _\330\223\274 \271\243S\370\220\002RJP8"
 347      50205FD8 
 347      93BC20B9 
 347      A353F890 
 347      02524A50 
 348 0164 127414BF 		.ascii	"\022t\024\277\364]\301-\325\\T\232\372\011-5\005\211"
 348      F45DC12D 
 348      D55C549A 
 348      FA092D35 
 348      0589
 349 0176 DC4909AB 		.ascii	"\334I\011\253\332\205\276NM\340\370\230zV\037\361e)"
 349      DA85BE4E 
 349      4DE0F898 
 349      7A561FF1 
 349      6529
 350 0188 3556263D 		.ascii	"5V&=\341H\317\363\307\300\011\357\243\217N|\021V,A\313"
 350      E148CFF3 
 350      C7C009EF 
 350      A38F4E7C 
 350      11562C41 
 351 019d 94245DA4 		.ascii	"\224$]\244\352LWZY>\236\327\241@\023\322C\367^G\356"
 351      EA4C575A 
 351      593E9ED7 
 351      A14013D2 
 351      43F75E47 
 352 01b2 843F7497 		.ascii	"\204?t\227\233P0t\237\265\344\345\352\202\262i^\252"
 352      9B503074 
 352      9FB5E4E5 
 352      EA82B269 
 352      5EAA
 353 01c4 14AC471B 		.ascii	"\024\254G\033V\240\"dF\177 \330,\250\030\005\301\357"
 353      56A02264 
 353      467F20D8 
 353      2CA81805 
 353      C1EF
 354 01d6 26BDCC54 		.ascii	"&\275\314T\260\243\272\022\277wD\232+\223\306*\012V"
ARM GAS  C:\Users\JEFFSN~1\AppData\Local\Temp\ccB4OmnA.s 			page 26


 354      B0A3BA12 
 354      BF77449A 
 354      2B93C62A 
 354      0A56
 355 01e8 64A54A2E 		.ascii	"d\245J.H\013&(t\002aT\210\302\210Dx%\217\343h\010\304"
 355      480B2628 
 355      74026154 
 355      88C28844 
 355      78258FE3 
 356 01ff 9F44EF41 		.ascii	"\237D\357A\346\361\177\272\036x\341o\251\320\334\201"
 356      E6F17FBA 
 356      1E78E16F 
 356      A9D0DC81 
 357 020f FC366FBF 		.ascii	"\3746o\277]\222\264\235T\014\214\244\351j\311R\344\307"
 357      5D92B49D 
 357      540C8CA4 
 357      E96AC952 
 357      E4C7
 358 0221 88007B67 		.ascii	"\210\000{g2\275\302\027'\223<\335\374\314\324^=\362"
 358      32BDC217 
 358      27933CDD 
 358      FCCCD45E 
 358      3DF2
 359 0233 0BF59089 		.ascii	"\013\365\220\211N\241P.\371w2\2431G\353\346\334A\"\261"
 359      4EA1502E 
 359      F97732A3 
 359      3147EBE6 
 359      DC4122B1 
 360 0247 1C06CA54 		.ascii	"\034\006\312T\211\200\223\013\354j:Rc\322\303f\240\010"
 360      8980930B 
 360      EC6A3A52 
 360      63D2C366 
 360      A008
 361 0259 98287C7B 		.ascii	"\230(|{\3528\363\275GG*\251#\025\210Y\322\336T\236\343"
 361      EA38F3BD 
 361      47472AA9 
 361      23158859 
 361      D2DE549E 
 362 026e 0D968C11 		.ascii	"\015\226\214\021K\306\315\331\212%\000C%j\275\022\336"
 362      4BC6CDD9 
 362      8A250043 
 362      256ABD12 
 362      DE
 363 027f 92D3D492 		.ascii	"\222\323\324\222\311\237\012>\306\277!j\311\256\361"
 363      C99F0A3E 
 363      C6BF216A 
 363      C9AEF1
 364 028e FAE3982F 		.ascii	"\372\343\230/I\304\2505\317\272\255\302\336\207\243"
 364      49C4A835 
 364      CFBAADC2 
 364      DE87A3
 365 029d 3F9AA0E4 		.ascii	"?\232\240\344\2212\311\231\265/ Gr\246A^ A\2413j\311"
 365      9132C999 
 365      B52F2047 
 365      72A6415E 
 365      2041A133 
 366 02b3 337CC92A 		.ascii	"3|\311*Z\362\351\255\354I\214\353\345\232\245\3517\012"
ARM GAS  C:\Users\JEFFSN~1\AppData\Local\Temp\ccB4OmnA.s 			page 27


 366      5AF2E9AD 
 366      EC498CEB 
 366      E59AA5E9 
 366      370A
 367 02c5 BD611F98 		.ascii	"\275a\037\230Mh\021\221\376l\365\243er\237\014\347d"
 367      4D681191 
 367      FE6CF5A3 
 367      65729F0C 
 367      E764
 368 02d7 4DFCEB8B 		.ascii	"M\374\353\213\257S\254\256g\242hF\217BM\212\251\011"
 368      AF53ACAE 
 368      67A26846 
 368      8F424D8A 
 368      A909
 369 02e9 8776C01E 		.ascii	"\207v\300\036C\265\310\204\316\253\025\315&\370\335"
 369      43B5C884 
 369      CEAB15CD 
 369      26F8DD
 370 02f8 495667EE 		.ascii	"IVg\356\250d\014\022\320j3\372\010\026\346\002,\014"
 370      A8640C12 
 370      D06A33FA 
 370      0816E602 
 370      2C0C
 371 030a B012143A 		.ascii	"\260\022\024:\007\223\252\201I\021\003\016\035\276m"
 371      0793AA81 
 371      4911030E 
 371      1DBE6D
 372 0319 A4D6131E 		.ascii	"\244\326\023\036\331\372\342\232\341Y\243G\357\235\324"
 372      D9FAE29A 
 372      E159A347 
 372      EF9DD4
 373 0328 873F15EF 		.ascii	"\207?\025\357\237\216\236\277\246W\274/|\177\311{\200"
 373      9F8E9EBF 
 373      A657BC2F 
 373      7C7FC97B 
 373      80
 374 0339 A16A5556 		.ascii	"\241jUV5oD\0355\"oG\351c_<-\033\321\271\273)5\200\257"
 374      356F441D 
 374      35226F47 
 374      E9635F3C 
 374      2D1BD1B9 
 375 0352 49E4A845 		.ascii	"I\344\250E\033\334\314\317]\224\232\015\314\374{\335"
 375      1BDCCCCF 
 375      5D949A0D 
 375      CCFC7BDD 
 376 0362 9899AF23 		.ascii	"\230\231\257#(T\257\326\254\347k6\322\232\003'\2169"
 376      2854AFD6 
 376      ACE76B36 
 376      D29A0327 
 376      8E39
 377 0374 0C78A77C 		.ascii	"\014x\247|X\373\307\367\354\367\225\245;\373\016\250"
 377      58FBC7F7 
 377      ECF795A5 
 377      3BFB0EA8 
 378 0384 34644337 		.ascii	"4dC7\2514M<\315EJ\323\330t\376\256\017>\306h\376>\270"
 378      A9344D3C 
 378      CD454AD3 
ARM GAS  C:\Users\JEFFSN~1\AppData\Local\Temp\ccB4OmnA.s 			page 28


 378      D874FEAE 
 378      0F3EC668 
 379 039b C787A929 		.ascii	"\307\207\251)\357uW\323\254\3224\3634.J\323\3258}\320"
 379      EF7557D3 
 379      ACD234F3 
 379      342E4AD3 
 379      D5387DD0 
 380 03af 1F3B659A 		.ascii	"\037;e\232}]w\\\230\251y\222\355\256\246E\245i\341i"
 380      7D5D775C 
 380      98A97992 
 380      EDAEA645 
 380      A569E169 
 381 03c3 5A294DE9 		.ascii	"Z)M\351\\[\2367\036\226in\337\032\227\002\230\232\307"
 381      5C5B9E37 
 381      1E96696E 
 381      DF1A9702 
 381      989AC7
 382 03d6 A294011C 		.ascii	"\242\224\001\034z\312\321\246r\264\361\034\355\224#"
 382      7ACAD1A6 
 382      72B4F11C 
 382      ED9423
 383 03e5 EBD4FC2F 		.ascii	"\353\324\374/\313\360\202\314\361\370\276k\0013\216"
 383      CBF082CC 
 383      F1F8BE6B 
 383      01338E
 384 03f4 B2663F29 		.ascii	"\262f?)s\233$}JOS\207J\322\301\223\\\242$\031\323\367"
 384      739B247D 
 384      4A4F5387 
 384      4AD2C193 
 384      5CA22419 
 385 040a 6A4C783F 		.ascii	"jLx?\246$%-\263\275:F\222\337\252\220\020%\227U\222"
 385      A624252D 
 385      B3BD3A46 
 385      92DFAA90 
 385      10259755 
 386 041f CB3C4927 		.ascii	"\313<I'%I\257\355\2570\340\"\231$\243/\263\214\236l"
 386      2549AFED 
 386      AF30E022 
 386      9924A32F 
 386      B38C9E6C 
 387 0433 49725634 		.ascii	"IrV4\37193\021e\350R\031\272\220|\021\243n\331\213\277"
 387      F9393311 
 387      65E85219 
 387      BA907C11 
 387      A36ED98B 
 388 0448 CE1DF0C7 		.ascii	"\316\035\360\307\027\344\354\324\223i\355ze\237\034"
 388      17E4ECD4 
 388      9369ED7A 
 388      659F1C
 389 0457 72B7B447 		.ascii	"r\267\264G\245\350\341E\\\2414E=\216\022\023\036\226"
 389      A5E8E145 
 389      5CA13445 
 389      3D8E1213 
 389      1E96
 390 0469 698E36CC 		.ascii	"i\2166\314W+3\351\036\344grU%\271\312\223\364R\222\235"
 390      572B33E9 
 390      1EE46772 
ARM GAS  C:\Users\JEFFSN~1\AppData\Local\Temp\ccB4OmnA.s 			page 29


 390      5525B9CA 
 390      93F45292 
 391 047e 8EDA27CB 		.ascii	"\216\332'\313\370;\326\375B\351\243\327\037}\002xa\254"
 391      F83BD6FD 
 391      42E9A3D7 
 391      1F7D0278 
 391      61AC
 392 0490 6D9F170F 		.ascii	"m\237\027\017\356s\003\3673p?\005\317\247=\3505\232"
 392      EE7303F7 
 392      33703F05 
 392      CFA73DE8 
 392      359A
 393 04a2 E094A7BE 		.ascii	"\340\224\247\276\332)\357\230)X\364\302\317\350tt\025"
 393      DA29EF98 
 393      2958F4C2 
 393      CFE87474 
 393      15
 394 04b3 8E1C8717 		.ascii	"\216\034\207\0272\205j\244\017k\244+\327\315\372\334"
 394      32856AA4 
 394      0F6BA42B 
 394      D7CDFADC 
 395 04c3 FDDBE05C 		.ascii	"\375\333\340\\\017\301\271\034T\247=\200L\362\231,\274"
 395      0FC1B91C 
 395      54A73D80 
 395      4CF2992C 
 395      BC
 396 04d4 DBE044BC 		.ascii	"\333\340D\274\376!\267\003<\302\364\217P\375#\256\302"
 396      FE21B703 
 396      3CC2F48F 
 396      50FD23AE 
 396      C2
 397 04e5 22F26F18 		.ascii	"\"\362o\030\002\327\036\264\000\356\346\013\221o\276"
 397      02D71EB4 
 397      00EEE60B 
 397      916FBE
 398 04f4 D6D1C9FB 		.ascii	"\326\321\311\373>x\273\236*\356\316\231\0355\312\212"
 398      3E78BB9E 
 398      2AEECE99 
 398      1D35CA8A 
 399 0504 19BBA0FE 		.ascii	"\031\273\240\376\343\\\007\315!L\363(|\274\246hv\236"
 399      E35C07CD 
 399      214CF328 
 399      7CBCA668 
 399      769E
 400 0516 1D354B92 		.ascii	"\0355K\2227\032\007!c\252\342\020&8c\3341h\220=|\025"
 400      371A0721 
 400      63AAE210 
 400      263863DC 
 400      3168903D 
 401 052c 4AC8A8B9 		.ascii	"J\310\250\271&\345\033p\206\254\351\352\356\263?c\345"
 401      26E51B70 
 401      86ACE9EA 
 401      EEB33F63 
 401      E5
 402 053d 36760EDD 		.ascii	"6v\016\335\212\204\255\205\320\024\324\272\241\326\232"
 402      8A84AD85 
 402      D014D4BA 
ARM GAS  C:\Users\JEFFSN~1\AppData\Local\Temp\ccB4OmnA.s 			page 30


 402      A1D69A
 403 054c 40EC367E 		.ascii	"@\3546~\276\306\244v\215\205\207-{\374x\033\247\334"
 403      BEC6A476 
 403      8D85872D 
 403      7BFC781B 
 403      A7DC
 404 055e 6CBCC96C 		.ascii	"l\274\311l\274Im<\\\265\255\320\315\363J\267?\361i\006"
 404      BC496D3C 
 404      5CB5ADD0 
 404      CDF34AB7 
 404      3FF16906 
 405 0572 9EA6E0B9 		.ascii	"\236\246\340\271:WC\000\017v\272\201g\030\230<\337Z"
 405      3A574300 
 405      0F76BA81 
 405      6718983C 
 405      DF5A
 406 0584 1FFD79CC 		.ascii	"\037\375y\314\272\250\230\360\257>\213\011O\264\212"
 406      BAA898F0 
 406      AF3E8B09 
 406      4FB48A
 407 0593 31F149B6 		.ascii	"1\361I\266\230/\255v\321fK\336j\367\216\370z}\360\332"
 407      982FAD76 
 407      D1664BDE 
 407      6AF78EF8 
 407      7A7DF0DA 
 408 05a7 952B850F 		.ascii	"\225+\205\017\"D\253h\263\330\305\270\230\350\304d["
 408      2244AB68 
 408      B3D8C5B8 
 408      98E8C464 
 408      5B
 409 05b8 ACB8312A 		.ascii	"\254\2701*:q\355'\0335\262\303b\265I\243E\373\0061\326"
 409      3A71ED27 
 409      1B35B2C3 
 409      62B549A3 
 409      45FB0631 
 410 05cd 9E68F38B 		.ascii	"\236h\363\213M\201\276%.\316&&%\275\253M\374al\212="
 410      4D81BE25 
 410      2ECE2626 
 410      25BDAB4D 
 410      FC616C8A 
 411 05e2 65AB9814 		.ascii	"e\253\230\024\366\2356Y\204B\366\216\207RQ\266\370D"
 411      F69D3659 
 411      8442F68E 
 411      875251B6 
 411      F844
 412 05f4 5BBC3DC5 		.ascii	"[\274=\305\220\034o\265\257\321DE\250\2507\264\306\327"
 412      901C6FB5 
 412      AFD14445 
 412      A8A837B4 
 412      C6D7
 413 0606 592D9B12 		.ascii	"Y-\233\022D\263\207\324h;\210~Sk0<>\211$\276\256\251"
 413      44B387D4 
 413      683B887E 
 413      536B303C 
 413      3E8924BE 
 414 061c CC6EB1D9 		.ascii	"\314n\261\3315\263\350\310\272\037\202\264\307\022\267"
 414      35B3E8C8 
ARM GAS  C:\Users\JEFFSN~1\AppData\Local\Temp\ccB4OmnA.s 			page 31


 414      BA1F82B4 
 414      C712B7
 415 062b BE068B12 		.ascii	"\276\006\213\022.n\266$'\330#-\326\270\004\321\366\266"
 415      2E6EB624 
 415      27D8232D 
 415      D6B804D1 
 415      F6B6
 416 063d A7A98BD6 		.ascii	"\247\251\213\326\270x\353\226`\255\341\265\011\242\305"
 416      B878EB96 
 416      60ADE1B5 
 416      09A2C5
 417 064c C6007A9B 		.ascii	"\306\000z\233\270e\215\221\370\263z\225\001\336W\257"
 417      B8658D91 
 417      F8B37A95 
 417      01DE57AF 
 418 065c FA0FD6D3 		.ascii	"\372\017\326\323\335\264"
 418      DDB4
 419              		.text
 420              		.section	.gnu.lto_.symtab.7239a87d,"",%progbits
 421 0000 5553425F 		.ascii	"USB_EP_DMA_Done_isr_Interrupt\000"
 421      45505F44 
 421      4D415F44 
 421      6F6E655F 
 421      6973725F 
 422 001e 00       		.ascii	"\000"
 423 001f 00       		.ascii	"\000"
 424 0020 00       		.ascii	"\000"
 425 0021 00000000 		.ascii	"\000\000\000\000\000\000\000\000"
 425      00000000 
 426 0029 AD000000 		.ascii	"\255\000\000\000"
 427 002d 5553425F 		.ascii	"USB_EP_DMA_Done_isr_SetVector\000"
 427      45505F44 
 427      4D415F44 
 427      6F6E655F 
 427      6973725F 
 428 004b 00       		.ascii	"\000"
 429 004c 00       		.ascii	"\000"
 430 004d 00       		.ascii	"\000"
 431 004e 00000000 		.ascii	"\000\000\000\000\000\000\000\000"
 431      00000000 
 432 0056 B5000000 		.ascii	"\265\000\000\000"
 433 005a 5553425F 		.ascii	"USB_EP_DMA_Done_isr_GetVector\000"
 433      45505F44 
 433      4D415F44 
 433      6F6E655F 
 433      6973725F 
 434 0078 00       		.ascii	"\000"
 435 0079 00       		.ascii	"\000"
 436 007a 00       		.ascii	"\000"
 437 007b 00000000 		.ascii	"\000\000\000\000\000\000\000\000"
 437      00000000 
 438 0083 B8000000 		.ascii	"\270\000\000\000"
 439 0087 5553425F 		.ascii	"USB_EP_DMA_Done_isr_SetPriority\000"
 439      45505F44 
 439      4D415F44 
 439      6F6E655F 
 439      6973725F 
ARM GAS  C:\Users\JEFFSN~1\AppData\Local\Temp\ccB4OmnA.s 			page 32


 440 00a7 00       		.ascii	"\000"
 441 00a8 00       		.ascii	"\000"
 442 00a9 00       		.ascii	"\000"
 443 00aa 00000000 		.ascii	"\000\000\000\000\000\000\000\000"
 443      00000000 
 444 00b2 C1000000 		.ascii	"\301\000\000\000"
 445 00b6 5553425F 		.ascii	"USB_EP_DMA_Done_isr_GetPriority\000"
 445      45505F44 
 445      4D415F44 
 445      6F6E655F 
 445      6973725F 
 446 00d6 00       		.ascii	"\000"
 447 00d7 00       		.ascii	"\000"
 448 00d8 00       		.ascii	"\000"
 449 00d9 00000000 		.ascii	"\000\000\000\000\000\000\000\000"
 449      00000000 
 450 00e1 C4000000 		.ascii	"\304\000\000\000"
 451 00e5 5553425F 		.ascii	"USB_EP_DMA_Done_isr_Enable\000"
 451      45505F44 
 451      4D415F44 
 451      6F6E655F 
 451      6973725F 
 452 0100 00       		.ascii	"\000"
 453 0101 00       		.ascii	"\000"
 454 0102 00       		.ascii	"\000"
 455 0103 00000000 		.ascii	"\000\000\000\000\000\000\000\000"
 455      00000000 
 456 010b C6000000 		.ascii	"\306\000\000\000"
 457 010f 5553425F 		.ascii	"USB_EP_DMA_Done_isr_GetState\000"
 457      45505F44 
 457      4D415F44 
 457      6F6E655F 
 457      6973725F 
 458 012c 00       		.ascii	"\000"
 459 012d 00       		.ascii	"\000"
 460 012e 00       		.ascii	"\000"
 461 012f 00000000 		.ascii	"\000\000\000\000\000\000\000\000"
 461      00000000 
 462 0137 C8000000 		.ascii	"\310\000\000\000"
 463 013b 5553425F 		.ascii	"USB_EP_DMA_Done_isr_Disable\000"
 463      45505F44 
 463      4D415F44 
 463      6F6E655F 
 463      6973725F 
 464 0157 00       		.ascii	"\000"
 465 0158 00       		.ascii	"\000"
 466 0159 00       		.ascii	"\000"
 467 015a 00000000 		.ascii	"\000\000\000\000\000\000\000\000"
 467      00000000 
 468 0162 CA000000 		.ascii	"\312\000\000\000"
 469 0166 5553425F 		.ascii	"USB_EP_DMA_Done_isr_Start\000"
 469      45505F44 
 469      4D415F44 
 469      6F6E655F 
 469      6973725F 
 470 0180 00       		.ascii	"\000"
 471 0181 00       		.ascii	"\000"
ARM GAS  C:\Users\JEFFSN~1\AppData\Local\Temp\ccB4OmnA.s 			page 33


 472 0182 00       		.ascii	"\000"
 473 0183 00000000 		.ascii	"\000\000\000\000\000\000\000\000"
 473      00000000 
 474 018b CC000000 		.ascii	"\314\000\000\000"
 475 018f 5553425F 		.ascii	"USB_EP_DMA_Done_isr_StartEx\000"
 475      45505F44 
 475      4D415F44 
 475      6F6E655F 
 475      6973725F 
 476 01ab 00       		.ascii	"\000"
 477 01ac 00       		.ascii	"\000"
 478 01ad 00       		.ascii	"\000"
 479 01ae 00000000 		.ascii	"\000\000\000\000\000\000\000\000"
 479      00000000 
 480 01b6 CE000000 		.ascii	"\316\000\000\000"
 481 01ba 5553425F 		.ascii	"USB_EP_DMA_Done_isr_Stop\000"
 481      45505F44 
 481      4D415F44 
 481      6F6E655F 
 481      6973725F 
 482 01d3 00       		.ascii	"\000"
 483 01d4 00       		.ascii	"\000"
 484 01d5 00       		.ascii	"\000"
 485 01d6 00000000 		.ascii	"\000\000\000\000\000\000\000\000"
 485      00000000 
 486 01de D0000000 		.ascii	"\320\000\000\000"
 487 01e2 5553425F 		.ascii	"USB_EP_DMA_Done_isr_SetPending\000"
 487      45505F44 
 487      4D415F44 
 487      6F6E655F 
 487      6973725F 
 488 0201 00       		.ascii	"\000"
 489 0202 00       		.ascii	"\000"
 490 0203 00       		.ascii	"\000"
 491 0204 00000000 		.ascii	"\000\000\000\000\000\000\000\000"
 491      00000000 
 492 020c D4000000 		.ascii	"\324\000\000\000"
 493 0210 5553425F 		.ascii	"USB_EP_DMA_Done_isr_ClearPending\000"
 493      45505F44 
 493      4D415F44 
 493      6F6E655F 
 493      6973725F 
 494 0231 00       		.ascii	"\000"
 495 0232 00       		.ascii	"\000"
 496 0233 00       		.ascii	"\000"
 497 0234 00000000 		.ascii	"\000\000\000\000\000\000\000\000"
 497      00000000 
 498 023c D6000000 		.ascii	"\326\000\000\000"
 499 0240 496E7444 		.ascii	"IntDefaultHandler\000"
 499      65666175 
 499      6C744861 
 499      6E646C65 
 499      7200
 500 0252 00       		.ascii	"\000"
 501 0253 02       		.ascii	"\002"
 502 0254 00       		.ascii	"\000"
 503 0255 00000000 		.ascii	"\000\000\000\000\000\000\000\000"
ARM GAS  C:\Users\JEFFSN~1\AppData\Local\Temp\ccB4OmnA.s 			page 34


 503      00000000 
 504 025d D2000000 		.ascii	"\322\000\000\000"
 505              		.text
 506              		.section	.gnu.lto_.opts,"",%progbits
 507 0000 272D666D 		.ascii	"'-fmath-errno' '-fsigned-zeros' '-ftrapping-math' '"
 507      6174682D 
 507      6572726E 
 507      6F272027 
 507      2D667369 
 508 0033 2D666E6F 		.ascii	"-fno-trapv' '-fno-strict-overflow' '-fno-openmp' '-"
 508      2D747261 
 508      70762720 
 508      272D666E 
 508      6F2D7374 
 509 0066 666E6F2D 		.ascii	"fno-openacc' '-mcpu=cortex-m3' '-mthumb' '-g' '-Og'"
 509      6F70656E 
 509      61636327 
 509      20272D6D 
 509      6370753D 
 510 0099 20272D66 		.ascii	" '-ffunction-sections' '-ffat-lto-objects' '-finlin"
 510      66756E63 
 510      74696F6E 
 510      2D736563 
 510      74696F6E 
 511 00cc 652D6675 		.ascii	"e-functions' '-flto'\000"
 511      6E637469 
 511      6F6E7327 
 511      20272D66 
 511      6C746F27 
 512              		.text
 513              		.cfi_sections	.debug_frame
 514              		.section	.text.USB_EP_DMA_Done_isr_Interrupt,"ax",%progbits
 515              		.align	2
 516              		.global	USB_EP_DMA_Done_isr_Interrupt
 517              		.thumb
 518              		.thumb_func
 519              		.type	USB_EP_DMA_Done_isr_Interrupt, %function
 520              	USB_EP_DMA_Done_isr_Interrupt:
 521              	.LFB3:
 522              		.file 1 "Generated_Source\\PSoC5\\USB_EP_DMA_Done_isr.c"
   1:Generated_Source\PSoC5/USB_EP_DMA_Done_isr.c **** /*******************************************************************************
   2:Generated_Source\PSoC5/USB_EP_DMA_Done_isr.c **** * File Name: USB_EP_DMA_Done_isr.c  
   3:Generated_Source\PSoC5/USB_EP_DMA_Done_isr.c **** * Version 1.70
   4:Generated_Source\PSoC5/USB_EP_DMA_Done_isr.c **** *
   5:Generated_Source\PSoC5/USB_EP_DMA_Done_isr.c **** *  Description:
   6:Generated_Source\PSoC5/USB_EP_DMA_Done_isr.c **** *   API for controlling the state of an interrupt.
   7:Generated_Source\PSoC5/USB_EP_DMA_Done_isr.c **** *
   8:Generated_Source\PSoC5/USB_EP_DMA_Done_isr.c **** *
   9:Generated_Source\PSoC5/USB_EP_DMA_Done_isr.c **** *  Note:
  10:Generated_Source\PSoC5/USB_EP_DMA_Done_isr.c **** *
  11:Generated_Source\PSoC5/USB_EP_DMA_Done_isr.c **** ********************************************************************************
  12:Generated_Source\PSoC5/USB_EP_DMA_Done_isr.c **** * Copyright 2008-2015, Cypress Semiconductor Corporation.  All rights reserved.
  13:Generated_Source\PSoC5/USB_EP_DMA_Done_isr.c **** * You may use this file only in accordance with the license, terms, conditions, 
  14:Generated_Source\PSoC5/USB_EP_DMA_Done_isr.c **** * disclaimers, and limitations in the end user license agreement accompanying 
  15:Generated_Source\PSoC5/USB_EP_DMA_Done_isr.c **** * the software package with which this file was provided.
  16:Generated_Source\PSoC5/USB_EP_DMA_Done_isr.c **** *******************************************************************************/
  17:Generated_Source\PSoC5/USB_EP_DMA_Done_isr.c **** 
ARM GAS  C:\Users\JEFFSN~1\AppData\Local\Temp\ccB4OmnA.s 			page 35


  18:Generated_Source\PSoC5/USB_EP_DMA_Done_isr.c **** 
  19:Generated_Source\PSoC5/USB_EP_DMA_Done_isr.c **** #include <cydevice_trm.h>
  20:Generated_Source\PSoC5/USB_EP_DMA_Done_isr.c **** #include <CyLib.h>
  21:Generated_Source\PSoC5/USB_EP_DMA_Done_isr.c **** #include <USB_EP_DMA_Done_isr.h>
  22:Generated_Source\PSoC5/USB_EP_DMA_Done_isr.c **** 
  23:Generated_Source\PSoC5/USB_EP_DMA_Done_isr.c **** 
  24:Generated_Source\PSoC5/USB_EP_DMA_Done_isr.c **** #if !defined(USB_EP_DMA_Done_isr__REMOVED) /* Check for removal by optimization */
  25:Generated_Source\PSoC5/USB_EP_DMA_Done_isr.c **** 
  26:Generated_Source\PSoC5/USB_EP_DMA_Done_isr.c **** /*******************************************************************************
  27:Generated_Source\PSoC5/USB_EP_DMA_Done_isr.c **** *  Place your includes, defines and code here 
  28:Generated_Source\PSoC5/USB_EP_DMA_Done_isr.c **** ********************************************************************************/
  29:Generated_Source\PSoC5/USB_EP_DMA_Done_isr.c **** /* `#START USB_EP_DMA_Done_isr_intc` */
  30:Generated_Source\PSoC5/USB_EP_DMA_Done_isr.c **** 
  31:Generated_Source\PSoC5/USB_EP_DMA_Done_isr.c **** /* `#END` */
  32:Generated_Source\PSoC5/USB_EP_DMA_Done_isr.c **** 
  33:Generated_Source\PSoC5/USB_EP_DMA_Done_isr.c **** #ifndef CYINT_IRQ_BASE
  34:Generated_Source\PSoC5/USB_EP_DMA_Done_isr.c **** #define CYINT_IRQ_BASE      16
  35:Generated_Source\PSoC5/USB_EP_DMA_Done_isr.c **** #endif /* CYINT_IRQ_BASE */
  36:Generated_Source\PSoC5/USB_EP_DMA_Done_isr.c **** #ifndef CYINT_VECT_TABLE
  37:Generated_Source\PSoC5/USB_EP_DMA_Done_isr.c **** #define CYINT_VECT_TABLE    ((cyisraddress **) CYREG_NVIC_VECT_OFFSET)
  38:Generated_Source\PSoC5/USB_EP_DMA_Done_isr.c **** #endif /* CYINT_VECT_TABLE */
  39:Generated_Source\PSoC5/USB_EP_DMA_Done_isr.c **** 
  40:Generated_Source\PSoC5/USB_EP_DMA_Done_isr.c **** /* Declared in startup, used to set unused interrupts to. */
  41:Generated_Source\PSoC5/USB_EP_DMA_Done_isr.c **** CY_ISR_PROTO(IntDefaultHandler);
  42:Generated_Source\PSoC5/USB_EP_DMA_Done_isr.c **** 
  43:Generated_Source\PSoC5/USB_EP_DMA_Done_isr.c **** 
  44:Generated_Source\PSoC5/USB_EP_DMA_Done_isr.c **** /*******************************************************************************
  45:Generated_Source\PSoC5/USB_EP_DMA_Done_isr.c **** * Function Name: USB_EP_DMA_Done_isr_Start
  46:Generated_Source\PSoC5/USB_EP_DMA_Done_isr.c **** ********************************************************************************
  47:Generated_Source\PSoC5/USB_EP_DMA_Done_isr.c **** *
  48:Generated_Source\PSoC5/USB_EP_DMA_Done_isr.c **** * Summary:
  49:Generated_Source\PSoC5/USB_EP_DMA_Done_isr.c **** *  Set up the interrupt and enable it. This function disables the interrupt, 
  50:Generated_Source\PSoC5/USB_EP_DMA_Done_isr.c **** *  sets the default interrupt vector, sets the priority from the value in the
  51:Generated_Source\PSoC5/USB_EP_DMA_Done_isr.c **** *  Design Wide Resources Interrupt Editor, then enables the interrupt to the 
  52:Generated_Source\PSoC5/USB_EP_DMA_Done_isr.c **** *  interrupt controller.
  53:Generated_Source\PSoC5/USB_EP_DMA_Done_isr.c **** *
  54:Generated_Source\PSoC5/USB_EP_DMA_Done_isr.c **** * Parameters:  
  55:Generated_Source\PSoC5/USB_EP_DMA_Done_isr.c **** *   None
  56:Generated_Source\PSoC5/USB_EP_DMA_Done_isr.c **** *
  57:Generated_Source\PSoC5/USB_EP_DMA_Done_isr.c **** * Return:
  58:Generated_Source\PSoC5/USB_EP_DMA_Done_isr.c **** *   None
  59:Generated_Source\PSoC5/USB_EP_DMA_Done_isr.c **** *
  60:Generated_Source\PSoC5/USB_EP_DMA_Done_isr.c **** *******************************************************************************/
  61:Generated_Source\PSoC5/USB_EP_DMA_Done_isr.c **** void USB_EP_DMA_Done_isr_Start(void)
  62:Generated_Source\PSoC5/USB_EP_DMA_Done_isr.c **** {
  63:Generated_Source\PSoC5/USB_EP_DMA_Done_isr.c ****     /* For all we know the interrupt is active. */
  64:Generated_Source\PSoC5/USB_EP_DMA_Done_isr.c ****     USB_EP_DMA_Done_isr_Disable();
  65:Generated_Source\PSoC5/USB_EP_DMA_Done_isr.c **** 
  66:Generated_Source\PSoC5/USB_EP_DMA_Done_isr.c ****     /* Set the ISR to point to the USB_EP_DMA_Done_isr Interrupt. */
  67:Generated_Source\PSoC5/USB_EP_DMA_Done_isr.c ****     USB_EP_DMA_Done_isr_SetVector(&USB_EP_DMA_Done_isr_Interrupt);
  68:Generated_Source\PSoC5/USB_EP_DMA_Done_isr.c **** 
  69:Generated_Source\PSoC5/USB_EP_DMA_Done_isr.c ****     /* Set the priority. */
  70:Generated_Source\PSoC5/USB_EP_DMA_Done_isr.c ****     USB_EP_DMA_Done_isr_SetPriority((uint8)USB_EP_DMA_Done_isr_INTC_PRIOR_NUMBER);
  71:Generated_Source\PSoC5/USB_EP_DMA_Done_isr.c **** 
  72:Generated_Source\PSoC5/USB_EP_DMA_Done_isr.c ****     /* Enable it. */
  73:Generated_Source\PSoC5/USB_EP_DMA_Done_isr.c ****     USB_EP_DMA_Done_isr_Enable();
  74:Generated_Source\PSoC5/USB_EP_DMA_Done_isr.c **** }
ARM GAS  C:\Users\JEFFSN~1\AppData\Local\Temp\ccB4OmnA.s 			page 36


  75:Generated_Source\PSoC5/USB_EP_DMA_Done_isr.c **** 
  76:Generated_Source\PSoC5/USB_EP_DMA_Done_isr.c **** 
  77:Generated_Source\PSoC5/USB_EP_DMA_Done_isr.c **** /*******************************************************************************
  78:Generated_Source\PSoC5/USB_EP_DMA_Done_isr.c **** * Function Name: USB_EP_DMA_Done_isr_StartEx
  79:Generated_Source\PSoC5/USB_EP_DMA_Done_isr.c **** ********************************************************************************
  80:Generated_Source\PSoC5/USB_EP_DMA_Done_isr.c **** *
  81:Generated_Source\PSoC5/USB_EP_DMA_Done_isr.c **** * Summary:
  82:Generated_Source\PSoC5/USB_EP_DMA_Done_isr.c **** *  Sets up the interrupt and enables it. This function disables the interrupt,
  83:Generated_Source\PSoC5/USB_EP_DMA_Done_isr.c **** *  sets the interrupt vector based on the address passed in, sets the priority 
  84:Generated_Source\PSoC5/USB_EP_DMA_Done_isr.c **** *  from the value in the Design Wide Resources Interrupt Editor, then enables 
  85:Generated_Source\PSoC5/USB_EP_DMA_Done_isr.c **** *  the interrupt to the interrupt controller.
  86:Generated_Source\PSoC5/USB_EP_DMA_Done_isr.c **** *  
  87:Generated_Source\PSoC5/USB_EP_DMA_Done_isr.c **** *  When defining ISR functions, the CY_ISR and CY_ISR_PROTO macros should be 
  88:Generated_Source\PSoC5/USB_EP_DMA_Done_isr.c **** *  used to provide consistent definition across compilers:
  89:Generated_Source\PSoC5/USB_EP_DMA_Done_isr.c **** *  
  90:Generated_Source\PSoC5/USB_EP_DMA_Done_isr.c **** *  Function definition example:
  91:Generated_Source\PSoC5/USB_EP_DMA_Done_isr.c **** *   CY_ISR(MyISR)
  92:Generated_Source\PSoC5/USB_EP_DMA_Done_isr.c **** *   {
  93:Generated_Source\PSoC5/USB_EP_DMA_Done_isr.c **** *   }
  94:Generated_Source\PSoC5/USB_EP_DMA_Done_isr.c **** *   Function prototype example:
  95:Generated_Source\PSoC5/USB_EP_DMA_Done_isr.c **** *   CY_ISR_PROTO(MyISR);
  96:Generated_Source\PSoC5/USB_EP_DMA_Done_isr.c **** *
  97:Generated_Source\PSoC5/USB_EP_DMA_Done_isr.c **** * Parameters:  
  98:Generated_Source\PSoC5/USB_EP_DMA_Done_isr.c **** *   address: Address of the ISR to set in the interrupt vector table.
  99:Generated_Source\PSoC5/USB_EP_DMA_Done_isr.c **** *
 100:Generated_Source\PSoC5/USB_EP_DMA_Done_isr.c **** * Return:
 101:Generated_Source\PSoC5/USB_EP_DMA_Done_isr.c **** *   None
 102:Generated_Source\PSoC5/USB_EP_DMA_Done_isr.c **** *
 103:Generated_Source\PSoC5/USB_EP_DMA_Done_isr.c **** *******************************************************************************/
 104:Generated_Source\PSoC5/USB_EP_DMA_Done_isr.c **** void USB_EP_DMA_Done_isr_StartEx(cyisraddress address)
 105:Generated_Source\PSoC5/USB_EP_DMA_Done_isr.c **** {
 106:Generated_Source\PSoC5/USB_EP_DMA_Done_isr.c ****     /* For all we know the interrupt is active. */
 107:Generated_Source\PSoC5/USB_EP_DMA_Done_isr.c ****     USB_EP_DMA_Done_isr_Disable();
 108:Generated_Source\PSoC5/USB_EP_DMA_Done_isr.c **** 
 109:Generated_Source\PSoC5/USB_EP_DMA_Done_isr.c ****     /* Set the ISR to point to the USB_EP_DMA_Done_isr Interrupt. */
 110:Generated_Source\PSoC5/USB_EP_DMA_Done_isr.c ****     USB_EP_DMA_Done_isr_SetVector(address);
 111:Generated_Source\PSoC5/USB_EP_DMA_Done_isr.c **** 
 112:Generated_Source\PSoC5/USB_EP_DMA_Done_isr.c ****     /* Set the priority. */
 113:Generated_Source\PSoC5/USB_EP_DMA_Done_isr.c ****     USB_EP_DMA_Done_isr_SetPriority((uint8)USB_EP_DMA_Done_isr_INTC_PRIOR_NUMBER);
 114:Generated_Source\PSoC5/USB_EP_DMA_Done_isr.c **** 
 115:Generated_Source\PSoC5/USB_EP_DMA_Done_isr.c ****     /* Enable it. */
 116:Generated_Source\PSoC5/USB_EP_DMA_Done_isr.c ****     USB_EP_DMA_Done_isr_Enable();
 117:Generated_Source\PSoC5/USB_EP_DMA_Done_isr.c **** }
 118:Generated_Source\PSoC5/USB_EP_DMA_Done_isr.c **** 
 119:Generated_Source\PSoC5/USB_EP_DMA_Done_isr.c **** 
 120:Generated_Source\PSoC5/USB_EP_DMA_Done_isr.c **** /*******************************************************************************
 121:Generated_Source\PSoC5/USB_EP_DMA_Done_isr.c **** * Function Name: USB_EP_DMA_Done_isr_Stop
 122:Generated_Source\PSoC5/USB_EP_DMA_Done_isr.c **** ********************************************************************************
 123:Generated_Source\PSoC5/USB_EP_DMA_Done_isr.c **** *
 124:Generated_Source\PSoC5/USB_EP_DMA_Done_isr.c **** * Summary:
 125:Generated_Source\PSoC5/USB_EP_DMA_Done_isr.c **** *   Disables and removes the interrupt.
 126:Generated_Source\PSoC5/USB_EP_DMA_Done_isr.c **** *
 127:Generated_Source\PSoC5/USB_EP_DMA_Done_isr.c **** * Parameters:  
 128:Generated_Source\PSoC5/USB_EP_DMA_Done_isr.c **** *   None
 129:Generated_Source\PSoC5/USB_EP_DMA_Done_isr.c **** *
 130:Generated_Source\PSoC5/USB_EP_DMA_Done_isr.c **** * Return:
 131:Generated_Source\PSoC5/USB_EP_DMA_Done_isr.c **** *   None
ARM GAS  C:\Users\JEFFSN~1\AppData\Local\Temp\ccB4OmnA.s 			page 37


 132:Generated_Source\PSoC5/USB_EP_DMA_Done_isr.c **** *
 133:Generated_Source\PSoC5/USB_EP_DMA_Done_isr.c **** *******************************************************************************/
 134:Generated_Source\PSoC5/USB_EP_DMA_Done_isr.c **** void USB_EP_DMA_Done_isr_Stop(void)
 135:Generated_Source\PSoC5/USB_EP_DMA_Done_isr.c **** {
 136:Generated_Source\PSoC5/USB_EP_DMA_Done_isr.c ****     /* Disable this interrupt. */
 137:Generated_Source\PSoC5/USB_EP_DMA_Done_isr.c ****     USB_EP_DMA_Done_isr_Disable();
 138:Generated_Source\PSoC5/USB_EP_DMA_Done_isr.c **** 
 139:Generated_Source\PSoC5/USB_EP_DMA_Done_isr.c ****     /* Set the ISR to point to the passive one. */
 140:Generated_Source\PSoC5/USB_EP_DMA_Done_isr.c ****     USB_EP_DMA_Done_isr_SetVector(&IntDefaultHandler);
 141:Generated_Source\PSoC5/USB_EP_DMA_Done_isr.c **** }
 142:Generated_Source\PSoC5/USB_EP_DMA_Done_isr.c **** 
 143:Generated_Source\PSoC5/USB_EP_DMA_Done_isr.c **** 
 144:Generated_Source\PSoC5/USB_EP_DMA_Done_isr.c **** /*******************************************************************************
 145:Generated_Source\PSoC5/USB_EP_DMA_Done_isr.c **** * Function Name: USB_EP_DMA_Done_isr_Interrupt
 146:Generated_Source\PSoC5/USB_EP_DMA_Done_isr.c **** ********************************************************************************
 147:Generated_Source\PSoC5/USB_EP_DMA_Done_isr.c **** *
 148:Generated_Source\PSoC5/USB_EP_DMA_Done_isr.c **** * Summary:
 149:Generated_Source\PSoC5/USB_EP_DMA_Done_isr.c **** *   The default Interrupt Service Routine for USB_EP_DMA_Done_isr.
 150:Generated_Source\PSoC5/USB_EP_DMA_Done_isr.c **** *
 151:Generated_Source\PSoC5/USB_EP_DMA_Done_isr.c **** *   Add custom code between the coments to keep the next version of this file
 152:Generated_Source\PSoC5/USB_EP_DMA_Done_isr.c **** *   from over writting your code.
 153:Generated_Source\PSoC5/USB_EP_DMA_Done_isr.c **** *
 154:Generated_Source\PSoC5/USB_EP_DMA_Done_isr.c **** * Parameters:  
 155:Generated_Source\PSoC5/USB_EP_DMA_Done_isr.c **** *
 156:Generated_Source\PSoC5/USB_EP_DMA_Done_isr.c **** * Return:
 157:Generated_Source\PSoC5/USB_EP_DMA_Done_isr.c **** *   None
 158:Generated_Source\PSoC5/USB_EP_DMA_Done_isr.c **** *
 159:Generated_Source\PSoC5/USB_EP_DMA_Done_isr.c **** *******************************************************************************/
 160:Generated_Source\PSoC5/USB_EP_DMA_Done_isr.c **** CY_ISR(USB_EP_DMA_Done_isr_Interrupt)
 161:Generated_Source\PSoC5/USB_EP_DMA_Done_isr.c **** {
 523              		.loc 1 161 0
 524              		.cfi_startproc
 525              		@ args = 0, pretend = 0, frame = 0
 526              		@ frame_needed = 0, uses_anonymous_args = 0
 527              		@ link register save eliminated.
 528 0000 7047     		bx	lr
 529              		.cfi_endproc
 530              	.LFE3:
 531              		.size	USB_EP_DMA_Done_isr_Interrupt, .-USB_EP_DMA_Done_isr_Interrupt
 532 0002 00BF     		.section	.text.USB_EP_DMA_Done_isr_SetVector,"ax",%progbits
 533              		.align	2
 534              		.global	USB_EP_DMA_Done_isr_SetVector
 535              		.thumb
 536              		.thumb_func
 537              		.type	USB_EP_DMA_Done_isr_SetVector, %function
 538              	USB_EP_DMA_Done_isr_SetVector:
 539              	.LFB4:
 162:Generated_Source\PSoC5/USB_EP_DMA_Done_isr.c ****     #ifdef USB_EP_DMA_Done_isr_INTERRUPT_INTERRUPT_CALLBACK
 163:Generated_Source\PSoC5/USB_EP_DMA_Done_isr.c ****         USB_EP_DMA_Done_isr_Interrupt_InterruptCallback();
 164:Generated_Source\PSoC5/USB_EP_DMA_Done_isr.c ****     #endif /* USB_EP_DMA_Done_isr_INTERRUPT_INTERRUPT_CALLBACK */ 
 165:Generated_Source\PSoC5/USB_EP_DMA_Done_isr.c **** 
 166:Generated_Source\PSoC5/USB_EP_DMA_Done_isr.c ****     /*  Place your Interrupt code here. */
 167:Generated_Source\PSoC5/USB_EP_DMA_Done_isr.c ****     /* `#START USB_EP_DMA_Done_isr_Interrupt` */
 168:Generated_Source\PSoC5/USB_EP_DMA_Done_isr.c **** 
 169:Generated_Source\PSoC5/USB_EP_DMA_Done_isr.c ****     /* `#END` */
 170:Generated_Source\PSoC5/USB_EP_DMA_Done_isr.c **** }
 171:Generated_Source\PSoC5/USB_EP_DMA_Done_isr.c **** 
ARM GAS  C:\Users\JEFFSN~1\AppData\Local\Temp\ccB4OmnA.s 			page 38


 172:Generated_Source\PSoC5/USB_EP_DMA_Done_isr.c **** 
 173:Generated_Source\PSoC5/USB_EP_DMA_Done_isr.c **** /*******************************************************************************
 174:Generated_Source\PSoC5/USB_EP_DMA_Done_isr.c **** * Function Name: USB_EP_DMA_Done_isr_SetVector
 175:Generated_Source\PSoC5/USB_EP_DMA_Done_isr.c **** ********************************************************************************
 176:Generated_Source\PSoC5/USB_EP_DMA_Done_isr.c **** *
 177:Generated_Source\PSoC5/USB_EP_DMA_Done_isr.c **** * Summary:
 178:Generated_Source\PSoC5/USB_EP_DMA_Done_isr.c **** *   Change the ISR vector for the Interrupt. Note calling USB_EP_DMA_Done_isr_Start
 179:Generated_Source\PSoC5/USB_EP_DMA_Done_isr.c **** *   will override any effect this method would have had. To set the vector 
 180:Generated_Source\PSoC5/USB_EP_DMA_Done_isr.c **** *   before the component has been started use USB_EP_DMA_Done_isr_StartEx instead.
 181:Generated_Source\PSoC5/USB_EP_DMA_Done_isr.c **** * 
 182:Generated_Source\PSoC5/USB_EP_DMA_Done_isr.c **** *   When defining ISR functions, the CY_ISR and CY_ISR_PROTO macros should be 
 183:Generated_Source\PSoC5/USB_EP_DMA_Done_isr.c **** *   used to provide consistent definition across compilers:
 184:Generated_Source\PSoC5/USB_EP_DMA_Done_isr.c **** *
 185:Generated_Source\PSoC5/USB_EP_DMA_Done_isr.c **** *   Function definition example:
 186:Generated_Source\PSoC5/USB_EP_DMA_Done_isr.c **** *   CY_ISR(MyISR)
 187:Generated_Source\PSoC5/USB_EP_DMA_Done_isr.c **** *   {
 188:Generated_Source\PSoC5/USB_EP_DMA_Done_isr.c **** *   }
 189:Generated_Source\PSoC5/USB_EP_DMA_Done_isr.c **** *
 190:Generated_Source\PSoC5/USB_EP_DMA_Done_isr.c **** *   Function prototype example:
 191:Generated_Source\PSoC5/USB_EP_DMA_Done_isr.c **** *     CY_ISR_PROTO(MyISR);
 192:Generated_Source\PSoC5/USB_EP_DMA_Done_isr.c **** *
 193:Generated_Source\PSoC5/USB_EP_DMA_Done_isr.c **** * Parameters:
 194:Generated_Source\PSoC5/USB_EP_DMA_Done_isr.c **** *   address: Address of the ISR to set in the interrupt vector table.
 195:Generated_Source\PSoC5/USB_EP_DMA_Done_isr.c **** *
 196:Generated_Source\PSoC5/USB_EP_DMA_Done_isr.c **** * Return:
 197:Generated_Source\PSoC5/USB_EP_DMA_Done_isr.c **** *   None
 198:Generated_Source\PSoC5/USB_EP_DMA_Done_isr.c **** *
 199:Generated_Source\PSoC5/USB_EP_DMA_Done_isr.c **** *******************************************************************************/
 200:Generated_Source\PSoC5/USB_EP_DMA_Done_isr.c **** void USB_EP_DMA_Done_isr_SetVector(cyisraddress address)
 201:Generated_Source\PSoC5/USB_EP_DMA_Done_isr.c **** {
 540              		.loc 1 201 0
 541              		.cfi_startproc
 542              		@ args = 0, pretend = 0, frame = 0
 543              		@ frame_needed = 0, uses_anonymous_args = 0
 544              		@ link register save eliminated.
 545              	.LVL0:
 202:Generated_Source\PSoC5/USB_EP_DMA_Done_isr.c ****     cyisraddress * ramVectorTable;
 203:Generated_Source\PSoC5/USB_EP_DMA_Done_isr.c **** 
 204:Generated_Source\PSoC5/USB_EP_DMA_Done_isr.c ****     ramVectorTable = (cyisraddress *) *CYINT_VECT_TABLE;
 546              		.loc 1 204 0
 547 0000 014B     		ldr	r3, .L3
 548 0002 1B68     		ldr	r3, [r3]
 549              	.LVL1:
 205:Generated_Source\PSoC5/USB_EP_DMA_Done_isr.c **** 
 206:Generated_Source\PSoC5/USB_EP_DMA_Done_isr.c ****     ramVectorTable[CYINT_IRQ_BASE + (uint32)USB_EP_DMA_Done_isr__INTC_NUMBER] = address;
 550              		.loc 1 206 0
 551 0004 9864     		str	r0, [r3, #72]
 552 0006 7047     		bx	lr
 553              	.L4:
 554              		.align	2
 555              	.L3:
 556 0008 08ED00E0 		.word	-536810232
 557              		.cfi_endproc
 558              	.LFE4:
 559              		.size	USB_EP_DMA_Done_isr_SetVector, .-USB_EP_DMA_Done_isr_SetVector
 560              		.section	.text.USB_EP_DMA_Done_isr_GetVector,"ax",%progbits
 561              		.align	2
ARM GAS  C:\Users\JEFFSN~1\AppData\Local\Temp\ccB4OmnA.s 			page 39


 562              		.global	USB_EP_DMA_Done_isr_GetVector
 563              		.thumb
 564              		.thumb_func
 565              		.type	USB_EP_DMA_Done_isr_GetVector, %function
 566              	USB_EP_DMA_Done_isr_GetVector:
 567              	.LFB5:
 207:Generated_Source\PSoC5/USB_EP_DMA_Done_isr.c **** }
 208:Generated_Source\PSoC5/USB_EP_DMA_Done_isr.c **** 
 209:Generated_Source\PSoC5/USB_EP_DMA_Done_isr.c **** 
 210:Generated_Source\PSoC5/USB_EP_DMA_Done_isr.c **** /*******************************************************************************
 211:Generated_Source\PSoC5/USB_EP_DMA_Done_isr.c **** * Function Name: USB_EP_DMA_Done_isr_GetVector
 212:Generated_Source\PSoC5/USB_EP_DMA_Done_isr.c **** ********************************************************************************
 213:Generated_Source\PSoC5/USB_EP_DMA_Done_isr.c **** *
 214:Generated_Source\PSoC5/USB_EP_DMA_Done_isr.c **** * Summary:
 215:Generated_Source\PSoC5/USB_EP_DMA_Done_isr.c **** *   Gets the "address" of the current ISR vector for the Interrupt.
 216:Generated_Source\PSoC5/USB_EP_DMA_Done_isr.c **** *
 217:Generated_Source\PSoC5/USB_EP_DMA_Done_isr.c **** * Parameters:
 218:Generated_Source\PSoC5/USB_EP_DMA_Done_isr.c **** *   None
 219:Generated_Source\PSoC5/USB_EP_DMA_Done_isr.c **** *
 220:Generated_Source\PSoC5/USB_EP_DMA_Done_isr.c **** * Return:
 221:Generated_Source\PSoC5/USB_EP_DMA_Done_isr.c **** *   Address of the ISR in the interrupt vector table.
 222:Generated_Source\PSoC5/USB_EP_DMA_Done_isr.c **** *
 223:Generated_Source\PSoC5/USB_EP_DMA_Done_isr.c **** *******************************************************************************/
 224:Generated_Source\PSoC5/USB_EP_DMA_Done_isr.c **** cyisraddress USB_EP_DMA_Done_isr_GetVector(void)
 225:Generated_Source\PSoC5/USB_EP_DMA_Done_isr.c **** {
 568              		.loc 1 225 0
 569              		.cfi_startproc
 570              		@ args = 0, pretend = 0, frame = 0
 571              		@ frame_needed = 0, uses_anonymous_args = 0
 572              		@ link register save eliminated.
 226:Generated_Source\PSoC5/USB_EP_DMA_Done_isr.c ****     cyisraddress * ramVectorTable;
 227:Generated_Source\PSoC5/USB_EP_DMA_Done_isr.c **** 
 228:Generated_Source\PSoC5/USB_EP_DMA_Done_isr.c ****     ramVectorTable = (cyisraddress *) *CYINT_VECT_TABLE;
 573              		.loc 1 228 0
 574 0000 014B     		ldr	r3, .L6
 575 0002 1B68     		ldr	r3, [r3]
 576              	.LVL2:
 229:Generated_Source\PSoC5/USB_EP_DMA_Done_isr.c **** 
 230:Generated_Source\PSoC5/USB_EP_DMA_Done_isr.c ****     return ramVectorTable[CYINT_IRQ_BASE + (uint32)USB_EP_DMA_Done_isr__INTC_NUMBER];
 231:Generated_Source\PSoC5/USB_EP_DMA_Done_isr.c **** }
 577              		.loc 1 231 0
 578 0004 986C     		ldr	r0, [r3, #72]
 579 0006 7047     		bx	lr
 580              	.L7:
 581              		.align	2
 582              	.L6:
 583 0008 08ED00E0 		.word	-536810232
 584              		.cfi_endproc
 585              	.LFE5:
 586              		.size	USB_EP_DMA_Done_isr_GetVector, .-USB_EP_DMA_Done_isr_GetVector
 587              		.section	.text.USB_EP_DMA_Done_isr_SetPriority,"ax",%progbits
 588              		.align	2
 589              		.global	USB_EP_DMA_Done_isr_SetPriority
 590              		.thumb
 591              		.thumb_func
 592              		.type	USB_EP_DMA_Done_isr_SetPriority, %function
 593              	USB_EP_DMA_Done_isr_SetPriority:
ARM GAS  C:\Users\JEFFSN~1\AppData\Local\Temp\ccB4OmnA.s 			page 40


 594              	.LFB6:
 232:Generated_Source\PSoC5/USB_EP_DMA_Done_isr.c **** 
 233:Generated_Source\PSoC5/USB_EP_DMA_Done_isr.c **** 
 234:Generated_Source\PSoC5/USB_EP_DMA_Done_isr.c **** /*******************************************************************************
 235:Generated_Source\PSoC5/USB_EP_DMA_Done_isr.c **** * Function Name: USB_EP_DMA_Done_isr_SetPriority
 236:Generated_Source\PSoC5/USB_EP_DMA_Done_isr.c **** ********************************************************************************
 237:Generated_Source\PSoC5/USB_EP_DMA_Done_isr.c **** *
 238:Generated_Source\PSoC5/USB_EP_DMA_Done_isr.c **** * Summary:
 239:Generated_Source\PSoC5/USB_EP_DMA_Done_isr.c **** *   Sets the Priority of the Interrupt. 
 240:Generated_Source\PSoC5/USB_EP_DMA_Done_isr.c **** *
 241:Generated_Source\PSoC5/USB_EP_DMA_Done_isr.c **** *   Note calling USB_EP_DMA_Done_isr_Start or USB_EP_DMA_Done_isr_StartEx will 
 242:Generated_Source\PSoC5/USB_EP_DMA_Done_isr.c **** *   override any effect this API would have had. This API should only be called
 243:Generated_Source\PSoC5/USB_EP_DMA_Done_isr.c **** *   after USB_EP_DMA_Done_isr_Start or USB_EP_DMA_Done_isr_StartEx has been called. 
 244:Generated_Source\PSoC5/USB_EP_DMA_Done_isr.c **** *   To set the initial priority for the component, use the Design-Wide Resources
 245:Generated_Source\PSoC5/USB_EP_DMA_Done_isr.c **** *   Interrupt Editor.
 246:Generated_Source\PSoC5/USB_EP_DMA_Done_isr.c **** *
 247:Generated_Source\PSoC5/USB_EP_DMA_Done_isr.c **** *   Note This API has no effect on Non-maskable interrupt NMI).
 248:Generated_Source\PSoC5/USB_EP_DMA_Done_isr.c **** *
 249:Generated_Source\PSoC5/USB_EP_DMA_Done_isr.c **** * Parameters:
 250:Generated_Source\PSoC5/USB_EP_DMA_Done_isr.c **** *   priority: Priority of the interrupt, 0 being the highest priority
 251:Generated_Source\PSoC5/USB_EP_DMA_Done_isr.c **** *             PSoC 3 and PSoC 5LP: Priority is from 0 to 7.
 252:Generated_Source\PSoC5/USB_EP_DMA_Done_isr.c **** *             PSoC 4: Priority is from 0 to 3.
 253:Generated_Source\PSoC5/USB_EP_DMA_Done_isr.c **** *
 254:Generated_Source\PSoC5/USB_EP_DMA_Done_isr.c **** * Return:
 255:Generated_Source\PSoC5/USB_EP_DMA_Done_isr.c **** *   None
 256:Generated_Source\PSoC5/USB_EP_DMA_Done_isr.c **** *
 257:Generated_Source\PSoC5/USB_EP_DMA_Done_isr.c **** *******************************************************************************/
 258:Generated_Source\PSoC5/USB_EP_DMA_Done_isr.c **** void USB_EP_DMA_Done_isr_SetPriority(uint8 priority)
 259:Generated_Source\PSoC5/USB_EP_DMA_Done_isr.c **** {
 595              		.loc 1 259 0
 596              		.cfi_startproc
 597              		@ args = 0, pretend = 0, frame = 0
 598              		@ frame_needed = 0, uses_anonymous_args = 0
 599              		@ link register save eliminated.
 600              	.LVL3:
 260:Generated_Source\PSoC5/USB_EP_DMA_Done_isr.c ****     *USB_EP_DMA_Done_isr_INTC_PRIOR = priority << 5;
 601              		.loc 1 260 0
 602 0000 4001     		lsls	r0, r0, #5
 603              	.LVL4:
 604 0002 C0B2     		uxtb	r0, r0
 605 0004 014B     		ldr	r3, .L9
 606 0006 1870     		strb	r0, [r3]
 607 0008 7047     		bx	lr
 608              	.L10:
 609 000a 00BF     		.align	2
 610              	.L9:
 611 000c 02E400E0 		.word	-536812542
 612              		.cfi_endproc
 613              	.LFE6:
 614              		.size	USB_EP_DMA_Done_isr_SetPriority, .-USB_EP_DMA_Done_isr_SetPriority
 615              		.section	.text.USB_EP_DMA_Done_isr_GetPriority,"ax",%progbits
 616              		.align	2
 617              		.global	USB_EP_DMA_Done_isr_GetPriority
 618              		.thumb
 619              		.thumb_func
 620              		.type	USB_EP_DMA_Done_isr_GetPriority, %function
 621              	USB_EP_DMA_Done_isr_GetPriority:
ARM GAS  C:\Users\JEFFSN~1\AppData\Local\Temp\ccB4OmnA.s 			page 41


 622              	.LFB7:
 261:Generated_Source\PSoC5/USB_EP_DMA_Done_isr.c **** }
 262:Generated_Source\PSoC5/USB_EP_DMA_Done_isr.c **** 
 263:Generated_Source\PSoC5/USB_EP_DMA_Done_isr.c **** 
 264:Generated_Source\PSoC5/USB_EP_DMA_Done_isr.c **** /*******************************************************************************
 265:Generated_Source\PSoC5/USB_EP_DMA_Done_isr.c **** * Function Name: USB_EP_DMA_Done_isr_GetPriority
 266:Generated_Source\PSoC5/USB_EP_DMA_Done_isr.c **** ********************************************************************************
 267:Generated_Source\PSoC5/USB_EP_DMA_Done_isr.c **** *
 268:Generated_Source\PSoC5/USB_EP_DMA_Done_isr.c **** * Summary:
 269:Generated_Source\PSoC5/USB_EP_DMA_Done_isr.c **** *   Gets the Priority of the Interrupt.
 270:Generated_Source\PSoC5/USB_EP_DMA_Done_isr.c **** *
 271:Generated_Source\PSoC5/USB_EP_DMA_Done_isr.c **** * Parameters:
 272:Generated_Source\PSoC5/USB_EP_DMA_Done_isr.c **** *   None
 273:Generated_Source\PSoC5/USB_EP_DMA_Done_isr.c **** *
 274:Generated_Source\PSoC5/USB_EP_DMA_Done_isr.c **** * Return:
 275:Generated_Source\PSoC5/USB_EP_DMA_Done_isr.c **** *   Priority of the interrupt, 0 being the highest priority
 276:Generated_Source\PSoC5/USB_EP_DMA_Done_isr.c **** *    PSoC 3 and PSoC 5LP: Priority is from 0 to 7.
 277:Generated_Source\PSoC5/USB_EP_DMA_Done_isr.c **** *    PSoC 4: Priority is from 0 to 3.
 278:Generated_Source\PSoC5/USB_EP_DMA_Done_isr.c **** *
 279:Generated_Source\PSoC5/USB_EP_DMA_Done_isr.c **** *******************************************************************************/
 280:Generated_Source\PSoC5/USB_EP_DMA_Done_isr.c **** uint8 USB_EP_DMA_Done_isr_GetPriority(void)
 281:Generated_Source\PSoC5/USB_EP_DMA_Done_isr.c **** {
 623              		.loc 1 281 0
 624              		.cfi_startproc
 625              		@ args = 0, pretend = 0, frame = 0
 626              		@ frame_needed = 0, uses_anonymous_args = 0
 627              		@ link register save eliminated.
 282:Generated_Source\PSoC5/USB_EP_DMA_Done_isr.c ****     uint8 priority;
 283:Generated_Source\PSoC5/USB_EP_DMA_Done_isr.c **** 
 284:Generated_Source\PSoC5/USB_EP_DMA_Done_isr.c **** 
 285:Generated_Source\PSoC5/USB_EP_DMA_Done_isr.c ****     priority = *USB_EP_DMA_Done_isr_INTC_PRIOR >> 5;
 628              		.loc 1 285 0
 629 0000 014B     		ldr	r3, .L12
 630 0002 1878     		ldrb	r0, [r3]	@ zero_extendqisi2
 631              	.LVL5:
 286:Generated_Source\PSoC5/USB_EP_DMA_Done_isr.c **** 
 287:Generated_Source\PSoC5/USB_EP_DMA_Done_isr.c ****     return priority;
 288:Generated_Source\PSoC5/USB_EP_DMA_Done_isr.c **** }
 632              		.loc 1 288 0
 633 0004 4009     		lsrs	r0, r0, #5
 634              	.LVL6:
 635 0006 7047     		bx	lr
 636              	.L13:
 637              		.align	2
 638              	.L12:
 639 0008 02E400E0 		.word	-536812542
 640              		.cfi_endproc
 641              	.LFE7:
 642              		.size	USB_EP_DMA_Done_isr_GetPriority, .-USB_EP_DMA_Done_isr_GetPriority
 643              		.section	.text.USB_EP_DMA_Done_isr_Enable,"ax",%progbits
 644              		.align	2
 645              		.global	USB_EP_DMA_Done_isr_Enable
 646              		.thumb
 647              		.thumb_func
 648              		.type	USB_EP_DMA_Done_isr_Enable, %function
 649              	USB_EP_DMA_Done_isr_Enable:
 650              	.LFB8:
ARM GAS  C:\Users\JEFFSN~1\AppData\Local\Temp\ccB4OmnA.s 			page 42


 289:Generated_Source\PSoC5/USB_EP_DMA_Done_isr.c **** 
 290:Generated_Source\PSoC5/USB_EP_DMA_Done_isr.c **** 
 291:Generated_Source\PSoC5/USB_EP_DMA_Done_isr.c **** /*******************************************************************************
 292:Generated_Source\PSoC5/USB_EP_DMA_Done_isr.c **** * Function Name: USB_EP_DMA_Done_isr_Enable
 293:Generated_Source\PSoC5/USB_EP_DMA_Done_isr.c **** ********************************************************************************
 294:Generated_Source\PSoC5/USB_EP_DMA_Done_isr.c **** *
 295:Generated_Source\PSoC5/USB_EP_DMA_Done_isr.c **** * Summary:
 296:Generated_Source\PSoC5/USB_EP_DMA_Done_isr.c **** *   Enables the interrupt to the interrupt controller. Do not call this function
 297:Generated_Source\PSoC5/USB_EP_DMA_Done_isr.c **** *   unless ISR_Start() has been called or the functionality of the ISR_Start() 
 298:Generated_Source\PSoC5/USB_EP_DMA_Done_isr.c **** *   function, which sets the vector and the priority, has been called.
 299:Generated_Source\PSoC5/USB_EP_DMA_Done_isr.c **** *
 300:Generated_Source\PSoC5/USB_EP_DMA_Done_isr.c **** * Parameters:
 301:Generated_Source\PSoC5/USB_EP_DMA_Done_isr.c **** *   None
 302:Generated_Source\PSoC5/USB_EP_DMA_Done_isr.c **** *
 303:Generated_Source\PSoC5/USB_EP_DMA_Done_isr.c **** * Return:
 304:Generated_Source\PSoC5/USB_EP_DMA_Done_isr.c **** *   None
 305:Generated_Source\PSoC5/USB_EP_DMA_Done_isr.c **** *
 306:Generated_Source\PSoC5/USB_EP_DMA_Done_isr.c **** *******************************************************************************/
 307:Generated_Source\PSoC5/USB_EP_DMA_Done_isr.c **** void USB_EP_DMA_Done_isr_Enable(void)
 308:Generated_Source\PSoC5/USB_EP_DMA_Done_isr.c **** {
 651              		.loc 1 308 0
 652              		.cfi_startproc
 653              		@ args = 0, pretend = 0, frame = 0
 654              		@ frame_needed = 0, uses_anonymous_args = 0
 655              		@ link register save eliminated.
 309:Generated_Source\PSoC5/USB_EP_DMA_Done_isr.c ****     /* Enable the general interrupt. */
 310:Generated_Source\PSoC5/USB_EP_DMA_Done_isr.c ****     *USB_EP_DMA_Done_isr_INTC_SET_EN = USB_EP_DMA_Done_isr__INTC_MASK;
 656              		.loc 1 310 0
 657 0000 0422     		movs	r2, #4
 658 0002 014B     		ldr	r3, .L15
 659 0004 1A60     		str	r2, [r3]
 660 0006 7047     		bx	lr
 661              	.L16:
 662              		.align	2
 663              	.L15:
 664 0008 00E100E0 		.word	-536813312
 665              		.cfi_endproc
 666              	.LFE8:
 667              		.size	USB_EP_DMA_Done_isr_Enable, .-USB_EP_DMA_Done_isr_Enable
 668              		.section	.text.USB_EP_DMA_Done_isr_GetState,"ax",%progbits
 669              		.align	2
 670              		.global	USB_EP_DMA_Done_isr_GetState
 671              		.thumb
 672              		.thumb_func
 673              		.type	USB_EP_DMA_Done_isr_GetState, %function
 674              	USB_EP_DMA_Done_isr_GetState:
 675              	.LFB9:
 311:Generated_Source\PSoC5/USB_EP_DMA_Done_isr.c **** }
 312:Generated_Source\PSoC5/USB_EP_DMA_Done_isr.c **** 
 313:Generated_Source\PSoC5/USB_EP_DMA_Done_isr.c **** 
 314:Generated_Source\PSoC5/USB_EP_DMA_Done_isr.c **** /*******************************************************************************
 315:Generated_Source\PSoC5/USB_EP_DMA_Done_isr.c **** * Function Name: USB_EP_DMA_Done_isr_GetState
 316:Generated_Source\PSoC5/USB_EP_DMA_Done_isr.c **** ********************************************************************************
 317:Generated_Source\PSoC5/USB_EP_DMA_Done_isr.c **** *
 318:Generated_Source\PSoC5/USB_EP_DMA_Done_isr.c **** * Summary:
 319:Generated_Source\PSoC5/USB_EP_DMA_Done_isr.c **** *   Gets the state (enabled, disabled) of the Interrupt.
 320:Generated_Source\PSoC5/USB_EP_DMA_Done_isr.c **** *
ARM GAS  C:\Users\JEFFSN~1\AppData\Local\Temp\ccB4OmnA.s 			page 43


 321:Generated_Source\PSoC5/USB_EP_DMA_Done_isr.c **** * Parameters:
 322:Generated_Source\PSoC5/USB_EP_DMA_Done_isr.c **** *   None
 323:Generated_Source\PSoC5/USB_EP_DMA_Done_isr.c **** *
 324:Generated_Source\PSoC5/USB_EP_DMA_Done_isr.c **** * Return:
 325:Generated_Source\PSoC5/USB_EP_DMA_Done_isr.c **** *   1 if enabled, 0 if disabled.
 326:Generated_Source\PSoC5/USB_EP_DMA_Done_isr.c **** *
 327:Generated_Source\PSoC5/USB_EP_DMA_Done_isr.c **** *******************************************************************************/
 328:Generated_Source\PSoC5/USB_EP_DMA_Done_isr.c **** uint8 USB_EP_DMA_Done_isr_GetState(void)
 329:Generated_Source\PSoC5/USB_EP_DMA_Done_isr.c **** {
 676              		.loc 1 329 0
 677              		.cfi_startproc
 678              		@ args = 0, pretend = 0, frame = 0
 679              		@ frame_needed = 0, uses_anonymous_args = 0
 680              		@ link register save eliminated.
 330:Generated_Source\PSoC5/USB_EP_DMA_Done_isr.c ****     /* Get the state of the general interrupt. */
 331:Generated_Source\PSoC5/USB_EP_DMA_Done_isr.c ****     return ((*USB_EP_DMA_Done_isr_INTC_SET_EN & (uint32)USB_EP_DMA_Done_isr__INTC_MASK) != 0u) ? 1u
 681              		.loc 1 331 0
 682 0000 044B     		ldr	r3, .L20
 683 0002 1B68     		ldr	r3, [r3]
 684 0004 13F0040F 		tst	r3, #4
 685 0008 01D0     		beq	.L19
 686 000a 0120     		movs	r0, #1
 687 000c 7047     		bx	lr
 688              	.L19:
 689 000e 0020     		movs	r0, #0
 332:Generated_Source\PSoC5/USB_EP_DMA_Done_isr.c **** }
 690              		.loc 1 332 0
 691 0010 7047     		bx	lr
 692              	.L21:
 693 0012 00BF     		.align	2
 694              	.L20:
 695 0014 00E100E0 		.word	-536813312
 696              		.cfi_endproc
 697              	.LFE9:
 698              		.size	USB_EP_DMA_Done_isr_GetState, .-USB_EP_DMA_Done_isr_GetState
 699              		.section	.text.USB_EP_DMA_Done_isr_Disable,"ax",%progbits
 700              		.align	2
 701              		.global	USB_EP_DMA_Done_isr_Disable
 702              		.thumb
 703              		.thumb_func
 704              		.type	USB_EP_DMA_Done_isr_Disable, %function
 705              	USB_EP_DMA_Done_isr_Disable:
 706              	.LFB10:
 333:Generated_Source\PSoC5/USB_EP_DMA_Done_isr.c **** 
 334:Generated_Source\PSoC5/USB_EP_DMA_Done_isr.c **** 
 335:Generated_Source\PSoC5/USB_EP_DMA_Done_isr.c **** /*******************************************************************************
 336:Generated_Source\PSoC5/USB_EP_DMA_Done_isr.c **** * Function Name: USB_EP_DMA_Done_isr_Disable
 337:Generated_Source\PSoC5/USB_EP_DMA_Done_isr.c **** ********************************************************************************
 338:Generated_Source\PSoC5/USB_EP_DMA_Done_isr.c **** *
 339:Generated_Source\PSoC5/USB_EP_DMA_Done_isr.c **** * Summary:
 340:Generated_Source\PSoC5/USB_EP_DMA_Done_isr.c **** *   Disables the Interrupt in the interrupt controller.
 341:Generated_Source\PSoC5/USB_EP_DMA_Done_isr.c **** *
 342:Generated_Source\PSoC5/USB_EP_DMA_Done_isr.c **** * Parameters:
 343:Generated_Source\PSoC5/USB_EP_DMA_Done_isr.c **** *   None
 344:Generated_Source\PSoC5/USB_EP_DMA_Done_isr.c **** *
 345:Generated_Source\PSoC5/USB_EP_DMA_Done_isr.c **** * Return:
 346:Generated_Source\PSoC5/USB_EP_DMA_Done_isr.c **** *   None
ARM GAS  C:\Users\JEFFSN~1\AppData\Local\Temp\ccB4OmnA.s 			page 44


 347:Generated_Source\PSoC5/USB_EP_DMA_Done_isr.c **** *
 348:Generated_Source\PSoC5/USB_EP_DMA_Done_isr.c **** *******************************************************************************/
 349:Generated_Source\PSoC5/USB_EP_DMA_Done_isr.c **** void USB_EP_DMA_Done_isr_Disable(void)
 350:Generated_Source\PSoC5/USB_EP_DMA_Done_isr.c **** {
 707              		.loc 1 350 0
 708              		.cfi_startproc
 709              		@ args = 0, pretend = 0, frame = 0
 710              		@ frame_needed = 0, uses_anonymous_args = 0
 711              		@ link register save eliminated.
 351:Generated_Source\PSoC5/USB_EP_DMA_Done_isr.c ****     /* Disable the general interrupt. */
 352:Generated_Source\PSoC5/USB_EP_DMA_Done_isr.c ****     *USB_EP_DMA_Done_isr_INTC_CLR_EN = USB_EP_DMA_Done_isr__INTC_MASK;
 712              		.loc 1 352 0
 713 0000 0422     		movs	r2, #4
 714 0002 014B     		ldr	r3, .L23
 715 0004 1A60     		str	r2, [r3]
 716 0006 7047     		bx	lr
 717              	.L24:
 718              		.align	2
 719              	.L23:
 720 0008 80E100E0 		.word	-536813184
 721              		.cfi_endproc
 722              	.LFE10:
 723              		.size	USB_EP_DMA_Done_isr_Disable, .-USB_EP_DMA_Done_isr_Disable
 724              		.section	.text.USB_EP_DMA_Done_isr_Start,"ax",%progbits
 725              		.align	2
 726              		.global	USB_EP_DMA_Done_isr_Start
 727              		.thumb
 728              		.thumb_func
 729              		.type	USB_EP_DMA_Done_isr_Start, %function
 730              	USB_EP_DMA_Done_isr_Start:
 731              	.LFB0:
  62:Generated_Source\PSoC5/USB_EP_DMA_Done_isr.c ****     /* For all we know the interrupt is active. */
 732              		.loc 1 62 0
 733              		.cfi_startproc
 734              		@ args = 0, pretend = 0, frame = 0
 735              		@ frame_needed = 0, uses_anonymous_args = 0
 736 0000 08B5     		push	{r3, lr}
 737              		.cfi_def_cfa_offset 8
 738              		.cfi_offset 3, -8
 739              		.cfi_offset 14, -4
  64:Generated_Source\PSoC5/USB_EP_DMA_Done_isr.c **** 
 740              		.loc 1 64 0
 741 0002 FFF7FEFF 		bl	USB_EP_DMA_Done_isr_Disable
 742              	.LVL7:
  67:Generated_Source\PSoC5/USB_EP_DMA_Done_isr.c **** 
 743              		.loc 1 67 0
 744 0006 0448     		ldr	r0, .L27
 745 0008 FFF7FEFF 		bl	USB_EP_DMA_Done_isr_SetVector
 746              	.LVL8:
  70:Generated_Source\PSoC5/USB_EP_DMA_Done_isr.c **** 
 747              		.loc 1 70 0
 748 000c 0720     		movs	r0, #7
 749 000e FFF7FEFF 		bl	USB_EP_DMA_Done_isr_SetPriority
 750              	.LVL9:
  73:Generated_Source\PSoC5/USB_EP_DMA_Done_isr.c **** }
 751              		.loc 1 73 0
 752 0012 FFF7FEFF 		bl	USB_EP_DMA_Done_isr_Enable
ARM GAS  C:\Users\JEFFSN~1\AppData\Local\Temp\ccB4OmnA.s 			page 45


 753              	.LVL10:
 754 0016 08BD     		pop	{r3, pc}
 755              	.L28:
 756              		.align	2
 757              	.L27:
 758 0018 00000000 		.word	USB_EP_DMA_Done_isr_Interrupt
 759              		.cfi_endproc
 760              	.LFE0:
 761              		.size	USB_EP_DMA_Done_isr_Start, .-USB_EP_DMA_Done_isr_Start
 762              		.section	.text.USB_EP_DMA_Done_isr_StartEx,"ax",%progbits
 763              		.align	2
 764              		.global	USB_EP_DMA_Done_isr_StartEx
 765              		.thumb
 766              		.thumb_func
 767              		.type	USB_EP_DMA_Done_isr_StartEx, %function
 768              	USB_EP_DMA_Done_isr_StartEx:
 769              	.LFB1:
 105:Generated_Source\PSoC5/USB_EP_DMA_Done_isr.c ****     /* For all we know the interrupt is active. */
 770              		.loc 1 105 0
 771              		.cfi_startproc
 772              		@ args = 0, pretend = 0, frame = 0
 773              		@ frame_needed = 0, uses_anonymous_args = 0
 774              	.LVL11:
 775 0000 10B5     		push	{r4, lr}
 776              		.cfi_def_cfa_offset 8
 777              		.cfi_offset 4, -8
 778              		.cfi_offset 14, -4
 779 0002 0446     		mov	r4, r0
 107:Generated_Source\PSoC5/USB_EP_DMA_Done_isr.c **** 
 780              		.loc 1 107 0
 781 0004 FFF7FEFF 		bl	USB_EP_DMA_Done_isr_Disable
 782              	.LVL12:
 110:Generated_Source\PSoC5/USB_EP_DMA_Done_isr.c **** 
 783              		.loc 1 110 0
 784 0008 2046     		mov	r0, r4
 785 000a FFF7FEFF 		bl	USB_EP_DMA_Done_isr_SetVector
 786              	.LVL13:
 113:Generated_Source\PSoC5/USB_EP_DMA_Done_isr.c **** 
 787              		.loc 1 113 0
 788 000e 0720     		movs	r0, #7
 789 0010 FFF7FEFF 		bl	USB_EP_DMA_Done_isr_SetPriority
 790              	.LVL14:
 116:Generated_Source\PSoC5/USB_EP_DMA_Done_isr.c **** }
 791              		.loc 1 116 0
 792 0014 FFF7FEFF 		bl	USB_EP_DMA_Done_isr_Enable
 793              	.LVL15:
 794 0018 10BD     		pop	{r4, pc}
 795              		.cfi_endproc
 796              	.LFE1:
 797              		.size	USB_EP_DMA_Done_isr_StartEx, .-USB_EP_DMA_Done_isr_StartEx
 798 001a 00BF     		.section	.text.USB_EP_DMA_Done_isr_Stop,"ax",%progbits
 799              		.align	2
 800              		.global	USB_EP_DMA_Done_isr_Stop
 801              		.thumb
 802              		.thumb_func
 803              		.type	USB_EP_DMA_Done_isr_Stop, %function
 804              	USB_EP_DMA_Done_isr_Stop:
ARM GAS  C:\Users\JEFFSN~1\AppData\Local\Temp\ccB4OmnA.s 			page 46


 805              	.LFB2:
 135:Generated_Source\PSoC5/USB_EP_DMA_Done_isr.c ****     /* Disable this interrupt. */
 806              		.loc 1 135 0
 807              		.cfi_startproc
 808              		@ args = 0, pretend = 0, frame = 0
 809              		@ frame_needed = 0, uses_anonymous_args = 0
 810 0000 08B5     		push	{r3, lr}
 811              		.cfi_def_cfa_offset 8
 812              		.cfi_offset 3, -8
 813              		.cfi_offset 14, -4
 137:Generated_Source\PSoC5/USB_EP_DMA_Done_isr.c **** 
 814              		.loc 1 137 0
 815 0002 FFF7FEFF 		bl	USB_EP_DMA_Done_isr_Disable
 816              	.LVL16:
 140:Generated_Source\PSoC5/USB_EP_DMA_Done_isr.c **** }
 817              		.loc 1 140 0
 818 0006 0248     		ldr	r0, .L33
 819 0008 FFF7FEFF 		bl	USB_EP_DMA_Done_isr_SetVector
 820              	.LVL17:
 821 000c 08BD     		pop	{r3, pc}
 822              	.L34:
 823 000e 00BF     		.align	2
 824              	.L33:
 825 0010 00000000 		.word	IntDefaultHandler
 826              		.cfi_endproc
 827              	.LFE2:
 828              		.size	USB_EP_DMA_Done_isr_Stop, .-USB_EP_DMA_Done_isr_Stop
 829              		.section	.text.USB_EP_DMA_Done_isr_SetPending,"ax",%progbits
 830              		.align	2
 831              		.global	USB_EP_DMA_Done_isr_SetPending
 832              		.thumb
 833              		.thumb_func
 834              		.type	USB_EP_DMA_Done_isr_SetPending, %function
 835              	USB_EP_DMA_Done_isr_SetPending:
 836              	.LFB11:
 353:Generated_Source\PSoC5/USB_EP_DMA_Done_isr.c **** }
 354:Generated_Source\PSoC5/USB_EP_DMA_Done_isr.c **** 
 355:Generated_Source\PSoC5/USB_EP_DMA_Done_isr.c **** 
 356:Generated_Source\PSoC5/USB_EP_DMA_Done_isr.c **** /*******************************************************************************
 357:Generated_Source\PSoC5/USB_EP_DMA_Done_isr.c **** * Function Name: USB_EP_DMA_Done_isr_SetPending
 358:Generated_Source\PSoC5/USB_EP_DMA_Done_isr.c **** ********************************************************************************
 359:Generated_Source\PSoC5/USB_EP_DMA_Done_isr.c **** *
 360:Generated_Source\PSoC5/USB_EP_DMA_Done_isr.c **** * Summary:
 361:Generated_Source\PSoC5/USB_EP_DMA_Done_isr.c **** *   Causes the Interrupt to enter the pending state, a software method of
 362:Generated_Source\PSoC5/USB_EP_DMA_Done_isr.c **** *   generating the interrupt.
 363:Generated_Source\PSoC5/USB_EP_DMA_Done_isr.c **** *
 364:Generated_Source\PSoC5/USB_EP_DMA_Done_isr.c **** * Parameters:
 365:Generated_Source\PSoC5/USB_EP_DMA_Done_isr.c **** *   None
 366:Generated_Source\PSoC5/USB_EP_DMA_Done_isr.c **** *
 367:Generated_Source\PSoC5/USB_EP_DMA_Done_isr.c **** * Return:
 368:Generated_Source\PSoC5/USB_EP_DMA_Done_isr.c **** *   None
 369:Generated_Source\PSoC5/USB_EP_DMA_Done_isr.c **** *
 370:Generated_Source\PSoC5/USB_EP_DMA_Done_isr.c **** * Side Effects:
 371:Generated_Source\PSoC5/USB_EP_DMA_Done_isr.c **** *   If interrupts are enabled and the interrupt is set up properly, the ISR is
 372:Generated_Source\PSoC5/USB_EP_DMA_Done_isr.c **** *   entered (depending on the priority of this interrupt and other pending 
 373:Generated_Source\PSoC5/USB_EP_DMA_Done_isr.c **** *   interrupts).
 374:Generated_Source\PSoC5/USB_EP_DMA_Done_isr.c **** *
ARM GAS  C:\Users\JEFFSN~1\AppData\Local\Temp\ccB4OmnA.s 			page 47


 375:Generated_Source\PSoC5/USB_EP_DMA_Done_isr.c **** *******************************************************************************/
 376:Generated_Source\PSoC5/USB_EP_DMA_Done_isr.c **** void USB_EP_DMA_Done_isr_SetPending(void)
 377:Generated_Source\PSoC5/USB_EP_DMA_Done_isr.c **** {
 837              		.loc 1 377 0
 838              		.cfi_startproc
 839              		@ args = 0, pretend = 0, frame = 0
 840              		@ frame_needed = 0, uses_anonymous_args = 0
 841              		@ link register save eliminated.
 378:Generated_Source\PSoC5/USB_EP_DMA_Done_isr.c ****     *USB_EP_DMA_Done_isr_INTC_SET_PD = USB_EP_DMA_Done_isr__INTC_MASK;
 842              		.loc 1 378 0
 843 0000 0422     		movs	r2, #4
 844 0002 014B     		ldr	r3, .L36
 845 0004 1A60     		str	r2, [r3]
 846 0006 7047     		bx	lr
 847              	.L37:
 848              		.align	2
 849              	.L36:
 850 0008 00E200E0 		.word	-536813056
 851              		.cfi_endproc
 852              	.LFE11:
 853              		.size	USB_EP_DMA_Done_isr_SetPending, .-USB_EP_DMA_Done_isr_SetPending
 854              		.section	.text.USB_EP_DMA_Done_isr_ClearPending,"ax",%progbits
 855              		.align	2
 856              		.global	USB_EP_DMA_Done_isr_ClearPending
 857              		.thumb
 858              		.thumb_func
 859              		.type	USB_EP_DMA_Done_isr_ClearPending, %function
 860              	USB_EP_DMA_Done_isr_ClearPending:
 861              	.LFB12:
 379:Generated_Source\PSoC5/USB_EP_DMA_Done_isr.c **** }
 380:Generated_Source\PSoC5/USB_EP_DMA_Done_isr.c **** 
 381:Generated_Source\PSoC5/USB_EP_DMA_Done_isr.c **** 
 382:Generated_Source\PSoC5/USB_EP_DMA_Done_isr.c **** /*******************************************************************************
 383:Generated_Source\PSoC5/USB_EP_DMA_Done_isr.c **** * Function Name: USB_EP_DMA_Done_isr_ClearPending
 384:Generated_Source\PSoC5/USB_EP_DMA_Done_isr.c **** ********************************************************************************
 385:Generated_Source\PSoC5/USB_EP_DMA_Done_isr.c **** *
 386:Generated_Source\PSoC5/USB_EP_DMA_Done_isr.c **** * Summary:
 387:Generated_Source\PSoC5/USB_EP_DMA_Done_isr.c **** *   Clears a pending interrupt in the interrupt controller.
 388:Generated_Source\PSoC5/USB_EP_DMA_Done_isr.c **** *
 389:Generated_Source\PSoC5/USB_EP_DMA_Done_isr.c **** *   Note Some interrupt sources are clear-on-read and require the block 
 390:Generated_Source\PSoC5/USB_EP_DMA_Done_isr.c **** *   interrupt/status register to be read/cleared with the appropriate block API 
 391:Generated_Source\PSoC5/USB_EP_DMA_Done_isr.c **** *   (GPIO, UART, and so on). Otherwise the ISR will continue to remain in 
 392:Generated_Source\PSoC5/USB_EP_DMA_Done_isr.c **** *   pending state even though the interrupt itself is cleared using this API.
 393:Generated_Source\PSoC5/USB_EP_DMA_Done_isr.c **** *
 394:Generated_Source\PSoC5/USB_EP_DMA_Done_isr.c **** * Parameters:
 395:Generated_Source\PSoC5/USB_EP_DMA_Done_isr.c **** *   None
 396:Generated_Source\PSoC5/USB_EP_DMA_Done_isr.c **** *
 397:Generated_Source\PSoC5/USB_EP_DMA_Done_isr.c **** * Return:
 398:Generated_Source\PSoC5/USB_EP_DMA_Done_isr.c **** *   None
 399:Generated_Source\PSoC5/USB_EP_DMA_Done_isr.c **** *
 400:Generated_Source\PSoC5/USB_EP_DMA_Done_isr.c **** *******************************************************************************/
 401:Generated_Source\PSoC5/USB_EP_DMA_Done_isr.c **** void USB_EP_DMA_Done_isr_ClearPending(void)
 402:Generated_Source\PSoC5/USB_EP_DMA_Done_isr.c **** {
 862              		.loc 1 402 0
 863              		.cfi_startproc
 864              		@ args = 0, pretend = 0, frame = 0
 865              		@ frame_needed = 0, uses_anonymous_args = 0
ARM GAS  C:\Users\JEFFSN~1\AppData\Local\Temp\ccB4OmnA.s 			page 48


 866              		@ link register save eliminated.
 403:Generated_Source\PSoC5/USB_EP_DMA_Done_isr.c ****     *USB_EP_DMA_Done_isr_INTC_CLR_PD = USB_EP_DMA_Done_isr__INTC_MASK;
 867              		.loc 1 403 0
 868 0000 0422     		movs	r2, #4
 869 0002 014B     		ldr	r3, .L39
 870 0004 1A60     		str	r2, [r3]
 871 0006 7047     		bx	lr
 872              	.L40:
 873              		.align	2
 874              	.L39:
 875 0008 80E200E0 		.word	-536812928
 876              		.cfi_endproc
 877              	.LFE12:
 878              		.size	USB_EP_DMA_Done_isr_ClearPending, .-USB_EP_DMA_Done_isr_ClearPending
 879              		.text
 880              	.Letext0:
 881              		.file 2 "Generated_Source\\PSoC5/cytypes.h"