ARM GAS  C:\Users\JEFFSN~1\AppData\Local\Temp\ccznaSP4.s 			page 1


   1              		.syntax unified
   2              		.cpu cortex-m3
   3              		.fpu softvfp
   4              		.eabi_attribute 20, 1
   5              		.eabi_attribute 21, 1
   6              		.eabi_attribute 23, 3
   7              		.eabi_attribute 24, 1
   8              		.eabi_attribute 25, 1
   9              		.eabi_attribute 26, 1
  10              		.eabi_attribute 30, 1
  11              		.eabi_attribute 34, 1
  12              		.eabi_attribute 18, 4
  13              		.thumb
  14              		.syntax unified
  15              		.file	"USB_midi.c"
  16              		.text
  17              	.Ltext0:
  18              		.section	.gnu.lto_.profile.1c050a9d,"",%progbits
  19 0000 789C6361 		.ascii	"x\234ca`d`c`\000\222s\230'3\001\000\0045\001A"
  19      60646063 
  19      60009273 
  19      98273301 
  19      00043501 
  20              		.text
  21              		.section	.gnu.lto_.inline.1c050a9d,"",%progbits
  22 0000 789C5D8E 		.ascii	"x\234]\216=\016\002!\020\205\337\000\342\202\272Q\373"
  22      3D0E0221 
  22      1085DF00 
  22      E282BA51 
  22      FB
  23 0011 D5035859 		.ascii	"\325\003XY\331\331\230Xr3\023\342\011\214\331S\330\370"
  23      D9D99858 
  23      723313E2 
  23      098CD953 
  23      D8F8
  24 0023 537A1C63 		.ascii	"Sz\034c\254\345\341\212\211S\300\360\276\217\001\003"
  24      ACE5E18A 
  24      8953C0F0 
  24      BE8F0103 
  25 0033 01EB895F 		.ascii	"\001\353\211_Y`\262\020\250\352\262\206=\314\02535\000"
  25      5960B210 
  25      A8EAB286 
  25      3DCC1533 
  25      3500
  26 0045 24063302 		.ascii	"$\0063\002t\014@i,\032\272\263\373U\376e=L \0066\335"
  26      740C4069 
  26      2C1ABAB3 
  26      FB55FE65 
  26      3D4C2006 
  27 005b 396F7D4C 		.ascii	"9o}L\011\306\267M\271\360\235V\234\012\206\016?\323"
  27      09C6B74D 
  27      B9F09D56 
  27      9C0A860E 
  27      3FD3
  28 006d 29E2D3E2 		.ascii	")\342\323\342\320J\223\362\263:\3554\334k\231\221\307"
  28      D04A93F2 
  28      B33AED34 
ARM GAS  C:\Users\JEFFSN~1\AppData\Local\Temp\ccznaSP4.s 			page 2


  28      DC6B9991 
  28      C7
  29 007e 6AAF52BA 		.ascii	"j\257R\272=>\352\342\367\3524\026|=\006\361\302@r\200"
  29      3D3EEAE2 
  29      F7EA3416 
  29      7C3D06F1 
  29      C2407280 
  30 0092 D665F641 		.ascii	"\326e\366A\204\324\337\266\344\"o"
  30      84D4DFB6 
  30      E4226F
  31              		.text
  32              		.section	.gnu.lto_.jmpfuncs.1c050a9d,"",%progbits
  33 0000 789C6361 		.ascii	"x\234ca`d\000\001e\006\004`C\241\330A\004\007\020s2"
  33      60640001 
  33      65060460 
  33      43A1D841 
  33      04071073 
  34 0015 3070C194 		.ascii	"0p\301\224\000\000\013\010\000W"
  34      00000B08 
  34      0057
  35              		.text
  36              		.section	.gnu.lto_.pureconst.1c050a9d,"",%progbits
  37 0000 789C6361 		.ascii	"x\234ca`d\340e```c\220b\223b\227\342\220\340\224\342"
  37      6064E065 
  37      60606063 
  37      90629362 
  37      97E290E0 
  38 0016 92020006 		.ascii	"\222\002\000\006!\000\333"
  38      2100DB
  39              		.text
  40              		.section	.gnu.lto_USB_MIDI_Init.1c050a9d,"",%progbits
  41 0000 789C9592 		.ascii	"x\234\225\222\275K\034A\030\306\337g\346\366\366\364"
  41      BD4B1C41 
  41      18C6DF67 
  41      E6F6F6F4 
  42 0010 4C48AF85 		.ascii	"LH\257\205\210\215\215\220\"\377@,\322\205\340a'\210"
  42      888D8D90 
  42      22FF402C 
  42      D285E061 
  42      2788
  43 0022 E8151651 		.ascii	"\350\025\026Q\220\244\336\271\234K\264\010\204@.\225"
  43      90A4DEB9 
  43      9C4BB408 
  43      84402E95 
  44 0032 186CCE24 		.ascii	"\030l\316$~\235_\361\374\200\365H\031\264\262J\023\016"
  44      7E9D5FF1 
  44      FC80F548 
  44      19B4B24A 
  44      130E
  45 0044 22410C18 		.ascii	"\"A\014\030\270(\011\350\346}g\311\022p#d`f\226w\336"
  45      B82809E8 
  45      E67D67C9 
  45      12702364 
  45      60669677 
  46 0059 799EE7C7 		.ascii	"y\236\347\307l\212@2:5O\336[yB\023\324\363}\242BF\001"
  46      6C8A4032 
  46      3A354FDE 
ARM GAS  C:\Users\JEFFSN~1\AppData\Local\Temp\ccznaSP4.s 			page 3


  46      5B794213 
  46      D4F37DA2 
  47 0070 F2613220 		.ascii	"\362a2 O\301\303\017u\241P{zTU]e\303\343\363\227\325"
  47      4FC1C30F 
  47      75A1507B 
  47      7A54555D 
  47      65C3E3F3 
  48 0086 DB662E80 		.ascii	"\333f.\200\317\327Ce\225\010et\021\267\325+\227/o\244"
  48      CFD74365 
  48      95086574 
  48      11B7D52B 
  48      972F6FA4 
  49 009a 27A4AD3D 		.ascii	"'\244\255=:\304\034\322b\267\324\033\2300,\232\240\222"
  49      3AC41CD2 
  49      62B7D41B 
  49      98302C9A 
  49      A092
  50 00ac DD2BDD6C 		.ascii	"\335+\335l\322\344k8\262\270\262\020\235r\263\330~W"
  50      D2E46B38 
  50      B2B8B210 
  50      9D72B3D8 
  50      7E57
  51 00be 4A767D84 		.ascii	"Jv}\204Zc\371[\335\221\373,\\\362k\007nC\371ZA|\252"
  51      5A63F95B 
  51      DD91FB2C 
  51      5CF26B07 
  51      6E43F95A 
  52 00d5 D5934FAE 		.ascii	"\325\223O\256wa&\215\271\305\265)\216\"\345\223\211"
  52      7761268D 
  52      B9C5B529 
  52      8E22E593 
  52      89
  53 00e6 FA7E7606 		.ascii	"\372~v\006\323\005S\220\272\306[\316\377\006m\034\343"
  53      D3055390 
  53      BAC65BCE 
  53      FF066D1C 
  53      E3
  54 00f7 1D66F0B7 		.ascii	"\035f\360\267\016{b\236O\330\247Ti\274\320\342S\324"
  54      0E7B629E 
  54      4FD8A754 
  54      69BCD0E2 
  54      53D4
  55 0109 3A491BC9 		.ascii	":I\033\311\332\013\261\366\"k\323W\346d\215\253\351"
  55      DA0BB1F6 
  55      226BD357 
  55      E6648DAB 
  55      E9
  56 011a 52216726 		.ascii	"R!g&,\301\243\310 \316\340$\2608SZY\277\343\217\207"
  56      2CC1A3C8 
  56      20CEE024 
  56      B038535A 
  56      59BFE38F 
  57 012f 1F9AAD9F 		.ascii	"\037\232\255\237\255\247Qa\277e\361\343\303\327\277"
  57      ADA75161 
  57      BF65F1E3 
  57      C3D7BF
  58 013e 7E1EB644 		.ascii	"~\036\266Dw\3144Di\2053X\177\254\302\343\216\331\263"
ARM GAS  C:\Users\JEFFSN~1\AppData\Local\Temp\ccznaSP4.s 			page 4


  58      77CC3444 
  58      69853358 
  58      7FACC2E3 
  58      8ED9B3
  59 0151 E2B3AC98 		.ascii	"\342\263\254\230\270\010\010kh\363u&\202=\377\003\353"
  59      B808086B 
  59      68F37526 
  59      823DFF03 
  59      EB
  60 0162 24C1EA64 		.ascii	"$\301\352d\330\365\030v\343Z\330\246\220\337\217\360"
  60      D8F51876 
  60      E35AD8A6 
  60      90DF8FF0 
  61 0172 DEC25E35 		.ascii	"\336\302^5`\272T2\335\346?\350v-]5\246\333\342>K\323"
  61      60BA5432 
  61      DDE63FE8 
  61      762D5D35 
  61      A6DBE23E 
  62 0188 1CD15CF6 		.ascii	"\034\321\\\366F0\356\177\300l\3070;\021L*\031&\033*"
  62      4630EE7F 
  62      C06CC730 
  62      3B114C2A 
  62      19261B2A 
  63 019c 56C0AE85 		.ascii	"V\300\256\205q}\335B\307x\022\274\272o\273e\234\362"
  63      717DDD42 
  63      C77812BC 
  63      BA6FBB65 
  63      9CF2
  64 01ae CBF2CFCA 		.ascii	"\313\362\317\312\304\035\367\362\243\371\361\301G\371"
  64      C41DF7F2 
  64      A3F9F1C1 
  64      47F9
  65 01bc E181DCD8 		.ascii	"\341\201\334\330\343\361\241|\377\203\334X\317\235\376"
  65      E3F1A17C 
  65      FF83DC58 
  65      CF9DFE
  66 01cb BEDCDD81 		.ascii	"\276\334\335\201\207#\303#\335C\364\033\021y%Q"
  66      8723C323 
  66      DD43F41B 
  66      11792551 
  67              		.text
  68              		.section	.gnu.lto_USB_MIDI_OUT_Service.1c050a9d,"",%progbits
  69 0000 789C9554 		.ascii	"x\234\225TMlTU\024>\337\275\363\336\2747?\235\376e\252"
  69      4D6C5455 
  69      143EDFBD 
  69      F3DEBC37 
  69      3F9DFE65 
  70 0015 4917C4A4 		.ascii	"I\027\304\244Q6\0021.\334\270\320\205\033\023\321\306"
  70      51360231 
  70      2EDCB8D0 
  70      851B13D1 
  70      C6
  71 0026 8D212106 		.ascii	"\215!!\006&\332\205m\322\224\255\363\246\323\327R\303"
  71      26DA856D 
  71      D294ADF3 
  71      A6D3D752 
  71      C3
ARM GAS  C:\Users\JEFFSN~1\AppData\Local\Temp\ccznaSP4.s 			page 5


  72 0037 02132DC1 		.ascii	"\002\023-\301\237\240\026\005D--E\034\2640\035Z\010"
  72      9FA01605 
  72      442D2D45 
  72      1CB4301D 
  72      5A08
  73 0049 0D6D430A 		.ascii	"\015mC\012\204@b\312,&\015N\260\323\010FC\035\317\275"
  73      844062CA 
  73      2C260D4E 
  73      B0D30846 
  73      431DCFBD 
  74 005d 773A8E19 		.ascii	"w:\216\0316\275\311\273\357\276\357\236s\356\367\235"
  74      36BDC9BB 
  74      EFBEEF9E 
  74      73EEF79D 
  75 006d 7BCE0B10 		.ascii	"{\316\013\020H\215\257,\242\027\370\375>?\010\021\304"
  75      488DAF2C 
  75      A217F8FD 
  75      3E3F0811 
  75      C4
  76 007e C105A294 		.ascii	"\301\005\242\224#\204\274\024#/\344\314\275H^D\012{"
  76      2384BC14 
  76      232FE4CC 
  76      BD485E44 
  76      0A7B
  77 0090 FFD3FC15 		.ascii	"\377\323\374\025Ts\304\206\253\214\020\020\301\234d"
  77      5473C486 
  77      AB8C1010 
  77      C19C64
  78 009f D45A9823 		.ascii	"\324Z\230#\206-\003O;\256\010h$\244\267#A8&\246\003"
  78      862D034F 
  78      3BAE0868 
  78      24A4B723 
  78      413826A6 
  79 00b4 A885E780 		.ascii	"\250\205\347\200\222B\332\001\313\015:H\012\227\314"
  79      9242DA01 
  79      CB0D3A48 
  79      0A97CC
  80 00c3 7820D605 		.ascii	"x \326\005rC\205\214\330z\314\343\261\374\365\357\257"
  80      7243858C 
  80      D87ACCE3 
  80      B1FCF5EF 
  80      AF
  81 00d4 A73CFF09 		.ascii	"\247<\377\011_\022\225\205\261\3011l%6\233(\214~\343"
  81      5F129585 
  81      B1C1316C 
  81      25369B28 
  81      8C7EE3
  82 00e7 CA0EA8F5 		.ascii	"\312\016\250\365\225\351s\331X\307\250\347\365{\331"
  82      95E973D9 
  82      58C7A8E7 
  82      F57BD9
  83 00f6 C38BB143 		.ascii	"\303\213\261C^6\265\305\227\300qHv\303s\355\330\336"
  83      5E36B5C5 
  83      97C07148 
  83      76C373ED 
  83      D8DE
  84 0108 AE9DD976 		.ascii	"\256\235\331v\264\364\3115!\267k\277\003\177\376\226"
ARM GAS  C:\Users\JEFFSN~1\AppData\Local\Temp\ccznaSP4.s 			page 6


  84      B4F4C935 
  84      21B76BBF 
  84      037FFE96 
  85 0118 0956FC46 		.ascii	"\011V\374F\026\303\336)\317Qn\337>\306-?\376\317\307"
  85      16C3DE29 
  85      CF516EDF 
  85      3EC62D3F 
  85      FECFC7
  86 012b 517B40B1 		.ascii	"Q{@\261\332\202\223\350\300\011t\030N\370\0166'Rl\240"
  86      DA8293E8 
  86      C0097418 
  86      4EF80E36 
  86      27526CA0 
  87 013f 636F64BD 		.ascii	"cod\275r9\355e\327\033fo\267<\011R\240M\276\024\216"
  87      7239ED65 
  87      D71B666F 
  87      B73C0952 
  87      A04DBE14 
  88 0154 9A5C3585 		.ascii	"\232\\5\205y\222\021R.Q^\006\032\024\030\323\226Mj\331"
  88      79921152 
  88      2E515E06 
  88      1A1418D3 
  88      964D6AD9 
  89 0168 CC93D5A2 		.ascii	"\314\223\325\242\246V\236\354\270\336iS;D\253\374|0"
  89      A6569EEC 
  89      B8DE6953 
  89      3B44ABFC 
  89      7C30
  90 017a 4B541242 		.ascii	"KT\022B\275e\001\271\221\361\342EW\361HK\233\271\216"
  90      BD6501B9 
  90      91F1E245 
  90      57F1484B 
  90      9BB98E
  91 018d F8B9C5E0 		.ascii	"\370\271\305\340\037\302\227A\2552\223)\336\011&\327"
  91      1FC29741 
  91      AD329329 
  91      DE0926D7 
  92 019d BDFD9ED7 		.ascii	"\275\375\236\327\310\330\2604\212\212\003\371\205\360"
  92      C8D8B034 
  92      8A8A03F9 
  92      85F0
  93 01ab 117C9EF2 		.ascii	"\021|\236\362R\012w\360\003\222\370\036\254\030c8\002"
  93      520A77F0 
  93      0392F81E 
  93      AC186338 
  93      02
  94 01bc 5A41C084 		.ascii	"ZA\300\204t\352b\270e\301\212q\012I\342\023}\031\242"
  94      74EA62B8 
  94      65C18A71 
  94      0A49E213 
  94      7D19A2
  95 01cf BB18B89D 		.ascii	"\273\030\270\235\356\375\317~r\346\362\240\243(\010"
  95      EEFDCF7E 
  95      72E6F2A0 
  95      A32808
  96 01de 00E33069 		.ascii	"\000\3430i,\011I\313QM\270t?]!\354n\202\341D\225\341"
  96      2C0949CB 
ARM GAS  C:\Users\JEFFSN~1\AppData\Local\Temp\ccznaSP4.s 			page 7


  96      514DB874 
  96      3F5D21EC 
  96      6E82E144 
  97 01f4 E9FF310C 		.ascii	"\351\3771\014\327\305\010\2279;\204I\315\320\3659\327"
  97      D7C50897 
  97      393B8449 
  97      CDD0F539 
  97      D7
  98 0205 05F4AF0D 		.ascii	"\005\364\257\015=\022\306!\302>\224\207\376R\227\300"
  98      3D12C621 
  98      C23E9487 
  98      FE5297C0 
  99 0215 8892702B 		.ascii	"\210\222p+}\372\3503\025\013\0169\374\331\341\223:\217"
  99      7DFAE833 
  99      150B0E39 
  99      FCD9E193 
  99      3A8F
 100 0227 80C499AA 		.ascii	"\200\304\231\252\010\233VmIk\210\325\246\032|\317?\242"
 100      089B566D 
 100      496B88D5 
 100      A61A7CCF 
 100      3FA2
 101 0239 5D163F2C 		.ascii	"]\026?,\201m\002\304\365/\365\2317\257L\302\304\214"
 101      816D02C4 
 101      F52FF599 
 101      37AF4CC2 
 101      C48C
 102 024b A625148F 		.ascii	"\246%\024\217\363\225\357\206\332\000\321\307\334Ut"
 102      F395EF86 
 102      DA00D1C7 
 102      DC5574
 103 025a 981D147C 		.ascii	"\230\035\024|\357\352\215\231\220\316\204\306\033\360"
 103      EFEA8D99 
 103      90CE84C6 
 103      1BF0
 104 0268 1367E2AC 		.ascii	"\023g\342\254b\2446\247\246\356\312\035\333\024\207"
 104      62A436A7 
 104      A6EECA1D 
 104      DB1487
 105 0277 0CA785CF 		.ascii	"\014\247\205\317\321}r\016;\314\265\344k\216\033+f\376"
 105      D17D720E 
 105      3BCCB5E4 
 105      6B8E1B2B 
 105      66FE
 106 0289 8A9A7B21 		.ascii	"\212\232{!\374\\\225d\321\027\227\025\335\364\243\301"
 106      FC5C9564 
 106      D1179715 
 106      DDF4A3C1 
 107 0299 9BF36F19 		.ascii	"\233\363o\031\363&\3431w|\345\276m\024\256\002\277\260"
 107      F326E331 
 107      777CE5BE 
 107      6D14AE02 
 107      BFB0
 108 02ab 8B56F5EB 		.ascii	"\213V\365\353\374C\333\3305\033U\351\221\312w\013C\265"
 108      FC43DBD8 
 108      351B55E9 
 108      91CA770B 
ARM GAS  C:\Users\JEFFSN~1\AppData\Local\Temp\ccznaSP4.s 			page 8


 108      43B5
 109 02bd 15607105 		.ascii	"\025`q\005L\031\267\277\207\252\321[7!\366|\235\330"
 109      4C19B7BF 
 109      87AAD15B 
 109      3721F67C 
 109      9DD8
 110 02cf 31D587D9 		.ascii	"1\325\207\331\263K\257A\361\272\240U\267T:\365\320\300"
 110      B34BAF41 
 110      F1BAA055 
 110      B7543AF5 
 110      D0C0
 111 02e1 E24782A3 		.ascii	"\342G\202\243*\2133Kqn\037d9\025\204i.\206\025X\352"
 111      2A8B334B 
 111      716E1F64 
 111      39158469 
 111      2E861558 
 112 02f6 FCFA54C7 		.ascii	"\374\372T\307\312\\\234\204\234.\030\226\336\352\313"
 112      CA5C9C84 
 112      9C2E1896 
 112      DEEACB
 113 0305 46AD6AB0 		.ascii	"F\255j\2600\177\260\222\3008+e\307\351\345\211R\330"
 113      307FB092 
 113      C0382B65 
 113      C7E9E589 
 113      52D8
 114 0317 6424808B 		.ascii	"d$\200\213\314k\243\220N\250B\212\353\204\272\304\377"
 114      CC6BA390 
 114      4EA8428A 
 114      EB84BAC4 
 114      FF
 115 0328 39E4D1DF 		.ascii	"9\344\321\337H\006\206\272\213\205\364\205\243\333L"
 115      480686BA 
 115      8B85F485 
 115      A3DB4C
 116 0337 2CA892E3 		.ascii	",\250\222\343\261\006^\305l\236\342\326\325O\277\024"
 116      B1065EC5 
 116      6C9EE2D6 
 116      D54FBF14 
 117 0347 EC1BDC68 		.ascii	"\354\033\334h\222\361\007\327\245\261n\333D\223\314"
 117      92F107D7 
 117      A5B16EDB 
 117      4493CC
 118 0356 549B64B6 		.ascii	"T\233d\266\246I\352\0257\225\271J\011\227\264\3426_"
 118      A649EA15 
 118      3795B94A 
 118      0997B4E2 
 118      365F
 119 0368 366BE28E 		.ascii	"6k\342\216\376\247\334C\177\366\316\222V\245+d\225\313"
 119      FEA7DC43 
 119      7FF6CE92 
 119      56A52B64 
 119      95CB
 120 037a 85716EA9 		.ascii	"\205qn\251\247^It'z\337\356K\354\335\335\331\263\257"
 120      A75E4974 
 120      277ADFEE 
 120      4BECDDDD 
 120      D9B3AF
ARM GAS  C:\Users\JEFFSN~1\AppData\Local\Temp\ccznaSP4.s 			page 9


 121 038d 774F62D7 		.ascii	"wOb\327\316\316\236\227\237\337\365f\347K\273\337\353"
 121      CECE9E97 
 121      9FDFF566 
 121      E74BBBDF 
 121      EB
 122 039e DADBF5EC 		.ascii	"\332\333\365\354\036\012\365\354\353\333\331\323\325"
 122      1E0AF5EC 
 122      EBDBD9D3 
 122      D5
 123 03ab DD97E875 		.ascii	"\335\227\350uy\371j\242\373\235\276w\377\005\257\363"
 123      79F96AA2 
 123      FB9DBE77 
 123      FF05AFF3 
 124 03bb F2CB     		.ascii	"\362\313"
 125              		.text
 126              		.section	.gnu.lto_USB_MIDI_IN_EP_Service.1c050a9d,"",%progbits
 127 0000 789C9592 		.ascii	"x\234\225\222?LSQ\024\306\317w\357}\177*\022\235\224"
 127      3F4C5351 
 127      14C6CF77 
 127      EF7D7F2A 
 127      129D94
 128 0013 8110625C 		.ascii	"\201\020b\\Xtru\200\301\325\320\270\2214\004:0\000I"
 128      58747275 
 128      80C1D5D0 
 128      B8913404 
 128      3A300049 
 129 0027 A3ABBDA5 		.ascii	"\243\253\275\245}\210\033\013u2\035+\250\255U4)\213"
 129      7D881B0B 
 129      75321D2B 
 129      A8AD5534 
 129      298B
 130 0039 4DC39FC4 		.ascii	"M\303\237\304\001'Kb\027e@c:\200\221\301\001\236\347"
 130      01274B62 
 130      17654063 
 130      3A8091C1 
 130      019EE7
 131 004c BC478A09 		.ascii	"\274G\212\011,\334\344\236\373\356}\347}\337\357\274"
 131      2CDCE49E 
 131      FBEE7DE7 
 131      7DDFEFBC 
 132 005c 730D8164 		.ascii	"s\015\201dT\024\321M^Gx\302%\250\305m\242\234\257\224"
 132      5414D14D 
 132      5E4778C2 
 132      25A8C56D 
 132      A29CAF94 
 133 0070 5E1B207B 		.ascii	"^\033 {\311i\335&{Y+\263yEv\237\356\362\316\300\211"
 133      C969DD26 
 133      7B592BB3 
 133      7945769F 
 133      EEF2CEC0 
 134 0085 931C401E 		.ascii	"\223\034@\036\254\017\312*m\034dq\250\216\024\232O\366"
 134      AC0FCA2A 
 134      6D1C6471 
 134      A88E149A 
 134      4FF6
 135 0097 EA6AA86C 		.ascii	"\352j\250ly|\333\3701\232\263A_\240\211B\0259\022\312"
 135      797CDBF8 
ARM GAS  C:\Users\JEFFSN~1\AppData\Local\Temp\ccznaSP4.s 			page 10


 135      319AB341 
 135      5FA08942 
 135      153912CA 
 136 00ab 18224EDB 		.ascii	"\030\"N\333\255\035/\365\272\005I\033\214_\342\005\\"
 136      AD1D2FF5 
 136      BA05491B 
 136      8C5FE205 
 136      5C
 137 00bc C1AA8E36 		.ascii	"\301\252\2166l\030\346m\343\343\265\215\342\365\036"
 137      6C18E66D 
 137      E3E3B58D 
 137      E2F51E
 138 00cb 4D818691 		.ascii	"M\201\206\221\340J\360$\370\022\022\034\370\273}\236"
 138      E04AF024 
 138      F812121C 
 138      F8BB7D9E 
 139 00db 0272A094 		.ascii	"\002r\240\224\254z\017\315b\355\313\241'ry\255\331\252"
 139      AC7A0FCD 
 139      62EDCBA1 
 139      277279AD 
 139      D9AA
 140 00ed 18343F7B 		.ascii	"\0304?{\177T\2405\304\271^\357\264\275\354\221]\260"
 140      7F54A035 
 140      C4B95EEF 
 140      B4BDEC91 
 140      5DB0
 141 00ff F62A9F3D 		.ascii	"\366*\237=e89\356\024v\267{Jx\236\263997X\341\212\226"
 141      653839EE 
 141      1476B77B 
 141      4A789EB3 
 141      39393758 
 142 0116 D1CF602F 		.ascii	"\321\317`/Q\002}G\241\235\317\234\252V;\365\277\275"
 142      51027D47 
 142      A19DCF9C 
 142      AA563BF5 
 142      BFBD
 143 0128 A20A105E 		.ascii	"\242\012\020^I\036\011\204\246\265\201\230\241\0258"
 143      491E0984 
 143      A6B58198 
 143      A11538
 144 0137 71B639CF 		.ascii	"q\2669\317\024\347\233\276\356\232V\304\364'L\254\341"
 144      14E79BBE 
 144      EE9A56C4 
 144      F4274CAC 
 144      E1
 145 0148 9ED17042 		.ascii	"\236\321pB\305\032\250\"Kl\021hW\010\277\346\037\237"
 145      C51AA822 
 145      4B6C1168 
 145      5708BFE6 
 145      1F9F
 146 015a E6AFAE6F 		.ascii	"\346\257\256o\315\3731!\360\246Khh\301\215\010\017v"
 146      CDFB3121 
 146      F0A64B68 
 146      68C18D08 
 146      0F76
 147 016c 964E08BD 		.ascii	"\226N\010\275\013\020\326\272\204o\205P\204\020\253"
 147      0B10D6BA 
ARM GAS  C:\Users\JEFFSN~1\AppData\Local\Temp\ccznaSP4.s 			page 11


 147      846F8550 
 147      8410AB
 148 017b F817F8B9 		.ascii	"\370\027\370\271\357\272*\253\261\312\334\357\223\216"
 148      EFBA2AAB 
 148      B1CADCEF 
 148      938E
 149 0189 255888EB 		.ascii	"%X\210\353vew\266]^\310m&\274\217\252\366\376o.\337"
 149      766577B6 
 149      5D5EC86D 
 149      26BC8FAA 
 149      F6FE6F2E 
 150 019e 437C403F 		.ascii	"C|@?\013\004:\021\025\352D\367\341\027\346\032\317v"
 150      0B043A11 
 150      15EA44F7 
 150      E117E61A 
 150      CF76
 151 01b0 54242763 		.ascii	"T$'c\237\177\033\237\263\312\215{\351\231tf\374az2\225"
 151      9F7F1B9F 
 151      B3CA8D7B 
 151      E9997466 
 151      FC617A32 
 152 01c5 9C7D9499 		.ascii	"\234}\224\231H\217\335O\316\216\334\031{\220\034NMO"
 152      488FDD4F 
 152      CE8EDC19 
 152      7B901C4E 
 152      4D4F
 153 01d7 4D4EDD9A 		.ascii	"MN\335\232\240\177I7\364\234"
 153      A07F4937 
 153      F49C
 154              		.text
 155              		.section	.gnu.lto_USB_MIDI_IN_Service.1c050a9d,"",%progbits
 156 0000 789C6361 		.ascii	"x\234ca`d\000\2015@\254\002\304\322@\314\310\314\300"
 156      60640081 
 156      3540AC02 
 156      C4D240CC 
 156      C8CCC0
 157 0013 C834E11C 		.ascii	"\3104\341\034\003C#\007\023##\210\321\300\301\310P\317"
 157      03432307 
 157      13232388 
 157      D1C0C1C8 
 157      50CF
 158 0025 C458CFF8 		.ascii	"\304X\317\370\225\351/\023\343\241\366g;\2314\2277\000"
 158      95E92F13 
 158      E3A1F667 
 158      3B993497 
 158      3700
 159 0037 C183A7FF 		.ascii	"\301\203\247\377\203\032\033Z%Z\231\031\030\3763\201"
 159      831A1B5A 
 159      255A9919 
 159      18FE3381 
 160 0047 4D62605C 		.ascii	"Mb`\\\316\250\311\000T\366h\343\277\251\274l- e\012"
 160      CEA8C900 
 160      54F668E3 
 160      BFA9BC6C 
 160      2D20650A 
 161 005b 1049C615 		.ascii	"\020I\306\025\214l \353\326\007\035h\370\377\277\271"
 161      8C6C20EB 
ARM GAS  C:\Users\JEFFSN~1\AppData\Local\Temp\ccznaSP4.s 			page 12


 161      D6071D68 
 161      F8FFBFB9 
 162 006b E1C044A9 		.ascii	"\341\300D\251\243\333\244\201Z?\000eA\366|db\002\321"
 162      A3DBA481 
 162      5A3F0065 
 162      41F67C64 
 162      6202D1
 163 007e CC2F189B 		.ascii	"\314/\030\233\017l\275\315\003R\0172i\347\3167\267\331"
 163      0F6CBDCD 
 163      03520F32 
 163      69E7CE37 
 163      B7D9
 164 0090 EBFF3674 		.ascii	"\353\3776t44\010\26423\376g\002\032\302\270\222\261"
 164      343408B4 
 164      3233FE67 
 164      021AC2B8 
 164      92B1
 165 00a2 9EA19599 		.ascii	"\236\241\225\231\211\341\025c\323\201\355\267\231\300"
 165      89E11563 
 165      D381EDB7 
 165      99C0
 166 00b0 6A41E003 		.ascii	"jA\340\003P\026h\006\320D%\367\324\274\324\242\304\222"
 166      50166806 
 166      D04425F7 
 166      D4BCD4A2 
 166      C492
 167 00c2 D494F8E0 		.ascii	"\324\224\370\340\374\322\242\344\324\230\200\340|g\323"
 167      FCD2A2E4 
 167      D49880E0 
 167      7C67D3
 168 00d1 98D060A7 		.ascii	"\230\320`\247\370\334\314\224L\275d\006\000x\377L\226"
 168      F8DCCC94 
 168      4CBD6406 
 168      0078FF4C 
 168      96
 169              		.text
 170              		.section	.gnu.lto_USB_PrepareInBuffer.1c050a9d,"",%progbits
 171 0000 789C9D5A 		.ascii	"x\234\235Z{PW\325\026>\353\234\337\213\037oQ\2715ZN"
 171      7B5057D5 
 171      163EEB9C 
 171      DF8B1F6F 
 171      51B9355A 
 172 0015 C5D57232 		.ascii	"\305\325r2\230\274uk\252\333k\362\346\324\344\344\265"
 172      98BC756B 
 172      AADB6BF2 
 172      E6D4E4E4 
 172      B5
 173 0026 26AF8E15 		.ascii	"&\257\216\025\341\344\315\253\215\2469y\313\037O\301"
 173      E1E4CDAB 
 173      8DA63979 
 173      CB1F4FC1 
 174 0036 47820F94 		.ascii	"G\202\017\224\207bb\242\346\013\037\031\206\211\010"
 174      876262A2 
 174      E60B1F19 
 174      868908
 175 0045 A6269045 		.ascii	"\246&\220E\276\025E!CJ@\010\363\305\335k\355s\026p\312"
 175      BE154521 
ARM GAS  C:\Users\JEFFSN~1\AppData\Local\Temp\ccznaSP4.s 			page 13


 175      434A4008 
 175      F3C5DD6B 
 175      ED731670 
 176 005a DF740E7F 		.ascii	"\337t\016\177,\366\331g\357\357|\353\373\366\343\234"
 176      2CF6D967 
 176      EFEF7CEB 
 176      FBF6E39C 
 177 006a 0D0E0514 		.ascii	"\015\016\005\024\374\0313PQF\210\337\321\342\022\376"
 177      FC193350 
 177      514688DF 
 177      D1E212FE 
 178 007a A2809A5E 		.ascii	"\242\200\232^\251(\361\036U\325\212\357P|^G\365\003"
 178      A928F11E 
 178      55D58AEF 
 178      507C5E47 
 178      F503
 179 008c 8A2F4883 		.ascii	"\212/H\203HY\355P]\251\375E\265\023c\220Su5\365\022"
 179      4859ED50 
 179      5DA9FD45 
 179      B5136390 
 179      537535F5 
 180 00a1 573D96FF 		.ascii	"W=\226\377]\\\271T7]y\350\312\015\341\262\213G\015\240"
 180      5D5CB954 
 180      375D79E8 
 180      CA0DE1B2 
 180      8B470DA0 
 181 00b5 2E5EEA12 		.ascii	".^\352\022`T{\325@j\035D\255\003\215\352 5\204\252\203"
 181      60547BD5 
 181      406A1D44 
 181      AD038DEA 
 181      203584AA 
 182 00ca A93A58BF 		.ascii	"\251:X\277\012\245\253\020\243Q\250\032\266\267\257"
 182      0AA5AB10 
 182      A351A81A 
 182      B6B7AF
 183 00d9 A80E3F10 		.ascii	"\250\016?\020-\252\303\214\352p\203e\0175\202\356G\322"
 183      2DAAC38C 
 183      EA708365 
 183      0F3582EE 
 183      47D2
 184 00eb FD084764 		.ascii	"\375\010GdY\204\342\363\364\244\330\213boYct\350e\024"
 184      5984E2F3 
 184      F4A4D88B 
 184      626F5963 
 184      74E86514 
 185 00ff 7A1B8548 		.ascii	"z\033\205H\000,\370<\240\314P5\207\323\345\366\004x"
 185      002CF83C 
 185      A0CC5035 
 185      87D3E5F6 
 185      0478
 186 0111 03838243 		.ascii	"\003\203\202CB\303\302{D\364\354\325;\022f@\233zC\205"
 186      42C3C27B 
 186      44F4ECD5 
 186      3B126640 
 186      9B7A4385 
 187 0125 D299F545 		.ascii	"\322\231\365E\352\275\005>\361s\246\256>(\333\367\255"
 187      EABD053E 
ARM GAS  C:\Users\JEFFSN~1\AppData\Local\Temp\ccznaSP4.s 			page 14


 187      F173A6AE 
 187      3E28DBF7 
 187      AD
 188 0136 4F4BD614 		.ascii	"OK\326\024\245C%}\025(\200{E\263\013)\277\235\360jQ"
 188      A543257D 
 188      1528807B 
 188      45B30B29 
 188      BF9DF06A 
 189 014b A0887279 		.ascii	"\240\210ry[E\203\326\377S\237/\301\347\313\032\215\315"
 189      5B4583D6 
 189      FF539F2F 
 189      C1E7CB1A 
 189      8DCD
 190 015d 01568326 		.ascii	"\001V\203&z\300\203} \272\217\"*\024X\003\375E\333C"
 190      7AC0837D 
 190      20BA8F22 
 190      2A145803 
 190      FD45DB43 
 191 0171 499B72B5 		.ascii	"I\233r\265V5YS\301!.\233+\262\317\205\340\245\006\375"
 191      56355953 
 191      C1212E9B 
 191      2BB2CF85 
 191      E0A506FD 
 192 0185 C465CBD6 		.ascii	"\304e\313\326\243\373\003\264\001\204zp]\315i\217\216"
 192      A3FB03B4 
 192      01847A70 
 192      5DCD698F 
 192      8E
 193 0196 7A2CCE17 		.ascii	"z,\316\027\220\2549`\235D\375\014\372\300Z@\\\207\002"
 193      90AC3960 
 193      9D44FD0C 
 193      FAC05A40 
 193      5C8702
 194 01a9 EB09F7F8 		.ascii	"\353\011\367\370\265\313\2275-\232z\356\311\330_\352"
 194      B5CB9735 
 194      2D9A7AEE 
 194      C9D85FEA 
 195 01b9 D07BE6EC 		.ascii	"\320{\346\354\015\364E#\241\015\277#\264\221:\326Um"
 195      0DF44523 
 195      A10DBF23 
 195      B4913AD6 
 195      556D
 196 01cb 480CD11E 		.ascii	"H\014\321\036\241\216\263\347\025o6\0229at\334\364\273"
 196      A18EB3E7 
 196      156F3612 
 196      396174DC 
 196      F4BB
 197 01dd 8E85D01F 		.ascii	"\216\205\320\037[o,I\236\017\332?\250gA\306\236\177"
 197      5B6F2C49 
 197      9E0FDA3F 
 197      A86741C6 
 197      9E7F
 198 01ef 45E563C7 		.ascii	"E\345c\307\222]\365\323\232\023|K|\016\354\274\271k"
 198      925DF5D3 
 198      9A137C4B 
 198      7C0EECBC 
 198      B96B
ARM GAS  C:\Users\JEFFSN~1\AppData\Local\Temp\ccznaSP4.s 			page 15


 199 0201 67FC116D 		.ascii	"g\374\021m7\305o-\012\325\206R\277-\315\227\323A\357"
 199      37C56F2D 
 199      0AD58652 
 199      BF2DCD97 
 199      D341EF
 200 0214 583C76B1 		.ascii	"X<v\261\257$\276\037v\333\372\007\335j\013o.\012v%\241"
 200      AF24BE1F 
 200      76DBFA07 
 200      DD6A0B6F 
 200      2E0A7625 
 201 0229 31FD601B 		.ascii	"1\375`\033D\301\026\210\222\256\300\347\340\022\303"
 201      44C11688 
 201      92AEC0E7 
 201      E012C3
 202 0238 5D356A37 		.ascii	"]5j7\276\\\342\353\350H\364\225|\371\327C\373\266\007"
 202      BE5CE2EB 
 202      E848F495 
 202      7CF9D743 
 202      FBB607
 203 024b 7F0A0E40 		.ascii	"\177\012\016@\225\234\0126p)\330\304\015\350\207G\344"
 203      959C0A36 
 203      7029D8C4 
 203      0DE88747 
 203      E4
 204 025c E30C10C1 		.ascii	"\343\014\020\301\345\005\314*\020\257\2031\204`\010"
 204      E505CC2A 
 204      10AF8331 
 204      846008
 205 026b C3108EB7 		.ascii	"\303\020\216\267#\260\324\023Co\014\221Xw\033\226n\307"
 205      23B0D413 
 205      436F0C91 
 205      58771B96 
 205      6EC7
 206 027d 80B238FB 		.ascii	"\200\2628\373b\335\235X\352\207\341.@}\357\306\342="
 206      62DD9D58 
 206      EA87E12E 
 206      407DEFC6 
 206      E23D
 207 028f 78270A4B 		.ascii	"x'\012K\3751\014\300p\037\206\201x\343~,\015\302\020"
 207      FD310CC0 
 207      701F8681 
 207      78E37E2C 
 207      0DC210
 208 02a2 8D2106EB 		.ascii	"\215!\006\353\036\304\322`\014\017ax\030\353\036\301"
 208      1EC4D260 
 208      0C0F6178 
 208      18EB1EC1 
 209 02b2 D2A3181E 		.ascii	"\322\243\030\036\303\3608\326=\201\245'1<\205\341\031"
 209      C3F038D6 
 209      3D81A527 
 209      313C85E1 
 209      19
 210 02c3 0CCFE28D 		.ascii	"\014\317\342\215\347\2604\004\303\363\030\206b\335\013"
 210      E7B03404 
 210      C3F31886 
 210      62DD0B
 211 02d2 587A11C3 		.ascii	"Xz\021\303K\030\206a\335\313X\032\216a\004\206W\260"
ARM GAS  C:\Users\JEFFSN~1\AppData\Local\Temp\ccznaSP4.s 			page 16


 211      4B188661 
 211      DDCB581A 
 211      8E610486 
 211      57B0
 212 02e4 EE552CBD 		.ascii	"\356U,\275\206a$\206Q\030F\343\2151Xz\035\303\233\030"
 212      86612486 
 212      511846E3 
 212      8D31587A 
 212      1DC39B18 
 213 02f8 62B12E0E 		.ascii	"b\261.\016Kc1\274\215a\034\326\275\203\245\361\030&"
 213      4B6331BC 
 213      8D611CD6 
 213      BD83A5F1 
 213      1826
 214 030a 60988875 		.ascii	"`\230\210u\357bi\022\206\311\030\246`\230\2127\336\307"
 214      EF626912 
 214      86C918A6 
 214      60988A37 
 214      DEC7
 215 031c D2340C1F 		.ascii	"\3224\014\037`\230\216\341C\014\037\341\335\031X\212"
 215      60988EE1 
 215      430C1FE1 
 215      DD19588A 
 216 032c 078C0914 		.ascii	"\007\214\011\024\223(&ct\245P9\225b\032\305\331\024"
 216      93282663 
 216      74A55039 
 216      95621AC5 
 216      D914
 217 033e E7D0DDB9 		.ascii	"\347\320\335\271T\236G1\235\342|\212\013\350\356\"*"
 217      549E4731 
 217      9DE27C8A 
 217      0BE8EE22 
 217      2A
 218 034f 67525C42 		.ascii	"gR\\B1\213\352s\250\234Kq\031\305<\252_N\345\025\024"
 218      318BEA73 
 218      A89C4B71 
 218      19C53CAA 
 218      5F4EE515 
 219 0364 F3292A4A 		.ascii	"\363)*J\223\030{\270\2504\253*\376\326\352!\341\352"
 219      93187BB8 
 219      A834AB2A 
 219      FED6EA21 
 219      E1EA
 220 0376 ACCAECFC 		.ascii	"\254\312\354\374@\034\217\211\232S\214\331\314\344\322"
 220      401C8F89 
 220      9A538CD9 
 220      CCE4D2
 221 0385 2A374E6F 		.ascii	"*7No\007\215\366\366\257\017\244\006\345\301\322x\034"
 221      078DF6F6 
 221      AF0FA406 
 221      E5C1D278 
 221      1C
 222 0396 C498A53B 		.ascii	"\304\230\245;Q\334\331.f\262\002_\200xR-$\370\376M\303"
 222      51DCD92E 
 222      66B2025F 
 222      8078522D 
 222      24F8FE4D 
ARM GAS  C:\Users\JEFFSN~1\AppData\Local\Temp\ccznaSP4.s 			page 17


 223 03ab 598C5401 		.ascii	"Y\214T\001\241\020\346w\331\232\204t\011\214m3\017\026"
 223      A110E677 
 223      D99A8474 
 223      098C6D33 
 223      0F16
 224 03bd 7A252488 		.ascii	"z%$\210\313\033?%ns\350\220a:`\021\001\356\220\200*"
 224      CB1B3F25 
 224      6E73E890 
 224      613A6011 
 224      01EE9080 
 225 03d2 C16D4138 		.ascii	"\301mA8\227r\026\222\216&n\251\330\255\343\271\005@"
 225      97721692 
 225      8E266EA9 
 225      D8ADE3B9 
 225      0540
 226 03e4 4ECDCFF5 		.ascii	"N\315\317\365\264\002\001\264\003|\011r\2765\253\232"
 226      B40201B4 
 226      037C0972 
 226      BE35AB9A 
 227 03f4 527C8748 		.ascii	"R|\207H\2514\263\360H\326\007\262\271\247kF\036\312"
 227      A934B3F0 
 227      48D607B2 
 227      B9A76B46 
 227      1ECA
 228 0406 A8A8A8F1 		.ascii	"\250\250\250\361\204{\306\015_*=\335\223\246\311\271"
 228      847BC60D 
 228      5F2A3DDD 
 228      93A6C9B9 
 229 0416 DA98545B 		.ascii	"\332\230T[\031H\254\342\261>\000v\212\345\265\230h}"
 229      1948ACE2 
 229      B13E0076 
 229      8AE5B598 
 229      687D
 230 0428 85B4445A 		.ascii	"\205\264DZ-n\011\032 p\305u\342\225\224\203.Y\023\230"
 230      2D6E091A 
 230      2070C575 
 230      E2959483 
 230      2E591398 
 231 043c A87905C6 		.ascii	"\250y\005\306\206\226\326\015.|\222\023Ba\227\350+:"
 231      8696D60D 
 231      2E7C9213 
 231      426197E8 
 231      2B3A
 232 044e 650236E9 		.ascii	"e\0026\351J\303\373\0074\274ib\225\302\352\206\203?"
 232      4AC3FB07 
 232      34BC6962 
 232      95C2EA86 
 232      833F
 233 0460 94793BC5 		.ascii	"\224y;\305\011\204\335\202F\011\322\300\233;w\236\325"
 233      0984DD82 
 233      4609D2C0 
 233      9B3B779E 
 233      D5
 234 0471 6236A215 		.ascii	"b6\242\025\276\351\230~\251`&\370\320\"\277\007b\004"
 234      BEE9987E 
 234      A96026F8 
 234      D022BF07 
ARM GAS  C:\Users\JEFFSN~1\AppData\Local\Temp\ccznaSP4.s 			page 18


 234      6204
 235 0483 1105F36F 		.ascii	"\021\005\363o>\222\365?I,\330B\302e\234p\271L81SO/D"
 235      3E92F53F 
 235      492CD842 
 235      C2659C70 
 235      B94C3831 
 236 049b 02B18F01 		.ascii	"\002\261\217\001\000\260\227\322+\345\364\376\354S\276"
 236      00B097D2 
 236      2BE5F4FE 
 236      EC53BE
 237 04aa E6A7EC23 		.ascii	"\346\247\354#\362!\204Rx\322p,\314\002\326~\306:`\262"
 237      F2218452 
 237      78D2702C 
 237      CC02D67E 
 237      C63A60B2 
 238 04be 285C00E1 		.ascii	"(\\\000\341u\366\331\301\177\310\357\326z\177\343O\357"
 238      75F6D9C1 
 238      7FC8EFD6 
 238      7A7FE34F 
 238      EF
 239 04cf 8344399C 		.ascii	"\203D9\234\364\256@\275\335R\357\223\206\336\021\026"
 239      F4AE40BD 
 239      DD52EF93 
 239      86DE1116 
 240 04df D85732FB 		.ascii	"\330W2\373*\223\336=\005\220m\201\277e\330C\304\266"
 240      2A93DE3D 
 240      05906D81 
 240      BF65D843 
 240      C4B6
 241 04f1 A714F894 		.ascii	"\247\024\370\224!po\013X\3371\326\367&\201#\005\020"
 241      21706F0B 
 241      58DF31D6 
 241      F7268123 
 241      0510
 242 0503 5EB79EB1 		.ascii	"^\267\236\261*p\265?\201\177 \312\221$\360a\210\351"
 242      2A70B53F 
 242      817F20CA 
 242      9124F061 
 242      88E9
 243 0515 3A6D406C 		.ascii	":m@l\343GtM\232O\031\202\337f!\233\243\234\3151\223"
 243      E347744D 
 243      9A4F1982 
 243      DF66219B 
 243      A39CCD31 
 244 052a E0B70B20 		.ascii	"\340\267\013 \333\202\037g\330\023\304\376v)\370iC\360"
 244      DB821F67 
 244      D813C4FE 
 244      7629F869 
 244      43F0
 245 053c 3E16B04E 		.ascii	">\026\260N2\326)\223\340}\005\220=\301O\373\023\274"
 245      32D62993 
 245      E07D0590 
 245      3DC14FFB 
 245      13BC
 246 054e 8628F725 		.ascii	"\206(\367%\301\317@L\247\302\247\015\205\357\264@\377"
 246      C1CF404C 
 246      A7C2A70D 
ARM GAS  C:\Users\JEFFSN~1\AppData\Local\Temp\ccznaSP4.s 			page 19


 246      85EFB440 
 246      FF
 247 055f 2CD3AF35 		.ascii	",\323\2575)\334O\000\331V\370\034\303\236'\272\375h"
 247      29DC4F00 
 247      D956F81C 
 247      C39E27BA 
 247      FD68
 248 0571 B97728D5 		.ascii	"\271w(\325\017hb{\250J\354\250\210wvn\017i\271Y\237"
 248      0F68627B 
 248      A84AECA8 
 248      8877766E 
 248      0F69B959 
 249 0586 E9234683 		.ascii	"\351#F\203:\336\035\234JC$6?\236X\257v6N\311\250\315"
 249      3ADE1D9C 
 249      4A432436 
 249      3F9E58AF 
 249      76364EC9 
 250 059c 0F914B76 		.ascii	"\017\221Kv\023@=\267v)%w\310\326\005\225\315\306\336"
 250      13403DB7 
 250      76292577 
 250      C8D60595 
 250      CDC6DE
 251 05af D3E5BE5B 		.ascii	"\323\345\276[)\367\320^\323\\\2275\037\344\375\011\026"
 251      29F7D05E 
 251      D35C9735 
 251      1FE4FD09 
 251      16
 252 05c0 52FA9153 		.ascii	"R\372\221S\272`2z\242\000\222\273K\243\256\335\273r"
 252      BA60327A 
 252      A20092BB 
 252      4BA3AEDD 
 252      BB72
 253 05d2 77E1F770 		.ascii	"w\341\367p\247x;\374\311\264\273\374\331\301\320p\213"
 253      A7783BFC 
 253      C9B4BBFC 
 253      D9C1D070 
 253      8B
 254 05e3 C1B00050 		.ascii	"\301\260\000P\257\213$\357D\032\015\215\270\276\275"
 254      AF8B24EF 
 254      441A0D8D 
 254      B8BEBD
 255 05f2 2BC7727D 		.ascii	"+\307r}\326B=\307I\026r\374\231s\374\3054\032&\013 "
 255      D6423DC7 
 255      491672FC 
 255      9973FCC5 
 255      341A260B 
 256 0607 DBA3E112 		.ascii	"\333\243\341\022\3036\021\335\311d\210G\271\326K\216"
 256      C33611DD 
 256      C9648847 
 256      B9D64B8E 
 257 0617 862F2B0F 		.ascii	"\206/+\0179;\337gV\034XZ\352\225\243\341\022@3\033\030"
 257      393BDF67 
 257      561C585A 
 257      EA95A3E1 
 257      1240331B 
 258 062c A0DCF0CA 		.ascii	"\240\334\360\312\227\205F6p\212\005\026-\314\342\262"
 258      97854636 
ARM GAS  C:\Users\JEFFSN~1\AppData\Local\Temp\ccznaSP4.s 			page 20


 258      708A0516 
 258      2DCCE2B2 
 259 063c C9C0A902 		.ascii	"\311\300\251\002\010\223ma\003\337\227T\330\300 a`+"
 259      08936D61 
 259      03DF9754 
 259      D8C02061 
 259      602B
 260 064e 659F7845 		.ascii	"e\237xEo2Mx,\032\332\362\264\315\257\247\277\222HS\311"
 260      6F324D78 
 260      2C1ADAF2 
 260      B4CDAFA7 
 260      BF924853 
 261 0663 D376F474 		.ascii	"\323v\364t\232\234\340\215\354\351\007\026\322\276\302"
 261      9A9CE08D 
 261      ECE90716 
 261      D2BEC2
 262 0672 69FF66F2 		.ascii	"i\377f\362t\272\000\262\355\351U\206\275Ft\247\223G"
 262      74BA00B2 
 262      EDE95586 
 262      BD4674A7 
 262      9347
 263 0684 5EF48826 		.ascii	"^\364\210&\341\245n\236\026\257+:\246\312\231\360+\300"
 263      E1A56E9E 
 263      16AF2B3A 
 263      A6CA99F0 
 263      2BC0
 264 0696 75F63450 		.ascii	"u\3664P\231\245\311I\371\013{\372\241\005\0267\230\305"
 264      99A5C949 
 264      F90B7BFA 
 264      A1051637 
 264      98C5
 265 06a8 4D93A71F 		.ascii	"M\223\247\037\011\240\356\223r\206\234\224\373W\356"
 265      09A0EE93 
 265      72869C94 
 265      FB57EE
 266 06b7 B81E24A9 		.ascii	"\270\036$\2518\241\303\346\244\364\251\376\014\214W"
 266      38A1C3E6 
 266      A4F4A9FE 
 266      0C8C57
 267 06c6 51918FC8 		.ascii	"Q\221\217\310\300\004U\0308CN\312Kl`<XH2Q5\222LR\273"
 267      C0045518 
 267      38434ECA 
 267      4B6C603C 
 267      58483251 
 268 06df 3B980008 		.ascii	";\230\000\010e\333\303d\006N!\306\011@\246\004)\255"
 268      65DBC364 
 268      064E21C6 
 268      0940A604 
 268      29AD
 269 06f1 6E69627E 		.ascii	"nib~UW\023\027\327\356[\257\257\274\315\0003U\303\304"
 269      55571317 
 269      D7EE5BAF 
 269      AFBCCD00 
 269      3355C3C4 
 270 0705 60E59853 		.ascii	"`\345\230S\266\337\254u\266n\250\215_\253/~\227\001"
 270      B6DFAC75 
 270      B66EA88D 
ARM GAS  C:\Users\JEFFSN~1\AppData\Local\Temp\ccznaSP4.s 			page 21


 270      5FAB2F7E 
 270      9701
 271 0717 52B97588 		.ascii	"R\271u\210\362\243\264\274\260\215-\237mE\2164f=K\355"
 271      F2A3B4BC 
 271      B08D2D9F 
 271      6D458E34 
 271      663D4BED 
 272 072b EEF91C40 		.ascii	"\356\371\034@\250\356\256\317\005i{yG{I\250\244\243"
 272      A8EEAECF 
 272      05697B79 
 272      477B49A8 
 272      A4A3
 273 073d C26CD59E 		.ascii	"\302l\325\236\355s\374\332>\227D\234Cgd\3601\372>\027"
 273      ED73FCDA 
 273      3E97449C 
 273      436764F0 
 273      31FA3E17 
 274 0751 E4CC6D63 		.ascii	"\344\314mc\343\347Y\311t\036g\232n2>\035\020\312\266"
 274      E3E759C9 
 274      741E679A 
 274      6E323E1D 
 274      10CAB6
 275 0764 F1190C3C 		.ascii	"\361\031\014<\2378\247K\343C\225\271\016i\344\366n\306"
 275      9F38A74B 
 275      E34395B9 
 275      0E69E4F6 
 275      6EC6
 276 0776 EFBE599B 		.ascii	"\357\276Y\233\025(\265k\001X\300V\206){A\316\336v\266"
 276      1528B56B 
 276      0158C056 
 276      86297B41 
 276      CEDE76B6 
 277 078a 32C94A82 		.ascii	"2\311J\202\013\231\307\"\223\225\311\200P\335\255L\321"
 277      0B99C722 
 277      9395C980 
 277      50DDAD4C 
 277      D1
 278 079b AD2C6DD9 		.ascii	"\255,m\331T\240\317`\0152mZ\271\330\257\225KH\226di"
 278      54A0CF60 
 278      0D326D5A 
 278      B9D8AF95 
 278      4B489664 
 279 07b0 65165A99 		.ascii	"e\026Z\231\"\255,\274\316V\246Z\3114\2333\3151Y\231"
 279      22AD2CBC 
 279      CE56A65A 
 279      C9349B33 
 279      CD315999 
 280 07c4 060865DB 		.ascii	"\006\010e\333\312\\\006^J\234\323\244"
 280      CA5C065E 
 280      4A9CD3A4 
 281 07d0 95E1F836 		.ascii	"\225\341\3706D\204;\214\267\332\371V\370.c\330<\223"
 281      44843B8C 
 281      B7DAF956 
 281      F82E63D8 
 281      3C93
 282 07e2 330B00A1 		.ascii	"3\013\000\241Hs\313\237j\313o!:\275\330~B\374\027H\315"
 282      4873CB9F 
ARM GAS  C:\Users\JEFFSN~1\AppData\Local\Temp\ccznaSP4.s 			page 22


 282      6ACB6F21 
 282      3ABDD87E 
 282      42FC1748 
 283 07f7 57A0E64E 		.ascii	"W\240\346N9{:\214\027\333EV2\310\347\014V\232\024\317"
 283      397B3A8C 
 283      17DB4556 
 283      32C8E70C 
 283      569A14CF 
 284 080b 0484B2AD 		.ascii	"\004\204\262\255\370\247\014\274\212\030g\352#\243,"
 284      F8A70CBC 
 284      8A1867EA 
 284      23A32C
 285 081a 5B177A89 		.ascii	"[\027z\211\025\232\005\214\266\332$t\026 \224=\241\327"
 285      159A058C 
 285      B6DA2474 
 285      1620943D 
 285      A1D7
 286 082c F8137A2D 		.ascii	"\370\023z-\321\316\222B\177\206B\273\244\320e\331\272"
 286      D1CE9242 
 286      7F8642BB 
 286      A4D065D9 
 286      BA
 287 083d D0395632 		.ascii	"\3209V2X\307\031\2547\011\235\013\010e[\350\015\014"
 287      58C719AC 
 287      37099D0B 
 287      08655BE8 
 287      0D0C
 288 084f BC9118E7 		.ascii	"\274\221\030\347\352B\227\033B/\263Bs\023\243\025\232"
 288      EA42971B 
 288      422FB342 
 288      7313A315 
 288      9A
 289 0860 8446EC65 		.ascii	"\204F\354e \217\301\214\363\241\345\010]\2347g\215~"
 289      208FC18C 
 289      F3A1E508 
 289      5D9C3767 
 289      8D7E
 290 0872 0C86A7F6 		.ascii	"\014\206\247\366\265m7\313\202M\307`\233q1\204-:\242"
 290      B56D37CB 
 290      824DC760 
 290      9B713184 
 290      2D3AA2
 291 0885 E55568AB 		.ascii	"\345Uh\253?\237\266Q\326y\322\247\317\321\247\345\372"
 291      3F9FB651 
 291      D679D2A7 
 291      CFD1A7E5 
 291      FA
 292 0896 7E526E18 		.ascii	"~Rn\030\265\302\212\002\333Y\201/LF\345\003B\3316\252"
 292      B5C28A02 
 292      DB59812F 
 292      4C46E503 
 292      42D936AA 
 293 08aa 88817710 		.ascii	"\210\201w\020\345|\271\006\365P\026\206\353\333IuF\227"
 293      E57CB906 
 293      F5501686 
 293      EBDB4975 
 293      4697
ARM GAS  C:\Users\JEFFSN~1\AppData\Local\Temp\ccznaSP4.s 			page 23


 294 08bc CFBDD3E7 		.ascii	"\317\275\323\347V\225\201\\\277\3614\220\267\223\010"
 294      5695815C 
 294      BFF13490 
 294      B79308
 295 08cb 65974BAB 		.ascii	"e\227K\253\203\344\222\274\206\013\372\032{\027\236"
 295      83E492BC 
 295      860BFA1A 
 295      7B179E
 296 08da 271C5B79 		.ascii	"'\034[y\301\231\001\363\342\223|\276\222\274\213\377"
 296      C19901F3 
 296      E2937CBE 
 296      92BC8BFF 
 297 08ea 54F12F25 		.ascii	"T\361/%\212O\243S\371b5\003%X\266*m\265f\264\331\374"
 297      8A4FA353 
 297      F9623503 
 297      2558B62A 
 297      6DB566B4 
 298 0900 1FD182BE 		.ascii	"\037\321\202\276\213}\0326\205\235\262\021\237\206\001"
 298      8B7D1A36 
 298      859DB211 
 298      9F8601
 299 090f 9D6A36EE 		.ascii	"\235j6\356N\253\0114\372\034\246>_\251\330\307\201}"
 299      4EAB0934 
 299      FA1CA63E 
 299      5FA9D8C7 
 299      817D
 300 0921 76C93E3C 		.ascii	"v\311><\004\200\206@A\323\206oB\214>W\251O\011\365q"
 300      04808640 
 300      41D3866F 
 300      428C3E57 
 300      A94F09F5 
 301 0936 629FDDA2 		.ascii	"b\237\335\242\017e\322S\371\026\264\363\020\037\206"
 301      0F65D253 
 301      F916B4F3 
 301      101F86
 302 0945 5920091A 		.ascii	"Y \011\032\267\025\331\331zZ\217Y\020\267\224\305\335"
 302      B715D9D9 
 302      7A5A8F59 
 302      10B794C5 
 302      DD
 303 0956 631AB78F 		.ascii	"c\032\267\217\013 \375TS\257yBl\220\266\337i\313n1\026"
 303      0B20FD54 
 303      53AF7942 
 303      6C90B6DF 
 303      69CB6E31 
 304 096b 7368472C 		.ascii	"shG,'g\037\247\261\270\027\307\342\023r(Vd\347\352I"
 304      27671FA7 
 304      B1B817C7 
 304      E2137228 
 304      5664E7EA 
 305 0980 3D69E54C 		.ascii	"=i\345L\221\223\332g\032\212O\011 \333\003q?\303\036"
 305      9193DA67 
 305      1A8A4F09 
 305      20DB0371 
 305      3FC31E
 306 0993 20BA4F49 		.ascii	" \272OI\341+Y\370g,\200}\303`\007M\302?+\200\344\311"
 306      E12B59F8 
ARM GAS  C:\Users\JEFFSN~1\AppData\Local\Temp\ccznaSP4.s 			page 24


 306      672C807D 
 306      C360074D 
 306      C23F2B80 
 307 09a9 CE631635 		.ascii	"\316c\0265\256\360\253q%\221~\2264\256Rc\350\240\234"
 307      AEF0AB71 
 307      25917E96 
 307      34AE5263 
 307      E8A09C
 308 09bc 44AE6491 		.ascii	"D\256d\221\237\263r\256\310\011\0342\211<D\000\331\026"
 308      9FB372AE 
 308      C8091C32 
 308      893C4400 
 308      D916
 309 09ce F93B86FD 		.ascii	"\371;\206\375\236\370\016\221\"W\261\310\317[\000\253"
 309      9EF80E91 
 309      2257B1C8 
 309      CF5B00AB 
 310 09de 66B01F4C 		.ascii	"f\260\037L\"\017\025@\366D>\354W\344#Dz(\211|T\355r"
 310      220F1540 
 310      F6443EEC 
 310      57E42344 
 310      7A28897C 
 311 09f5 7E56C522 		.ascii	"~V\305\"\277`!\201c\234\300q\223\310/\012 \333\"\237"
 311      BF602181 
 311      639CC071 
 311      93C82F0A 
 311      20DB229F 
 312 0a09 60D893C4 		.ascii	"`\330\223\304\367E)r5\213\374\222\005\260S\014v\332"
 312      F7452972 
 312      358BFC92 
 312      05B0530C 
 312      76DA
 313 0a1b 24F23001 		.ascii	"$\3620\001dO\344\032\277\"\237!\322\303H\344\263]E\256"
 313      644FE41A 
 313      BF229F21 
 313      D2C348E4 
 313      B35D45AE 
 314 0a2f 66915FB6 		.ascii	"f\221_\266\220@-'p\316$\362p\001d[\344\363\014[G|\207"
 314      90402D27 
 314      70CE24F2 
 314      7001645B 
 314      E4F30C5B 
 315 0a46 D3E2DDAB 		.ascii	"\323\342\335\253\373\342\355\220\312\037f\345\357\266"
 315      FBE2ED90 
 315      CA1F66E5 
 315      EFB6
 316 0a54 F0847A7E 		.ascii	"\360\204z~\302\217&\345\357\021@\335\027\357(\371us"
 316      C28F26E5 
 316      EF1140DD 
 316      17EF28F9 
 316      7573
 317 0a66 FEDAFA1D 		.ascii	"\376\332\372\035\372W\266\013.\330\374\272\371\311\257"
 317      FA57B60B 
 317      2ED8FCBA 
 317      F9C9AF
 318 0a75 3B0D94ED 		.ascii	";\015\224\355=\344\316E\\\313\243\2449\207\331\234\376"
 318      3DE4CE45 
ARM GAS  C:\Users\JEFFSN~1\AppData\Local\Temp\ccznaSP4.s 			page 25


 318      5CCBA3A4 
 318      3987D99C 
 318      FE
 319 0a86 16726CE4 		.ascii	"\026rl\344\034\1776\2313@\000\3316\347\027\206\275D"
 319      1C7F3699 
 319      334000D9 
 319      36E71786 
 319      BD44
 320 0a98 7407481F 		.ascii	"t\007H\037\216\260\017\367Y\000kb\260f\223\017\003\005"
 320      8EB00FF7 
 320      59006B62 
 320      B066930F 
 320      0305
 321 0aaa 907CC7B6 		.ascii	"\220|\307\266:\003Z\374j|\231H\017$\215[\273|\314\034"
 321      3A035AFC 
 321      6A7C9948 
 321      0F248D5B 
 321      BB7CCC1C 
 322 0abe 618DEFB7 		.ascii	"a\215\357\267\300\277\215\371\377j\322x\220\000\262"
 322      C0BF8DF9 
 322      FF6AD278 
 322      9000B2
 323 0acd AD713BC3 		.ascii	"\255q;\303^!\272\203\364?\355\261\306\321\026\300~c"
 323      5E21BA83 
 323      F43FEDB1 
 323      C6D116C0 
 323      7E63
 324 0adf B0AB268D 		.ascii	"\260\253&\215E\366\321\366V\231k~5\276N\244cH\343\033"
 324      45F6D1F6 
 324      56996B7E 
 324      35BE4EA4 
 324      6348E31B 
 325 0af3 5DF7CB93 		.ascii	"]\367\313\223,\362\203\026\022\270\311\011t\230D\036"
 325      2CF28316 
 325      12B8C909 
 325      7498441E 
 326 0b03 2C806C8B 		.ascii	",\200l\213\354\323\014\330x\372\324\030\254\377y\217"
 326      ECD30CD8 
 326      78FAD418 
 326      ACFF798F 
 327 0b13 457EC802 		.ascii	"E~\310\002X\002\203\321\227A\027\221\037\026@\366DN"
 327      580283D1 
 327      97411791 
 327      1F1640F6 
 327      444E
 328 0b25 D2FC899C 		.ascii	"\322\374\211\234L\244\037&\221S\264.K\371)\026\371\021"
 328      4CA41F26 
 328      9153B42E 
 328      4BF92916 
 328      F911
 329 0b37 0B09CCE4 		.ascii	"\013\011\314\344\004R\265\356\"?*\200l\213\234\306\260"
 329      0452B5EE 
 329      223F2A80 
 329      6C8B9CC6 
 329      B0
 330 0b48 B388EFA3 		.ascii	"\263\210\357\243\264\224\367\356\276\224\313)XX\303"
 330      B494F7EE 
ARM GAS  C:\Users\JEFFSN~1\AppData\Local\Temp\ccznaSP4.s 			page 26


 330      BE94CB29 
 330      5858C3
 331 0b57 CA8FB0F0 		.ascii	"\312\217\260\360\204\331\374\2049&\345_\021@\335\227"
 331      84D9FC84 
 331      3926E55F 
 331      1140DD97 
 332 0b67 F257E552 		.ascii	"\362W\345R\336:+\271]?\002u\303\\\315\336R\376\261_"
 332      DE3A2BB9 
 332      5D3F0275 
 332      C35CCDDE 
 332      52FEB15F 
 333 0b7b 77E651B6 		.ascii	"w\346Q\266\257\220;\3518\321^\225\346\324\2609\257Y"
 333      AF903BE9 
 333      38D15E95 
 333      E6D4B039 
 333      AF59
 334 0b8d 3917E41C 		.ascii	"9\027\344\034\347\233\314\031)\200l\233\263\200a\027"
 334      E79BCC19 
 334      29806C9B 
 334      B3806117 
 335 0b9d 12DD91D2 		.ascii	"\022\335\221\322\207\363\354\303(\013`\213\030,\323"
 335      87F3ECC3 
 335      280B608B 
 335      182CD3
 336 0bac E4C36801 		.ascii	"\344\303h\001do)_\354W\343%Dz\264<\013\324:\227\362"
 336      646F295F 
 336      EC57E325 
 336      447AB43C 
 336      0BD43A97 
 337 0bc1 F3ACF118 		.ascii	"\363\254\361\030+'\201\314?\307\244\361\353\002\310"
 337      2B2781CC 
 337      3FC7A4F1 
 337      EB02C8
 338 0bd0 FE3920C3 		.ascii	"\3769 \303.%\272\257K\215\353X\3437\255\234\3761X\236"
 338      2E25BAAF 
 338      4B8DEB58 
 338      E337AD9C 
 338      FE31589E 
 339 0be4 49E35801 		.ascii	"I\343X\001dO\343\345~5\376\204H\307\312\263?\255\363"
 339      644FE3E5 
 339      7E35FE84 
 339      48C7CAB3 
 339      3FADF3
 340 0bf7 48AA8E35 		.ascii	"H\252\2165\216\263r\366\307\374W\2324\036+\200\354\237"
 340      8EB372F6 
 340      C7FC579A 
 340      341E2B80 
 340      EC9F
 341 0c09 FC31EC2A 		.ascii	"\3741\354*\242;Vj\\\317\032\277m\345\340\217\301V\233"
 341      A23B566A 
 341      5CCF1ABF 
 341      6DE5E08F 
 341      C1569B
 342 0c1c 341E2780 		.ascii	"4\036'\200\354\255\344k\374j\274\226H\217\223\307~Z"
 342      ECADE46B 
 342      FC6ABC96 
 342      488F93C7 
ARM GAS  C:\Users\JEFFSN~1\AppData\Local\Temp\ccznaSP4.s 			page 27


 342      7E5A
 343 0c2e 97EDB29E 		.ascii	"\227\355\262\236E~\307\312\271\037'\260\336$\362x\001"
 343      457EC7CA 
 343      B91F27B0 
 343      DE24F278 
 343      01
 344 0c3f 64FFD48F 		.ascii	"d\377\324\217a7\022\337\361\264\222G\322\177\277\341"
 344      613712DF 
 344      F1B49247 
 344      D27FBFE1 
 345 0c4f 524E273F 		.ascii	"RN'?\015\220P\262\363\342\000\204\246\303\243&\025\260"
 345      0D9050B2 
 345      F3E20084 
 345      A6C3A326 
 345      15B0
 346 0c61 81AA2877 		.ascii	"\201\252(w\015\211\233\0207\351\215\367\342\336\032"
 346      0D899B10 
 346      37E98DF7 
 346      E2DE1A
 347 0c70 337CE294 		.ascii	"3|\342\224I\261q\243\206\015\237\370\314\337F\215\030"
 347      49B171A3 
 347      860D9FF8 
 347      CCDF468D 
 347      18
 348 0c81 FEF498FF 		.ascii	"\376\364\230\377\216{k\334\240XE\035\027\353\236<)\366"
 348      8E7B6BDC 
 348      A058451D 
 348      17EB9E3C 
 348      29F6
 349 0c93 E92963C7 		.ascii	"\351)c\307z\342\246\306Mx\357\205\270\011\316\3307\336"
 349      7AE2A6C6 
 349      4D78EF85 
 349      B809CED8 
 349      37DE
 350 0ca5 1C1FE7D5 		.ascii	"\034\037\347\325\253_\232\020\027\250\027G\306M\232"
 350      AB5F9A10 
 350      17A81747 
 350      C64D9A
 351 0cb4 F87FBAD9 		.ascii	"\370\177\272\331\330\267"
 351      D8B7
 352              		.text
 353              		.section	.gnu.lto_USB_PutUsbMidiIn.1c050a9d,"",%progbits
 354 0000 789C9556 		.ascii	"x\234\225V[L\224W\020>\363\237\177\35774\012^\010b\001"
 354      5B4C9457 
 354      103EF39F 
 354      7FEF3734 
 354      0A5E0862 
 355 0015 018D0222 		.ascii	"\001\215\002\"\255}h\232\3324}j\322\324\364\245\265"
 355      AD7D689A 
 355      DA347D6A 
 355      D2D4F4A5 
 355      B5
 356 0026 B18AA421 		.ascii	"\261\212\244!ikBm\323>\264\374\260,hk\252\246\021hK"
 356      696B426D 
 356      D33EB4FC 
 356      B02C686B 
 356      AAA61168 
ARM GAS  C:\Users\JEFFSN~1\AppData\Local\Temp\ccznaSP4.s 			page 28


 357 003b 631B6BD4 		.ascii	"c\033k\324z\001l\261\305\"\256\310z\345\"\012\212\227"
 357      7A016CB1 
 357      C522AEC8 
 357      7AE5220A 
 357      8A97
 358 004d 8A821742 		.ascii	"\212\202\027B\361\002Q\011\026\330\316\234\363\357B"
 358      F1025109 
 358      16D8CE9C 
 358      F3EF42
 359 005c D6A5CD6E 		.ascii	"\326\245\315n\302\331s\346\314|3g\276\231aU\006\214"
 359      C2D973E6 
 359      CC7C3367 
 359      BE996155 
 359      068C
 360 006e 3EEFDA19 		.ascii	">\357\332\031[\206\337\365\370\007.\006\312\346\026"
 360      5B86DFF5 
 360      F8072E06 
 360      CAE616
 361 007d C60ACC8A 		.ascii	"\306\012\314\212\302\333\243\231fU\353\236c\232\235"
 361      C2DBA399 
 361      6655EB9E 
 361      639A9D
 362 008c 832AC5AA 		.ascii	"\203*\305\252bhOC\261\275.\016\305\006\305X\026\205"
 362      62684F43 
 362      B1BD2E0E 
 362      C506C558 
 362      1685
 363 009e 27D3F00B 		.ascii	"'\323\360\013x2\202]*\231\300A\033p(f\201a\021\030f"
 363      7832825D 
 363      2A99C041 
 363      1B702866 
 363      81611118 
 364 00b3 C5DAC0E9 		.ascii	"\305\332\300\351\324r\232\341\321\2428\305\306*\244"
 364      D4729AE1 
 364      D1A238C5 
 364      C62AA4
 365 00c2 76A7B479 		.ascii	"v\247\264y\311\252\330\016\305\221\203\013\350\306n"
 365      C9AAD80E 
 365      C591830B 
 365      E8C66E
 366 00d1 0B40DA01 		.ascii	"\013@\332\001h\243\231\201\345+\\5\030M\016\263\305"
 366      68A39981 
 366      E52B5C35 
 366      184D0EB3 
 366      C5
 367 00e2 69B5D921 		.ascii	"i\265\331!_q0\371y\244\214*pf\350\344Fk\352NM+\324\256"
 367      5F7130F9 
 367      79A48C2A 
 367      7066E8E4 
 367      466BEA4E 
 368 00fa FBEEBD3D 		.ascii	"\373\356\275=P\350\231\341\341\214\371\025\006\231\261"
 368      50E899E1 
 368      E18CF915 
 368      0699B1
 369 0109 901E4BAF 		.ascii	"\220\036K\257\334\011\251\250\331[<|\305\312\223\200"
 369      DC09A9A8 
 369      D95B3C7C 
ARM GAS  C:\Users\JEFFSN~1\AppData\Local\Temp\ccznaSP4.s 			page 29


 369      C5CA9380 
 370 0119 E1DEF7A8 		.ascii	"\341\336\367\250\271\217'\357 +m\353;\032G\023\330\005"
 370      B98F27EF 
 370      202B6DEB 
 370      3B1A4713 
 370      D805
 371 012b 7CDC8A30 		.ascii	"|\334\2120`7$\243n[QU\005\177\250x8\200\212\307\201"
 371      603724A3 
 371      6E5B5155 
 371      057FA878 
 371      38808AC7 
 372 0140 E6EF7A9C 		.ascii	"\346\357z\234tT \036\217\233\352Z~\342<E\240\236\250"
 372      7454201E 
 372      8F9BEA5A 
 372      7EE23C45 
 372      A09EA8
 373 0153 2AD965D3 		.ascii	"*\331e\323Q;r4\213\207s\330+Q\367@,\374\002\204\213"
 373      513B7234 
 373      8B8773D8 
 373      2B51F740 
 373      2CFC0284 
 374 0168 9EF609DC 		.ascii	"\236\366\011\334[\255\373\335N\236.,\277\332Tw \020"
 374      5BADFBDD 
 374      4E9E2E2C 
 374      BFDA5477 
 374      2010
 375 017a 4FD9719B 		.ascii	"O\331q\233\226N\001\355\177*\240JH\026\332\025\276c"
 375      964E01ED 
 375      7F2AA04A 
 375      4816DA15 
 375      BE63
 376 018c 16FEACB0 		.ascii	"\026\376\254\260\034<_\264\331\222\264\235,\275\377"
 376      1C3C5FB4 
 376      D992B49D 
 376      2CBDFF
 377 019b 5C739569 		.ascii	"\\s\225i\336\202x2\256\232hL\037\324\355\256\036\333"
 377      DE827832 
 377      AE9A684C 
 377      1FD4EDAE 
 377      1EDB
 378 01ad EA301669 		.ascii	"\3520\026i\370\211\207jH\242,!\352\0010bi($A\245\373"
 378      F889876A 
 378      48A22C21 
 378      EA013062 
 378      69282441 
 379 01c3 7D7D832A 		.ascii	"}}\203*\177Q\200?y\262\277\335\246\203wu\305\004\301"
 379      7F51803F 
 379      79B2BFDD 
 379      A6837775 
 379      C504C1
 380 01d6 7F0D0587 		.ascii	"\177\015\005\207\337 \251\362\015\257\346\367\2735\357"
 380      DF20A9F2 
 380      0DAFE6F7 
 380      BB35EF
 381 01e5 709CAF2A 		.ascii	"p\234\257*\373y\020\371C-\204\345bU\205\232U\254v|\220"
 381      FB7910F9 
 381      432D84E5 
ARM GAS  C:\Users\JEFFSN~1\AppData\Local\Temp\ccznaSP4.s 			page 30


 381      6255859A 
 381      55AC767C 
 382 01fa EAC0C5E0 		.ascii	"\352\300\305\340\244\235\013\027c\024.\246)$\233J\313"
 382      A49D0B17 
 382      63142EA6 
 382      29249B4A 
 382      CB
 383 020b 34BA984E 		.ascii	"4\272\230N\273h\332\305\220\312\014R\231I\262Y\264\314"
 383      BB68DAC5 
 383      90CA0C52 
 383      9949B259 
 383      B4CC
 384 021d 06F241C9 		.ascii	"\006\362A\311Q\343p\2019@\271\215\247,\317\005\312V"
 384      51E37081 
 384      3940B98D 
 384      A72CCF05 
 384      CA56
 385 022f 82082251 		.ascii	"\202\010\"Q\270L\"\265yd\226L\273\024\302K%\274\371"
 385      B84C22B5 
 385      7964964C 
 385      BB14C24B 
 385      25BCF9
 386 0242 245B40CB 		.ascii	"$[@\313B\272XD\2734\332\245\223J\006\251,&Y&-K\310O"
 386      42BA5844 
 386      BB34DAA5 
 386      934A06A9 
 386      2C265926 
 387 025a 1679582A 		.ascii	"\026yX*\260\031{\200I\374\331\302\006\024\005\277x7"
 387      B0197B80 
 387      49FCD9C2 
 387      061405BF 
 387      7837
 388 026c 14120F22 		.ascii	"\024\022\017\"\2512\241\245\236\206V\023\025\0146 \324"
 388      A932A1A5 
 388      9E865613 
 388      150C3620 
 388      D4
 389 027d 600DDC86 		.ascii	"`\015\334\206\206\322\201;C&\322qs\373D\025\263H{mm"
 389      86D2813B 
 389      4326D271 
 389      73FB4415 
 389      B3487B6D 
 390 0292 FF1553FE 		.ascii	"\377\025S\376\250\266^\323\242P\266\201K\372\372\213"
 390      A8B65ED3 
 390      A250B681 
 390      4BFAFA8B 
 391 02a2 BA5B6CDB 		.ascii	"\272[l\333\340\207\002\255\200\344\026\370\035\362\341"
 391      E08702AD 
 391      80E416F8 
 391      1DF2E1
 392 02b1 200232F8 		.ascii	" \0022\370\003\266\001\342\026\016\352\240\016\304\025"
 392      03B601E2 
 392      160EEAA0 
 392      0EC415
 393 02c0 7EAAFB4F 		.ascii	"~\252\373O\330\244\310\031\016\030\302\003\327\006\201"
 393      D8A4C819 
 393      0E18C203 
ARM GAS  C:\Users\JEFFSN~1\AppData\Local\Temp\ccznaSP4.s 			page 31


 393      D70681
 394 02cf 0F8500BB 		.ascii	"\017\205\000\273\020\210\200\017\201<GM\214\336\032"
 394      1088800F 
 394      813C474D 
 394      8CDE1A
 395 02de 267AEB06 		.ascii	"&z\353\006\256\204sb\203:t\362'9\301\313\255\235{+\234"
 395      AE847362 
 395      833A74F2 
 395      2739C1CB 
 395      AD9D7B2B 
 396 02f3 19955A51 		.ascii	"\031\225ZQ\201\246}\346\341v8\214~\321\233^\2705\035"
 396      81A67DE6 
 396      E176388C 
 396      7ED19B5E 
 396      B8351D
 397 0306 3F0EB8D2 		.ascii	"?\016\270\322\366\211\353Z\360p\007\324C\306\230\"*"
 397      F689EB5A 
 397      F07007D4 
 397      43C69822 
 397      2A
 398 0317 EF08A489 		.ascii	"\357\010\244\211\000K\032\365\020\247`T(q\227\032\345"
 398      004B1AF5 
 398      10A76054 
 398      2871971A 
 398      E5
 399 0328 792A8A10 		.ascii	"y*\212\020\243\376\261\347\023\012\322\000#~\277\337"
 399      A3FEB1E7 
 399      130AD200 
 399      237EBFDF 
 400 0338 055E747D 		.ascii	"\005^t}\003\212:\335G\352c\203I\233*\252y@\341\354\222"
 400      038A3ADD 
 400      47EA6383 
 400      499B2AAA 
 400      7940E1EC 
 401 034d C27BC1ED 		.ascii	"\302{\301\355\255\351r\322\345\323\357r\372\025L\036"
 401      ADE972D2 
 401      E5D3EF72 
 401      FA154C1E 
 402 035d 1C857CAC 		.ascii	"\034\205|\254\005\2270R\211\177A\356\275\000\271\323"
 402      05973052 
 402      897F41EE 
 402      BD00B9D3 
 403 036d 2260B321 		.ascii	"\"`\263!\230\364c!I\237\216@\222\315\373\0016\243#`"
 403      98F46321 
 403      499F8E40 
 403      92CDFB01 
 403      36A32360 
 404 0381 B33108EC 		.ascii	"\2631\010\354\013\001\216A\240\211l\316\210\200\276"
 404      0B018E41 
 404      A0896CCE 
 404      8880BE
 405 0390 E3FF45DF 		.ascii	"\343\377E\337\011A_\314\244\364\235\014\322w*\224\276"
 405      09415FCC 
 405      A4F49D0C 
 405      D2772A94 
 405      BE
 406 03a1 9918C644 		.ascii	"\231\030\306D\372f\241(@V\253{(@\026\346d\226N\226\201"
ARM GAS  C:\Users\JEFFSN~1\AppData\Local\Temp\ccznaSP4.s 			page 32


 406      FA66A128 
 406      4056AB7B 
 406      284016E6 
 406      64964E96 
 407 03b6 75183859 		.ascii	"u\0308Y\024\037\037\253\322_\022\353\346\263\321\363"
 407      141F1FAB 
 407      D25F12EB 
 407      E6B3D1F3 
 408 03c6 C3BD5525 		.ascii	"\303\275U%\026\331{#\000\247\003\224\177\241+\241\306"
 408      16D97B23 
 408      00A70394 
 408      7FA12BA1 
 408      C6
 409 03d7 C88E639D 		.ascii	"\310\216c\235.\251\3617\300\031\210\325A\215\254\024"
 409      2EA9F137 
 409      C01988D5 
 409      418DAC14 
 410 03e7 B0024ABC 		.ascii	"\260\002J\274\035]\323\302W@\224\037;\236A\023V\000"
 410      1D5DD3C2 
 410      5740941F 
 410      3B9E4113 
 410      5600
 411 03f9 3A73F339 		.ascii	":s\3639b\235\353\341S\004\200\211\035Q9\033\204\245"
 411      629DEBE1 
 411      53048089 
 411      1D51391B 
 411      84A5
 412 040b 2836C020 		.ascii	"(6\300 X\251\367\015#\243\207\001/\035\014\377\273\001"
 412      58A9F70D 
 412      23A38701 
 412      2F1D0CFF 
 412      BB01
 413 041d CE8A2831 		.ascii	"\316\212(1\232\334\\e\362\200\023\305\315%G%\327\374"
 413      9ADC5C65 
 413      F28013C5 
 413      CD254725 
 413      D7FC
 414 042f 6F850E6D 		.ascii	"o\205\016m\324\025\363\032\3756\323\013\342\310\022"
 414      D415F31A 
 414      FD36D30B 
 414      E2C812
 415 043e 9F5E6194 		.ascii	"\237^a\224\347x\021F\034\353\005\023\011&\015\272\005"
 415      E7781146 
 415      1CEB0513 
 415      09260DBA 
 415      05
 416 044f 83C6BBD3 		.ascii	"\203\306\273\323\273z\357\031\345\343\037\000\264\002"
 416      BB7AEF19 
 416      E5E31F00 
 416      B402
 417 045d 668DFEA7 		.ascii	"f\215\376\247m\250\370v\217>\2618\234%\251x\225H\361"
 417      6DA8F876 
 417      8F3EB138 
 417      9C25A978 
 417      9548F1
 418 0470 983F4FBA 		.ascii	"\230?O\272J\3008Q\267\340n\3619\263\324\035\005h\303"
 418      4AC03851 
ARM GAS  C:\Users\JEFFSN~1\AppData\Local\Temp\ccznaSP4.s 			page 33


 418      B7E06EF1 
 418      39B3D41D 
 418      0568C3
 419 0483 FC758342 		.ascii	"\374u\203B\032\362)\011\322\252a=\227V\211\0300A\006"
 419      1AF22909 
 419      D2AA613D 
 419      97568918 
 419      304106
 420 0496 B5C4EB13 		.ascii	"\265\304\353\023eu\373\312\017\202TK\212\240o\316\005"
 420      6575FBCA 
 420      0F82544B 
 420      8AA06FCE 
 420      05
 421 04a7 CBFBFC78 		.ascii	"\313\373\374xy\013\224y\010$\247\255\257\374\254\216"
 421      790B9479 
 421      0824A7AD 
 421      AFFCAC8E 
 422 04b7 9C1C41E3 		.ascii	"\234\034A\343\264\007\221;B\220S\020Ho\034qN\215\240"
 422      B407913B 
 422      42905310 
 422      486F1C71 
 422      4E8DA0
 423 04ca 712E4CD2 		.ascii	"q.L\3228[\200:\347\242\350\234\2240\235\323&:\2473\330"
 423      385B803A 
 423      E7A2E89C 
 423      94309DD3 
 423      263AA733 
 424 04df 3997029D 		.ascii	"9\227\002\235sS\017j>\306\241w\2168/@\321\370\230\333"
 424      73530F6A 
 424      3EC6A177 
 424      8E382F40 
 424      D1F898DB 
 425 04f3 D358309E 		.ascii	"\323X0\236\226\005\2040\010\350i\251\011\227\004\347"
 425      96058430 
 425      08E869A9 
 425      099704E7 
 426 0503 88FF16D6 		.ascii	"\210\377\026\326\250\352\346V:':\213\266\030\261L\315"
 426      A8EAE656 
 426      3A273A8B 
 426      B618B14C 
 426      CD
 427 0514 AC3D5A8C 		.ascii	"\254=Z\214\301\212\325\341\313I\237\202\227\365)(Xl"
 427      C18AD5E1 
 427      CB499F82 
 427      97F52928 
 427      586C
 428 0526 2AAFD7B3 		.ascii	"*\257\327\263\2620\002\026\257\004s}5$\327\213\020H"
 428      B2300216 
 428      AF04737D 
 428      3524D78B 
 428      1048
 429 0538 B2D8547E 		.ascii	"\262\330T~AGN\213\200\305\277\202\310\327B\220\323\021"
 429      41474E8B 
 429      80C5BF82 
 429      C8D74290 
 429      D311
 430 054a 68228B19 		.ascii	"h\"\213\031\021\260\3305\011\213e\202\305\353\202\305"
ARM GAS  C:\Users\JEFFSN~1\AppData\Local\Temp\ccznaSP4.s 			page 34


 430      11B0D835 
 430      098B6582 
 430      C5EB82C5 
 431 055a F4302C5E 		.ascii	"\3640,^\024,\336\010\262\330\035`qD\017j1\3061\221\305"
 431      142CDE08 
 431      B2D81D60 
 431      71440F6A 
 431      31C63191 
 432 056f 4C148DB3 		.ascii	"L\024\215\263\330\323xt<-\231\372\254\262\260\257\233"
 432      D8D37874 
 432      3C2D99FA 
 432      ACB2B0AF 
 432      9B
 433 0580 1917F73B 		.ascii	"\031\027\367;}[\014z\177\242\343\272m\033w[es*\320\243"
 433      7D5B0C7A 
 433      7FA2E3BA 
 433      6D1B775B 
 433      65732AD0 
 434 0595 CFB6078A 		.ascii	"\317\266\007\212\223\265\235b0\240XiD\311\271SMm\250"
 434      93B59D62 
 434      30A05869 
 434      44C9B953 
 434      4D6DA8
 435 05a8 908FCBEE 		.ascii	"\220\217\313\356J\337Q\035\203~`W\366\327\016;\010C"
 435      4ADF511D 
 435      837E6057 
 435      F6D70E3B 
 435      0843
 436 05ba C59F2F37 		.ascii	"\305\237/7%\306 \320MMIS\265\216\016p\013b\315M\337"
 436      25C620D0 
 436      4D4D4953 
 436      B58E0E70 
 436      0B62CD4D 
 437 05cf 1427D394 		.ascii	"\024'\323\224\263\\\035\372\034\303\262\261\353\300"
 437      B35C1DFA 
 437      1CC3B2B1 
 437      EBC0
 438 05dd C5DB1E7F 		.ascii	"\305\333\036\177\271\335&\021\227\310f\017\016\254,"
 438      B9DD2611 
 438      97C8660F 
 438      0EAC2C
 439 05ec 31B096FC 		.ascii	"1\260\226\374\357\300\272-\007\326\367]wo;\245\313!"
 439      EFC0BA2D 
 439      07D6F75D 
 439      776F3BA5 
 439      CB21
 440 05fe 803B349A 		.ascii	"\200;4\232\262\304(\012\216]\273\376#,\360&\316\372"
 440      B2C4280A 
 440      8E5DBBFE 
 440      232CF026 
 440      CEFA
 441 0610 F017D9B6 		.ascii	"\360\027\331\266\036\257\"g>\027\341s|\233U\004\255"
 441      1EAF2267 
 441      3E17E173 
 441      7C9B5504 
 441      AD
 442 0621 5E2D2B8E 		.ascii	"^-+\216\241\240\215\0304Jm\200\011\002\004A\257\317"
ARM GAS  C:\Users\JEFFSN~1\AppData\Local\Temp\ccznaSP4.s 			page 35


 442      A1A08D18 
 442      344A6D80 
 442      09020441 
 442      AFCF
 443 0633 BC9AF361 		.ascii	"\274\232\363aN\336\252u9kV._\373q^v\316\212\327\227"
 443      4EDEAA75 
 443      396B562E 
 443      5FFB715E 
 443      76CE8AD7 
 444 0648 AF7D396B 		.ascii	"\257}9k\305\233\313\227\255\374 wM\356\242l\246\344"
 444      C59BCB97 
 444      ADFC2077 
 444      4DEEA26C 
 444      A6E4
 445 065a 669B68FB 		.ascii	"f\233h\373\332G\357\031\262W\255~?\307\234\227\263\356"
 445      DA47EF19 
 445      B257AD7E 
 445      3FC79C97 
 445      B3EE
 446 066c 95BCBCB5 		.ascii	"\225\274\274\265y<w\315\247\377\002\367\336$\342"
 446      793C77CD 
 446      A7FF02F7 
 446      DE24E2
 447              		.text
 448              		.section	.gnu.lto_.symbol_nodes.1c050a9d,"",%progbits
 449 0000 789C558D 		.ascii	"x\234U\215=n\302@\020F\277\331\331\037\333\030\203S"
 449      3D6EC240 
 449      1046BFD9 
 449      D91FDB18 
 449      8353
 450 0012 5340C701 		.ascii	"S@\307\001r\216\034\205+\214#\001\015MN\220\002\271"
 450      728E1C85 
 450      2B8C2301 
 450      0D4D4E90 
 450      02B9
 451 0024 4A9F320D 		.ascii	"J\2372\015B !\344t\251\023\344\\\203\304k\032\246zz"
 451      422021E4 
 451      74A913E4 
 451      5C83C46B 
 451      1AA67A7A 
 452 0038 6F76662D 		.ascii	"ovf-\010\013\002`\234\000/\015\320\341\255\232\001\016"
 452      080B0260 
 452      9C002F0D 
 452      D0E1AD9A 
 452      010E
 453 004a 583D7403 		.ascii	"X=t\003Gt\2431\317=\231onm\357\306\013\251E\023\304"
 453      4774A331 
 453      CF3D996F 
 453      6E6DEFC6 
 453      0BA94513 
 454 005f E89008EB 		.ascii	"\350\220\010\353\220\211\325!\025\247?/\335\264\273"
 454      9089D521 
 454      15A73F2F 
 454      DDB4BB
 455 006e 4D43F17D 		.ascii	"MC\361}\007\252\252\013\224KP>\220D\371XR\345#\311\224"
 455      07AAAA0B 
 455      944B503E 
ARM GAS  C:\Users\JEFFSN~1\AppData\Local\Temp\ccznaSP4.s 			page 36


 455      9044F958 
 455      52E523C9 
 456 0083 1732B877 		.ascii	"\0272\270wF\201\366\373J\214!\352\237\310\034m\244/"
 456      4681F6FB 
 456      4A8C21EA 
 456      9FC81C6D 
 456      A42F
 457 0095 B18FDD8F 		.ascii	"\261\217\335\217Q\177L\330\217P\237\216s\3669\226\315"
 457      517F4CD8 
 457      8F509F8E 
 457      73F63996 
 457      CD
 458 00a6 91399458 		.ascii	"\2219\224X\276?r(P\037\032\342$`\033_g\001\273\365\257"
 458      BE3F7228 
 458      501F1AE2 
 458      24601B5F 
 458      6701BBF5 
 459 00bb E52CC576 		.ascii	"\345,\305v\363G\221\273\317v\343\342\340\362u~\352\303"
 459      F34791BB 
 459      CF76E3E2 
 459      E0F2757E 
 459      EAC3
 460 00cd EBD5E01F 		.ascii	"\353\325\340\037\360'Q\021"
 460      F0275111 
 461              		.text
 462              		.section	.gnu.lto_.refs.1c050a9d,"",%progbits
 463 0000 789C15D0 		.ascii	"x\234\025\320\377G\235a\034\306\361\353\272\357\347"
 463      FF479D61 
 463      1CC6F1EB 
 463      BAEFE7
 464 000f 798ECE73 		.ascii	"y\216\316s\216\216M\3374\375\320\234\226\244/b\031\243"
 464      8E8E4DDF 
 464      34FDD09C 
 464      96A42F62 
 464      19A3
 465 0021 BFAD94A6 		.ascii	"\277\255\224\246\2242\2614\313\246l\226\375\015%Q6\313"
 465      9432B134 
 465      CBA66C96 
 465      FD0D2551 
 465      36CB
 466 0033 B214258A 		.ascii	"\262\024%\212RJ)\315&\243\366\336/\367\313\233\0177"
 466      524A29CD 
 466      26A3F6DE 
 466      2FF7CB9B 
 466      0F37
 467 0045 57226BD9 		.ascii	"W\"k\331R&\333\012!\304\250$\011i\252$K3%\246\224\346"
 467      5226DB0A 
 467      21C4A824 
 467      0969AA24 
 467      4B3325A6 
 468 005b 21AD2869 		.ascii	"!\255(iH\012\372\177\024\0258/\034\252F\316\034y\213"
 468      480AFA7F 
 468      1415382F 
 468      1CAA46CE 
 468      1C798B
 469 006e 76492E3B 		.ascii	"vI.;\326\312\025\373\221\374\330\261N\256\267\033\345"
 469      D6CA15FB 
ARM GAS  C:\Users\JEFFSN~1\AppData\Local\Temp\ccznaSP4.s 			page 37


 469      91FCD8B1 
 469      4EAEB71B 
 469      E5
 470 007f 26C766F9 		.ascii	"&\307f\371\211\335\"\267:V\3456\273]\356p\354\222\273"
 470      89DD22B7 
 470      3A56E536 
 470      BB5DEE70 
 470      EC92BB
 471 0092 ED5EB9CF 		.ascii	"\355^\271\317\361\271\334o\277\220_:\016\310+\374\265"
 471      F1B9DC6F 
 471      BF905F3A 
 471      0EC82BFC 
 471      B5
 472 00a3 2A794D8E 		.ascii	"*yM\216\353\270A\177\305o\364w\334\244\177\340\026\375"
 472      EBB8417F 
 472      C56FF477 
 472      DCA47FE0 
 472      16FD
 473 00b5 13B7E91D 		.ascii	"\023\267\351\035\334\245\367p\237>\300#\372\030O\350"
 473      DCA5F770 
 473      9F3EC023 
 473      FA184FE8 
 474 00c5 533CA3CF 		.ascii	"S<\243\317\361\202\276\304+\372\032o\350[\374E\377\306"
 474      F182BEC4 
 474      2BFA1A6F 
 474      E85BFC45 
 474      FFC6
 475 00d7 3FF41DFE 		.ascii	"?\364\035\376\245\357\361\201\036\264<d\307a\034a\260"
 475      A5EFF181 
 475      1EB43C64 
 475      C7611C61 
 475      B0
 476 00e8 517C458F 		.ascii	"Q|E\217\3418=\201\223\364\024N\323\257q\206~\203\263"
 476      E1383D81 
 476      93F4144E 
 476      D3AF7186 
 476      7E83B3
 477 00fb F41CBEA5 		.ascii	"\364\034\276\245\337\341<\375\036?\320\013\270H\177"
 477      DFE13CFD 
 477      1E3FD00B 
 477      B8487F
 478 010a C44FF467 		.ascii	"\304O\364g\\\242\277\270T\224\203B\242\234\311s\205"
 478      5CA2BFB8 
 478      54948342 
 478      A29CC973 
 478      85
 479 011b B272367E 		.ascii	"\262r6~\252PU\376L\356T\350R\336\243\177e\0169\356"
 479      AA5055FE 
 479      4CEE54E8 
 479      52DEA37F 
 479      650E39EE 
 480              		.text
 481              		.section	.gnu.lto_.decls.1c050a9d,"",%progbits
 482 0000 789C9D57 		.ascii	"x\234\235WkP\024\331\025\356\333=\214\3030\200\213\306"
 482      6B5014D9 
 482      15EEDB3D 
 482      8CC33080 
ARM GAS  C:\Users\JEFFSN~1\AppData\Local\Temp\ccznaSP4.s 			page 38


 482      8BC6
 483 0012 B2B648C5 		.ascii	"\262\266H\305\365A\310\313G\2666\225\037\251\312\226"
 483      F541C8CB 
 483      47B63695 
 483      1FA9CA96 
 484 0022 86B85474 		.ascii	"\206\270Tta\343#\177\266\202\010\343J\342\002\205\203"
 484      61E3237F 
 484      B68208E3 
 484      4AE20285 
 484      83
 485 0033 D6A6F2A3 		.ascii	"\326\246\362\243\221\227\022E\300\007\010\270\210\240"
 485      91971245 
 485      C00708B8 
 485      88A0
 486 0041 3C15045D 		.ascii	"<\025\004]E\020\007Q\320\301\007\202\"\017\201\221\207"
 486      45100751 
 486      D0C10782 
 486      220F8191 
 486      87
 487 0052 48041C04 		.ascii	"H\004\034\004EA \347>z\272\007\231\335\255t\325\341"
 487      454120E7 
 487      3E7ABA07 
 487      99DDAD74 
 487      D5E1
 488 0064 CEB9FDDD 		.ascii	"\316\271\375\335\357|\347\334\323\267\033\025\2078|"
 488      EF7CE7DC 
 488      D3B71B15 
 488      87387C
 489 0073 6D71E3B8 		.ascii	"mq\343\270M<\307Y\300\246\341\232\003s\2339\371\322"
 489      4D3CC759 
 489      C0A6E19A 
 489      03739B39 
 489      F9D2
 490 0085 819D012B 		.ascii	"\201\235\001+\002;\007V\012V\005V\013V\007\326\002\326"
 490      023B0756 
 490      0A560556 
 490      0B5607D6 
 490      02D6
 491 0097 09D603F6 		.ascii	"\011\326\003\366\014l\000L\015\366\002l\030\354\015"
 491      0C6C004C 
 491      0DF6026C 
 491      18EC0D
 492 00a6 D838D83B 		.ascii	"\3308\330;\260\217\020gsa^g\026\317\035l1\334\037\202"
 492      B08F1067 
 492      73615E67 
 492      16CF1D6C 
 492      31DC1F82 
 493 00ba 71098C4B 		.ascii	"q\011\214K\301\306\340w\003X\007\3302\360\233a\364\200"
 493      C1C6E077 
 493      035807D8 
 493      32F09B61 
 493      F480
 494 00cc D1C4D6AB 		.ascii	"\321\304\326\253\030G'\323\201\3658\330\211\255\274"
 494      184727D3 
 494      81F538D8 
 494      89ADBC
 495 00db 702EF358 		.ascii	"p.\363X\3342\026\333\003\314\027\314\007\354\241B\313"
ARM GAS  C:\Users\JEFFSN~1\AppData\Local\Temp\ccznaSP4.s 			page 39


 495      DC3216DB 
 495      03CC17CC 
 495      07ECA142 
 495      CB
 496 00ec CF617C0E 		.ascii	"\317a|\016\243'\214}\234\254\353\0270v\317\320\343\300"
 496      A3278C7D 
 496      9CACEB17 
 496      3076CFD0 
 496      E3C0
 497 00fe B807582D 		.ascii	"\270\007X-z\230&\336\216\016\\O\255\"\177\217Y\342\342"
 497      7A9826DE 
 497      8E0E5C4F 
 497      AD227F8F 
 497      59E2E2
 498 0111 5A5C6135 		.ascii	"Z\\a5\300\227\300\326\015\260\274yE\276\312\253\224"
 498      C097C0D6 
 498      0DB0BC79 
 498      45BECAAB 
 498      94
 499 0122 6131F72F 		.ascii	"a1\367/\201\243\220\315\363\354\3369\356\375\013\357"
 499      81A390CD 
 499      F3ECDE39 
 499      EEFD0BEF 
 500 0132 ABB41FB8 		.ascii	"\253\264\037\270.\320\032\334|\216\306wg\365\251Ph\224"
 500      2ED01ADC 
 500      7C8EC677 
 500      67F5A950 
 500      6894
 501 0144 6AE1C3D6 		.ascii	"j\341\303\326#\306!\355?\256\377\257`\362\327`\277\001"
 501      23C621ED 
 501      3FAEFFAF 
 501      60F2D760 
 501      BF01
 502 0156 5B3E63FF 		.ascii	"[>c\377kY\214\331b\371\260x\312\232\254\200q\021\330"
 502      6B598CD9 
 502      62F9B078 
 502      CA9AAC80 
 502      7111D8
 503 0169 CFC05622 		.ascii	"\317\300V\"9\257U0\032Y\374\017\020\315\273\226\345"
 503      39AF5530 
 503      1A59FC0F 
 503      10CDBB96 
 503      E5
 504 017a 58C5EA20 		.ascii	"X\305\352 \325hf\017N\362(\275\352\333j\2076\324\202"
 504      D568660F 
 504      4EF228BD 
 504      EADB6A87 
 504      36D482
 505 018d 1087C8C5 		.ascii	"\020\207\310\305\261g\203\3033l\304?\020ux)W$\201\244"
 505      B16783C3 
 505      336CC43F 
 505      10757829 
 505      572481A4 
 506 01a1 F4091C71 		.ascii	"\364\011\034q<\301[\347%\2345\346\264t\311S\310zIHd"
 506      3CC15BE7 
 506      259C35E6 
 506      B474C953 
ARM GAS  C:\Users\JEFFSN~1\AppData\Local\Temp\ccznaSP4.s 			page 40


 506      C87A4948 
 507 01b6 4B8A5965 		.ascii	"K\212Ye\027|^^\240\340c\352Y|\244\014K\250\005)\351"
 507      177C5E5E 
 507      A0E063EA 
 507      597CA40C 
 507      4BA80529 
 508 01cb 47357BBA 		.ascii	"G5{\2724\002p\302\357\316\267\271\177^^(\302\225 \212"
 508      340270C2 
 508      EFCEB7B9 
 508      7F5E5E28 
 508      C295208A 
 509 01df BCA75C99 		.ascii	"\274\247\\\231\373Q\305\351\302(\217\334\264H\005\356"
 509      FB51C5E9 
 509      C2288FDC 
 509      B44805EE 
 510 01ef F09DD46E 		.ascii	"\360\235\324n\027p\347k\321\"p'o\245\245\362\013\217"
 510      1770E76B 
 510      D1227027 
 510      6FA5A5F2 
 510      0B8F
 511 0201 927591E2 		.ascii	"\222u\221\342\"\025\332\274\000\025 w\224\217`\003Q"
 511      2215DABC 
 511      00152077 
 511      948F6003 
 511      51
 512 0212 215A087F 		.ascii	"!Z\010\177\267\252(S\305\203\254z~\361\011\361D\261"
 512      B7AA2853 
 512      C583AC7A 
 512      7EF109F1 
 512      44B1
 513 0224 681EA958 		.ascii	"h\036\251Xp4R\274\011\313\026a\024\312E\002\312C\313"
 513      703452BC 
 513      09CB1661 
 513      14CA4502 
 513      CA43CB
 514 0237 B144F889 		.ascii	"\261D\370\211\207\034\324\006\342\317\240\305\260\262"
 514      871CD406 
 514      E2CFA0C5 
 514      B0B2
 515 0245 FCB81829 		.ascii	"\374\270\030)\010\177\240B\207'\356\011\224\3058\021"
 515      087FA042 
 515      8727EE09 
 515      94C53811 
 516 0255 EF7C4C34 		.ascii	"\357|L4F\001\013OX\316\312,g\225,E\204\345Pls\254N\370"
 516      46010B4F 
 516      58CECA2C 
 516      67952C45 
 516      84E5506C 
 517 026d 82B0D49D 		.ascii	"\202\260\324\235\356\372\011\220\230\201\244\242I'&"
 517      EEFA0990 
 517      9881A4A2 
 517      492726
 518 027c 4488E2A7 		.ascii	"D\210\342\247\204\242X\246(VR\234#\024\035\342\225\313"
 518      84A258A6 
 518      2856529C 
 518      23141DE2 
 518      95CB
ARM GAS  C:\Users\JEFFSN~1\AppData\Local\Temp\ccznaSP4.s 			page 41


 519 028e 7384ED84 		.ascii	"s\204\355\204\242\273\262\363\023\246c\352\221\222\242"
 519      A2BBB2F3 
 519      13A663EA 
 519      9192A2
 520 029d 44A62851 		.ascii	"D\246(QR\224\022\212\314\370\272\014\265\360oBQ\024"
 520      5294128A 
 520      CCF8BA0C 
 520      B5F06F42 
 520      5114
 521 02af DD93A781 		.ascii	"\335\223\247\201b\272k\3214\302\376@\331[g\352\343\333"
 521      62BA6BD1 
 521      34C2FE40 
 521      D95B67EA 
 521      E3DB
 522 02c1 C712BBA7 		.ascii	"\307\022\273\247\234\204\004\204\035\276\261\273\240"
 522      9C840484 
 522      1DBEB1BB 
 522      A0
 523 02ce 5F853CB5 		.ascii	"_\205<\265\247q\255\315\355\246\035\311\2618\3552\244"
 523      A771ADCD 
 523      EDA61DC9 
 523      B138ED32 
 523      A4
 524 02df 4517E580 		.ascii	"E\027\345\200\356\370,\331+\212{D\313IQ\275\220C\037"
 524      EEF82CD9 
 524      2B8A7B44 
 524      CB4951BD 
 524      90431F
 525 02f2 BBA395EE 		.ascii	"\273\243\225\356\034\272\204<1+F\241\357`\177.\300\376"
 525      1CBA843C 
 525      312B46A1 
 525      EF607F2E 
 525      C0FE
 526 0304 4084DEE4 		.ascii	"@\204\336\344\214\347j\02543\341\201\215\202\2717\025"
 526      8CE76A15 
 526      3433E181 
 526      8D82B937 
 526      15
 527 0315 C75B79EB 		.ascii	"\307[y\353\334eD&-y\323\243\256ZF\234\360\303\304\337"
 527      DC654426 
 527      2D79D3A3 
 527      AE5A469C 
 527      F0C3C4DF 
 528 0329 9DECBFEE 		.ascii	"\235\354\277\356\240\213\303x\350\013\267\317P\005p"
 528      A08BC378 
 528      E80BB7CF 
 528      500570
 529 0338 C98D7105 		.ascii	"\311\215q\005\351X{M^\315Kp$\321`\016\225\323h\243u"
 529      E9587B4D 
 529      5ECD4B70 
 529      24D1600E 
 529      95D368A3 
 530 034d 8D392E56 		.ascii	"\2159.V\011\225t2\343\316\223\021G\273\255f$\255v\025"
 530      09957432 
 530      E3CE9311 
 530      47BBAD66 
 530      24AD7615 
ARM GAS  C:\Users\JEFFSN~1\AppData\Local\Temp\ccznaSP4.s 			page 42


 531 0361 B15EEB6C 		.ascii	"\261^\353l\231.S\323\0156\217\014\254\313\314\212\241"
 531      992E53D3 
 531      0D368F0C 
 531      ACCBCC8A 
 531      A1
 532 0372 1B4480E8 		.ascii	"\033D\200\350\274\\\260\363\312\035\252\";T{$\275U'"
 532      BC5CB0F3 
 532      CA1DAA22 
 532      3B547B24 
 532      BD5527
 533 0385 5C22659F 		.ascii	"\\\"e\237\265B\255u\027[x\253\346j*\357\356\204\230"
 533      B542AD75 
 533      175B78AB 
 533      E66A2AEF 
 533      EE8498
 534 0398 2D6BBE4E 		.ascii	"-k\276N'\213\212J\2324J\315e6e\250!\242oH\242'\372\352"
 534      278B8A4A 
 534      9A344ACD 
 534      653665A8 
 534      21A26F48 
 535 03b0 4C526BBF 		.ascii	"LRk\277\352\220[\033`\350\232,\371\232Rr-\221l1u\265"
 535      EA905B1B 
 535      60E89A2C 
 535      F99A5272 
 535      2D916C31 
 536 03c6 A9845BF6 		.ascii	"\251\204[\366%\027^~<\240\266[<\023\321qK\322\221\335"
 536      25175E7E 
 536      3CA0B65B 
 536      3C13D171 
 536      4BD291DD 
 537 03da FF6A4A87 		.ascii	"\377jJ\207\213\007\2156\022\277;*+\306\230\200\010\012"
 537      8B078D36 
 537      12BF3B2A 
 537      2BC69880 
 537      080A
 538 03ec DD9465DC 		.ascii	"\335\224e\334D\364 AuDBbUm\256\2130F%\234\032\237\260"
 538      44F42041 
 538      75444262 
 538      556DAE8B 
 538      3046259C 
 539 0403 E043C303 		.ascii	"\340C\303\003\032{ZPt\266\007\355\354\334\314\232R\255"
 539      1A7B5A50 
 539      74B607ED 
 539      ECDCCC9A 
 539      52AD
 540 0415 104D8F9E 		.ascii	"\020M\217\236\033\323cFWz\302\360\3406Xn\037w\242'\314"
 540      1BD36346 
 540      577AC2F0 
 540      E036586E 
 540      1F77A227 
 541 042a 5CE8FBA1 		.ascii	"\\\350\373\241\363\265\315\316H\353IzO\214\024\265\236"
 541      F3B5CDCE 
 541      48EB497A 
 541      4F8C14B5 
 541      9E
 542 043b 1CBA0FCA 		.ascii	"\034\272\017\312\353A9j\204\356\363`\335w\027&\357\300"
 542      EB41396A 
ARM GAS  C:\Users\JEFFSN~1\AppData\Local\Temp\ccznaSP4.s 			page 43


 542      84EEF360 
 542      DD771726 
 542      EFC0
 543 044d 247B40E2 		.ascii	"${@\342\276\246\017H\003\324\340\236\254\332CKsL\311"
 543      BEA60F48 
 543      03D4E09E 
 543      ACDA434B 
 543      734CC9
 544 0460 3AE8496A 		.ascii	":\350Ij\324`\255QDZf\222\253\262gm7\353\241\265gK\017"
 544      D460AD51 
 544      445A6692 
 544      ABB2676D 
 544      37EBA1B5 
 545 0477 544E68C9 		.ascii	"TNh\311b\230C\017\350VO\031o\367k\254Uo\242\223}\005"
 545      6298430F 
 545      E8564F19 
 545      6FF76BAC 
 545      556FA293 
 546 048d 0DD182B2 		.ascii	"\015\321\202\262\354\0156\224\315\244\356\217\244\272"
 546      EC0D3694 
 546      CDA4EE8F 
 546      A4BA
 547 049b F75CEABE 		.ascii	"\367\\\352\276\204\254u\337%\325\035P\350\266\234\301"
 547      84AC75DF 
 547      25D51D50 
 547      E8B69CC1 
 548 04ab 6DA9EE2D 		.ascii	"m\251\356-\244\3561\331C\025Za?-\345,YU\032\2575\273"
 548      A4EE31D9 
 548      43155A61 
 548      3F2DE52C 
 548      59551AAF 
 549 04c1 5A9BB58D 		.ascii	"Z\233\265\215\352:\021yr\257\312*\3661\235l\317\037"
 549      EA3A1179 
 549      72AFCA2A 
 549      F6319D6C 
 549      CF1F
 550 04d3 3EEE64B7 		.ascii	">\356d\267G:\210\326vIk\314\301\256a\201j5>h\324\201"
 550      473A88D6 
 550      76496BCC 
 550      C1AE6181 
 550      6A353E68 
 551 04e9 508C40AD 		.ascii	"P\214@\255\262\316VIg'\321\231\325g<\254\022\216Q\235"
 551      B2CE5649 
 551      6727D199 
 551      D5673CAC 
 551      128E519D 
 552 04fd 53679A2D 		.ascii	"Sg\232-:k\005\251\320\034\313D\263\334\266O\250\246"
 552      3A6B05A9 
 552      D01CCB44 
 552      B3DCB64F 
 552      A8A6
 553 050f 2705077B 		.ascii	"'\005\007{\235\355j\352&\232\272$M\203\371\275#L\223"
 553      9DED6AEA 
 553      269ABA24 
 553      4D83F9BD 
 553      234C93
 554 0522 B9A571F7 		.ascii	"\271\245q\367\223\0221\312\021c\220YVe\226T\365\020"
ARM GAS  C:\Users\JEFFSN~1\AppData\Local\Temp\ccznaSP4.s 			page 44


 554      931231CA 
 554      11639059 
 554      56659654 
 554      F510
 555 0534 55D39593 		.ascii	"U\323\225\223\211s\204G\274\335\007'\245\255+\303\331"
 555      89738447 
 555      BCDD0727 
 555      A5AD2BC3 
 555      D9
 556 0545 FE0EF611 		.ascii	"\376\016\366\021\005O%\005\035\307Z^8H;x\327 \355 \240"
 556      054F2505 
 556      1DC75A5E 
 556      38483B78 
 556      D720ED20 
 557 055a 50AFACA1 		.ascii	"P\257\254\241W\322\360\214hh\357\353\215S\011O\355k"
 557      57D2F08C 
 557      6868EFEB 
 557      8D53094F 
 557      ED6B
 558 056c B890D254 		.ascii	"\270\220\322T\242\262\177\212<'\032\376+i\330;\325Q"
 558      A2B27F8A 
 558      3C271AFE 
 558      2B69D83B 
 558      D551
 559 057e E8C876A6 		.ascii	"\350\310v\246\236\356\014 P\277\034\277_\212?@\342\233"
 559      9EEE0C20 
 559      50BF1CBF 
 559      5F8A3F40 
 559      E29B
 560 0590 C6C7A204 		.ascii	"\306\307\242\004\341\025\215?\0325\322\244\306\007}"
 560      E1158D3F 
 560      1A35D2A4 
 560      C6077D
 561 059f E48F7B83 		.ascii	"\344\217{\203$\337:4\250^\226%fgA\306\347u\227\316\302"
 561      24DF3A34 
 561      A85E9625 
 561      666741C6 
 561      E77597CE 
 562 05b4 4A0D1A02 		.ascii	"J\015\032\002\201\2034 [\317a\037\376\276@\313\360\266"
 562      81833420 
 562      5BCF611F 
 562      FEBE40CB 
 562      F0B6
 563 05c6 26DE8816 		.ascii	"&\336\210\026\204X\201\204L:\334\020\357H)\214\027b"
 563      84588184 
 563      4C3ADC10 
 563      EF48298C 
 563      1762
 564 05d8 16248BC6 		.ascii	"\026$\213\306\010\025a\260\314`\260\020\206a\302\220"
 564      081561B0 
 564      CC60B010 
 564      8661C290 
 565 05e8 3450ED29 		.ascii	"4P\355)\034\245\004\027\207\012.:\323\003\304H4\015"
 565      1CA50417 
 565      870A2E3A 
 565      D303C448 
 565      340D
ARM GAS  C:\Users\JEFFSN~1\AppData\Local\Temp\ccznaSP4.s 			page 45


 566 05fa BEFD901E 		.ascii	"\276\375\220\036 \"\376d\351\212L\022u\364\366\037\301"
 566      2022FE64 
 566      E98A4C12 
 566      75F4F61F 
 566      C1
 567 060b 1D18DDDF 		.ascii	"\035\030\335\337\252\301\031\212\3541wS\026\3635\202"
 567      AAC1198A 
 567      EC317753 
 567      16F33582 
 568 061b 0302AD70 		.ascii	"\003\002\255pG\257h~\323\357R\213\265n\011\354\303\350"
 568      47AF687E 
 568      D3EF528B 
 568      B56E09EC 
 568      C3E8
 569 062d 53446A3F 		.ascii	"SDj?\012\360\021\002\037Cn\322\"\214~ZZS\342\000\251"
 569      0AF01102 
 569      1F436ED2 
 569      228C7E5A 
 569      5A53E200 
 570 0642 984F88C6 		.ascii	"\230O\210\306\2535\316\021$\025\300\240\227,\025y\345"
 570      AB35CE11 
 570      2415C0A0 
 570      972C1579 
 570      E5
 571 0653 4B92CC1B 		.ascii	"K\222\314\033\222\314\253\373\017\306\\\204\034\232"
 571      92CCABFB 
 571      0FC65C84 
 571      1C9A
 572 0661 4D7F65E2 		.ascii	"M\177e\3425'V\216ve9\336\316(\307[\3020N\030&:\352\317"
 572      3527568E 
 572      766539DE 
 572      CE28C75B 
 572      C2304E18 
 573 0679 AB848B94 		.ascii	"\253\204\213\224\341I\177\254\250e*\336*UL\274\247b"
 573      E1497FAC 
 573      A8652ADE 
 573      2A554CBC 
 573      A762
 574 068b 8270BC23 		.ascii	"\202p\274#\034\2259\235\331\202p\213r$F\305\314\247"
 574      1C95399D 
 574      D982708B 
 574      722446C5 
 574      CCA7
 575 069d 351BC0EE 		.ascii	"5\033\300\356XSd\225\226\326\324\254\006?\265|\324\344"
 575      58536495 
 575      96D6D4AC 
 575      063FB57C 
 575      D4E4
 576 06af 40EF6BC0 		.ascii	"@\357k\300\215\315\353}\341h\267\246\021<\253\251\310"
 576      8DCDEB7D 
 576      E168B7A6 
 576      113CABA9 
 576      C8
 577 06c0 939A5A52 		.ascii	"\223\232ZR3\332\325B=\015T~\261\242\306\2012\257\004"
 577      33DAD542 
 577      3D0D547E 
 577      B1A2C681 
ARM GAS  C:\Users\JEFFSN~1\AppData\Local\Temp\ccznaSP4.s 			page 46


 577      32AF04
 578 06d3 F76C4D75 		.ascii	"\367lMu\243\253\320F\357\245\215\264\367;\322{\236\340"
 578      A3ABD046 
 578      EFA58DB4 
 578      F73BD27B 
 578      9EE0
 579 06e5 1ED99FF1 		.ascii	"\036\331\237\361w\341)\275u\270\364L\264\2430H\235\241"
 579      77E129BD 
 579      75B8F44C 
 579      B4A33048 
 579      9DA1
 580 06f7 A85E337B 		.ascii	"\250^3{e,\004\367^\376\303\323*\341%\275\227l\251\034"
 580      652C04F7 
 580      5EFEC3D3 
 580      2AE125BD 
 580      976CA91C 
 581 070b 731426A8 		.ascii	"s\024&\2503p\340\301\270\213\020\255\"NG\332\3656^H"
 581      3370E0C1 
 581      B88B10AD 
 581      224E47DA 
 581      F5365E48 
 582 071f A0CEC4B3 		.ascii	"\240\316\304\263\303-\210&\244\003wOyK\242+\313\227"
 582      C32D8826 
 582      A403774F 
 582      794BA22B 
 582      CB97
 583 0731 7C4FC41F 		.ascii	"|O\304\037\257v\026\222\011\326)\276\274\353\267h\336"
 583      AF761692 
 583      09D629BE 
 583      BCEBB768 
 583      DE
 584 0742 527A792E 		.ascii	"Rzy.]\232\310\272C\204\177\013P<\357\216\016\3608\355"
 584      5D9AC8BA 
 584      43847F0B 
 584      503CEF8E 
 584      0EF038ED 
 585 0756 047E1EA9 		.ascii	"\004~\036\251v\012\357\211\216\360KQ2X*\3301\260C`I"
 585      760AEF89 
 585      8EF04B51 
 585      32582AD8 
 585      31B04360 
 586 076b 6047C112 		.ascii	"`G\301\022\301\016\363K\311#y\022\277}\340\360\377\333"
 586      C10EF34B 
 586      C9237912 
 586      BF7DE0F0 
 586      FFDB
 587 077d B5C818B1 		.ascii	"\265\310\030\261~\0139m\366\360\002\341\262\276\365"
 587      7E0B396D 
 587      F6F002E1 
 587      B2BEF5
 588 078c 4442BFCA 		.ascii	"DB\277\312]\302\033\233MNb\361\026\322\2321\014\314"
 588      5DC21B9B 
 588      4D4E62F1 
 588      16D29A31 
 588      0CCC
 589 079e 9EDA1518 		.ascii	"\236\332\025\030\031\315\313\320&\031\032;\013\264\000"
 589      19CDCBD0 
ARM GAS  C:\Users\JEFFSN~1\AppData\Local\Temp\ccznaSP4.s 			page 47


 589      26191A3B 
 589      0BB400
 590 07ad C9D00E19 		.ascii	"\311\320\016\031z\320\026J\005\334W`+e\354\376Yh\025"
 590      7AD0164A 
 590      05DC5760 
 590      2B65ECFE 
 590      596815
 591 07c0 5A5BE374 		.ascii	"Z[\343tRbQ3\023#\330H\205\332z\231"
 591      52625133 
 591      1323D848 
 591      85DA7A99 
 592 07d0 F63FB3D0 		.ascii	"\366?\263\320~\214\221\344}o,7\351DQ\203\021\034;\346"
 592      7E8C91E4 
 592      7D6F2C37 
 592      E9445183 
 592      111C3BE6 
 593 07e4 ACE5343E 		.ascii	"\254\3454>\214s\301O\221@x\366\315\302\263W\021\262"
 593      8C73C14F 
 593      914078F6 
 593      CDC2B357 
 593      11B2
 594 07f6 410E1937 		.ascii	"A\016\0317\013\224&\015\035\021\337\337\227\245\023"
 594      0B94260D 
 594      1D11DFDF 
 594      97A513
 595 0805 324947F0 		.ascii	"2IG\360\261\031\327\243\0044\317s\326N@\307\241\001"
 595      B119D7A3 
 595      0434CF73 
 595      D64E40C7 
 595      A101
 596 0817 FE9F66A0 		.ascii	"\376\237f\240\231\015\233\020\316,\035\010\322x\353"
 596      990D9B10 
 596      CE2C1D08 
 596      D278EB
 597 0826 198E1325 		.ascii	"\031\216\023%:\032\323\233\212y\371\200\342\011p\032"
 597      3A1AD39B 
 597      8A79F980 
 597      E209701A 
 598 0836 2A3A459E 		.ascii	"*:E\236\275oy7\351\011$OTO\322A\355<\220\031\361\275"
 598      BD6F7937 
 598      E909244F 
 598      544FD241 
 598      ED3C9019 
 599 084c 32B91FAD 		.ascii	"2\271\037\255\021\037\305\327\363\252]\224\0122\276"
 599      111FC5D7 
 599      F3AA5D94 
 599      0A32BE
 600 085b 4F414A45 		.ascii	"OAJE\231Y\003\207SO\004\274\244\273?\313H\211\026\367"
 600      99590387 
 600      534F04BC 
 600      A4BB3FCB 
 600      488916F7 
 601 086f C6CD4527 		.ascii	"\306\315E'x74\311\216'y\355$9\2362y|<\245\0349=\356"
 601      783734C9 
 601      8E2779ED 
 601      24399E32 
 601      797C3CA5 
ARM GAS  C:\Users\JEFFSN~1\AppData\Local\Temp\ccznaSP4.s 			page 48


 602 0887 A2FC3C1B 		.ascii	"\242\374<\033\262y\013\236\344\311\347\031\036\361k"
 602      B2790B9E 
 602      E4C9E719 
 602      1EF16B
 603 0896 2C2E6D9C 		.ascii	",.m\234W\202\361\307\211\014\316b\340,\002>\327\273"
 603      5782F1C7 
 603      890CCE62 
 603      E02C023E 
 603      D7BB
 604 08a8 2741A504 		.ascii	"'A\245\004\343\263R\006g3p6\001\247\345\326G\332\200"
 604      E3B35206 
 604      67337036 
 604      01A7E5D6 
 604      47DA80
 605 08bb 9B6D984F 		.ascii	"\233m\230O1\360)\002\266T\335\254\266\371\2444\331\200"
 605      31F02902 
 605      B654DDAC 
 605      B6F9A434 
 605      D980
 606 08cd 4F33F069 		.ascii	"O3\360i\002.3_MuV\202\237\333\200s\0308\207\200;\366"
 606      022E335F 
 606      4D755682 
 606      9FDB8073 
 606      18388780 
 607 08e3 996FA995 		.ascii	"\231o\251\225\340>\033p.\003\347\022p\313\324\276l\255"
 607      E03E1B70 
 607      2E03E712 
 607      70CBD4BE 
 607      6CAD
 608 08f5 12DC6D03 		.ascii	"\022\334m\003\316c\340<\002NmI\257\323(\301\2056\340"
 608      CE63E03C 
 608      024E6D49 
 608      AFD328C1 
 608      8536E0
 609 0908 7C5E27F5 		.ascii	"|^'\365`>\301\327\275\216~\355\262$\223n\177\0344\324"
 609      603EC1D7 
 609      BD8E7EED 
 609      B224936E 
 609      7F1C34D4 
 610 091c E605E43F 		.ascii	"\346\005\344?)\372\211Q\300/\301\257\226\316,\263\216"
 610      29FA8951 
 610      C02FC1AF 
 610      96CE2CB3 
 610      8E
 611 092d 62CC233D 		.ascii	"b\314#=\033\023\243\001h\213+$\270G\026\323c\015\305"
 611      1B13A301 
 611      688B2B24 
 611      B84716D3 
 611      630DC5
 612 0940 199BFE21 		.ascii	"\031\233\376!\346jlAg\010\250\266\256\240O\002\215\277"
 612      E66A6C41 
 612      6708A8B6 
 612      AEA04F02 
 612      8DBF
 613 0952 0F3A4B40 		.ascii	"\017:K@U\355\231\3036\225\307\015&gQ\304R.\")<\255N"
 613      55ED99C3 
 613      3695C70D 
ARM GAS  C:\Users\JEFFSN~1\AppData\Local\Temp\ccznaSP4.s 			page 49


 613      266751C4 
 613      522E2229 
 614 0969 19E4E947 		.ascii	"\031\344\351G\317\217\371\017\003\025\363ZXu%\371\346"
 614      CF8FF90F 
 614      0315F35A 
 614      587525F9 
 614      E6
 615 097a 5A6504A3 		.ascii	"Ze\004\243M\235\316\261\010xt\336\264a\265\337z\357"
 615      4D9DCEB1 
 615      087874DE 
 615      B461B5DF 
 615      7AEF
 616 098c 3F79FB79 		.ascii	"?y\373y\007\007\0314k?\337\264h\315\252U\334\342\265"
 616      07071934 
 616      6B3FDFB4 
 616      68CDAA55 
 616      DCE2B5
 617 099f FA607D98 		.ascii	"\372`}\230\277A\037\350\267!$<,@\377\245\357\206\220"
 617      BF411FE8 
 617      B721243C 
 617      2C40FFA5 
 617      EF8690
 618 09b2 359F7C89 		.ascii	"5\237|\211\321_\007\005\006-\017\340\346[W\372l\332"
 618      D15F0705 
 618      062D0FE0 
 618      E65B57FA 
 618      6CDA
 619 09c4 E8B7411F 		.ascii	"\350\267A\037\266+(@\277@\246\373\334\317\313W\232\236"
 619      B62B2840 
 619      BF40A6FB 
 619      DCCFCB57 
 619      9A9E
 620 09d6 A79C56CE 		.ascii	"\247\234V\316\371\206\351C\375\303\364\336\301\253\303"
 620      F986E943 
 620      FDC3F4DE 
 620      C1ABC3
 621 09e5 B76DD387 		.ascii	"\267m\323\2079\204\007\005\033~\377\221\235\340\001"
 621      39840705 
 621      1B7EFF91 
 621      9DE001
 622 09f4 DF18BE09 		.ascii	"\337\030\276\011\325\357\\\276\235\233K\326\206\033"
 622      D5EF5CBE 
 622      9D9B4BD6 
 622      861B
 623 0a02 36EDDCBA 		.ascii	"6\355\334\272\036\324x\007\273\342\011\257`\377\255"
 623      1ED47807 
 623      BBE209AF 
 623      60FFAD
 624 0a11 3BF43EE1 		.ascii	";\364>\341\006/\337\237\332\327\017\313I\322\177\325"
 624      062FDF9F 
 624      DAD70FCB 
 624      49D27FD5 
 625 0a21 FB0712AC 		.ascii	"\373\007\022\254\032\007]\365;\035\236\\\027\342\037"
 625      1A075DF5 
 625      3B1D9E5C 
 625      17E21F
 626 0a30 E81DECE5 		.ascii	"\350\035\354\345\373!v\002\374w\354\330\352\037\360"
ARM GAS  C:\Users\JEFFSN~1\AppData\Local\Temp\ccznaSP4.s 			page 50


 626      FB217602 
 626      FC77ECD8 
 626      EA1FF0
 627 0a3f CF7521F0 		.ascii	"\317u!\360\013\307\361\332\245\0176\374`i\266s.\370"
 627      0BC7F1DA 
 627      A50F36FC 
 627      6069B673 
 627      2EF8
 628 0a51 F75A3D70 		.ascii	"\367Z=p\257\011\011\0176\310\356\006\003\254\373@Bz"
 628      AF09090F 
 628      36C8EE06 
 628      03ACFB40 
 628      427A
 629 0a63 07FB8640 		.ascii	"\007\373\206@h}\230\2134\343\027\024\354\247\017\235"
 629      687D988B 
 629      34E31714 
 629      ECA70F9D 
 630 0a73 2B036859 		.ascii	"+\003hY\\\255\367C\302\015\000\2602\200~\212P\223\374"
 630      5CADF743 
 630      C20D00B0 
 630      32807E8A 
 630      5093FC
 631 0a86 7DB55B89 		.ascii	"}\265[\211\267!\350_z\362\323g\333\266\235z\203Z\037"
 631      B721E85F 
 631      7AF2D367 
 631      DBB69D7A 
 631      835A1F
 632 0a99 BA3E2450 		.ascii	"\272>$P\257\362\017\014\014\323\350C7\206|\365\325\016"
 632      AFF20F0C 
 632      0CD3E843 
 632      37867CF5 
 632      D50E
 633 0aab BDE3F6DD 		.ascii	"\275\343\366\335^\241D\217\326?4\210\375T\373\033\014"
 633      5EA1448F 
 633      D63F3488 
 633      FD54FB1B 
 633      0C
 634 0abc 61415B1D 		.ascii	"aA[\035\211\252m\376\001z\267\215~\224\331o\315\306"
 634      89AA6DFE 
 634      017AB78D 
 634      7E94D96F 
 634      CDC6
 635 0ace 757EABD7 		.ascii	"u~\253\327\371\254\371\213\275\335\301\270\320]\006"
 635      F9ACF98B 
 635      BDDDC1B8 
 635      D05D06
 636 0add 48FF7F56 		.ascii	"H\377\177V\217e\012"
 636      8F650A
 637              		.text
 638              		.section	.gnu.lto_.symtab.1c050a9d,"",%progbits
 639 0000 5553425F 		.ascii	"USB_MIDI_Init\000"
 639      4D494449 
 639      5F496E69 
 639      7400
 640 000e 00       		.ascii	"\000"
 641 000f 00       		.ascii	"\000"
 642 0010 00       		.ascii	"\000"
ARM GAS  C:\Users\JEFFSN~1\AppData\Local\Temp\ccznaSP4.s 			page 51


 643 0011 00000000 		.ascii	"\000\000\000\000\000\000\000\000"
 643      00000000 
 644 0019 AD000000 		.ascii	"\255\000\000\000"
 645 001d 5553425F 		.ascii	"USB_midiInPointer\000"
 645      6D696469 
 645      496E506F 
 645      696E7465 
 645      7200
 646 002f 00       		.ascii	"\000"
 647 0030 04       		.ascii	"\004"
 648 0031 00       		.ascii	"\000"
 649 0032 01000000 		.ascii	"\001\000\000\000\000\000\000\000"
 649      00000000 
 650 003a EF000000 		.ascii	"\357\000\000\000"
 651 003e 5553425F 		.ascii	"USB_midi_in_ep\000"
 651      6D696469 
 651      5F696E5F 
 651      657000
 652 004d 00       		.ascii	"\000"
 653 004e 04       		.ascii	"\004"
 654 004f 00       		.ascii	"\000"
 655 0050 01000000 		.ascii	"\001\000\000\000\000\000\000\000"
 655      00000000 
 656 0058 F1000000 		.ascii	"\361\000\000\000"
 657 005c 5553425F 		.ascii	"USB_midiInBuffer\000"
 657      6D696469 
 657      496E4275 
 657      66666572 
 657      00
 658 006d 00       		.ascii	"\000"
 659 006e 04       		.ascii	"\004"
 660 006f 00       		.ascii	"\000"
 661 0070 40000000 		.ascii	"@\000\000\000\000\000\000\000"
 661      00000000 
 662 0078 F8000000 		.ascii	"\370\000\000\000"
 663 007c 5553425F 		.ascii	"USB_midi_out_ep\000"
 663      6D696469 
 663      5F6F7574 
 663      5F657000 
 664 008c 00       		.ascii	"\000"
 665 008d 04       		.ascii	"\004"
 666 008e 00       		.ascii	"\000"
 667 008f 01000000 		.ascii	"\001\000\000\000\000\000\000\000"
 667      00000000 
 668 0097 FA000000 		.ascii	"\372\000\000\000"
 669 009b 5553425F 		.ascii	"USB_midiOutBuffer\000"
 669      6D696469 
 669      4F757442 
 669      75666665 
 669      7200
 670 00ad 00       		.ascii	"\000"
 671 00ae 04       		.ascii	"\004"
 672 00af 00       		.ascii	"\000"
 673 00b0 40000000 		.ascii	"@\000\000\000\000\000\000\000"
 673      00000000 
 674 00b8 FC000000 		.ascii	"\374\000\000\000"
 675 00bc 5553425F 		.ascii	"USB_MIDI_OUT_Service\000"
ARM GAS  C:\Users\JEFFSN~1\AppData\Local\Temp\ccznaSP4.s 			page 52


 675      4D494449 
 675      5F4F5554 
 675      5F536572 
 675      76696365 
 676 00d1 00       		.ascii	"\000"
 677 00d2 00       		.ascii	"\000"
 678 00d3 00       		.ascii	"\000"
 679 00d4 00000000 		.ascii	"\000\000\000\000\000\000\000\000"
 679      00000000 
 680 00dc AF000000 		.ascii	"\257\000\000\000"
 681 00e0 5553425F 		.ascii	"USB_MIDI_IN_EP_Service\000"
 681      4D494449 
 681      5F494E5F 
 681      45505F53 
 681      65727669 
 682 00f7 00       		.ascii	"\000"
 683 00f8 00       		.ascii	"\000"
 684 00f9 00       		.ascii	"\000"
 685 00fa 00000000 		.ascii	"\000\000\000\000\000\000\000\000"
 685      00000000 
 686 0102 B1000000 		.ascii	"\261\000\000\000"
 687 0106 5553425F 		.ascii	"USB_MIDI_IN_Service\000"
 687      4D494449 
 687      5F494E5F 
 687      53657276 
 687      69636500 
 688 011a 00       		.ascii	"\000"
 689 011b 00       		.ascii	"\000"
 690 011c 00       		.ascii	"\000"
 691 011d 00000000 		.ascii	"\000\000\000\000\000\000\000\000"
 691      00000000 
 692 0125 B3000000 		.ascii	"\263\000\000\000"
 693 0129 5553425F 		.ascii	"USB_PrepareInBuffer\000"
 693      50726570 
 693      61726549 
 693      6E427566 
 693      66657200 
 694 013d 00       		.ascii	"\000"
 695 013e 00       		.ascii	"\000"
 696 013f 00       		.ascii	"\000"
 697 0140 00000000 		.ascii	"\000\000\000\000\000\000\000\000"
 697      00000000 
 698 0148 C1000000 		.ascii	"\301\000\000\000"
 699 014c 5553425F 		.ascii	"USB_PutUsbMidiIn\000"
 699      50757455 
 699      73624D69 
 699      6469496E 
 699      00
 700 015d 00       		.ascii	"\000"
 701 015e 00       		.ascii	"\000"
 702 015f 00       		.ascii	"\000"
 703 0160 00000000 		.ascii	"\000\000\000\000\000\000\000\000"
 703      00000000 
 704 0168 C7000000 		.ascii	"\307\000\000\000"
 705 016c 5553425F 		.ascii	"USB_EP\000"
 705      455000
 706 0173 00       		.ascii	"\000"
ARM GAS  C:\Users\JEFFSN~1\AppData\Local\Temp\ccznaSP4.s 			page 53


 707 0174 02       		.ascii	"\002"
 708 0175 00       		.ascii	"\000"
 709 0176 00000000 		.ascii	"\000\000\000\000\000\000\000\000"
 709      00000000 
 710 017e 21010000 		.ascii	"!\001\000\000"
 711 0182 5553425F 		.ascii	"USB_EnableOutEP\000"
 711      456E6162 
 711      6C654F75 
 711      74455000 
 712 0192 00       		.ascii	"\000"
 713 0193 02       		.ascii	"\002"
 714 0194 00       		.ascii	"\000"
 715 0195 00000000 		.ascii	"\000\000\000\000\000\000\000\000"
 715      00000000 
 716 019d CB000000 		.ascii	"\313\000\000\000"
 717 01a1 5553425F 		.ascii	"USB_ReadOutEP\000"
 717      52656164 
 717      4F757445 
 717      5000
 718 01af 00       		.ascii	"\000"
 719 01b0 02       		.ascii	"\002"
 720 01b1 00       		.ascii	"\000"
 721 01b2 00000000 		.ascii	"\000\000\000\000\000\000\000\000"
 721      00000000 
 722 01ba D9000000 		.ascii	"\331\000\000\000"
 723 01be 5553425F 		.ascii	"USB_LoadInEP\000"
 723      4C6F6164 
 723      496E4550 
 723      00
 724 01cb 00       		.ascii	"\000"
 725 01cc 02       		.ascii	"\002"
 726 01cd 00       		.ascii	"\000"
 727 01ce 00000000 		.ascii	"\000\000\000\000\000\000\000\000"
 727      00000000 
 728 01d6 DF000000 		.ascii	"\337\000\000\000"
 729 01da 5553425F 		.ascii	"USB_callbackLocalMidiEvent\000"
 729      63616C6C 
 729      6261636B 
 729      4C6F6361 
 729      6C4D6964 
 730 01f5 00       		.ascii	"\000"
 731 01f6 02       		.ascii	"\002"
 732 01f7 00       		.ascii	"\000"
 733 01f8 00000000 		.ascii	"\000\000\000\000\000\000\000\000"
 733      00000000 
 734 0200 E4000000 		.ascii	"\344\000\000\000"
 735 0204 5553425F 		.ascii	"USB_GetEPCount\000"
 735      47657445 
 735      50436F75 
 735      6E7400
 736 0213 00       		.ascii	"\000"
 737 0214 02       		.ascii	"\002"
 738 0215 00       		.ascii	"\000"
 739 0216 00000000 		.ascii	"\000\000\000\000\000\000\000\000"
 739      00000000 
 740 021e E8000000 		.ascii	"\350\000\000\000"
 741 0222 5553425F 		.ascii	"USB_GetEPState\000"
ARM GAS  C:\Users\JEFFSN~1\AppData\Local\Temp\ccznaSP4.s 			page 54


 741      47657445 
 741      50537461 
 741      746500
 742 0231 00       		.ascii	"\000"
 743 0232 02       		.ascii	"\002"
 744 0233 00       		.ascii	"\000"
 745 0234 00000000 		.ascii	"\000\000\000\000\000\000\000\000"
 745      00000000 
 746 023c EC000000 		.ascii	"\354\000\000\000"
 747              		.text
 748              		.section	.gnu.lto_.opts,"",%progbits
 749 0000 272D666D 		.ascii	"'-fmath-errno' '-fsigned-zeros' '-ftrapping-math' '"
 749      6174682D 
 749      6572726E 
 749      6F272027 
 749      2D667369 
 750 0033 2D666E6F 		.ascii	"-fno-trapv' '-fno-strict-overflow' '-fno-openmp' '-"
 750      2D747261 
 750      70762720 
 750      272D666E 
 750      6F2D7374 
 751 0066 666E6F2D 		.ascii	"fno-openacc' '-mcpu=cortex-m3' '-mthumb' '-g' '-Og'"
 751      6F70656E 
 751      61636327 
 751      20272D6D 
 751      6370753D 
 752 0099 20272D66 		.ascii	" '-ffunction-sections' '-ffat-lto-objects' '-finlin"
 752      66756E63 
 752      74696F6E 
 752      2D736563 
 752      74696F6E 
 753 00cc 652D6675 		.ascii	"e-functions' '-flto'\000"
 753      6E637469 
 753      6F6E7327 
 753      20272D66 
 753      6C746F27 
 754              		.text
 755              		.cfi_sections	.debug_frame
 756              		.section	.text.USB_MIDI_Init,"ax",%progbits
 757              		.align	2
 758              		.global	USB_MIDI_Init
 759              		.thumb
 760              		.thumb_func
 761              		.type	USB_MIDI_Init, %function
 762              	USB_MIDI_Init:
 763              	.LFB0:
 764              		.file 1 "Generated_Source\\PSoC5\\USB_midi.c"
   1:Generated_Source\PSoC5/USB_midi.c **** /***************************************************************************//**
   2:Generated_Source\PSoC5/USB_midi.c **** * \file USB_midi.c
   3:Generated_Source\PSoC5/USB_midi.c **** * \version 3.20
   4:Generated_Source\PSoC5/USB_midi.c **** *
   5:Generated_Source\PSoC5/USB_midi.c **** * \brief
   6:Generated_Source\PSoC5/USB_midi.c **** *  MIDI Streaming request handler.
   7:Generated_Source\PSoC5/USB_midi.c **** *  This file contains routines for sending and receiving MIDI
   8:Generated_Source\PSoC5/USB_midi.c **** *  messages, and handles running status in both directions.
   9:Generated_Source\PSoC5/USB_midi.c **** *
  10:Generated_Source\PSoC5/USB_midi.c **** * Related Document:
ARM GAS  C:\Users\JEFFSN~1\AppData\Local\Temp\ccznaSP4.s 			page 55


  11:Generated_Source\PSoC5/USB_midi.c **** *  Universal Serial Bus Device Class Definition for MIDI Devices Release 1.0
  12:Generated_Source\PSoC5/USB_midi.c **** *  MIDI 1.0 Detailed Specification Document Version 4.2
  13:Generated_Source\PSoC5/USB_midi.c **** *
  14:Generated_Source\PSoC5/USB_midi.c **** ********************************************************************************
  15:Generated_Source\PSoC5/USB_midi.c **** * \copyright
  16:Generated_Source\PSoC5/USB_midi.c **** * Copyright 2008-2016, Cypress Semiconductor Corporation.  All rights reserved.
  17:Generated_Source\PSoC5/USB_midi.c **** * You may use this file only in accordance with the license, terms, conditions,
  18:Generated_Source\PSoC5/USB_midi.c **** * disclaimers, and limitations in the end user license agreement accompanying
  19:Generated_Source\PSoC5/USB_midi.c **** * the software package with which this file was provided.
  20:Generated_Source\PSoC5/USB_midi.c **** *******************************************************************************/
  21:Generated_Source\PSoC5/USB_midi.c **** 
  22:Generated_Source\PSoC5/USB_midi.c **** #include "USB_midi.h"
  23:Generated_Source\PSoC5/USB_midi.c **** #include "USB_pvt.h"
  24:Generated_Source\PSoC5/USB_midi.c **** 
  25:Generated_Source\PSoC5/USB_midi.c **** 
  26:Generated_Source\PSoC5/USB_midi.c **** #if defined(USB_ENABLE_MIDI_STREAMING)
  27:Generated_Source\PSoC5/USB_midi.c **** 
  28:Generated_Source\PSoC5/USB_midi.c **** /***************************************
  29:Generated_Source\PSoC5/USB_midi.c **** *    MIDI Constants
  30:Generated_Source\PSoC5/USB_midi.c **** ***************************************/
  31:Generated_Source\PSoC5/USB_midi.c **** 
  32:Generated_Source\PSoC5/USB_midi.c **** #if (USB_MIDI_EXT_MODE >= USB_ONE_EXT_INTRF)
  33:Generated_Source\PSoC5/USB_midi.c ****     /* The Size of the MIDI messages (MIDI Table 4-1) */
  34:Generated_Source\PSoC5/USB_midi.c ****     static const uint8 CYCODE USB_MIDI_SIZE[] = {
  35:Generated_Source\PSoC5/USB_midi.c ****     /*  Miscellaneous function codes(Reserved)  */ 0x03u,
  36:Generated_Source\PSoC5/USB_midi.c ****     /*  Cable events (Reserved)                 */ 0x03u,
  37:Generated_Source\PSoC5/USB_midi.c ****     /*  Two-byte System Common messages         */ 0x02u,
  38:Generated_Source\PSoC5/USB_midi.c ****     /*  Three-byte System Common messages       */ 0x03u,
  39:Generated_Source\PSoC5/USB_midi.c ****     /*  SysEx starts or continues               */ 0x03u,
  40:Generated_Source\PSoC5/USB_midi.c ****     /*  Single-byte System Common Message or
  41:Generated_Source\PSoC5/USB_midi.c ****         SysEx ends with following single byte   */ 0x01u,
  42:Generated_Source\PSoC5/USB_midi.c ****     /*  SysEx ends with following two bytes     */ 0x02u,
  43:Generated_Source\PSoC5/USB_midi.c ****     /*  SysEx ends with following three bytes   */ 0x03u,
  44:Generated_Source\PSoC5/USB_midi.c ****     /*  Note-off                                */ 0x03u,
  45:Generated_Source\PSoC5/USB_midi.c ****     /*  Note-on                                 */ 0x03u,
  46:Generated_Source\PSoC5/USB_midi.c ****     /*  Poly-KeyPress                           */ 0x03u,
  47:Generated_Source\PSoC5/USB_midi.c ****     /*  Control Change                          */ 0x03u,
  48:Generated_Source\PSoC5/USB_midi.c ****     /*  Program Change                          */ 0x02u,
  49:Generated_Source\PSoC5/USB_midi.c ****     /*  Channel Pressure                        */ 0x02u,
  50:Generated_Source\PSoC5/USB_midi.c ****     /*  PitchBend Change                        */ 0x03u,
  51:Generated_Source\PSoC5/USB_midi.c ****     /*  Single Byte                             */ 0x01u
  52:Generated_Source\PSoC5/USB_midi.c ****     };
  53:Generated_Source\PSoC5/USB_midi.c **** #endif  /* USB_MIDI_EXT_MODE >= USB_ONE_EXT_INTRF */
  54:Generated_Source\PSoC5/USB_midi.c **** 
  55:Generated_Source\PSoC5/USB_midi.c **** 
  56:Generated_Source\PSoC5/USB_midi.c **** 
  57:Generated_Source\PSoC5/USB_midi.c **** /***************************************
  58:Generated_Source\PSoC5/USB_midi.c **** *  Global variables
  59:Generated_Source\PSoC5/USB_midi.c **** ***************************************/
  60:Generated_Source\PSoC5/USB_midi.c **** 
  61:Generated_Source\PSoC5/USB_midi.c **** 
  62:Generated_Source\PSoC5/USB_midi.c **** #if (USB_MIDI_IN_BUFF_SIZE > 0)
  63:Generated_Source\PSoC5/USB_midi.c ****     #if (USB_MIDI_IN_BUFF_SIZE >= 256)
  64:Generated_Source\PSoC5/USB_midi.c ****         /** Input endpoint buffer pointer. This pointer is used as an index for the
  65:Generated_Source\PSoC5/USB_midi.c ****         * USBMIDI_midiInBuffer to write data. It is cleared to zero by the
  66:Generated_Source\PSoC5/USB_midi.c ****         * USBMIDI_MIDI_EP_Init() function.*/
  67:Generated_Source\PSoC5/USB_midi.c ****         volatile uint16 USB_midiInPointer;                            /* Input endpoint buffer poin
ARM GAS  C:\Users\JEFFSN~1\AppData\Local\Temp\ccznaSP4.s 			page 56


  68:Generated_Source\PSoC5/USB_midi.c ****     #else
  69:Generated_Source\PSoC5/USB_midi.c ****         volatile uint8 USB_midiInPointer;                             /* Input endpoint buffer poin
  70:Generated_Source\PSoC5/USB_midi.c ****     #endif /* (USB_MIDI_IN_BUFF_SIZE >= 256) */
  71:Generated_Source\PSoC5/USB_midi.c ****     /** Contains the midi IN endpoint number, It is initialized after a
  72:Generated_Source\PSoC5/USB_midi.c ****      * SET_CONFIGURATION request based on a user descriptor. It is used in MIDI
  73:Generated_Source\PSoC5/USB_midi.c ****      * APIs to send data to the host.*/
  74:Generated_Source\PSoC5/USB_midi.c ****     volatile uint8 USB_midi_in_ep;
  75:Generated_Source\PSoC5/USB_midi.c ****     /** Input endpoint buffer with a length equal to MIDI IN EP Max Packet Size.
  76:Generated_Source\PSoC5/USB_midi.c ****      * This buffer is used to save and combine the data received from the UARTs,
  77:Generated_Source\PSoC5/USB_midi.c ****      * generated internally by USBMIDI_PutUsbMidiIn() function messages, or both.
  78:Generated_Source\PSoC5/USB_midi.c ****      * The USBMIDI_MIDI_IN_Service() function transfers the data from this buffer to the host.*/
  79:Generated_Source\PSoC5/USB_midi.c ****     uint8 USB_midiInBuffer[USB_MIDI_IN_BUFF_SIZE];       /* Input endpoint buffer */
  80:Generated_Source\PSoC5/USB_midi.c **** #endif /* (USB_MIDI_IN_BUFF_SIZE > 0) */
  81:Generated_Source\PSoC5/USB_midi.c **** 
  82:Generated_Source\PSoC5/USB_midi.c **** #if (USB_MIDI_OUT_BUFF_SIZE > 0)
  83:Generated_Source\PSoC5/USB_midi.c ****     /** Contains the midi OUT endpoint number. It is initialized after a
  84:Generated_Source\PSoC5/USB_midi.c ****      * SET_CONFIGURATION request based on a user descriptor. It is used in
  85:Generated_Source\PSoC5/USB_midi.c ****      * MIDI APIs to receive data from the host.*/
  86:Generated_Source\PSoC5/USB_midi.c ****     volatile uint8 USB_midi_out_ep;                                   /* Output endpoint number */
  87:Generated_Source\PSoC5/USB_midi.c ****     /** Output endpoint buffer with a length equal to MIDI OUT EP Max Packet Size.
  88:Generated_Source\PSoC5/USB_midi.c ****      * This buffer is used by the USBMIDI_MIDI_OUT_EP_Service() function to save
  89:Generated_Source\PSoC5/USB_midi.c ****      * the data received from the host. The received data is then parsed. The
  90:Generated_Source\PSoC5/USB_midi.c ****      * parsed data is transferred to the UARTs buffer and also used for internal
  91:Generated_Source\PSoC5/USB_midi.c ****      * processing by the USBMIDI_callbackLocalMidiEvent() function.*/
  92:Generated_Source\PSoC5/USB_midi.c ****     uint8 USB_midiOutBuffer[USB_MIDI_OUT_BUFF_SIZE];     /* Output endpoint buffer */
  93:Generated_Source\PSoC5/USB_midi.c **** #endif /* (USB_MIDI_OUT_BUFF_SIZE > 0) */
  94:Generated_Source\PSoC5/USB_midi.c **** 
  95:Generated_Source\PSoC5/USB_midi.c **** #if (USB_MIDI_EXT_MODE >= USB_ONE_EXT_INTRF)
  96:Generated_Source\PSoC5/USB_midi.c **** 
  97:Generated_Source\PSoC5/USB_midi.c ****     static USB_MIDI_RX_STATUS USB_MIDI1_Event;            /* MIDI RX status structure */
  98:Generated_Source\PSoC5/USB_midi.c ****     static volatile uint8 USB_MIDI1_TxRunStat;                         /* MIDI Output running statu
  99:Generated_Source\PSoC5/USB_midi.c ****     /** The USBFS supports a maximum of two external Jacks. The two flag variables
 100:Generated_Source\PSoC5/USB_midi.c ****      * are used to represent the status of two external Jacks. These optional variables
 101:Generated_Source\PSoC5/USB_midi.c ****      * are allocated when External Mode is enabled. The following flags help to
 102:Generated_Source\PSoC5/USB_midi.c ****      * detect and generate responses for SysEx messages. The USBMIDI_MIDI2_InqFlags
 103:Generated_Source\PSoC5/USB_midi.c ****      * is optional and is not available when only one external Jack is configured.
 104:Generated_Source\PSoC5/USB_midi.c ****      * Flag                          | Description
 105:Generated_Source\PSoC5/USB_midi.c ****      * ------------------------------|---------------------------------------
 106:Generated_Source\PSoC5/USB_midi.c ****      * USBMIDI_INQ_SYSEX_FLAG        | Non-real-time SysEx message received.
 107:Generated_Source\PSoC5/USB_midi.c ****      * USBMIDI_INQ_IDENTITY_REQ_FLAG | Identity Request received. You should clear this bit when an
 108:Generated_Source\PSoC5/USB_midi.c ****      * SysEX messages are intended for local device and shouldn't go out on the
 109:Generated_Source\PSoC5/USB_midi.c ****      * external MIDI jack, this flag indicates when a MIDI SysEx OUT message is
 110:Generated_Source\PSoC5/USB_midi.c ****      * in progress for the application */
 111:Generated_Source\PSoC5/USB_midi.c ****     volatile uint8 USB_MIDI1_InqFlags;                                 /* Device inquiry flag */
 112:Generated_Source\PSoC5/USB_midi.c **** 
 113:Generated_Source\PSoC5/USB_midi.c ****     #if (USB_MIDI_EXT_MODE >= USB_TWO_EXT_INTRF)
 114:Generated_Source\PSoC5/USB_midi.c ****         static USB_MIDI_RX_STATUS USB_MIDI2_Event;        /* MIDI RX status structure */
 115:Generated_Source\PSoC5/USB_midi.c ****         static volatile uint8 USB_MIDI2_TxRunStat;                     /* MIDI Output running statu
 116:Generated_Source\PSoC5/USB_midi.c ****         /** See description of \ref USB_MIDI1_InqFlags*/
 117:Generated_Source\PSoC5/USB_midi.c ****         volatile uint8 USB_MIDI2_InqFlags;                             /* Device inquiry flag */
 118:Generated_Source\PSoC5/USB_midi.c ****     #endif /* (USB_MIDI_EXT_MODE >= USB_TWO_EXT_INTRF) */
 119:Generated_Source\PSoC5/USB_midi.c **** #endif /* (USB_MIDI_EXT_MODE >= USB_ONE_EXT_INTRF) */
 120:Generated_Source\PSoC5/USB_midi.c **** 
 121:Generated_Source\PSoC5/USB_midi.c **** 
 122:Generated_Source\PSoC5/USB_midi.c **** /***************************************
 123:Generated_Source\PSoC5/USB_midi.c **** * Custom Declarations
 124:Generated_Source\PSoC5/USB_midi.c **** ***************************************/
ARM GAS  C:\Users\JEFFSN~1\AppData\Local\Temp\ccznaSP4.s 			page 57


 125:Generated_Source\PSoC5/USB_midi.c **** 
 126:Generated_Source\PSoC5/USB_midi.c **** /* `#START MIDI_CUSTOM_DECLARATIONS` Place your declaration here */
 127:Generated_Source\PSoC5/USB_midi.c **** 
 128:Generated_Source\PSoC5/USB_midi.c **** /* `#END` */
 129:Generated_Source\PSoC5/USB_midi.c **** 
 130:Generated_Source\PSoC5/USB_midi.c **** 
 131:Generated_Source\PSoC5/USB_midi.c **** #if (USB_ENABLE_MIDI_API != 0u)
 132:Generated_Source\PSoC5/USB_midi.c **** /*******************************************************************************
 133:Generated_Source\PSoC5/USB_midi.c **** * Function Name: USB_MIDI_Init
 134:Generated_Source\PSoC5/USB_midi.c **** ****************************************************************************//**
 135:Generated_Source\PSoC5/USB_midi.c **** *
 136:Generated_Source\PSoC5/USB_midi.c **** *  This function initializes the MIDI interface and UART(s) to be ready to
 137:Generated_Source\PSoC5/USB_midi.c **** *   receive data from the PC and MIDI ports.
 138:Generated_Source\PSoC5/USB_midi.c **** *
 139:Generated_Source\PSoC5/USB_midi.c **** * \globalvars
 140:Generated_Source\PSoC5/USB_midi.c **** *
 141:Generated_Source\PSoC5/USB_midi.c **** *  \ref USB_midiInBuffer: This buffer is used for saving and combining
 142:Generated_Source\PSoC5/USB_midi.c **** *    the received data from UART(s) and(or) generated internally by
 143:Generated_Source\PSoC5/USB_midi.c **** *    PutUsbMidiIn() function messages. USB_MIDI_IN_EP_Service()
 144:Generated_Source\PSoC5/USB_midi.c **** *    function transfers the data from this buffer to the PC.
 145:Generated_Source\PSoC5/USB_midi.c **** *
 146:Generated_Source\PSoC5/USB_midi.c **** *  \ref USB_midiOutBuffer: This buffer is used by the
 147:Generated_Source\PSoC5/USB_midi.c **** *    USB_MIDI_OUT_Service() function for saving the received
 148:Generated_Source\PSoC5/USB_midi.c **** *    from the PC data, then the data are parsed and transferred to UART(s)
 149:Generated_Source\PSoC5/USB_midi.c **** *    buffer and to the internal processing by the
 150:Generated_Source\PSoC5/USB_midi.c **** *
 151:Generated_Source\PSoC5/USB_midi.c **** *  \ref USB_callbackLocalMidiEvent function.
 152:Generated_Source\PSoC5/USB_midi.c **** *
 153:Generated_Source\PSoC5/USB_midi.c **** *  \ref USB_midi_out_ep: Used as an OUT endpoint number.
 154:Generated_Source\PSoC5/USB_midi.c **** *
 155:Generated_Source\PSoC5/USB_midi.c **** *  \ref USB_midi_in_ep: Used as an IN endpoint number.
 156:Generated_Source\PSoC5/USB_midi.c **** *
 157:Generated_Source\PSoC5/USB_midi.c **** *   \ref USB_midiInPointer: Initialized to zero.
 158:Generated_Source\PSoC5/USB_midi.c **** *
 159:Generated_Source\PSoC5/USB_midi.c **** * \sideeffect
 160:Generated_Source\PSoC5/USB_midi.c **** *   The priority of the UART RX ISR should be higher than UART TX ISR. To do
 161:Generated_Source\PSoC5/USB_midi.c **** *   that this function changes the priority of the UARTs TX and RX interrupts.
 162:Generated_Source\PSoC5/USB_midi.c **** *
 163:Generated_Source\PSoC5/USB_midi.c **** * \reentrant
 164:Generated_Source\PSoC5/USB_midi.c **** *  No
 165:Generated_Source\PSoC5/USB_midi.c **** *
 166:Generated_Source\PSoC5/USB_midi.c **** *******************************************************************************/
 167:Generated_Source\PSoC5/USB_midi.c **** void USB_MIDI_Init(void) 
 168:Generated_Source\PSoC5/USB_midi.c **** {
 765              		.loc 1 168 0
 766              		.cfi_startproc
 767              		@ args = 0, pretend = 0, frame = 0
 768              		@ frame_needed = 0, uses_anonymous_args = 0
 769 0000 10B5     		push	{r4, lr}
 770              		.cfi_def_cfa_offset 8
 771              		.cfi_offset 4, -8
 772              		.cfi_offset 14, -4
 169:Generated_Source\PSoC5/USB_midi.c **** #if (USB_MIDI_IN_BUFF_SIZE > 0)
 170:Generated_Source\PSoC5/USB_midi.c ****    USB_midiInPointer = 0u;
 773              		.loc 1 170 0
 774 0002 0022     		movs	r2, #0
 775 0004 084B     		ldr	r3, .L3
ARM GAS  C:\Users\JEFFSN~1\AppData\Local\Temp\ccznaSP4.s 			page 58


 776 0006 1A70     		strb	r2, [r3]
 171:Generated_Source\PSoC5/USB_midi.c **** #endif /* (USB_MIDI_IN_BUFF_SIZE > 0) */
 172:Generated_Source\PSoC5/USB_midi.c **** 
 173:Generated_Source\PSoC5/USB_midi.c **** #if (USB_EP_MANAGEMENT_DMA_AUTO)
 174:Generated_Source\PSoC5/USB_midi.c ****     #if (USB_MIDI_IN_BUFF_SIZE > 0)
 175:Generated_Source\PSoC5/USB_midi.c ****         /* Provide buffer for IN endpoint. */
 176:Generated_Source\PSoC5/USB_midi.c ****         USB_LoadInEP(USB_midi_in_ep, USB_midiInBuffer,
 777              		.loc 1 176 0
 778 0008 084B     		ldr	r3, .L3+4
 779 000a 1878     		ldrb	r0, [r3]	@ zero_extendqisi2
 780 000c 4022     		movs	r2, #64
 781 000e 0849     		ldr	r1, .L3+8
 782 0010 FFF7FEFF 		bl	USB_LoadInEP
 783              	.LVL0:
 177:Generated_Source\PSoC5/USB_midi.c ****                                                                USB_MIDI_IN_BUFF_SIZE);
 178:Generated_Source\PSoC5/USB_midi.c ****     #endif  /* (USB_MIDI_IN_BUFF_SIZE > 0) */
 179:Generated_Source\PSoC5/USB_midi.c **** 
 180:Generated_Source\PSoC5/USB_midi.c ****     #if (USB_MIDI_OUT_BUFF_SIZE > 0)
 181:Generated_Source\PSoC5/USB_midi.c ****         /* Provide buffer for OUT endpoint. */
 182:Generated_Source\PSoC5/USB_midi.c ****         (void)USB_ReadOutEP(USB_midi_out_ep, USB_midiOutBuffer,
 784              		.loc 1 182 0
 785 0014 074C     		ldr	r4, .L3+12
 786 0016 2078     		ldrb	r0, [r4]	@ zero_extendqisi2
 787 0018 4022     		movs	r2, #64
 788 001a 0749     		ldr	r1, .L3+16
 789 001c FFF7FEFF 		bl	USB_ReadOutEP
 790              	.LVL1:
 183:Generated_Source\PSoC5/USB_midi.c ****                                                                        USB_MIDI_OUT_BUFF_SIZE);
 184:Generated_Source\PSoC5/USB_midi.c ****     #endif /* (USB_MIDI_OUT_BUFF_SIZE > 0) */
 185:Generated_Source\PSoC5/USB_midi.c **** #endif /* (USB_EP_MANAGEMENT_DMA_AUTO) */
 186:Generated_Source\PSoC5/USB_midi.c **** 
 187:Generated_Source\PSoC5/USB_midi.c **** #if (USB_MIDI_OUT_BUFF_SIZE > 0)
 188:Generated_Source\PSoC5/USB_midi.c ****     USB_EnableOutEP(USB_midi_out_ep);
 791              		.loc 1 188 0
 792 0020 2078     		ldrb	r0, [r4]	@ zero_extendqisi2
 793 0022 FFF7FEFF 		bl	USB_EnableOutEP
 794              	.LVL2:
 795 0026 10BD     		pop	{r4, pc}
 796              	.L4:
 797              		.align	2
 798              	.L3:
 799 0028 00000000 		.word	USB_midiInPointer
 800 002c 00000000 		.word	USB_midi_in_ep
 801 0030 00000000 		.word	USB_midiInBuffer
 802 0034 00000000 		.word	USB_midi_out_ep
 803 0038 00000000 		.word	USB_midiOutBuffer
 804              		.cfi_endproc
 805              	.LFE0:
 806              		.size	USB_MIDI_Init, .-USB_MIDI_Init
 807              		.section	.text.USB_MIDI_OUT_Service,"ax",%progbits
 808              		.align	2
 809              		.global	USB_MIDI_OUT_Service
 810              		.thumb
 811              		.thumb_func
 812              		.type	USB_MIDI_OUT_Service, %function
 813              	USB_MIDI_OUT_Service:
 814              	.LFB1:
ARM GAS  C:\Users\JEFFSN~1\AppData\Local\Temp\ccznaSP4.s 			page 59


 189:Generated_Source\PSoC5/USB_midi.c **** #endif /* (USB_MIDI_OUT_BUFF_SIZE > 0) */
 190:Generated_Source\PSoC5/USB_midi.c **** 
 191:Generated_Source\PSoC5/USB_midi.c ****     /* Initialize the MIDI port(s) */
 192:Generated_Source\PSoC5/USB_midi.c **** #if (USB_MIDI_EXT_MODE >= USB_ONE_EXT_INTRF)
 193:Generated_Source\PSoC5/USB_midi.c ****     USB_MIDI_InitInterface();
 194:Generated_Source\PSoC5/USB_midi.c **** #endif /* (USB_MIDI_EXT_MODE >= USB_ONE_EXT_INTRF) */
 195:Generated_Source\PSoC5/USB_midi.c **** }
 196:Generated_Source\PSoC5/USB_midi.c **** 
 197:Generated_Source\PSoC5/USB_midi.c **** 
 198:Generated_Source\PSoC5/USB_midi.c **** #if (USB_MIDI_OUT_BUFF_SIZE > 0)
 199:Generated_Source\PSoC5/USB_midi.c ****     /*******************************************************************************
 200:Generated_Source\PSoC5/USB_midi.c ****     * Function Name: USB_MIDI_OUT_Service
 201:Generated_Source\PSoC5/USB_midi.c ****     ****************************************************************************//**
 202:Generated_Source\PSoC5/USB_midi.c ****     *
 203:Generated_Source\PSoC5/USB_midi.c ****     *  This function services the traffic from the USBMIDI OUT endpoint and
 204:Generated_Source\PSoC5/USB_midi.c ****     *  sends the data to the MIDI output ports (TX UARTs). It is blocked by the
 205:Generated_Source\PSoC5/USB_midi.c ****     *  UART when not enough space is available in the UART TX buffer.
 206:Generated_Source\PSoC5/USB_midi.c ****     *  This function is automatically called from OUT EP ISR in DMA with
 207:Generated_Source\PSoC5/USB_midi.c ****     *  Automatic Memory Management mode. In Manual and DMA with Manual EP
 208:Generated_Source\PSoC5/USB_midi.c ****     *  Management modes you must call it from the main foreground task.
 209:Generated_Source\PSoC5/USB_midi.c ****     *
 210:Generated_Source\PSoC5/USB_midi.c ****     * \globalvars
 211:Generated_Source\PSoC5/USB_midi.c ****     *
 212:Generated_Source\PSoC5/USB_midi.c ****     *  \ref USB_midiOutBuffer: Used as temporary buffer between USB
 213:Generated_Source\PSoC5/USB_midi.c ****     *       internal memory and UART TX buffer.
 214:Generated_Source\PSoC5/USB_midi.c ****     *
 215:Generated_Source\PSoC5/USB_midi.c ****     *  \ref USB_midi_out_ep: Used as an OUT endpoint number.
 216:Generated_Source\PSoC5/USB_midi.c ****     *
 217:Generated_Source\PSoC5/USB_midi.c ****     * \reentrant
 218:Generated_Source\PSoC5/USB_midi.c ****     *  No
 219:Generated_Source\PSoC5/USB_midi.c ****     *
 220:Generated_Source\PSoC5/USB_midi.c ****     *******************************************************************************/
 221:Generated_Source\PSoC5/USB_midi.c ****     void USB_MIDI_OUT_Service(void) 
 222:Generated_Source\PSoC5/USB_midi.c ****     {
 815              		.loc 1 222 0
 816              		.cfi_startproc
 817              		@ args = 0, pretend = 0, frame = 0
 818              		@ frame_needed = 0, uses_anonymous_args = 0
 819 0000 38B5     		push	{r3, r4, r5, lr}
 820              		.cfi_def_cfa_offset 16
 821              		.cfi_offset 3, -16
 822              		.cfi_offset 4, -12
 823              		.cfi_offset 5, -8
 824              		.cfi_offset 14, -4
 223:Generated_Source\PSoC5/USB_midi.c ****     #if (USB_MIDI_OUT_BUFF_SIZE >= 256)
 224:Generated_Source\PSoC5/USB_midi.c ****         uint16 outLength;
 225:Generated_Source\PSoC5/USB_midi.c ****         uint16 outPointer;
 226:Generated_Source\PSoC5/USB_midi.c ****     #else
 227:Generated_Source\PSoC5/USB_midi.c ****         uint8 outLength;
 228:Generated_Source\PSoC5/USB_midi.c ****         uint8 outPointer;
 229:Generated_Source\PSoC5/USB_midi.c ****     #endif /* (USB_MIDI_OUT_BUFF_SIZE >= 256) */
 230:Generated_Source\PSoC5/USB_midi.c **** 
 231:Generated_Source\PSoC5/USB_midi.c ****         /* Service the USB MIDI output endpoint. */
 232:Generated_Source\PSoC5/USB_midi.c ****         if (USB_OUT_BUFFER_FULL == USB_GetEPState(USB_midi_out_ep))
 825              		.loc 1 232 0
 826 0002 114B     		ldr	r3, .L12
 827 0004 1878     		ldrb	r0, [r3]	@ zero_extendqisi2
ARM GAS  C:\Users\JEFFSN~1\AppData\Local\Temp\ccznaSP4.s 			page 60


 828 0006 FFF7FEFF 		bl	USB_GetEPState
 829              	.LVL3:
 830 000a 0128     		cmp	r0, #1
 831 000c 1BD1     		bne	.L5
 233:Generated_Source\PSoC5/USB_midi.c ****         {
 234:Generated_Source\PSoC5/USB_midi.c ****         #if (USB_MIDI_OUT_BUFF_SIZE >= 256)
 235:Generated_Source\PSoC5/USB_midi.c ****             outLength = USB_GetEPCount(USB_midi_out_ep);
 236:Generated_Source\PSoC5/USB_midi.c ****         #else
 237:Generated_Source\PSoC5/USB_midi.c ****             outLength = (uint8)USB_GetEPCount(USB_midi_out_ep);
 832              		.loc 1 237 0
 833 000e 0E4B     		ldr	r3, .L12
 834 0010 1878     		ldrb	r0, [r3]	@ zero_extendqisi2
 835 0012 FFF7FEFF 		bl	USB_GetEPCount
 836              	.LVL4:
 837 0016 C5B2     		uxtb	r5, r0
 838              	.LVL5:
 238:Generated_Source\PSoC5/USB_midi.c ****         #endif /* (USB_MIDI_OUT_BUFF_SIZE >= 256) */
 239:Generated_Source\PSoC5/USB_midi.c **** 
 240:Generated_Source\PSoC5/USB_midi.c ****         #if (!USB_EP_MANAGEMENT_DMA_AUTO)
 241:Generated_Source\PSoC5/USB_midi.c ****             #if (USB_MIDI_OUT_BUFF_SIZE >= 256)
 242:Generated_Source\PSoC5/USB_midi.c ****                 outLength = USB_ReadOutEP(USB_midi_out_ep,
 243:Generated_Source\PSoC5/USB_midi.c ****                                                        USB_midiOutBuffer, outLength);
 244:Generated_Source\PSoC5/USB_midi.c ****             #else
 245:Generated_Source\PSoC5/USB_midi.c ****                 outLength = (uint8)USB_ReadOutEP(USB_midi_out_ep,
 246:Generated_Source\PSoC5/USB_midi.c ****                                                               USB_midiOutBuffer, (uint16) outLength
 247:Generated_Source\PSoC5/USB_midi.c ****             #endif /* (USB_MIDI_OUT_BUFF_SIZE >= 256) */
 248:Generated_Source\PSoC5/USB_midi.c **** 
 249:Generated_Source\PSoC5/USB_midi.c ****             #if (USB_EP_MANAGEMENT_DMA_MANUAL)
 250:Generated_Source\PSoC5/USB_midi.c ****                 /* Wait until DMA complete transferring data from OUT endpoint buffer. */
 251:Generated_Source\PSoC5/USB_midi.c ****                 while (USB_OUT_BUFFER_FULL == USB_GetEPState(USB_midi_out_ep))
 252:Generated_Source\PSoC5/USB_midi.c ****                 {
 253:Generated_Source\PSoC5/USB_midi.c ****                 }
 254:Generated_Source\PSoC5/USB_midi.c **** 
 255:Generated_Source\PSoC5/USB_midi.c ****                 /* Enable OUT endpoint for communication with host. */
 256:Generated_Source\PSoC5/USB_midi.c ****                 USB_EnableOutEP(USB_midi_out_ep);
 257:Generated_Source\PSoC5/USB_midi.c ****             #endif /* (USB_EP_MANAGEMENT_DMA_MANUAL) */
 258:Generated_Source\PSoC5/USB_midi.c ****         #endif /* (!USB_EP_MANAGEMENT_DMA_AUTO) */
 259:Generated_Source\PSoC5/USB_midi.c **** 
 260:Generated_Source\PSoC5/USB_midi.c ****             if (outLength >= USB_EVENT_LENGTH)
 839              		.loc 1 260 0
 840 0018 032D     		cmp	r5, #3
 841 001a 0DD8     		bhi	.L10
 842 001c 0FE0     		b	.L8
 843              	.LVL6:
 844              	.L9:
 261:Generated_Source\PSoC5/USB_midi.c ****             {
 262:Generated_Source\PSoC5/USB_midi.c ****                 outPointer = 0u;
 263:Generated_Source\PSoC5/USB_midi.c ****                 while (outPointer < outLength)
 264:Generated_Source\PSoC5/USB_midi.c ****                 {
 265:Generated_Source\PSoC5/USB_midi.c ****                     /* In some OS OUT packet could be appended by nulls which could be skipped. */
 266:Generated_Source\PSoC5/USB_midi.c ****                     if (USB_midiOutBuffer[outPointer] == 0u)
 845              		.loc 1 266 0
 846 001e 0B4B     		ldr	r3, .L12+4
 847 0020 185D     		ldrb	r0, [r3, r4]	@ zero_extendqisi2
 848 0022 60B1     		cbz	r0, .L8
 267:Generated_Source\PSoC5/USB_midi.c ****                     {
 268:Generated_Source\PSoC5/USB_midi.c ****                         break;
ARM GAS  C:\Users\JEFFSN~1\AppData\Local\Temp\ccznaSP4.s 			page 61


 269:Generated_Source\PSoC5/USB_midi.c ****                     }
 270:Generated_Source\PSoC5/USB_midi.c **** 
 271:Generated_Source\PSoC5/USB_midi.c ****                 /* Route USB MIDI to the External connection */
 272:Generated_Source\PSoC5/USB_midi.c ****                 #if (USB_MIDI_EXT_MODE >= USB_ONE_EXT_INTRF)
 273:Generated_Source\PSoC5/USB_midi.c ****                     if ((USB_midiOutBuffer[outPointer] & USB_CABLE_MASK) ==
 274:Generated_Source\PSoC5/USB_midi.c ****                          USB_MIDI_CABLE_00)
 275:Generated_Source\PSoC5/USB_midi.c ****                     {
 276:Generated_Source\PSoC5/USB_midi.c ****                         USB_MIDI1_ProcessUsbOut(&USB_midiOutBuffer[outPointer]);
 277:Generated_Source\PSoC5/USB_midi.c ****                     }
 278:Generated_Source\PSoC5/USB_midi.c ****                     else if ((USB_midiOutBuffer[outPointer] & USB_CABLE_MASK) ==
 279:Generated_Source\PSoC5/USB_midi.c ****                              USB_MIDI_CABLE_01)
 280:Generated_Source\PSoC5/USB_midi.c ****                     {
 281:Generated_Source\PSoC5/USB_midi.c ****                     #if (USB_MIDI_EXT_MODE >= USB_TWO_EXT_INTRF)
 282:Generated_Source\PSoC5/USB_midi.c ****                          USB_MIDI2_ProcessUsbOut(&USB_midiOutBuffer[outPointer]);
 283:Generated_Source\PSoC5/USB_midi.c ****                     #endif /*  USB_MIDI_EXT_MODE >= USB_TWO_EXT_INTRF */
 284:Generated_Source\PSoC5/USB_midi.c ****                     }
 285:Generated_Source\PSoC5/USB_midi.c ****                     else
 286:Generated_Source\PSoC5/USB_midi.c ****                     {
 287:Generated_Source\PSoC5/USB_midi.c ****                         /* `#START CUSTOM_MIDI_OUT_EP_SERV` Place your code here */
 288:Generated_Source\PSoC5/USB_midi.c **** 
 289:Generated_Source\PSoC5/USB_midi.c ****                         /* `#END` */
 290:Generated_Source\PSoC5/USB_midi.c **** 
 291:Generated_Source\PSoC5/USB_midi.c ****                         #ifdef USB_MIDI_OUT_EP_SERVICE_CALLBACK
 292:Generated_Source\PSoC5/USB_midi.c ****                             USB_MIDI_OUT_EP_Service_Callback();
 293:Generated_Source\PSoC5/USB_midi.c ****                         #endif /* USB_MIDI_OUT_EP_SERVICE_CALLBACK */
 294:Generated_Source\PSoC5/USB_midi.c ****                     }
 295:Generated_Source\PSoC5/USB_midi.c ****                 #endif /* (USB_MIDI_EXT_MODE >= USB_ONE_EXT_INTRF) */
 296:Generated_Source\PSoC5/USB_midi.c **** 
 297:Generated_Source\PSoC5/USB_midi.c ****                     /* Process any local MIDI output functions */
 298:Generated_Source\PSoC5/USB_midi.c ****                     USB_callbackLocalMidiEvent(USB_midiOutBuffer[outPointer] & USB_CABLE_MASK,
 299:Generated_Source\PSoC5/USB_midi.c ****                                                             &USB_midiOutBuffer[outPointer + USB_EVE
 849              		.loc 1 299 0
 850 0024 631C     		adds	r3, r4, #1
 298:Generated_Source\PSoC5/USB_midi.c ****                                                             &USB_midiOutBuffer[outPointer + USB_EVE
 851              		.loc 1 298 0
 852 0026 0949     		ldr	r1, .L12+4
 853 0028 1944     		add	r1, r1, r3
 854 002a 00F0F000 		and	r0, r0, #240
 855 002e FFF7FEFF 		bl	USB_callbackLocalMidiEvent
 856              	.LVL7:
 300:Generated_Source\PSoC5/USB_midi.c ****                     outPointer += USB_EVENT_LENGTH;
 857              		.loc 1 300 0
 858 0032 0434     		adds	r4, r4, #4
 859              	.LVL8:
 860 0034 E4B2     		uxtb	r4, r4
 861              	.LVL9:
 862 0036 00E0     		b	.L7
 863              	.LVL10:
 864              	.L10:
 865 0038 0024     		movs	r4, #0
 866              	.L7:
 867              	.LVL11:
 263:Generated_Source\PSoC5/USB_midi.c ****                 {
 868              		.loc 1 263 0
 869 003a AC42     		cmp	r4, r5
 870 003c EFD3     		bcc	.L9
 871              	.LVL12:
ARM GAS  C:\Users\JEFFSN~1\AppData\Local\Temp\ccznaSP4.s 			page 62


 872              	.L8:
 301:Generated_Source\PSoC5/USB_midi.c ****                 }
 302:Generated_Source\PSoC5/USB_midi.c ****             }
 303:Generated_Source\PSoC5/USB_midi.c **** 
 304:Generated_Source\PSoC5/USB_midi.c ****         #if (USB_EP_MANAGEMENT_DMA_AUTO)
 305:Generated_Source\PSoC5/USB_midi.c ****             /* Enable OUT endpoint for communication */
 306:Generated_Source\PSoC5/USB_midi.c ****             USB_EnableOutEP(USB_midi_out_ep);
 873              		.loc 1 306 0
 874 003e 024B     		ldr	r3, .L12
 875 0040 1878     		ldrb	r0, [r3]	@ zero_extendqisi2
 876 0042 FFF7FEFF 		bl	USB_EnableOutEP
 877              	.LVL13:
 878              	.L5:
 879 0046 38BD     		pop	{r3, r4, r5, pc}
 880              	.L13:
 881              		.align	2
 882              	.L12:
 883 0048 00000000 		.word	USB_midi_out_ep
 884 004c 00000000 		.word	USB_midiOutBuffer
 885              		.cfi_endproc
 886              	.LFE1:
 887              		.size	USB_MIDI_OUT_Service, .-USB_MIDI_OUT_Service
 888              		.section	.text.USB_MIDI_IN_EP_Service,"ax",%progbits
 889              		.align	2
 890              		.global	USB_MIDI_IN_EP_Service
 891              		.thumb
 892              		.thumb_func
 893              		.type	USB_MIDI_IN_EP_Service, %function
 894              	USB_MIDI_IN_EP_Service:
 895              	.LFB2:
 307:Generated_Source\PSoC5/USB_midi.c ****         #endif  /* (USB_EP_MANAGEMENT_DMA_AUTO) */
 308:Generated_Source\PSoC5/USB_midi.c ****         }
 309:Generated_Source\PSoC5/USB_midi.c ****     }
 310:Generated_Source\PSoC5/USB_midi.c **** #endif /* (USB_MIDI_OUT_BUFF_SIZE > 0) */
 311:Generated_Source\PSoC5/USB_midi.c **** 
 312:Generated_Source\PSoC5/USB_midi.c **** 
 313:Generated_Source\PSoC5/USB_midi.c **** #if (USB_MIDI_IN_BUFF_SIZE > 0)
 314:Generated_Source\PSoC5/USB_midi.c ****     /*******************************************************************************
 315:Generated_Source\PSoC5/USB_midi.c ****     * Function Name: USB_MIDI_IN_EP_Service
 316:Generated_Source\PSoC5/USB_midi.c ****     ****************************************************************************//**
 317:Generated_Source\PSoC5/USB_midi.c ****     *
 318:Generated_Source\PSoC5/USB_midi.c ****     *  Services the USB MIDI IN endpoint. Non-blocking.
 319:Generated_Source\PSoC5/USB_midi.c ****     *  Checks that previous packet was processed by HOST, otherwise service the
 320:Generated_Source\PSoC5/USB_midi.c ****     *  input endpoint on the subsequent call. It is called from the
 321:Generated_Source\PSoC5/USB_midi.c ****     *  USB_MIDI_IN_Service() and from the
 322:Generated_Source\PSoC5/USB_midi.c ****     *  USB_PutUsbMidiIn() function.
 323:Generated_Source\PSoC5/USB_midi.c ****     *
 324:Generated_Source\PSoC5/USB_midi.c ****     * \globalvars
 325:Generated_Source\PSoC5/USB_midi.c ****     *  USB_midi_in_ep: Used as an IN endpoint number.
 326:Generated_Source\PSoC5/USB_midi.c ****     *  USB_midiInBuffer: Function loads the data from this buffer to
 327:Generated_Source\PSoC5/USB_midi.c ****     *    the USB IN endpoint.
 328:Generated_Source\PSoC5/USB_midi.c ****     *   USB_midiInPointer: Cleared to zero when data are sent.
 329:Generated_Source\PSoC5/USB_midi.c ****     *
 330:Generated_Source\PSoC5/USB_midi.c ****     * \reentrant
 331:Generated_Source\PSoC5/USB_midi.c ****     *  No
 332:Generated_Source\PSoC5/USB_midi.c ****     *
 333:Generated_Source\PSoC5/USB_midi.c ****     *******************************************************************************/
ARM GAS  C:\Users\JEFFSN~1\AppData\Local\Temp\ccznaSP4.s 			page 63


 334:Generated_Source\PSoC5/USB_midi.c ****     void USB_MIDI_IN_EP_Service(void) 
 335:Generated_Source\PSoC5/USB_midi.c ****     {
 896              		.loc 1 335 0
 897              		.cfi_startproc
 898              		@ args = 0, pretend = 0, frame = 0
 899              		@ frame_needed = 0, uses_anonymous_args = 0
 900 0000 08B5     		push	{r3, lr}
 901              		.cfi_def_cfa_offset 8
 902              		.cfi_offset 3, -8
 903              		.cfi_offset 14, -4
 336:Generated_Source\PSoC5/USB_midi.c ****         /* Service the USB MIDI input endpoint */
 337:Generated_Source\PSoC5/USB_midi.c ****         /* Check that previous packet was processed by HOST, otherwise service the USB later */
 338:Generated_Source\PSoC5/USB_midi.c ****         if (USB_midiInPointer != 0u)
 904              		.loc 1 338 0
 905 0002 094B     		ldr	r3, .L17
 906 0004 1B78     		ldrb	r3, [r3]	@ zero_extendqisi2
 907 0006 13F0FF0F 		tst	r3, #255
 908 000a 0CD0     		beq	.L14
 339:Generated_Source\PSoC5/USB_midi.c ****         {
 340:Generated_Source\PSoC5/USB_midi.c ****             if(USB_GetEPState(USB_midi_in_ep) == USB_EVENT_PENDING)
 909              		.loc 1 340 0
 910 000c 074B     		ldr	r3, .L17+4
 911 000e 1878     		ldrb	r0, [r3]	@ zero_extendqisi2
 912 0010 FFF7FEFF 		bl	USB_GetEPState
 913              	.LVL14:
 914 0014 0128     		cmp	r0, #1
 915 0016 06D1     		bne	.L14
 341:Generated_Source\PSoC5/USB_midi.c ****             {
 342:Generated_Source\PSoC5/USB_midi.c ****             #if (USB_EP_MANAGEMENT_DMA_AUTO)
 343:Generated_Source\PSoC5/USB_midi.c ****                 USB_LoadInEP(USB_midi_in_ep, NULL, (uint16)USB_midiInPointer);
 916              		.loc 1 343 0
 917 0018 044B     		ldr	r3, .L17+4
 918 001a 1878     		ldrb	r0, [r3]	@ zero_extendqisi2
 919 001c 024B     		ldr	r3, .L17
 920 001e 1A78     		ldrb	r2, [r3]	@ zero_extendqisi2
 921 0020 0021     		movs	r1, #0
 922 0022 FFF7FEFF 		bl	USB_LoadInEP
 923              	.LVL15:
 924              	.L14:
 925 0026 08BD     		pop	{r3, pc}
 926              	.L18:
 927              		.align	2
 928              	.L17:
 929 0028 00000000 		.word	USB_midiInPointer
 930 002c 00000000 		.word	USB_midi_in_ep
 931              		.cfi_endproc
 932              	.LFE2:
 933              		.size	USB_MIDI_IN_EP_Service, .-USB_MIDI_IN_EP_Service
 934              		.section	.text.USB_MIDI_IN_Service,"ax",%progbits
 935              		.align	2
 936              		.global	USB_MIDI_IN_Service
 937              		.thumb
 938              		.thumb_func
 939              		.type	USB_MIDI_IN_Service, %function
 940              	USB_MIDI_IN_Service:
 941              	.LFB3:
 344:Generated_Source\PSoC5/USB_midi.c ****             #else
ARM GAS  C:\Users\JEFFSN~1\AppData\Local\Temp\ccznaSP4.s 			page 64


 345:Generated_Source\PSoC5/USB_midi.c ****                 USB_LoadInEP(USB_midi_in_ep, USB_midiInBuffer,
 346:Generated_Source\PSoC5/USB_midi.c ****                                                               (uint16) USB_midiInPointer);
 347:Generated_Source\PSoC5/USB_midi.c ****             #endif /* (USB_EP_MANAGEMENT_DMA_AUTO) */
 348:Generated_Source\PSoC5/USB_midi.c **** 
 349:Generated_Source\PSoC5/USB_midi.c ****             /* Clear the midiInPointer. For DMA mode, clear this pointer in the ARB ISR when data a
 350:Generated_Source\PSoC5/USB_midi.c ****             #if (USB_EP_MANAGEMENT_MANUAL)
 351:Generated_Source\PSoC5/USB_midi.c ****                 USB_midiInPointer = 0u;
 352:Generated_Source\PSoC5/USB_midi.c ****             #endif /* (USB_EP_MANAGEMENT_MANUAL) */
 353:Generated_Source\PSoC5/USB_midi.c ****             }
 354:Generated_Source\PSoC5/USB_midi.c ****         }
 355:Generated_Source\PSoC5/USB_midi.c ****     }
 356:Generated_Source\PSoC5/USB_midi.c **** 
 357:Generated_Source\PSoC5/USB_midi.c **** 
 358:Generated_Source\PSoC5/USB_midi.c ****     /*******************************************************************************
 359:Generated_Source\PSoC5/USB_midi.c ****     * Function Name: USB_MIDI_IN_Service
 360:Generated_Source\PSoC5/USB_midi.c ****     ****************************************************************************//**
 361:Generated_Source\PSoC5/USB_midi.c ****     *
 362:Generated_Source\PSoC5/USB_midi.c ****     *  This function services the traffic from the MIDI input ports (RX UART)
 363:Generated_Source\PSoC5/USB_midi.c ****     *  and prepare data in USB MIDI IN endpoint buffer.
 364:Generated_Source\PSoC5/USB_midi.c ****     *  Calls the USB_MIDI_IN_EP_Service() function to sent the
 365:Generated_Source\PSoC5/USB_midi.c ****     *  data from buffer to PC. Non-blocking. Should be called from main foreground
 366:Generated_Source\PSoC5/USB_midi.c ****     *  task.
 367:Generated_Source\PSoC5/USB_midi.c ****     *  This function is not protected from the reentrant calls. When it is required
 368:Generated_Source\PSoC5/USB_midi.c ****     *  to use this function in UART RX ISR to guaranty low latency, care should be
 369:Generated_Source\PSoC5/USB_midi.c ****     *  taken to protect from reentrant calls.
 370:Generated_Source\PSoC5/USB_midi.c ****     *  In PSoC 3, if this function is called from an ISR, you must declare this
 371:Generated_Source\PSoC5/USB_midi.c ****     *  function as re-entrant so that different variable storage space is
 372:Generated_Source\PSoC5/USB_midi.c ****     *  created by the compiler. This is automatically taken care for PSoC 4 and
 373:Generated_Source\PSoC5/USB_midi.c ****     *  PSoC 5LP devices by the compiler.
 374:Generated_Source\PSoC5/USB_midi.c ****     *
 375:Generated_Source\PSoC5/USB_midi.c ****     * \globalvars
 376:Generated_Source\PSoC5/USB_midi.c ****     *
 377:Generated_Source\PSoC5/USB_midi.c ****     *   USB_midiInPointer: Cleared to zero when data are sent.
 378:Generated_Source\PSoC5/USB_midi.c ****     *
 379:Generated_Source\PSoC5/USB_midi.c ****     * \reentrant
 380:Generated_Source\PSoC5/USB_midi.c ****     *  No
 381:Generated_Source\PSoC5/USB_midi.c ****     *
 382:Generated_Source\PSoC5/USB_midi.c ****     *******************************************************************************/
 383:Generated_Source\PSoC5/USB_midi.c ****     void USB_MIDI_IN_Service(void) 
 384:Generated_Source\PSoC5/USB_midi.c ****     {
 942              		.loc 1 384 0
 943              		.cfi_startproc
 944              		@ args = 0, pretend = 0, frame = 0
 945              		@ frame_needed = 0, uses_anonymous_args = 0
 946 0000 08B5     		push	{r3, lr}
 947              		.cfi_def_cfa_offset 8
 948              		.cfi_offset 3, -8
 949              		.cfi_offset 14, -4
 385:Generated_Source\PSoC5/USB_midi.c ****         /* Service the MIDI UART inputs until either both receivers have no more
 386:Generated_Source\PSoC5/USB_midi.c ****         *  events or until the input endpoint buffer fills up.
 387:Generated_Source\PSoC5/USB_midi.c ****         */
 388:Generated_Source\PSoC5/USB_midi.c ****     #if (USB_MIDI_EXT_MODE >= USB_ONE_EXT_INTRF)
 389:Generated_Source\PSoC5/USB_midi.c ****             uint8 m1 = 0u;
 390:Generated_Source\PSoC5/USB_midi.c ****             uint8 m2 = 0u;
 391:Generated_Source\PSoC5/USB_midi.c **** 
 392:Generated_Source\PSoC5/USB_midi.c ****         if (0u == USB_midiInPointer)
 393:Generated_Source\PSoC5/USB_midi.c ****         {
ARM GAS  C:\Users\JEFFSN~1\AppData\Local\Temp\ccznaSP4.s 			page 65


 394:Generated_Source\PSoC5/USB_midi.c ****             do
 395:Generated_Source\PSoC5/USB_midi.c ****             {
 396:Generated_Source\PSoC5/USB_midi.c ****                 if (USB_midiInPointer <= (USB_MIDI_IN_BUFF_SIZE - USB_EVENT_LENGTH))
 397:Generated_Source\PSoC5/USB_midi.c ****                 {
 398:Generated_Source\PSoC5/USB_midi.c ****                     /* Check MIDI1 input port for a complete event */
 399:Generated_Source\PSoC5/USB_midi.c ****                     m1 = USB_MIDI1_GetEvent();
 400:Generated_Source\PSoC5/USB_midi.c ****                     if (m1 != 0u)
 401:Generated_Source\PSoC5/USB_midi.c ****                     {
 402:Generated_Source\PSoC5/USB_midi.c ****                         USB_PrepareInBuffer(m1, (uint8 *)&USB_MIDI1_Event.msgBuff[0],
 403:Generated_Source\PSoC5/USB_midi.c ****                                                                        USB_MIDI1_Event.size, USB_MI
 404:Generated_Source\PSoC5/USB_midi.c ****                     }
 405:Generated_Source\PSoC5/USB_midi.c ****                 }
 406:Generated_Source\PSoC5/USB_midi.c **** 
 407:Generated_Source\PSoC5/USB_midi.c ****             #if (USB_MIDI_EXT_MODE >= USB_TWO_EXT_INTRF)
 408:Generated_Source\PSoC5/USB_midi.c ****                 if (USB_midiInPointer <= (USB_MIDI_IN_BUFF_SIZE - USB_EVENT_LENGTH))
 409:Generated_Source\PSoC5/USB_midi.c ****                 {
 410:Generated_Source\PSoC5/USB_midi.c ****                     /* Check MIDI2 input port for a complete event */
 411:Generated_Source\PSoC5/USB_midi.c ****                     m2 = USB_MIDI2_GetEvent();
 412:Generated_Source\PSoC5/USB_midi.c ****                     if (m2 != 0u)
 413:Generated_Source\PSoC5/USB_midi.c ****                     {
 414:Generated_Source\PSoC5/USB_midi.c ****                         USB_PrepareInBuffer(m2, (uint8 *)&USB_MIDI2_Event.msgBuff[0],
 415:Generated_Source\PSoC5/USB_midi.c ****                                                                        USB_MIDI2_Event.size, USB_MI
 416:Generated_Source\PSoC5/USB_midi.c ****                     }
 417:Generated_Source\PSoC5/USB_midi.c ****                 }
 418:Generated_Source\PSoC5/USB_midi.c ****             #endif /*  USB_MIDI_EXT_MODE >= USB_TWO_EXT_INTRF */
 419:Generated_Source\PSoC5/USB_midi.c ****             }
 420:Generated_Source\PSoC5/USB_midi.c ****             while((USB_midiInPointer <= (USB_MIDI_IN_BUFF_SIZE - USB_EVENT_LENGTH)) &&
 421:Generated_Source\PSoC5/USB_midi.c ****                   ((m1 != 0u) || (m2 != 0u)));
 422:Generated_Source\PSoC5/USB_midi.c ****         }
 423:Generated_Source\PSoC5/USB_midi.c ****     #endif /* (USB_MIDI_EXT_MODE >= USB_ONE_EXT_INTRF) */
 424:Generated_Source\PSoC5/USB_midi.c **** 
 425:Generated_Source\PSoC5/USB_midi.c ****         /* Service the USB MIDI input endpoint */
 426:Generated_Source\PSoC5/USB_midi.c ****         USB_MIDI_IN_EP_Service();
 950              		.loc 1 426 0
 951 0002 FFF7FEFF 		bl	USB_MIDI_IN_EP_Service
 952              	.LVL16:
 953 0006 08BD     		pop	{r3, pc}
 954              		.cfi_endproc
 955              	.LFE3:
 956              		.size	USB_MIDI_IN_Service, .-USB_MIDI_IN_Service
 957              		.section	.text.USB_PrepareInBuffer,"ax",%progbits
 958              		.align	2
 959              		.global	USB_PrepareInBuffer
 960              		.thumb
 961              		.thumb_func
 962              		.type	USB_PrepareInBuffer, %function
 963              	USB_PrepareInBuffer:
 964              	.LFB5:
 427:Generated_Source\PSoC5/USB_midi.c ****     }
 428:Generated_Source\PSoC5/USB_midi.c **** 
 429:Generated_Source\PSoC5/USB_midi.c **** 
 430:Generated_Source\PSoC5/USB_midi.c ****     /***************************************************************************
 431:Generated_Source\PSoC5/USB_midi.c ****     * Function Name: USB_PutUsbMidiIn
 432:Generated_Source\PSoC5/USB_midi.c ****     ************************************************************************//**
 433:Generated_Source\PSoC5/USB_midi.c ****     *
 434:Generated_Source\PSoC5/USB_midi.c ****     *  This function puts one MIDI message into the USB MIDI In endpoint buffer.
 435:Generated_Source\PSoC5/USB_midi.c ****     *  This is a MIDI input message to the host. This function is used only if
ARM GAS  C:\Users\JEFFSN~1\AppData\Local\Temp\ccznaSP4.s 			page 66


 436:Generated_Source\PSoC5/USB_midi.c ****     *  the device has internal MIDI input functionality.
 437:Generated_Source\PSoC5/USB_midi.c ****     *  The USB_MIDI_IN_Service() function should also be called to
 438:Generated_Source\PSoC5/USB_midi.c ****     *  send the message from local buffer to the IN endpoint.
 439:Generated_Source\PSoC5/USB_midi.c ****     *
 440:Generated_Source\PSoC5/USB_midi.c ****     *  \param ic: The length of the MIDI message or command is described on the
 441:Generated_Source\PSoC5/USB_midi.c ****     *  following table.
 442:Generated_Source\PSoC5/USB_midi.c ****     *  Value          | Description
 443:Generated_Source\PSoC5/USB_midi.c ****     *  ---------------|---------------------------------------------------------
 444:Generated_Source\PSoC5/USB_midi.c ****     *  0              | No message (should never happen)
 445:Generated_Source\PSoC5/USB_midi.c ****     *  1 - 3          | Complete MIDI message in midiMsg
 446:Generated_Source\PSoC5/USB_midi.c ****     *  3 IN EP LENGTH | Complete SySEx message(without EOSEX byte) in midiMsg. The length is limite
 447:Generated_Source\PSoC5/USB_midi.c ****     *  MIDI_SYSEX     | Start or continuation of SysEx message (put event bytes in midiMsg buffer)
 448:Generated_Source\PSoC5/USB_midi.c ****     *  MIDI_EOSEX     | End of SysEx message (put event bytes in midiMsg buffer)
 449:Generated_Source\PSoC5/USB_midi.c ****     *  MIDI_TUNEREQ   | Tune Request message (single byte system common message)
 450:Generated_Source\PSoC5/USB_midi.c ****     *  0xF8 - 0xFF    | Single byte real-time message
 451:Generated_Source\PSoC5/USB_midi.c ****     *
 452:Generated_Source\PSoC5/USB_midi.c ****     *  \param midiMsg: pointer to MIDI message.
 453:Generated_Source\PSoC5/USB_midi.c ****     *  \param cable:   cable number.
 454:Generated_Source\PSoC5/USB_midi.c ****     *
 455:Generated_Source\PSoC5/USB_midi.c ****     * \return
 456:Generated_Source\PSoC5/USB_midi.c ****     *   Return Value          | Description
 457:Generated_Source\PSoC5/USB_midi.c ****     *   ----------------------|-----------------------------------------
 458:Generated_Source\PSoC5/USB_midi.c ****     *  USB_TRUE  | Host is not ready to receive this message
 459:Generated_Source\PSoC5/USB_midi.c ****     *  USB_FALSE | Success transfer
 460:Generated_Source\PSoC5/USB_midi.c ****     *
 461:Generated_Source\PSoC5/USB_midi.c ****     * \globalvars
 462:Generated_Source\PSoC5/USB_midi.c ****     *
 463:Generated_Source\PSoC5/USB_midi.c ****     *  \ref USB_midi_in_ep: MIDI IN endpoint number used for
 464:Generated_Source\PSoC5/USB_midi.c ****     *        sending data.
 465:Generated_Source\PSoC5/USB_midi.c ****     *
 466:Generated_Source\PSoC5/USB_midi.c ****     *  \ref USB_midiInPointer: Checked this variable to see if
 467:Generated_Source\PSoC5/USB_midi.c ****     *        there is enough free space in the IN endpoint buffer. If buffer is
 468:Generated_Source\PSoC5/USB_midi.c ****     *        full, initiate sending to PC.
 469:Generated_Source\PSoC5/USB_midi.c ****     *
 470:Generated_Source\PSoC5/USB_midi.c ****     * \reentrant
 471:Generated_Source\PSoC5/USB_midi.c ****     *  No
 472:Generated_Source\PSoC5/USB_midi.c ****     *
 473:Generated_Source\PSoC5/USB_midi.c ****     ***************************************************************************/
 474:Generated_Source\PSoC5/USB_midi.c ****     uint8 USB_PutUsbMidiIn(uint8 ic, const uint8 midiMsg[], uint8 cable)
 475:Generated_Source\PSoC5/USB_midi.c ****                                                                 
 476:Generated_Source\PSoC5/USB_midi.c ****     {
 477:Generated_Source\PSoC5/USB_midi.c ****         uint8 retError = USB_FALSE;
 478:Generated_Source\PSoC5/USB_midi.c **** 
 479:Generated_Source\PSoC5/USB_midi.c ****         /* Protect PrepareInBuffer() function from concurrent calls */
 480:Generated_Source\PSoC5/USB_midi.c ****     #if (USB_MIDI_EXT_MODE >= USB_ONE_EXT_INTRF)
 481:Generated_Source\PSoC5/USB_midi.c ****         MIDI1_UART_DisableRxInt();
 482:Generated_Source\PSoC5/USB_midi.c ****         #if (USB_MIDI_EXT_MODE >= USB_TWO_EXT_INTRF)
 483:Generated_Source\PSoC5/USB_midi.c ****             MIDI2_UART_DisableRxInt();
 484:Generated_Source\PSoC5/USB_midi.c ****         #endif /* (USB_MIDI_EXT_MODE >= USB_TWO_EXT_INTRF) */
 485:Generated_Source\PSoC5/USB_midi.c ****     #endif /* (USB_MIDI_EXT_MODE >= USB_ONE_EXT_INTRF) */
 486:Generated_Source\PSoC5/USB_midi.c **** 
 487:Generated_Source\PSoC5/USB_midi.c ****         if (USB_midiInPointer >
 488:Generated_Source\PSoC5/USB_midi.c ****                     (USB_EP[USB_midi_in_ep].bufferSize - USB_EVENT_LENGTH))
 489:Generated_Source\PSoC5/USB_midi.c ****         {
 490:Generated_Source\PSoC5/USB_midi.c ****             USB_MIDI_IN_EP_Service();
 491:Generated_Source\PSoC5/USB_midi.c ****         }
 492:Generated_Source\PSoC5/USB_midi.c **** 
ARM GAS  C:\Users\JEFFSN~1\AppData\Local\Temp\ccznaSP4.s 			page 67


 493:Generated_Source\PSoC5/USB_midi.c ****         if (USB_midiInPointer <=
 494:Generated_Source\PSoC5/USB_midi.c ****                     (USB_EP[USB_midi_in_ep].bufferSize - USB_EVENT_LENGTH))
 495:Generated_Source\PSoC5/USB_midi.c ****         {
 496:Generated_Source\PSoC5/USB_midi.c ****             if((ic < USB_EVENT_LENGTH) || (ic >= USB_MIDI_STATUS_MASK))
 497:Generated_Source\PSoC5/USB_midi.c ****             {
 498:Generated_Source\PSoC5/USB_midi.c ****                 USB_PrepareInBuffer(ic, midiMsg, ic, cable);
 499:Generated_Source\PSoC5/USB_midi.c ****             }
 500:Generated_Source\PSoC5/USB_midi.c ****             else /* Only SysEx message is greater than 4 bytes */
 501:Generated_Source\PSoC5/USB_midi.c ****             {
 502:Generated_Source\PSoC5/USB_midi.c ****                 /* Convert SysEx message into midi message format */
 503:Generated_Source\PSoC5/USB_midi.c ****                 uint8 idx = 0u;
 504:Generated_Source\PSoC5/USB_midi.c ****                 do
 505:Generated_Source\PSoC5/USB_midi.c ****                 {
 506:Generated_Source\PSoC5/USB_midi.c ****                     /* Process 3 bytes of message until 0-2 bytes are left. These bytes are handled
 507:Generated_Source\PSoC5/USB_midi.c ****                     USB_PrepareInBuffer(USB_MIDI_SYSEX, &midiMsg[idx],
 508:Generated_Source\PSoC5/USB_midi.c ****                                                      USB_EVENT_BYTE3, cable);
 509:Generated_Source\PSoC5/USB_midi.c **** 
 510:Generated_Source\PSoC5/USB_midi.c ****                     /* Move to next 3 bytes of message */
 511:Generated_Source\PSoC5/USB_midi.c ****                     ic  -= USB_EVENT_BYTE3;
 512:Generated_Source\PSoC5/USB_midi.c ****                     idx += USB_EVENT_BYTE3;
 513:Generated_Source\PSoC5/USB_midi.c **** 
 514:Generated_Source\PSoC5/USB_midi.c ****                     if (USB_midiInPointer >
 515:Generated_Source\PSoC5/USB_midi.c ****                         (USB_EP[USB_midi_in_ep].bufferSize - USB_EVENT_LENGTH))
 516:Generated_Source\PSoC5/USB_midi.c ****                     {
 517:Generated_Source\PSoC5/USB_midi.c ****                         /* Load message into endpoint */
 518:Generated_Source\PSoC5/USB_midi.c ****                         USB_MIDI_IN_EP_Service();
 519:Generated_Source\PSoC5/USB_midi.c **** 
 520:Generated_Source\PSoC5/USB_midi.c ****                         if (USB_midiInPointer >
 521:Generated_Source\PSoC5/USB_midi.c ****                            (USB_EP[USB_midi_in_ep].bufferSize - USB_EVENT_LENGTH))
 522:Generated_Source\PSoC5/USB_midi.c ****                         {
 523:Generated_Source\PSoC5/USB_midi.c ****                             /* Error condition. Host is not ready to receive this packet. */
 524:Generated_Source\PSoC5/USB_midi.c ****                             retError = USB_TRUE;
 525:Generated_Source\PSoC5/USB_midi.c ****                             break;
 526:Generated_Source\PSoC5/USB_midi.c ****                         }
 527:Generated_Source\PSoC5/USB_midi.c ****                     }
 528:Generated_Source\PSoC5/USB_midi.c ****                 }
 529:Generated_Source\PSoC5/USB_midi.c ****                 while (ic >= USB_EVENT_BYTE3);
 530:Generated_Source\PSoC5/USB_midi.c **** 
 531:Generated_Source\PSoC5/USB_midi.c ****                 if (retError == USB_FALSE)
 532:Generated_Source\PSoC5/USB_midi.c ****                 {
 533:Generated_Source\PSoC5/USB_midi.c ****                     /* Handle end of message: valid size of messages is 0, 1 and 2 */
 534:Generated_Source\PSoC5/USB_midi.c ****                     USB_PrepareInBuffer(USB_MIDI_EOSEX, &midiMsg[idx], ic, cable);
 535:Generated_Source\PSoC5/USB_midi.c ****                 }
 536:Generated_Source\PSoC5/USB_midi.c ****             }
 537:Generated_Source\PSoC5/USB_midi.c ****         }
 538:Generated_Source\PSoC5/USB_midi.c ****         else
 539:Generated_Source\PSoC5/USB_midi.c ****         {
 540:Generated_Source\PSoC5/USB_midi.c ****             /* Error condition. Host is not ready to receive this packet. */
 541:Generated_Source\PSoC5/USB_midi.c ****             retError = USB_TRUE;
 542:Generated_Source\PSoC5/USB_midi.c ****         }
 543:Generated_Source\PSoC5/USB_midi.c **** 
 544:Generated_Source\PSoC5/USB_midi.c ****     #if (USB_MIDI_EXT_MODE >= USB_ONE_EXT_INTRF)
 545:Generated_Source\PSoC5/USB_midi.c ****         MIDI1_UART_EnableRxInt();
 546:Generated_Source\PSoC5/USB_midi.c ****         #if (USB_MIDI_EXT_MODE >= USB_TWO_EXT_INTRF)
 547:Generated_Source\PSoC5/USB_midi.c ****             MIDI2_UART_EnableRxInt();
 548:Generated_Source\PSoC5/USB_midi.c ****         #endif /* (USB_MIDI_EXT_MODE >= USB_TWO_EXT_INTRF) */
 549:Generated_Source\PSoC5/USB_midi.c ****     #endif /* (USB_MIDI_EXT_MODE >= USB_ONE_EXT_INTRF) */
ARM GAS  C:\Users\JEFFSN~1\AppData\Local\Temp\ccznaSP4.s 			page 68


 550:Generated_Source\PSoC5/USB_midi.c **** 
 551:Generated_Source\PSoC5/USB_midi.c ****         return (retError);
 552:Generated_Source\PSoC5/USB_midi.c ****     }
 553:Generated_Source\PSoC5/USB_midi.c **** 
 554:Generated_Source\PSoC5/USB_midi.c **** 
 555:Generated_Source\PSoC5/USB_midi.c ****     /*******************************************************************************
 556:Generated_Source\PSoC5/USB_midi.c ****     * Function Name: USB_PrepareInBuffer
 557:Generated_Source\PSoC5/USB_midi.c ****     ****************************************************************************//**
 558:Generated_Source\PSoC5/USB_midi.c ****     *
 559:Generated_Source\PSoC5/USB_midi.c ****     *  Builds a USB MIDI event in the input endpoint buffer at the current pointer.
 560:Generated_Source\PSoC5/USB_midi.c ****     *  Puts one MIDI message into the USB MIDI In endpoint buffer.
 561:Generated_Source\PSoC5/USB_midi.c ****     *
 562:Generated_Source\PSoC5/USB_midi.c ****     *  \param ic:   0 = No message (should never happen)
 563:Generated_Source\PSoC5/USB_midi.c ****     *        1 - 3 = Complete MIDI message at pMdat[0]
 564:Generated_Source\PSoC5/USB_midi.c ****     *        MIDI_SYSEX = Start or continuation of SysEx message
 565:Generated_Source\PSoC5/USB_midi.c ****     *                     (put eventLen bytes in buffer)
 566:Generated_Source\PSoC5/USB_midi.c ****     *        MIDI_EOSEX = End of SysEx message
 567:Generated_Source\PSoC5/USB_midi.c ****     *                     (put eventLen bytes in buffer,
 568:Generated_Source\PSoC5/USB_midi.c ****     *                      and append MIDI_EOSEX)
 569:Generated_Source\PSoC5/USB_midi.c ****     *        MIDI_TUNEREQ = Tune Request message (single byte system common msg)
 570:Generated_Source\PSoC5/USB_midi.c ****     *        0xf8 - 0xff = Single byte real-time message
 571:Generated_Source\PSoC5/USB_midi.c ****     *
 572:Generated_Source\PSoC5/USB_midi.c ****     *  \param srcBuff: pointer to MIDI data
 573:Generated_Source\PSoC5/USB_midi.c ****     *  \param eventLen: number of bytes in MIDI event
 574:Generated_Source\PSoC5/USB_midi.c ****     *  \param cable: MIDI source port number
 575:Generated_Source\PSoC5/USB_midi.c ****     *
 576:Generated_Source\PSoC5/USB_midi.c ****     * \globalvars
 577:Generated_Source\PSoC5/USB_midi.c ****     *  USB_midiInBuffer: This buffer is used for saving and combine the
 578:Generated_Source\PSoC5/USB_midi.c ****     *    received from UART(s) and(or) generated internally by
 579:Generated_Source\PSoC5/USB_midi.c ****     *    USB_PutUsbMidiIn() function messages.
 580:Generated_Source\PSoC5/USB_midi.c ****     *  USB_midiInPointer: Used as an index for midiInBuffer to
 581:Generated_Source\PSoC5/USB_midi.c ****     *     write data.
 582:Generated_Source\PSoC5/USB_midi.c ****     *
 583:Generated_Source\PSoC5/USB_midi.c ****     * \reentrant
 584:Generated_Source\PSoC5/USB_midi.c ****     *  No
 585:Generated_Source\PSoC5/USB_midi.c ****     *
 586:Generated_Source\PSoC5/USB_midi.c ****     *******************************************************************************/
 587:Generated_Source\PSoC5/USB_midi.c ****     void USB_PrepareInBuffer(uint8 ic, const uint8 srcBuff[], uint8 eventLen, uint8 cable)
 588:Generated_Source\PSoC5/USB_midi.c ****                                                                  
 589:Generated_Source\PSoC5/USB_midi.c ****     {
 965              		.loc 1 589 0
 966              		.cfi_startproc
 967              		@ args = 0, pretend = 0, frame = 0
 968              		@ frame_needed = 0, uses_anonymous_args = 0
 969              		@ link register save eliminated.
 970              	.LVL17:
 971 0000 70B4     		push	{r4, r5, r6}
 972              		.cfi_def_cfa_offset 12
 973              		.cfi_offset 4, -12
 974              		.cfi_offset 5, -8
 975              		.cfi_offset 6, -4
 590:Generated_Source\PSoC5/USB_midi.c ****         uint8 srcBuffZero;
 591:Generated_Source\PSoC5/USB_midi.c ****         uint8 srcBuffOne;
 592:Generated_Source\PSoC5/USB_midi.c **** 
 593:Generated_Source\PSoC5/USB_midi.c ****         srcBuffZero = srcBuff[0u];
 976              		.loc 1 593 0
 977 0002 0D78     		ldrb	r5, [r1]	@ zero_extendqisi2
ARM GAS  C:\Users\JEFFSN~1\AppData\Local\Temp\ccznaSP4.s 			page 69


 978              	.LVL18:
 594:Generated_Source\PSoC5/USB_midi.c ****         srcBuffOne  = srcBuff[1u];
 979              		.loc 1 594 0
 980 0004 4C78     		ldrb	r4, [r1, #1]	@ zero_extendqisi2
 981              	.LVL19:
 595:Generated_Source\PSoC5/USB_midi.c **** 
 596:Generated_Source\PSoC5/USB_midi.c ****         if (ic >= (USB_MIDI_STATUS_MASK | USB_MIDI_SINGLE_BYTE_MASK))
 982              		.loc 1 596 0
 983 0006 F728     		cmp	r0, #247
 984 0008 21D9     		bls	.L22
 597:Generated_Source\PSoC5/USB_midi.c ****         {
 598:Generated_Source\PSoC5/USB_midi.c ****             USB_midiInBuffer[USB_midiInPointer] = USB_SINGLE_BYTE | cable;
 985              		.loc 1 598 0
 986 000a 7B4A     		ldr	r2, .L36
 987              	.LVL20:
 988 000c 1478     		ldrb	r4, [r2]	@ zero_extendqisi2
 989              	.LVL21:
 990 000e E4B2     		uxtb	r4, r4
 991 0010 7A49     		ldr	r1, .L36+4
 992              	.LVL22:
 993 0012 43F00F03 		orr	r3, r3, #15
 994              	.LVL23:
 995 0016 0B55     		strb	r3, [r1, r4]
 996              	.LVL24:
 599:Generated_Source\PSoC5/USB_midi.c ****             USB_midiInPointer++;
 997              		.loc 1 599 0
 998 0018 1378     		ldrb	r3, [r2]	@ zero_extendqisi2
 999 001a 0133     		adds	r3, r3, #1
 1000 001c DBB2     		uxtb	r3, r3
 1001 001e 1370     		strb	r3, [r2]
 600:Generated_Source\PSoC5/USB_midi.c ****             USB_midiInBuffer[USB_midiInPointer] = ic;
 1002              		.loc 1 600 0
 1003 0020 1378     		ldrb	r3, [r2]	@ zero_extendqisi2
 1004 0022 DBB2     		uxtb	r3, r3
 1005 0024 C854     		strb	r0, [r1, r3]
 601:Generated_Source\PSoC5/USB_midi.c ****             USB_midiInPointer++;
 1006              		.loc 1 601 0
 1007 0026 1378     		ldrb	r3, [r2]	@ zero_extendqisi2
 1008 0028 0133     		adds	r3, r3, #1
 1009 002a DBB2     		uxtb	r3, r3
 1010 002c 1370     		strb	r3, [r2]
 602:Generated_Source\PSoC5/USB_midi.c ****             USB_midiInBuffer[USB_midiInPointer] = 0u;
 1011              		.loc 1 602 0
 1012 002e 1378     		ldrb	r3, [r2]	@ zero_extendqisi2
 1013 0030 DBB2     		uxtb	r3, r3
 1014 0032 0020     		movs	r0, #0
 1015              	.LVL25:
 1016 0034 C854     		strb	r0, [r1, r3]
 603:Generated_Source\PSoC5/USB_midi.c ****             USB_midiInPointer++;
 1017              		.loc 1 603 0
 1018 0036 1378     		ldrb	r3, [r2]	@ zero_extendqisi2
 1019 0038 0133     		adds	r3, r3, #1
 1020 003a DBB2     		uxtb	r3, r3
 1021 003c 1370     		strb	r3, [r2]
 604:Generated_Source\PSoC5/USB_midi.c ****             USB_midiInBuffer[USB_midiInPointer] = 0u;
 1022              		.loc 1 604 0
 1023 003e 1378     		ldrb	r3, [r2]	@ zero_extendqisi2
ARM GAS  C:\Users\JEFFSN~1\AppData\Local\Temp\ccznaSP4.s 			page 70


 1024 0040 DBB2     		uxtb	r3, r3
 1025 0042 C854     		strb	r0, [r1, r3]
 605:Generated_Source\PSoC5/USB_midi.c ****             USB_midiInPointer++;
 1026              		.loc 1 605 0
 1027 0044 1378     		ldrb	r3, [r2]	@ zero_extendqisi2
 1028 0046 0133     		adds	r3, r3, #1
 1029 0048 DBB2     		uxtb	r3, r3
 1030 004a 1370     		strb	r3, [r2]
 1031 004c D2E0     		b	.L21
 1032              	.LVL26:
 1033              	.L22:
 606:Generated_Source\PSoC5/USB_midi.c ****         }
 607:Generated_Source\PSoC5/USB_midi.c ****         else if((ic < USB_EVENT_LENGTH) || (ic == USB_MIDI_SYSEX))
 1034              		.loc 1 607 0
 1035 004e 0328     		cmp	r0, #3
 1036 0050 01D9     		bls	.L24
 1037              		.loc 1 607 0 is_stmt 0 discriminator 1
 1038 0052 F028     		cmp	r0, #240
 1039 0054 5FD1     		bne	.L25
 1040              	.L24:
 608:Generated_Source\PSoC5/USB_midi.c ****         {
 609:Generated_Source\PSoC5/USB_midi.c ****             if(ic == USB_MIDI_SYSEX)
 1041              		.loc 1 609 0 is_stmt 1
 1042 0056 F028     		cmp	r0, #240
 1043 0058 0BD1     		bne	.L26
 610:Generated_Source\PSoC5/USB_midi.c ****             {
 611:Generated_Source\PSoC5/USB_midi.c ****                 USB_midiInBuffer[USB_midiInPointer] = USB_SYSEX | cable;
 1044              		.loc 1 611 0
 1045 005a 674A     		ldr	r2, .L36
 1046              	.LVL27:
 1047 005c 1078     		ldrb	r0, [r2]	@ zero_extendqisi2
 1048              	.LVL28:
 1049 005e C0B2     		uxtb	r0, r0
 1050 0060 43F00403 		orr	r3, r3, #4
 1051              	.LVL29:
 1052 0064 654E     		ldr	r6, .L36+4
 1053 0066 3354     		strb	r3, [r6, r0]
 612:Generated_Source\PSoC5/USB_midi.c ****                 USB_midiInPointer++;
 1054              		.loc 1 612 0
 1055 0068 1378     		ldrb	r3, [r2]	@ zero_extendqisi2
 1056 006a 0133     		adds	r3, r3, #1
 1057 006c DBB2     		uxtb	r3, r3
 1058 006e 1370     		strb	r3, [r2]
 1059 0070 38E0     		b	.L27
 1060              	.LVL30:
 1061              	.L26:
 613:Generated_Source\PSoC5/USB_midi.c ****             }
 614:Generated_Source\PSoC5/USB_midi.c ****             else if (srcBuffZero < USB_MIDI_SYSEX)
 1062              		.loc 1 614 0
 1063 0072 EF2D     		cmp	r5, #239
 1064 0074 0BD8     		bhi	.L28
 615:Generated_Source\PSoC5/USB_midi.c ****             {
 616:Generated_Source\PSoC5/USB_midi.c ****                 USB_midiInBuffer[USB_midiInPointer] = (srcBuffZero >> 4u) | cable;
 1065              		.loc 1 616 0
 1066 0076 604A     		ldr	r2, .L36
 1067              	.LVL31:
 1068 0078 1078     		ldrb	r0, [r2]	@ zero_extendqisi2
ARM GAS  C:\Users\JEFFSN~1\AppData\Local\Temp\ccznaSP4.s 			page 71


 1069              	.LVL32:
 1070 007a C0B2     		uxtb	r0, r0
 1071 007c 43EA1513 		orr	r3, r3, r5, lsr #4
 1072              	.LVL33:
 1073 0080 5E4E     		ldr	r6, .L36+4
 1074 0082 3354     		strb	r3, [r6, r0]
 617:Generated_Source\PSoC5/USB_midi.c ****                 USB_midiInPointer++;
 1075              		.loc 1 617 0
 1076 0084 1378     		ldrb	r3, [r2]	@ zero_extendqisi2
 1077 0086 0133     		adds	r3, r3, #1
 1078 0088 DBB2     		uxtb	r3, r3
 1079 008a 1370     		strb	r3, [r2]
 1080 008c 2AE0     		b	.L27
 1081              	.LVL34:
 1082              	.L28:
 618:Generated_Source\PSoC5/USB_midi.c ****             }
 619:Generated_Source\PSoC5/USB_midi.c ****             else if (srcBuffZero == USB_MIDI_TUNEREQ)
 1083              		.loc 1 619 0
 1084 008e F62D     		cmp	r5, #246
 1085 0090 0BD1     		bne	.L29
 620:Generated_Source\PSoC5/USB_midi.c ****             {
 621:Generated_Source\PSoC5/USB_midi.c ****                 USB_midiInBuffer[USB_midiInPointer] = USB_1BYTE_COMMON | cable;
 1086              		.loc 1 621 0
 1087 0092 594A     		ldr	r2, .L36
 1088              	.LVL35:
 1089 0094 1078     		ldrb	r0, [r2]	@ zero_extendqisi2
 1090              	.LVL36:
 1091 0096 C0B2     		uxtb	r0, r0
 1092 0098 43F00503 		orr	r3, r3, #5
 1093              	.LVL37:
 1094 009c 574E     		ldr	r6, .L36+4
 1095 009e 3354     		strb	r3, [r6, r0]
 622:Generated_Source\PSoC5/USB_midi.c ****                 USB_midiInPointer++;
 1096              		.loc 1 622 0
 1097 00a0 1378     		ldrb	r3, [r2]	@ zero_extendqisi2
 1098 00a2 0133     		adds	r3, r3, #1
 1099 00a4 DBB2     		uxtb	r3, r3
 1100 00a6 1370     		strb	r3, [r2]
 1101 00a8 1CE0     		b	.L27
 1102              	.LVL38:
 1103              	.L29:
 623:Generated_Source\PSoC5/USB_midi.c ****             }
 624:Generated_Source\PSoC5/USB_midi.c ****             else if ((srcBuffZero == USB_MIDI_QFM) || (srcBuffZero == USB_MIDI_SONGSEL))
 1104              		.loc 1 624 0
 1105 00aa F12D     		cmp	r5, #241
 1106 00ac 01D0     		beq	.L30
 1107              		.loc 1 624 0 is_stmt 0 discriminator 1
 1108 00ae F32D     		cmp	r5, #243
 1109 00b0 0BD1     		bne	.L31
 1110              	.L30:
 625:Generated_Source\PSoC5/USB_midi.c ****             {
 626:Generated_Source\PSoC5/USB_midi.c ****                 USB_midiInBuffer[USB_midiInPointer] = USB_2BYTE_COMMON | cable;
 1111              		.loc 1 626 0 is_stmt 1
 1112 00b2 514A     		ldr	r2, .L36
 1113              	.LVL39:
 1114 00b4 1078     		ldrb	r0, [r2]	@ zero_extendqisi2
 1115              	.LVL40:
ARM GAS  C:\Users\JEFFSN~1\AppData\Local\Temp\ccznaSP4.s 			page 72


 1116 00b6 C0B2     		uxtb	r0, r0
 1117 00b8 43F00203 		orr	r3, r3, #2
 1118              	.LVL41:
 1119 00bc 4F4E     		ldr	r6, .L36+4
 1120 00be 3354     		strb	r3, [r6, r0]
 627:Generated_Source\PSoC5/USB_midi.c ****                 USB_midiInPointer++;
 1121              		.loc 1 627 0
 1122 00c0 1378     		ldrb	r3, [r2]	@ zero_extendqisi2
 1123 00c2 0133     		adds	r3, r3, #1
 1124 00c4 DBB2     		uxtb	r3, r3
 1125 00c6 1370     		strb	r3, [r2]
 1126 00c8 0CE0     		b	.L27
 1127              	.LVL42:
 1128              	.L31:
 628:Generated_Source\PSoC5/USB_midi.c ****             }
 629:Generated_Source\PSoC5/USB_midi.c ****             else if (srcBuffZero == USB_MIDI_SPP)
 1129              		.loc 1 629 0
 1130 00ca F22D     		cmp	r5, #242
 1131 00cc 0AD1     		bne	.L27
 630:Generated_Source\PSoC5/USB_midi.c ****             {
 631:Generated_Source\PSoC5/USB_midi.c ****                 USB_midiInBuffer[USB_midiInPointer] = USB_3BYTE_COMMON | cable;
 1132              		.loc 1 631 0
 1133 00ce 4A4A     		ldr	r2, .L36
 1134              	.LVL43:
 1135 00d0 1078     		ldrb	r0, [r2]	@ zero_extendqisi2
 1136              	.LVL44:
 1137 00d2 C0B2     		uxtb	r0, r0
 1138 00d4 43F00303 		orr	r3, r3, #3
 1139              	.LVL45:
 1140 00d8 484E     		ldr	r6, .L36+4
 1141 00da 3354     		strb	r3, [r6, r0]
 632:Generated_Source\PSoC5/USB_midi.c ****                 USB_midiInPointer++;
 1142              		.loc 1 632 0
 1143 00dc 1378     		ldrb	r3, [r2]	@ zero_extendqisi2
 1144 00de 0133     		adds	r3, r3, #1
 1145 00e0 DBB2     		uxtb	r3, r3
 1146 00e2 1370     		strb	r3, [r2]
 1147              	.L27:
 633:Generated_Source\PSoC5/USB_midi.c ****             }
 634:Generated_Source\PSoC5/USB_midi.c ****             else
 635:Generated_Source\PSoC5/USB_midi.c ****             {
 636:Generated_Source\PSoC5/USB_midi.c ****             }
 637:Generated_Source\PSoC5/USB_midi.c **** 
 638:Generated_Source\PSoC5/USB_midi.c ****             USB_midiInBuffer[USB_midiInPointer] = srcBuffZero;
 1148              		.loc 1 638 0
 1149 00e4 444B     		ldr	r3, .L36
 1150 00e6 1A78     		ldrb	r2, [r3]	@ zero_extendqisi2
 1151 00e8 D2B2     		uxtb	r2, r2
 1152 00ea 4448     		ldr	r0, .L36+4
 1153 00ec 8554     		strb	r5, [r0, r2]
 639:Generated_Source\PSoC5/USB_midi.c ****             USB_midiInPointer++;
 1154              		.loc 1 639 0
 1155 00ee 1A78     		ldrb	r2, [r3]	@ zero_extendqisi2
 1156 00f0 0132     		adds	r2, r2, #1
 1157 00f2 D2B2     		uxtb	r2, r2
 1158 00f4 1A70     		strb	r2, [r3]
 640:Generated_Source\PSoC5/USB_midi.c ****             USB_midiInBuffer[USB_midiInPointer] = srcBuffOne;
ARM GAS  C:\Users\JEFFSN~1\AppData\Local\Temp\ccznaSP4.s 			page 73


 1159              		.loc 1 640 0
 1160 00f6 1A78     		ldrb	r2, [r3]	@ zero_extendqisi2
 1161 00f8 D2B2     		uxtb	r2, r2
 1162 00fa 8454     		strb	r4, [r0, r2]
 641:Generated_Source\PSoC5/USB_midi.c ****             USB_midiInPointer++;
 1163              		.loc 1 641 0
 1164 00fc 1A78     		ldrb	r2, [r3]	@ zero_extendqisi2
 1165 00fe 0132     		adds	r2, r2, #1
 1166 0100 D2B2     		uxtb	r2, r2
 1167 0102 1A70     		strb	r2, [r3]
 642:Generated_Source\PSoC5/USB_midi.c ****             USB_midiInBuffer[USB_midiInPointer] = srcBuff[2u];
 1168              		.loc 1 642 0
 1169 0104 1A78     		ldrb	r2, [r3]	@ zero_extendqisi2
 1170 0106 D2B2     		uxtb	r2, r2
 1171 0108 8978     		ldrb	r1, [r1, #2]	@ zero_extendqisi2
 1172              	.LVL46:
 1173 010a 8154     		strb	r1, [r0, r2]
 643:Generated_Source\PSoC5/USB_midi.c ****             USB_midiInPointer++;
 1174              		.loc 1 643 0
 1175 010c 1A78     		ldrb	r2, [r3]	@ zero_extendqisi2
 1176 010e 0132     		adds	r2, r2, #1
 1177 0110 D2B2     		uxtb	r2, r2
 1178 0112 1A70     		strb	r2, [r3]
 1179 0114 6EE0     		b	.L21
 1180              	.LVL47:
 1181              	.L25:
 644:Generated_Source\PSoC5/USB_midi.c ****         }
 645:Generated_Source\PSoC5/USB_midi.c ****         else if (ic == USB_MIDI_EOSEX)
 1182              		.loc 1 645 0
 1183 0116 F728     		cmp	r0, #247
 1184 0118 6CD1     		bne	.L21
 646:Generated_Source\PSoC5/USB_midi.c ****         {
 647:Generated_Source\PSoC5/USB_midi.c ****             switch (eventLen)
 1185              		.loc 1 647 0
 1186 011a 012A     		cmp	r2, #1
 1187 011c 26D0     		beq	.L32
 1188 011e 12B1     		cbz	r2, .L33
 1189 0120 022A     		cmp	r2, #2
 1190 0122 46D0     		beq	.L34
 1191 0124 66E0     		b	.L21
 1192              	.L33:
 648:Generated_Source\PSoC5/USB_midi.c ****             {
 649:Generated_Source\PSoC5/USB_midi.c ****                 case 0u:
 650:Generated_Source\PSoC5/USB_midi.c ****                     USB_midiInBuffer[USB_midiInPointer] = USB_SYSEX_ENDS_WITH1 | cable;
 1193              		.loc 1 650 0
 1194 0126 344A     		ldr	r2, .L36
 1195              	.LVL48:
 1196 0128 1078     		ldrb	r0, [r2]	@ zero_extendqisi2
 1197              	.LVL49:
 1198 012a C0B2     		uxtb	r0, r0
 1199 012c 3349     		ldr	r1, .L36+4
 1200              	.LVL50:
 1201 012e 43F00503 		orr	r3, r3, #5
 1202              	.LVL51:
 1203 0132 0B54     		strb	r3, [r1, r0]
 651:Generated_Source\PSoC5/USB_midi.c ****                     USB_midiInPointer++;
 1204              		.loc 1 651 0
ARM GAS  C:\Users\JEFFSN~1\AppData\Local\Temp\ccznaSP4.s 			page 74


 1205 0134 1378     		ldrb	r3, [r2]	@ zero_extendqisi2
 1206 0136 0133     		adds	r3, r3, #1
 1207 0138 DBB2     		uxtb	r3, r3
 1208 013a 1370     		strb	r3, [r2]
 652:Generated_Source\PSoC5/USB_midi.c ****                     USB_midiInBuffer[USB_midiInPointer] = USB_MIDI_EOSEX;
 1209              		.loc 1 652 0
 1210 013c 1378     		ldrb	r3, [r2]	@ zero_extendqisi2
 1211 013e DBB2     		uxtb	r3, r3
 1212 0140 F720     		movs	r0, #247
 1213 0142 C854     		strb	r0, [r1, r3]
 653:Generated_Source\PSoC5/USB_midi.c ****                     USB_midiInPointer++;
 1214              		.loc 1 653 0
 1215 0144 1378     		ldrb	r3, [r2]	@ zero_extendqisi2
 1216 0146 0133     		adds	r3, r3, #1
 1217 0148 DBB2     		uxtb	r3, r3
 1218 014a 1370     		strb	r3, [r2]
 654:Generated_Source\PSoC5/USB_midi.c ****                     USB_midiInBuffer[USB_midiInPointer] = 0u;
 1219              		.loc 1 654 0
 1220 014c 1378     		ldrb	r3, [r2]	@ zero_extendqisi2
 1221 014e DBB2     		uxtb	r3, r3
 1222 0150 0020     		movs	r0, #0
 1223 0152 C854     		strb	r0, [r1, r3]
 655:Generated_Source\PSoC5/USB_midi.c ****                     USB_midiInPointer++;
 1224              		.loc 1 655 0
 1225 0154 1378     		ldrb	r3, [r2]	@ zero_extendqisi2
 1226 0156 0133     		adds	r3, r3, #1
 1227 0158 DBB2     		uxtb	r3, r3
 1228 015a 1370     		strb	r3, [r2]
 656:Generated_Source\PSoC5/USB_midi.c ****                     USB_midiInBuffer[USB_midiInPointer] = 0u;
 1229              		.loc 1 656 0
 1230 015c 1378     		ldrb	r3, [r2]	@ zero_extendqisi2
 1231 015e DBB2     		uxtb	r3, r3
 1232 0160 C854     		strb	r0, [r1, r3]
 657:Generated_Source\PSoC5/USB_midi.c ****                     USB_midiInPointer++;
 1233              		.loc 1 657 0
 1234 0162 1378     		ldrb	r3, [r2]	@ zero_extendqisi2
 1235 0164 0133     		adds	r3, r3, #1
 1236 0166 DBB2     		uxtb	r3, r3
 1237 0168 1370     		strb	r3, [r2]
 658:Generated_Source\PSoC5/USB_midi.c ****                     break;
 1238              		.loc 1 658 0
 1239 016a 43E0     		b	.L21
 1240              	.LVL52:
 1241              	.L32:
 659:Generated_Source\PSoC5/USB_midi.c ****                 case 1u:
 660:Generated_Source\PSoC5/USB_midi.c ****                     USB_midiInBuffer[USB_midiInPointer] = USB_SYSEX_ENDS_WITH2 | cable;
 1242              		.loc 1 660 0
 1243 016c 224A     		ldr	r2, .L36
 1244              	.LVL53:
 1245 016e 1078     		ldrb	r0, [r2]	@ zero_extendqisi2
 1246              	.LVL54:
 1247 0170 C0B2     		uxtb	r0, r0
 1248 0172 2249     		ldr	r1, .L36+4
 1249              	.LVL55:
 1250 0174 43F00603 		orr	r3, r3, #6
 1251              	.LVL56:
 1252 0178 0B54     		strb	r3, [r1, r0]
ARM GAS  C:\Users\JEFFSN~1\AppData\Local\Temp\ccznaSP4.s 			page 75


 661:Generated_Source\PSoC5/USB_midi.c ****                     USB_midiInPointer++;
 1253              		.loc 1 661 0
 1254 017a 1378     		ldrb	r3, [r2]	@ zero_extendqisi2
 1255 017c 0133     		adds	r3, r3, #1
 1256 017e DBB2     		uxtb	r3, r3
 1257 0180 1370     		strb	r3, [r2]
 662:Generated_Source\PSoC5/USB_midi.c ****                     USB_midiInBuffer[USB_midiInPointer] = srcBuffZero;
 1258              		.loc 1 662 0
 1259 0182 1378     		ldrb	r3, [r2]	@ zero_extendqisi2
 1260 0184 DBB2     		uxtb	r3, r3
 1261 0186 CD54     		strb	r5, [r1, r3]
 663:Generated_Source\PSoC5/USB_midi.c ****                     USB_midiInPointer++;
 1262              		.loc 1 663 0
 1263 0188 1378     		ldrb	r3, [r2]	@ zero_extendqisi2
 1264 018a 0133     		adds	r3, r3, #1
 1265 018c DBB2     		uxtb	r3, r3
 1266 018e 1370     		strb	r3, [r2]
 664:Generated_Source\PSoC5/USB_midi.c ****                     USB_midiInBuffer[USB_midiInPointer] = USB_MIDI_EOSEX;
 1267              		.loc 1 664 0
 1268 0190 1378     		ldrb	r3, [r2]	@ zero_extendqisi2
 1269 0192 DBB2     		uxtb	r3, r3
 1270 0194 F720     		movs	r0, #247
 1271 0196 C854     		strb	r0, [r1, r3]
 665:Generated_Source\PSoC5/USB_midi.c ****                     USB_midiInPointer++;
 1272              		.loc 1 665 0
 1273 0198 1378     		ldrb	r3, [r2]	@ zero_extendqisi2
 1274 019a 0133     		adds	r3, r3, #1
 1275 019c DBB2     		uxtb	r3, r3
 1276 019e 1370     		strb	r3, [r2]
 666:Generated_Source\PSoC5/USB_midi.c ****                     USB_midiInBuffer[USB_midiInPointer] = 0u;
 1277              		.loc 1 666 0
 1278 01a0 1378     		ldrb	r3, [r2]	@ zero_extendqisi2
 1279 01a2 DBB2     		uxtb	r3, r3
 1280 01a4 0020     		movs	r0, #0
 1281 01a6 C854     		strb	r0, [r1, r3]
 667:Generated_Source\PSoC5/USB_midi.c ****                     USB_midiInPointer++;
 1282              		.loc 1 667 0
 1283 01a8 1378     		ldrb	r3, [r2]	@ zero_extendqisi2
 1284 01aa 0133     		adds	r3, r3, #1
 1285 01ac DBB2     		uxtb	r3, r3
 1286 01ae 1370     		strb	r3, [r2]
 668:Generated_Source\PSoC5/USB_midi.c ****                     break;
 1287              		.loc 1 668 0
 1288 01b0 20E0     		b	.L21
 1289              	.LVL57:
 1290              	.L34:
 669:Generated_Source\PSoC5/USB_midi.c ****                 case 2u:
 670:Generated_Source\PSoC5/USB_midi.c ****                     USB_midiInBuffer[USB_midiInPointer] = USB_SYSEX_ENDS_WITH3 | cable;
 1291              		.loc 1 670 0
 1292 01b2 114A     		ldr	r2, .L36
 1293              	.LVL58:
 1294 01b4 1078     		ldrb	r0, [r2]	@ zero_extendqisi2
 1295              	.LVL59:
 1296 01b6 C0B2     		uxtb	r0, r0
 1297 01b8 1049     		ldr	r1, .L36+4
 1298              	.LVL60:
 1299 01ba 43F00703 		orr	r3, r3, #7
ARM GAS  C:\Users\JEFFSN~1\AppData\Local\Temp\ccznaSP4.s 			page 76


 1300              	.LVL61:
 1301 01be 0B54     		strb	r3, [r1, r0]
 671:Generated_Source\PSoC5/USB_midi.c ****                     USB_midiInPointer++;
 1302              		.loc 1 671 0
 1303 01c0 1378     		ldrb	r3, [r2]	@ zero_extendqisi2
 1304 01c2 0133     		adds	r3, r3, #1
 1305 01c4 DBB2     		uxtb	r3, r3
 1306 01c6 1370     		strb	r3, [r2]
 672:Generated_Source\PSoC5/USB_midi.c ****                     USB_midiInBuffer[USB_midiInPointer] = srcBuffZero;
 1307              		.loc 1 672 0
 1308 01c8 1378     		ldrb	r3, [r2]	@ zero_extendqisi2
 1309 01ca DBB2     		uxtb	r3, r3
 1310 01cc CD54     		strb	r5, [r1, r3]
 673:Generated_Source\PSoC5/USB_midi.c ****                     USB_midiInPointer++;
 1311              		.loc 1 673 0
 1312 01ce 1378     		ldrb	r3, [r2]	@ zero_extendqisi2
 1313 01d0 0133     		adds	r3, r3, #1
 1314 01d2 DBB2     		uxtb	r3, r3
 1315 01d4 1370     		strb	r3, [r2]
 674:Generated_Source\PSoC5/USB_midi.c ****                     USB_midiInBuffer[USB_midiInPointer] = srcBuffOne;
 1316              		.loc 1 674 0
 1317 01d6 1378     		ldrb	r3, [r2]	@ zero_extendqisi2
 1318 01d8 DBB2     		uxtb	r3, r3
 1319 01da CC54     		strb	r4, [r1, r3]
 675:Generated_Source\PSoC5/USB_midi.c ****                     USB_midiInPointer++;
 1320              		.loc 1 675 0
 1321 01dc 1378     		ldrb	r3, [r2]	@ zero_extendqisi2
 1322 01de 0133     		adds	r3, r3, #1
 1323 01e0 DBB2     		uxtb	r3, r3
 1324 01e2 1370     		strb	r3, [r2]
 676:Generated_Source\PSoC5/USB_midi.c ****                     USB_midiInBuffer[USB_midiInPointer] = USB_MIDI_EOSEX;
 1325              		.loc 1 676 0
 1326 01e4 1378     		ldrb	r3, [r2]	@ zero_extendqisi2
 1327 01e6 DBB2     		uxtb	r3, r3
 1328 01e8 F720     		movs	r0, #247
 1329 01ea C854     		strb	r0, [r1, r3]
 677:Generated_Source\PSoC5/USB_midi.c ****                     USB_midiInPointer++;
 1330              		.loc 1 677 0
 1331 01ec 1378     		ldrb	r3, [r2]	@ zero_extendqisi2
 1332 01ee 0133     		adds	r3, r3, #1
 1333 01f0 DBB2     		uxtb	r3, r3
 1334 01f2 1370     		strb	r3, [r2]
 1335              	.LVL62:
 1336              	.L21:
 678:Generated_Source\PSoC5/USB_midi.c ****                     break;
 679:Generated_Source\PSoC5/USB_midi.c ****                 default:
 680:Generated_Source\PSoC5/USB_midi.c ****                     break;
 681:Generated_Source\PSoC5/USB_midi.c ****             }
 682:Generated_Source\PSoC5/USB_midi.c ****         }
 683:Generated_Source\PSoC5/USB_midi.c ****         else
 684:Generated_Source\PSoC5/USB_midi.c ****         {
 685:Generated_Source\PSoC5/USB_midi.c ****         }
 686:Generated_Source\PSoC5/USB_midi.c ****     }
 1337              		.loc 1 686 0
 1338 01f4 70BC     		pop	{r4, r5, r6}
 1339              		.cfi_restore 6
 1340              		.cfi_restore 5
ARM GAS  C:\Users\JEFFSN~1\AppData\Local\Temp\ccznaSP4.s 			page 77


 1341              		.cfi_restore 4
 1342              		.cfi_def_cfa_offset 0
 1343              	.LVL63:
 1344 01f6 7047     		bx	lr
 1345              	.L37:
 1346              		.align	2
 1347              	.L36:
 1348 01f8 00000000 		.word	USB_midiInPointer
 1349 01fc 00000000 		.word	USB_midiInBuffer
 1350              		.cfi_endproc
 1351              	.LFE5:
 1352              		.size	USB_PrepareInBuffer, .-USB_PrepareInBuffer
 1353              		.section	.text.USB_PutUsbMidiIn,"ax",%progbits
 1354              		.align	2
 1355              		.global	USB_PutUsbMidiIn
 1356              		.thumb
 1357              		.thumb_func
 1358              		.type	USB_PutUsbMidiIn, %function
 1359              	USB_PutUsbMidiIn:
 1360              	.LFB4:
 476:Generated_Source\PSoC5/USB_midi.c ****         uint8 retError = USB_FALSE;
 1361              		.loc 1 476 0
 1362              		.cfi_startproc
 1363              		@ args = 0, pretend = 0, frame = 0
 1364              		@ frame_needed = 0, uses_anonymous_args = 0
 1365              	.LVL64:
 1366 0000 2DE9F041 		push	{r4, r5, r6, r7, r8, lr}
 1367              		.cfi_def_cfa_offset 24
 1368              		.cfi_offset 4, -24
 1369              		.cfi_offset 5, -20
 1370              		.cfi_offset 6, -16
 1371              		.cfi_offset 7, -12
 1372              		.cfi_offset 8, -8
 1373              		.cfi_offset 14, -4
 1374 0004 0446     		mov	r4, r0
 1375 0006 0E46     		mov	r6, r1
 1376 0008 1746     		mov	r7, r2
 1377              	.LVL65:
 487:Generated_Source\PSoC5/USB_midi.c ****                     (USB_EP[USB_midi_in_ep].bufferSize - USB_EVENT_LENGTH))
 1378              		.loc 1 487 0
 1379 000a 374B     		ldr	r3, .L48
 1380 000c 1978     		ldrb	r1, [r3]	@ zero_extendqisi2
 1381              	.LVL66:
 1382 000e C9B2     		uxtb	r1, r1
 488:Generated_Source\PSoC5/USB_midi.c ****         {
 1383              		.loc 1 488 0
 1384 0010 364B     		ldr	r3, .L48+4
 1385 0012 1B78     		ldrb	r3, [r3]	@ zero_extendqisi2
 1386 0014 03EB4303 		add	r3, r3, r3, lsl #1
 1387 0018 9A00     		lsls	r2, r3, #2
 1388              	.LVL67:
 1389 001a 354B     		ldr	r3, .L48+8
 1390 001c 1A44     		add	r2, r2, r3
 1391 001e 1389     		ldrh	r3, [r2, #8]
 1392 0020 9BB2     		uxth	r3, r3
 1393 0022 043B     		subs	r3, r3, #4
 487:Generated_Source\PSoC5/USB_midi.c ****                     (USB_EP[USB_midi_in_ep].bufferSize - USB_EVENT_LENGTH))
ARM GAS  C:\Users\JEFFSN~1\AppData\Local\Temp\ccznaSP4.s 			page 78


 1394              		.loc 1 487 0
 1395 0024 9942     		cmp	r1, r3
 1396 0026 01D9     		bls	.L39
 490:Generated_Source\PSoC5/USB_midi.c ****         }
 1397              		.loc 1 490 0
 1398 0028 FFF7FEFF 		bl	USB_MIDI_IN_EP_Service
 1399              	.LVL68:
 1400              	.L39:
 493:Generated_Source\PSoC5/USB_midi.c ****                     (USB_EP[USB_midi_in_ep].bufferSize - USB_EVENT_LENGTH))
 1401              		.loc 1 493 0
 1402 002c 2E4B     		ldr	r3, .L48
 1403 002e 1978     		ldrb	r1, [r3]	@ zero_extendqisi2
 1404 0030 C9B2     		uxtb	r1, r1
 494:Generated_Source\PSoC5/USB_midi.c ****         {
 1405              		.loc 1 494 0
 1406 0032 2E4B     		ldr	r3, .L48+4
 1407 0034 1B78     		ldrb	r3, [r3]	@ zero_extendqisi2
 1408 0036 03EB4303 		add	r3, r3, r3, lsl #1
 1409 003a 9A00     		lsls	r2, r3, #2
 1410 003c 2C4B     		ldr	r3, .L48+8
 1411 003e 1A44     		add	r2, r2, r3
 1412 0040 1389     		ldrh	r3, [r2, #8]
 1413 0042 9BB2     		uxth	r3, r3
 1414 0044 043B     		subs	r3, r3, #4
 493:Generated_Source\PSoC5/USB_midi.c ****                     (USB_EP[USB_midi_in_ep].bufferSize - USB_EVENT_LENGTH))
 1415              		.loc 1 493 0
 1416 0046 9942     		cmp	r1, r3
 1417 0048 48D8     		bhi	.L44
 496:Generated_Source\PSoC5/USB_midi.c ****             {
 1418              		.loc 1 496 0
 1419 004a 231F     		subs	r3, r4, #4
 1420 004c DBB2     		uxtb	r3, r3
 1421 004e EB2B     		cmp	r3, #235
 1422 0050 08D9     		bls	.L45
 498:Generated_Source\PSoC5/USB_midi.c ****             }
 1423              		.loc 1 498 0
 1424 0052 3B46     		mov	r3, r7
 1425 0054 2246     		mov	r2, r4
 1426 0056 3146     		mov	r1, r6
 1427 0058 2046     		mov	r0, r4
 1428 005a FFF7FEFF 		bl	USB_PrepareInBuffer
 1429              	.LVL69:
 477:Generated_Source\PSoC5/USB_midi.c **** 
 1430              		.loc 1 477 0
 1431 005e 4FF00008 		mov	r8, #0
 1432 0062 3DE0     		b	.L40
 1433              	.L45:
 1434 0064 0025     		movs	r5, #0
 1435              	.LVL70:
 1436              	.L41:
 1437              	.LBB2:
 507:Generated_Source\PSoC5/USB_midi.c ****                                                      USB_EVENT_BYTE3, cable);
 1438              		.loc 1 507 0
 1439 0066 3B46     		mov	r3, r7
 1440 0068 0322     		movs	r2, #3
 1441 006a 7119     		adds	r1, r6, r5
 1442 006c F020     		movs	r0, #240
ARM GAS  C:\Users\JEFFSN~1\AppData\Local\Temp\ccznaSP4.s 			page 79


 1443 006e FFF7FEFF 		bl	USB_PrepareInBuffer
 1444              	.LVL71:
 511:Generated_Source\PSoC5/USB_midi.c ****                     idx += USB_EVENT_BYTE3;
 1445              		.loc 1 511 0
 1446 0072 033C     		subs	r4, r4, #3
 1447              	.LVL72:
 1448 0074 E4B2     		uxtb	r4, r4
 1449              	.LVL73:
 512:Generated_Source\PSoC5/USB_midi.c **** 
 1450              		.loc 1 512 0
 1451 0076 0335     		adds	r5, r5, #3
 1452              	.LVL74:
 1453 0078 EDB2     		uxtb	r5, r5
 1454              	.LVL75:
 514:Generated_Source\PSoC5/USB_midi.c ****                         (USB_EP[USB_midi_in_ep].bufferSize - USB_EVENT_LENGTH))
 1455              		.loc 1 514 0
 1456 007a 1B4B     		ldr	r3, .L48
 1457 007c 1978     		ldrb	r1, [r3]	@ zero_extendqisi2
 1458 007e C9B2     		uxtb	r1, r1
 515:Generated_Source\PSoC5/USB_midi.c ****                     {
 1459              		.loc 1 515 0
 1460 0080 1A4B     		ldr	r3, .L48+4
 1461 0082 1B78     		ldrb	r3, [r3]	@ zero_extendqisi2
 1462 0084 03EB4303 		add	r3, r3, r3, lsl #1
 1463 0088 9A00     		lsls	r2, r3, #2
 1464 008a 194B     		ldr	r3, .L48+8
 1465 008c 1A44     		add	r2, r2, r3
 1466 008e 1389     		ldrh	r3, [r2, #8]
 1467 0090 9BB2     		uxth	r3, r3
 1468 0092 043B     		subs	r3, r3, #4
 514:Generated_Source\PSoC5/USB_midi.c ****                         (USB_EP[USB_midi_in_ep].bufferSize - USB_EVENT_LENGTH))
 1469              		.loc 1 514 0
 1470 0094 9942     		cmp	r1, r3
 1471 0096 10D9     		bls	.L42
 518:Generated_Source\PSoC5/USB_midi.c **** 
 1472              		.loc 1 518 0
 1473 0098 FFF7FEFF 		bl	USB_MIDI_IN_EP_Service
 1474              	.LVL76:
 520:Generated_Source\PSoC5/USB_midi.c ****                            (USB_EP[USB_midi_in_ep].bufferSize - USB_EVENT_LENGTH))
 1475              		.loc 1 520 0
 1476 009c 124B     		ldr	r3, .L48
 1477 009e 1978     		ldrb	r1, [r3]	@ zero_extendqisi2
 1478 00a0 C9B2     		uxtb	r1, r1
 521:Generated_Source\PSoC5/USB_midi.c ****                         {
 1479              		.loc 1 521 0
 1480 00a2 124B     		ldr	r3, .L48+4
 1481 00a4 1B78     		ldrb	r3, [r3]	@ zero_extendqisi2
 1482 00a6 03EB4303 		add	r3, r3, r3, lsl #1
 1483 00aa 9A00     		lsls	r2, r3, #2
 1484 00ac 104B     		ldr	r3, .L48+8
 1485 00ae 1A44     		add	r2, r2, r3
 1486 00b0 1389     		ldrh	r3, [r2, #8]
 1487 00b2 9BB2     		uxth	r3, r3
 1488 00b4 043B     		subs	r3, r3, #4
 520:Generated_Source\PSoC5/USB_midi.c ****                            (USB_EP[USB_midi_in_ep].bufferSize - USB_EVENT_LENGTH))
 1489              		.loc 1 520 0
 1490 00b6 9942     		cmp	r1, r3
ARM GAS  C:\Users\JEFFSN~1\AppData\Local\Temp\ccznaSP4.s 			page 80


 1491 00b8 04D8     		bhi	.L46
 1492              	.L42:
 529:Generated_Source\PSoC5/USB_midi.c **** 
 1493              		.loc 1 529 0
 1494 00ba 022C     		cmp	r4, #2
 1495 00bc D3D8     		bhi	.L41
 1496              	.LBE2:
 477:Generated_Source\PSoC5/USB_midi.c **** 
 1497              		.loc 1 477 0
 1498 00be 4FF00008 		mov	r8, #0
 1499              	.LBB3:
 1500 00c2 01E0     		b	.L43
 1501              	.L46:
 524:Generated_Source\PSoC5/USB_midi.c ****                             break;
 1502              		.loc 1 524 0
 1503 00c4 4FF00108 		mov	r8, #1
 1504              	.L43:
 1505              	.LVL77:
 531:Generated_Source\PSoC5/USB_midi.c ****                 {
 1506              		.loc 1 531 0
 1507 00c8 B8F1000F 		cmp	r8, #0
 1508 00cc 08D1     		bne	.L40
 534:Generated_Source\PSoC5/USB_midi.c ****                 }
 1509              		.loc 1 534 0
 1510 00ce 3B46     		mov	r3, r7
 1511 00d0 2246     		mov	r2, r4
 1512 00d2 7119     		adds	r1, r6, r5
 1513 00d4 F720     		movs	r0, #247
 1514 00d6 FFF7FEFF 		bl	USB_PrepareInBuffer
 1515              	.LVL78:
 1516 00da 01E0     		b	.L40
 1517              	.LVL79:
 1518              	.L44:
 1519              	.LBE3:
 541:Generated_Source\PSoC5/USB_midi.c ****         }
 1520              		.loc 1 541 0
 1521 00dc 4FF00108 		mov	r8, #1
 1522              	.LVL80:
 1523              	.L40:
 552:Generated_Source\PSoC5/USB_midi.c **** 
 1524              		.loc 1 552 0
 1525 00e0 4046     		mov	r0, r8
 1526 00e2 BDE8F081 		pop	{r4, r5, r6, r7, r8, pc}
 1527              	.LVL81:
 1528              	.L49:
 1529 00e6 00BF     		.align	2
 1530              	.L48:
 1531 00e8 00000000 		.word	USB_midiInPointer
 1532 00ec 00000000 		.word	USB_midi_in_ep
 1533 00f0 00000000 		.word	USB_EP
 1534              		.cfi_endproc
 1535              	.LFE4:
 1536              		.size	USB_PutUsbMidiIn, .-USB_PutUsbMidiIn
 1537              		.comm	USB_midiOutBuffer,64,4
 1538              		.comm	USB_midi_out_ep,1,1
 1539              		.comm	USB_midiInBuffer,64,4
 1540              		.comm	USB_midi_in_ep,1,1
ARM GAS  C:\Users\JEFFSN~1\AppData\Local\Temp\ccznaSP4.s 			page 81


 1541              		.comm	USB_midiInPointer,1,1
 1542              		.text
 1543              	.Letext0:
 1544              		.file 2 "Generated_Source\\PSoC5\\cytypes.h"
 1545              		.file 3 "Generated_Source\\PSoC5\\USB.h"
 1546              		.file 4 "Generated_Source\\PSoC5\\USB_pvt.h"
 1547              		.file 5 "Generated_Source\\PSoC5\\USB_midi.h"
 1548              		.section	.debug_info,"",%progbits
 1549              	.Ldebug_info0:
 1550 0000 80040000 		.4byte	0x480
 1551 0004 0400     		.2byte	0x4
 1552 0006 00000000 		.4byte	.Ldebug_abbrev0
 1553 000a 04       		.byte	0x4
 1554 000b 01       		.uleb128 0x1
 1555 000c 04020000 		.4byte	.LASF52
 1556 0010 0C       		.byte	0xc
 1557 0011 10000000 		.4byte	.LASF53
 1558 0015 5C000000 		.4byte	.LASF54
 1559 0019 18000000 		.4byte	.Ldebug_ranges0+0x18
 1560 001d 00000000 		.4byte	0
 1561 0021 00000000 		.4byte	.Ldebug_line0
 1562 0025 02       		.uleb128 0x2
 1563 0026 01       		.byte	0x1
 1564 0027 06       		.byte	0x6
 1565 0028 BF030000 		.4byte	.LASF0
 1566 002c 02       		.uleb128 0x2
 1567 002d 01       		.byte	0x1
 1568 002e 08       		.byte	0x8
 1569 002f 3D010000 		.4byte	.LASF1
 1570 0033 02       		.uleb128 0x2
 1571 0034 02       		.byte	0x2
 1572 0035 05       		.byte	0x5
 1573 0036 6C030000 		.4byte	.LASF2
 1574 003a 02       		.uleb128 0x2
 1575 003b 02       		.byte	0x2
 1576 003c 07       		.byte	0x7
 1577 003d E0000000 		.4byte	.LASF3
 1578 0041 02       		.uleb128 0x2
 1579 0042 04       		.byte	0x4
 1580 0043 05       		.byte	0x5
 1581 0044 97030000 		.4byte	.LASF4
 1582 0048 02       		.uleb128 0x2
 1583 0049 04       		.byte	0x4
 1584 004a 07       		.byte	0x7
 1585 004b 6A010000 		.4byte	.LASF5
 1586 004f 02       		.uleb128 0x2
 1587 0050 08       		.byte	0x8
 1588 0051 05       		.byte	0x5
 1589 0052 21030000 		.4byte	.LASF6
 1590 0056 02       		.uleb128 0x2
 1591 0057 08       		.byte	0x8
 1592 0058 07       		.byte	0x7
 1593 0059 BB020000 		.4byte	.LASF7
 1594 005d 03       		.uleb128 0x3
 1595 005e 04       		.byte	0x4
 1596 005f 05       		.byte	0x5
 1597 0060 696E7400 		.ascii	"int\000"
ARM GAS  C:\Users\JEFFSN~1\AppData\Local\Temp\ccznaSP4.s 			page 82


 1598 0064 02       		.uleb128 0x2
 1599 0065 04       		.byte	0x4
 1600 0066 07       		.byte	0x7
 1601 0067 F7010000 		.4byte	.LASF8
 1602 006b 04       		.uleb128 0x4
 1603 006c 76030000 		.4byte	.LASF9
 1604 0070 02       		.byte	0x2
 1605 0071 E901     		.2byte	0x1e9
 1606 0073 2C000000 		.4byte	0x2c
 1607 0077 04       		.uleb128 0x4
 1608 0078 CA010000 		.4byte	.LASF10
 1609 007c 02       		.byte	0x2
 1610 007d EA01     		.2byte	0x1ea
 1611 007f 3A000000 		.4byte	0x3a
 1612 0083 02       		.uleb128 0x2
 1613 0084 04       		.byte	0x4
 1614 0085 04       		.byte	0x4
 1615 0086 2E010000 		.4byte	.LASF11
 1616 008a 02       		.uleb128 0x2
 1617 008b 08       		.byte	0x8
 1618 008c 04       		.byte	0x4
 1619 008d B1010000 		.4byte	.LASF12
 1620 0091 02       		.uleb128 0x2
 1621 0092 01       		.byte	0x1
 1622 0093 08       		.byte	0x8
 1623 0094 0B000000 		.4byte	.LASF13
 1624 0098 05       		.uleb128 0x5
 1625 0099 6B000000 		.4byte	0x6b
 1626 009d 02       		.uleb128 0x2
 1627 009e 08       		.byte	0x8
 1628 009f 04       		.byte	0x4
 1629 00a0 B3030000 		.4byte	.LASF14
 1630 00a4 02       		.uleb128 0x2
 1631 00a5 04       		.byte	0x4
 1632 00a6 07       		.byte	0x7
 1633 00a7 07030000 		.4byte	.LASF15
 1634 00ab 06       		.uleb128 0x6
 1635 00ac 0C       		.byte	0xc
 1636 00ad 03       		.byte	0x3
 1637 00ae 8D       		.byte	0x8d
 1638 00af 20010000 		.4byte	0x120
 1639 00b3 07       		.uleb128 0x7
 1640 00b4 B8010000 		.4byte	.LASF16
 1641 00b8 03       		.byte	0x3
 1642 00b9 8F       		.byte	0x8f
 1643 00ba 6B000000 		.4byte	0x6b
 1644 00be 00       		.byte	0
 1645 00bf 07       		.uleb128 0x7
 1646 00c0 D1010000 		.4byte	.LASF17
 1647 00c4 03       		.byte	0x3
 1648 00c5 90       		.byte	0x90
 1649 00c6 6B000000 		.4byte	0x6b
 1650 00ca 01       		.byte	0x1
 1651 00cb 07       		.uleb128 0x7
 1652 00cc DD020000 		.4byte	.LASF18
 1653 00d0 03       		.byte	0x3
 1654 00d1 91       		.byte	0x91
ARM GAS  C:\Users\JEFFSN~1\AppData\Local\Temp\ccznaSP4.s 			page 83


 1655 00d2 6B000000 		.4byte	0x6b
 1656 00d6 02       		.byte	0x2
 1657 00d7 07       		.uleb128 0x7
 1658 00d8 34010000 		.4byte	.LASF19
 1659 00dc 03       		.byte	0x3
 1660 00dd 92       		.byte	0x92
 1661 00de 6B000000 		.4byte	0x6b
 1662 00e2 03       		.byte	0x3
 1663 00e3 07       		.uleb128 0x7
 1664 00e4 7C010000 		.4byte	.LASF20
 1665 00e8 03       		.byte	0x3
 1666 00e9 93       		.byte	0x93
 1667 00ea 6B000000 		.4byte	0x6b
 1668 00ee 04       		.byte	0x4
 1669 00ef 07       		.uleb128 0x7
 1670 00f0 1A030000 		.4byte	.LASF21
 1671 00f4 03       		.byte	0x3
 1672 00f5 94       		.byte	0x94
 1673 00f6 6B000000 		.4byte	0x6b
 1674 00fa 05       		.byte	0x5
 1675 00fb 07       		.uleb128 0x7
 1676 00fc BF010000 		.4byte	.LASF22
 1677 0100 03       		.byte	0x3
 1678 0101 95       		.byte	0x95
 1679 0102 77000000 		.4byte	0x77
 1680 0106 06       		.byte	0x6
 1681 0107 07       		.uleb128 0x7
 1682 0108 59030000 		.4byte	.LASF23
 1683 010c 03       		.byte	0x3
 1684 010d 96       		.byte	0x96
 1685 010e 77000000 		.4byte	0x77
 1686 0112 08       		.byte	0x8
 1687 0113 07       		.uleb128 0x7
 1688 0114 8D030000 		.4byte	.LASF24
 1689 0118 03       		.byte	0x3
 1690 0119 97       		.byte	0x97
 1691 011a 6B000000 		.4byte	0x6b
 1692 011e 0A       		.byte	0xa
 1693 011f 00       		.byte	0
 1694 0120 08       		.uleb128 0x8
 1695 0121 A0030000 		.4byte	.LASF25
 1696 0125 03       		.byte	0x3
 1697 0126 98       		.byte	0x98
 1698 0127 AB000000 		.4byte	0xab
 1699 012b 09       		.uleb128 0x9
 1700 012c FA000000 		.4byte	.LASF26
 1701 0130 01       		.byte	0x1
 1702 0131 A7       		.byte	0xa7
 1703 0132 00000000 		.4byte	.LFB0
 1704 0136 3C000000 		.4byte	.LFE0-.LFB0
 1705 013a 01       		.uleb128 0x1
 1706 013b 9C       		.byte	0x9c
 1707 013c 84010000 		.4byte	0x184
 1708 0140 0A       		.uleb128 0xa
 1709 0141 14000000 		.4byte	.LVL0
 1710 0145 3C040000 		.4byte	0x43c
 1711 0149 5D010000 		.4byte	0x15d
ARM GAS  C:\Users\JEFFSN~1\AppData\Local\Temp\ccznaSP4.s 			page 84


 1712 014d 0B       		.uleb128 0xb
 1713 014e 01       		.uleb128 0x1
 1714 014f 51       		.byte	0x51
 1715 0150 05       		.uleb128 0x5
 1716 0151 03       		.byte	0x3
 1717 0152 00000000 		.4byte	USB_midiInBuffer
 1718 0156 0B       		.uleb128 0xb
 1719 0157 01       		.uleb128 0x1
 1720 0158 52       		.byte	0x52
 1721 0159 02       		.uleb128 0x2
 1722 015a 08       		.byte	0x8
 1723 015b 40       		.byte	0x40
 1724 015c 00       		.byte	0
 1725 015d 0A       		.uleb128 0xa
 1726 015e 20000000 		.4byte	.LVL1
 1727 0162 48040000 		.4byte	0x448
 1728 0166 7A010000 		.4byte	0x17a
 1729 016a 0B       		.uleb128 0xb
 1730 016b 01       		.uleb128 0x1
 1731 016c 51       		.byte	0x51
 1732 016d 05       		.uleb128 0x5
 1733 016e 03       		.byte	0x3
 1734 016f 00000000 		.4byte	USB_midiOutBuffer
 1735 0173 0B       		.uleb128 0xb
 1736 0174 01       		.uleb128 0x1
 1737 0175 52       		.byte	0x52
 1738 0176 02       		.uleb128 0x2
 1739 0177 08       		.byte	0x8
 1740 0178 40       		.byte	0x40
 1741 0179 00       		.byte	0
 1742 017a 0C       		.uleb128 0xc
 1743 017b 26000000 		.4byte	.LVL2
 1744 017f 54040000 		.4byte	0x454
 1745 0183 00       		.byte	0
 1746 0184 09       		.uleb128 0x9
 1747 0185 CB000000 		.4byte	.LASF27
 1748 0189 01       		.byte	0x1
 1749 018a DD       		.byte	0xdd
 1750 018b 00000000 		.4byte	.LFB1
 1751 018f 50000000 		.4byte	.LFE1-.LFB1
 1752 0193 01       		.uleb128 0x1
 1753 0194 9C       		.byte	0x9c
 1754 0195 ED010000 		.4byte	0x1ed
 1755 0199 0D       		.uleb128 0xd
 1756 019a 10030000 		.4byte	.LASF28
 1757 019e 01       		.byte	0x1
 1758 019f E3       		.byte	0xe3
 1759 01a0 6B000000 		.4byte	0x6b
 1760 01a4 00000000 		.4byte	.LLST0
 1761 01a8 0D       		.uleb128 0xd
 1762 01a9 00000000 		.4byte	.LASF29
 1763 01ad 01       		.byte	0x1
 1764 01ae E4       		.byte	0xe4
 1765 01af 6B000000 		.4byte	0x6b
 1766 01b3 13000000 		.4byte	.LLST1
 1767 01b7 0C       		.uleb128 0xc
 1768 01b8 0A000000 		.4byte	.LVL3
ARM GAS  C:\Users\JEFFSN~1\AppData\Local\Temp\ccznaSP4.s 			page 85


 1769 01bc 60040000 		.4byte	0x460
 1770 01c0 0C       		.uleb128 0xc
 1771 01c1 16000000 		.4byte	.LVL4
 1772 01c5 6C040000 		.4byte	0x46c
 1773 01c9 0A       		.uleb128 0xa
 1774 01ca 32000000 		.4byte	.LVL7
 1775 01ce 78040000 		.4byte	0x478
 1776 01d2 E3010000 		.4byte	0x1e3
 1777 01d6 0B       		.uleb128 0xb
 1778 01d7 01       		.uleb128 0x1
 1779 01d8 51       		.byte	0x51
 1780 01d9 08       		.uleb128 0x8
 1781 01da 74       		.byte	0x74
 1782 01db 00       		.sleb128 0
 1783 01dc 03       		.byte	0x3
 1784 01dd 01000000 		.4byte	USB_midiOutBuffer+1
 1785 01e1 22       		.byte	0x22
 1786 01e2 00       		.byte	0
 1787 01e3 0C       		.uleb128 0xc
 1788 01e4 46000000 		.4byte	.LVL13
 1789 01e8 54040000 		.4byte	0x454
 1790 01ec 00       		.byte	0
 1791 01ed 0E       		.uleb128 0xe
 1792 01ee 45000000 		.4byte	.LASF30
 1793 01f2 01       		.byte	0x1
 1794 01f3 4E01     		.2byte	0x14e
 1795 01f5 00000000 		.4byte	.LFB2
 1796 01f9 30000000 		.4byte	.LFE2-.LFB2
 1797 01fd 01       		.uleb128 0x1
 1798 01fe 9C       		.byte	0x9c
 1799 01ff 1C020000 		.4byte	0x21c
 1800 0203 0C       		.uleb128 0xc
 1801 0204 14000000 		.4byte	.LVL14
 1802 0208 60040000 		.4byte	0x460
 1803 020c 0F       		.uleb128 0xf
 1804 020d 26000000 		.4byte	.LVL15
 1805 0211 3C040000 		.4byte	0x43c
 1806 0215 0B       		.uleb128 0xb
 1807 0216 01       		.uleb128 0x1
 1808 0217 51       		.byte	0x51
 1809 0218 01       		.uleb128 0x1
 1810 0219 30       		.byte	0x30
 1811 021a 00       		.byte	0
 1812 021b 00       		.byte	0
 1813 021c 0E       		.uleb128 0xe
 1814 021d 08010000 		.4byte	.LASF31
 1815 0221 01       		.byte	0x1
 1816 0222 7F01     		.2byte	0x17f
 1817 0224 00000000 		.4byte	.LFB3
 1818 0228 08000000 		.4byte	.LFE3-.LFB3
 1819 022c 01       		.uleb128 0x1
 1820 022d 9C       		.byte	0x9c
 1821 022e 3C020000 		.4byte	0x23c
 1822 0232 0C       		.uleb128 0xc
 1823 0233 06000000 		.4byte	.LVL16
 1824 0237 ED010000 		.4byte	0x1ed
 1825 023b 00       		.byte	0
ARM GAS  C:\Users\JEFFSN~1\AppData\Local\Temp\ccznaSP4.s 			page 86


 1826 023c 0E       		.uleb128 0xe
 1827 023d 91010000 		.4byte	.LASF32
 1828 0241 01       		.byte	0x1
 1829 0242 4B02     		.2byte	0x24b
 1830 0244 00000000 		.4byte	.LFB5
 1831 0248 00020000 		.4byte	.LFE5-.LFB5
 1832 024c 01       		.uleb128 0x1
 1833 024d 9C       		.byte	0x9c
 1834 024e B2020000 		.4byte	0x2b2
 1835 0252 10       		.uleb128 0x10
 1836 0253 696300   		.ascii	"ic\000"
 1837 0256 01       		.byte	0x1
 1838 0257 4B02     		.2byte	0x24b
 1839 0259 6B000000 		.4byte	0x6b
 1840 025d 3C000000 		.4byte	.LLST2
 1841 0261 11       		.uleb128 0x11
 1842 0262 F6020000 		.4byte	.LASF33
 1843 0266 01       		.byte	0x1
 1844 0267 4B02     		.2byte	0x24b
 1845 0269 B2020000 		.4byte	0x2b2
 1846 026d 25010000 		.4byte	.LLST3
 1847 0271 11       		.uleb128 0x11
 1848 0272 FE020000 		.4byte	.LASF34
 1849 0276 01       		.byte	0x1
 1850 0277 4B02     		.2byte	0x24b
 1851 0279 6B000000 		.4byte	0x6b
 1852 027d AA010000 		.4byte	.LLST4
 1853 0281 11       		.uleb128 0x11
 1854 0282 3F000000 		.4byte	.LASF35
 1855 0286 01       		.byte	0x1
 1856 0287 4B02     		.2byte	0x24b
 1857 0289 6B000000 		.4byte	0x6b
 1858 028d 93020000 		.4byte	.LLST5
 1859 0291 12       		.uleb128 0x12
 1860 0292 A5010000 		.4byte	.LASF36
 1861 0296 01       		.byte	0x1
 1862 0297 4E02     		.2byte	0x24e
 1863 0299 6B000000 		.4byte	0x6b
 1864 029d 7C030000 		.4byte	.LLST6
 1865 02a1 12       		.uleb128 0x12
 1866 02a2 D2020000 		.4byte	.LASF37
 1867 02a6 01       		.byte	0x1
 1868 02a7 4F02     		.2byte	0x24f
 1869 02a9 6B000000 		.4byte	0x6b
 1870 02ad 8F030000 		.4byte	.LLST7
 1871 02b1 00       		.byte	0
 1872 02b2 13       		.uleb128 0x13
 1873 02b3 04       		.byte	0x4
 1874 02b4 B8020000 		.4byte	0x2b8
 1875 02b8 14       		.uleb128 0x14
 1876 02b9 6B000000 		.4byte	0x6b
 1877 02bd 15       		.uleb128 0x15
 1878 02be 7C030000 		.4byte	.LASF55
 1879 02c2 01       		.byte	0x1
 1880 02c3 DA01     		.2byte	0x1da
 1881 02c5 6B000000 		.4byte	0x6b
 1882 02c9 00000000 		.4byte	.LFB4
ARM GAS  C:\Users\JEFFSN~1\AppData\Local\Temp\ccznaSP4.s 			page 87


 1883 02cd F4000000 		.4byte	.LFE4-.LFB4
 1884 02d1 01       		.uleb128 0x1
 1885 02d2 9C       		.byte	0x9c
 1886 02d3 B2030000 		.4byte	0x3b2
 1887 02d7 10       		.uleb128 0x10
 1888 02d8 696300   		.ascii	"ic\000"
 1889 02db 01       		.byte	0x1
 1890 02dc DA01     		.2byte	0x1da
 1891 02de 6B000000 		.4byte	0x6b
 1892 02e2 C8030000 		.4byte	.LLST8
 1893 02e6 11       		.uleb128 0x11
 1894 02e7 64030000 		.4byte	.LASF38
 1895 02eb 01       		.byte	0x1
 1896 02ec DA01     		.2byte	0x1da
 1897 02ee B2020000 		.4byte	0x2b2
 1898 02f2 0D040000 		.4byte	.LLST9
 1899 02f6 11       		.uleb128 0x11
 1900 02f7 3F000000 		.4byte	.LASF35
 1901 02fb 01       		.byte	0x1
 1902 02fc DA01     		.2byte	0x1da
 1903 02fe 6B000000 		.4byte	0x6b
 1904 0302 39040000 		.4byte	.LLST10
 1905 0306 12       		.uleb128 0x12
 1906 0307 DC010000 		.4byte	.LASF39
 1907 030b 01       		.byte	0x1
 1908 030c DD01     		.2byte	0x1dd
 1909 030e 6B000000 		.4byte	0x6b
 1910 0312 5A040000 		.4byte	.LLST11
 1911 0316 16       		.uleb128 0x16
 1912 0317 00000000 		.4byte	.Ldebug_ranges0+0
 1913 031b 86030000 		.4byte	0x386
 1914 031f 17       		.uleb128 0x17
 1915 0320 69647800 		.ascii	"idx\000"
 1916 0324 01       		.byte	0x1
 1917 0325 F701     		.2byte	0x1f7
 1918 0327 6B000000 		.4byte	0x6b
 1919 032b 90040000 		.4byte	.LLST12
 1920 032f 0A       		.uleb128 0xa
 1921 0330 72000000 		.4byte	.LVL71
 1922 0334 3C020000 		.4byte	0x23c
 1923 0338 57030000 		.4byte	0x357
 1924 033c 0B       		.uleb128 0xb
 1925 033d 01       		.uleb128 0x1
 1926 033e 50       		.byte	0x50
 1927 033f 02       		.uleb128 0x2
 1928 0340 09       		.byte	0x9
 1929 0341 F0       		.byte	0xf0
 1930 0342 0B       		.uleb128 0xb
 1931 0343 01       		.uleb128 0x1
 1932 0344 51       		.byte	0x51
 1933 0345 05       		.uleb128 0x5
 1934 0346 76       		.byte	0x76
 1935 0347 00       		.sleb128 0
 1936 0348 75       		.byte	0x75
 1937 0349 00       		.sleb128 0
 1938 034a 22       		.byte	0x22
 1939 034b 0B       		.uleb128 0xb
ARM GAS  C:\Users\JEFFSN~1\AppData\Local\Temp\ccznaSP4.s 			page 88


 1940 034c 01       		.uleb128 0x1
 1941 034d 52       		.byte	0x52
 1942 034e 01       		.uleb128 0x1
 1943 034f 33       		.byte	0x33
 1944 0350 0B       		.uleb128 0xb
 1945 0351 01       		.uleb128 0x1
 1946 0352 53       		.byte	0x53
 1947 0353 02       		.uleb128 0x2
 1948 0354 77       		.byte	0x77
 1949 0355 00       		.sleb128 0
 1950 0356 00       		.byte	0
 1951 0357 0C       		.uleb128 0xc
 1952 0358 9C000000 		.4byte	.LVL76
 1953 035c ED010000 		.4byte	0x1ed
 1954 0360 0F       		.uleb128 0xf
 1955 0361 DA000000 		.4byte	.LVL78
 1956 0365 3C020000 		.4byte	0x23c
 1957 0369 0B       		.uleb128 0xb
 1958 036a 01       		.uleb128 0x1
 1959 036b 50       		.byte	0x50
 1960 036c 02       		.uleb128 0x2
 1961 036d 09       		.byte	0x9
 1962 036e F7       		.byte	0xf7
 1963 036f 0B       		.uleb128 0xb
 1964 0370 01       		.uleb128 0x1
 1965 0371 51       		.byte	0x51
 1966 0372 05       		.uleb128 0x5
 1967 0373 76       		.byte	0x76
 1968 0374 00       		.sleb128 0
 1969 0375 75       		.byte	0x75
 1970 0376 00       		.sleb128 0
 1971 0377 22       		.byte	0x22
 1972 0378 0B       		.uleb128 0xb
 1973 0379 01       		.uleb128 0x1
 1974 037a 52       		.byte	0x52
 1975 037b 02       		.uleb128 0x2
 1976 037c 74       		.byte	0x74
 1977 037d 00       		.sleb128 0
 1978 037e 0B       		.uleb128 0xb
 1979 037f 01       		.uleb128 0x1
 1980 0380 53       		.byte	0x53
 1981 0381 02       		.uleb128 0x2
 1982 0382 77       		.byte	0x77
 1983 0383 00       		.sleb128 0
 1984 0384 00       		.byte	0
 1985 0385 00       		.byte	0
 1986 0386 0C       		.uleb128 0xc
 1987 0387 2C000000 		.4byte	.LVL68
 1988 038b ED010000 		.4byte	0x1ed
 1989 038f 0F       		.uleb128 0xf
 1990 0390 5E000000 		.4byte	.LVL69
 1991 0394 3C020000 		.4byte	0x23c
 1992 0398 0B       		.uleb128 0xb
 1993 0399 01       		.uleb128 0x1
 1994 039a 50       		.byte	0x50
 1995 039b 02       		.uleb128 0x2
 1996 039c 74       		.byte	0x74
ARM GAS  C:\Users\JEFFSN~1\AppData\Local\Temp\ccznaSP4.s 			page 89


 1997 039d 00       		.sleb128 0
 1998 039e 0B       		.uleb128 0xb
 1999 039f 01       		.uleb128 0x1
 2000 03a0 51       		.byte	0x51
 2001 03a1 02       		.uleb128 0x2
 2002 03a2 76       		.byte	0x76
 2003 03a3 00       		.sleb128 0
 2004 03a4 0B       		.uleb128 0xb
 2005 03a5 01       		.uleb128 0x1
 2006 03a6 52       		.byte	0x52
 2007 03a7 02       		.uleb128 0x2
 2008 03a8 74       		.byte	0x74
 2009 03a9 00       		.sleb128 0
 2010 03aa 0B       		.uleb128 0xb
 2011 03ab 01       		.uleb128 0x1
 2012 03ac 53       		.byte	0x53
 2013 03ad 02       		.uleb128 0x2
 2014 03ae 77       		.byte	0x77
 2015 03af 00       		.sleb128 0
 2016 03b0 00       		.byte	0
 2017 03b1 00       		.byte	0
 2018 03b2 18       		.uleb128 0x18
 2019 03b3 1C010000 		.4byte	.LASF40
 2020 03b7 01       		.byte	0x1
 2021 03b8 45       		.byte	0x45
 2022 03b9 98000000 		.4byte	0x98
 2023 03bd 05       		.uleb128 0x5
 2024 03be 03       		.byte	0x3
 2025 03bf 00000000 		.4byte	USB_midiInPointer
 2026 03c3 18       		.uleb128 0x18
 2027 03c4 2F030000 		.4byte	.LASF41
 2028 03c8 01       		.byte	0x1
 2029 03c9 4A       		.byte	0x4a
 2030 03ca 98000000 		.4byte	0x98
 2031 03ce 05       		.uleb128 0x5
 2032 03cf 03       		.byte	0x3
 2033 03d0 00000000 		.4byte	USB_midi_in_ep
 2034 03d4 19       		.uleb128 0x19
 2035 03d5 6B000000 		.4byte	0x6b
 2036 03d9 E4030000 		.4byte	0x3e4
 2037 03dd 1A       		.uleb128 0x1a
 2038 03de A4000000 		.4byte	0xa4
 2039 03e2 3F       		.byte	0x3f
 2040 03e3 00       		.byte	0
 2041 03e4 18       		.uleb128 0x18
 2042 03e5 4B010000 		.4byte	.LASF42
 2043 03e9 01       		.byte	0x1
 2044 03ea 4F       		.byte	0x4f
 2045 03eb D4030000 		.4byte	0x3d4
 2046 03ef 05       		.uleb128 0x5
 2047 03f0 03       		.byte	0x3
 2048 03f1 00000000 		.4byte	USB_midiInBuffer
 2049 03f5 18       		.uleb128 0x18
 2050 03f6 AB020000 		.4byte	.LASF43
 2051 03fa 01       		.byte	0x1
 2052 03fb 56       		.byte	0x56
 2053 03fc 98000000 		.4byte	0x98
ARM GAS  C:\Users\JEFFSN~1\AppData\Local\Temp\ccznaSP4.s 			page 90


 2054 0400 05       		.uleb128 0x5
 2055 0401 03       		.byte	0x3
 2056 0402 00000000 		.4byte	USB_midi_out_ep
 2057 0406 18       		.uleb128 0x18
 2058 0407 E5010000 		.4byte	.LASF44
 2059 040b 01       		.byte	0x1
 2060 040c 5C       		.byte	0x5c
 2061 040d D4030000 		.4byte	0x3d4
 2062 0411 05       		.uleb128 0x5
 2063 0412 03       		.byte	0x3
 2064 0413 00000000 		.4byte	USB_midiOutBuffer
 2065 0417 19       		.uleb128 0x19
 2066 0418 27040000 		.4byte	0x427
 2067 041c 27040000 		.4byte	0x427
 2068 0420 1A       		.uleb128 0x1a
 2069 0421 A4000000 		.4byte	0xa4
 2070 0425 08       		.byte	0x8
 2071 0426 00       		.byte	0
 2072 0427 05       		.uleb128 0x5
 2073 0428 20010000 		.4byte	0x120
 2074 042c 1B       		.uleb128 0x1b
 2075 042d F3000000 		.4byte	.LASF45
 2076 0431 04       		.byte	0x4
 2077 0432 79       		.byte	0x79
 2078 0433 37040000 		.4byte	0x437
 2079 0437 05       		.uleb128 0x5
 2080 0438 17040000 		.4byte	0x417
 2081 043c 1C       		.uleb128 0x1c
 2082 043d 32000000 		.4byte	.LASF46
 2083 0441 32000000 		.4byte	.LASF46
 2084 0445 03       		.byte	0x3
 2085 0446 3201     		.2byte	0x132
 2086 0448 1C       		.uleb128 0x1c
 2087 0449 5C010000 		.4byte	.LASF47
 2088 044d 5C010000 		.4byte	.LASF47
 2089 0451 03       		.byte	0x3
 2090 0452 3401     		.2byte	0x134
 2091 0454 1C       		.uleb128 0x1c
 2092 0455 81010000 		.4byte	.LASF48
 2093 0459 81010000 		.4byte	.LASF48
 2094 045d 03       		.byte	0x3
 2095 045e 3601     		.2byte	0x136
 2096 0460 1C       		.uleb128 0x1c
 2097 0461 E7020000 		.4byte	.LASF49
 2098 0465 E7020000 		.4byte	.LASF49
 2099 0469 03       		.byte	0x3
 2100 046a 3001     		.2byte	0x130
 2101 046c 1C       		.uleb128 0x1c
 2102 046d CB030000 		.4byte	.LASF50
 2103 0471 CB030000 		.4byte	.LASF50
 2104 0475 03       		.byte	0x3
 2105 0476 3101     		.2byte	0x131
 2106 0478 1D       		.uleb128 0x1d
 2107 0479 3E030000 		.4byte	.LASF51
 2108 047d 3E030000 		.4byte	.LASF51
 2109 0481 05       		.byte	0x5
 2110 0482 77       		.byte	0x77
ARM GAS  C:\Users\JEFFSN~1\AppData\Local\Temp\ccznaSP4.s 			page 91


 2111 0483 00       		.byte	0
 2112              		.section	.debug_abbrev,"",%progbits
 2113              	.Ldebug_abbrev0:
 2114 0000 01       		.uleb128 0x1
 2115 0001 11       		.uleb128 0x11
 2116 0002 01       		.byte	0x1
 2117 0003 25       		.uleb128 0x25
 2118 0004 0E       		.uleb128 0xe
 2119 0005 13       		.uleb128 0x13
 2120 0006 0B       		.uleb128 0xb
 2121 0007 03       		.uleb128 0x3
 2122 0008 0E       		.uleb128 0xe
 2123 0009 1B       		.uleb128 0x1b
 2124 000a 0E       		.uleb128 0xe
 2125 000b 55       		.uleb128 0x55
 2126 000c 17       		.uleb128 0x17
 2127 000d 11       		.uleb128 0x11
 2128 000e 01       		.uleb128 0x1
 2129 000f 10       		.uleb128 0x10
 2130 0010 17       		.uleb128 0x17
 2131 0011 00       		.byte	0
 2132 0012 00       		.byte	0
 2133 0013 02       		.uleb128 0x2
 2134 0014 24       		.uleb128 0x24
 2135 0015 00       		.byte	0
 2136 0016 0B       		.uleb128 0xb
 2137 0017 0B       		.uleb128 0xb
 2138 0018 3E       		.uleb128 0x3e
 2139 0019 0B       		.uleb128 0xb
 2140 001a 03       		.uleb128 0x3
 2141 001b 0E       		.uleb128 0xe
 2142 001c 00       		.byte	0
 2143 001d 00       		.byte	0
 2144 001e 03       		.uleb128 0x3
 2145 001f 24       		.uleb128 0x24
 2146 0020 00       		.byte	0
 2147 0021 0B       		.uleb128 0xb
 2148 0022 0B       		.uleb128 0xb
 2149 0023 3E       		.uleb128 0x3e
 2150 0024 0B       		.uleb128 0xb
 2151 0025 03       		.uleb128 0x3
 2152 0026 08       		.uleb128 0x8
 2153 0027 00       		.byte	0
 2154 0028 00       		.byte	0
 2155 0029 04       		.uleb128 0x4
 2156 002a 16       		.uleb128 0x16
 2157 002b 00       		.byte	0
 2158 002c 03       		.uleb128 0x3
 2159 002d 0E       		.uleb128 0xe
 2160 002e 3A       		.uleb128 0x3a
 2161 002f 0B       		.uleb128 0xb
 2162 0030 3B       		.uleb128 0x3b
 2163 0031 05       		.uleb128 0x5
 2164 0032 49       		.uleb128 0x49
 2165 0033 13       		.uleb128 0x13
 2166 0034 00       		.byte	0
 2167 0035 00       		.byte	0
ARM GAS  C:\Users\JEFFSN~1\AppData\Local\Temp\ccznaSP4.s 			page 92


 2168 0036 05       		.uleb128 0x5
 2169 0037 35       		.uleb128 0x35
 2170 0038 00       		.byte	0
 2171 0039 49       		.uleb128 0x49
 2172 003a 13       		.uleb128 0x13
 2173 003b 00       		.byte	0
 2174 003c 00       		.byte	0
 2175 003d 06       		.uleb128 0x6
 2176 003e 13       		.uleb128 0x13
 2177 003f 01       		.byte	0x1
 2178 0040 0B       		.uleb128 0xb
 2179 0041 0B       		.uleb128 0xb
 2180 0042 3A       		.uleb128 0x3a
 2181 0043 0B       		.uleb128 0xb
 2182 0044 3B       		.uleb128 0x3b
 2183 0045 0B       		.uleb128 0xb
 2184 0046 01       		.uleb128 0x1
 2185 0047 13       		.uleb128 0x13
 2186 0048 00       		.byte	0
 2187 0049 00       		.byte	0
 2188 004a 07       		.uleb128 0x7
 2189 004b 0D       		.uleb128 0xd
 2190 004c 00       		.byte	0
 2191 004d 03       		.uleb128 0x3
 2192 004e 0E       		.uleb128 0xe
 2193 004f 3A       		.uleb128 0x3a
 2194 0050 0B       		.uleb128 0xb
 2195 0051 3B       		.uleb128 0x3b
 2196 0052 0B       		.uleb128 0xb
 2197 0053 49       		.uleb128 0x49
 2198 0054 13       		.uleb128 0x13
 2199 0055 38       		.uleb128 0x38
 2200 0056 0B       		.uleb128 0xb
 2201 0057 00       		.byte	0
 2202 0058 00       		.byte	0
 2203 0059 08       		.uleb128 0x8
 2204 005a 16       		.uleb128 0x16
 2205 005b 00       		.byte	0
 2206 005c 03       		.uleb128 0x3
 2207 005d 0E       		.uleb128 0xe
 2208 005e 3A       		.uleb128 0x3a
 2209 005f 0B       		.uleb128 0xb
 2210 0060 3B       		.uleb128 0x3b
 2211 0061 0B       		.uleb128 0xb
 2212 0062 49       		.uleb128 0x49
 2213 0063 13       		.uleb128 0x13
 2214 0064 00       		.byte	0
 2215 0065 00       		.byte	0
 2216 0066 09       		.uleb128 0x9
 2217 0067 2E       		.uleb128 0x2e
 2218 0068 01       		.byte	0x1
 2219 0069 3F       		.uleb128 0x3f
 2220 006a 19       		.uleb128 0x19
 2221 006b 03       		.uleb128 0x3
 2222 006c 0E       		.uleb128 0xe
 2223 006d 3A       		.uleb128 0x3a
 2224 006e 0B       		.uleb128 0xb
ARM GAS  C:\Users\JEFFSN~1\AppData\Local\Temp\ccznaSP4.s 			page 93


 2225 006f 3B       		.uleb128 0x3b
 2226 0070 0B       		.uleb128 0xb
 2227 0071 27       		.uleb128 0x27
 2228 0072 19       		.uleb128 0x19
 2229 0073 11       		.uleb128 0x11
 2230 0074 01       		.uleb128 0x1
 2231 0075 12       		.uleb128 0x12
 2232 0076 06       		.uleb128 0x6
 2233 0077 40       		.uleb128 0x40
 2234 0078 18       		.uleb128 0x18
 2235 0079 9742     		.uleb128 0x2117
 2236 007b 19       		.uleb128 0x19
 2237 007c 01       		.uleb128 0x1
 2238 007d 13       		.uleb128 0x13
 2239 007e 00       		.byte	0
 2240 007f 00       		.byte	0
 2241 0080 0A       		.uleb128 0xa
 2242 0081 898201   		.uleb128 0x4109
 2243 0084 01       		.byte	0x1
 2244 0085 11       		.uleb128 0x11
 2245 0086 01       		.uleb128 0x1
 2246 0087 31       		.uleb128 0x31
 2247 0088 13       		.uleb128 0x13
 2248 0089 01       		.uleb128 0x1
 2249 008a 13       		.uleb128 0x13
 2250 008b 00       		.byte	0
 2251 008c 00       		.byte	0
 2252 008d 0B       		.uleb128 0xb
 2253 008e 8A8201   		.uleb128 0x410a
 2254 0091 00       		.byte	0
 2255 0092 02       		.uleb128 0x2
 2256 0093 18       		.uleb128 0x18
 2257 0094 9142     		.uleb128 0x2111
 2258 0096 18       		.uleb128 0x18
 2259 0097 00       		.byte	0
 2260 0098 00       		.byte	0
 2261 0099 0C       		.uleb128 0xc
 2262 009a 898201   		.uleb128 0x4109
 2263 009d 00       		.byte	0
 2264 009e 11       		.uleb128 0x11
 2265 009f 01       		.uleb128 0x1
 2266 00a0 31       		.uleb128 0x31
 2267 00a1 13       		.uleb128 0x13
 2268 00a2 00       		.byte	0
 2269 00a3 00       		.byte	0
 2270 00a4 0D       		.uleb128 0xd
 2271 00a5 34       		.uleb128 0x34
 2272 00a6 00       		.byte	0
 2273 00a7 03       		.uleb128 0x3
 2274 00a8 0E       		.uleb128 0xe
 2275 00a9 3A       		.uleb128 0x3a
 2276 00aa 0B       		.uleb128 0xb
 2277 00ab 3B       		.uleb128 0x3b
 2278 00ac 0B       		.uleb128 0xb
 2279 00ad 49       		.uleb128 0x49
 2280 00ae 13       		.uleb128 0x13
 2281 00af 02       		.uleb128 0x2
ARM GAS  C:\Users\JEFFSN~1\AppData\Local\Temp\ccznaSP4.s 			page 94


 2282 00b0 17       		.uleb128 0x17
 2283 00b1 00       		.byte	0
 2284 00b2 00       		.byte	0
 2285 00b3 0E       		.uleb128 0xe
 2286 00b4 2E       		.uleb128 0x2e
 2287 00b5 01       		.byte	0x1
 2288 00b6 3F       		.uleb128 0x3f
 2289 00b7 19       		.uleb128 0x19
 2290 00b8 03       		.uleb128 0x3
 2291 00b9 0E       		.uleb128 0xe
 2292 00ba 3A       		.uleb128 0x3a
 2293 00bb 0B       		.uleb128 0xb
 2294 00bc 3B       		.uleb128 0x3b
 2295 00bd 05       		.uleb128 0x5
 2296 00be 27       		.uleb128 0x27
 2297 00bf 19       		.uleb128 0x19
 2298 00c0 11       		.uleb128 0x11
 2299 00c1 01       		.uleb128 0x1
 2300 00c2 12       		.uleb128 0x12
 2301 00c3 06       		.uleb128 0x6
 2302 00c4 40       		.uleb128 0x40
 2303 00c5 18       		.uleb128 0x18
 2304 00c6 9742     		.uleb128 0x2117
 2305 00c8 19       		.uleb128 0x19
 2306 00c9 01       		.uleb128 0x1
 2307 00ca 13       		.uleb128 0x13
 2308 00cb 00       		.byte	0
 2309 00cc 00       		.byte	0
 2310 00cd 0F       		.uleb128 0xf
 2311 00ce 898201   		.uleb128 0x4109
 2312 00d1 01       		.byte	0x1
 2313 00d2 11       		.uleb128 0x11
 2314 00d3 01       		.uleb128 0x1
 2315 00d4 31       		.uleb128 0x31
 2316 00d5 13       		.uleb128 0x13
 2317 00d6 00       		.byte	0
 2318 00d7 00       		.byte	0
 2319 00d8 10       		.uleb128 0x10
 2320 00d9 05       		.uleb128 0x5
 2321 00da 00       		.byte	0
 2322 00db 03       		.uleb128 0x3
 2323 00dc 08       		.uleb128 0x8
 2324 00dd 3A       		.uleb128 0x3a
 2325 00de 0B       		.uleb128 0xb
 2326 00df 3B       		.uleb128 0x3b
 2327 00e0 05       		.uleb128 0x5
 2328 00e1 49       		.uleb128 0x49
 2329 00e2 13       		.uleb128 0x13
 2330 00e3 02       		.uleb128 0x2
 2331 00e4 17       		.uleb128 0x17
 2332 00e5 00       		.byte	0
 2333 00e6 00       		.byte	0
 2334 00e7 11       		.uleb128 0x11
 2335 00e8 05       		.uleb128 0x5
 2336 00e9 00       		.byte	0
 2337 00ea 03       		.uleb128 0x3
 2338 00eb 0E       		.uleb128 0xe
ARM GAS  C:\Users\JEFFSN~1\AppData\Local\Temp\ccznaSP4.s 			page 95


 2339 00ec 3A       		.uleb128 0x3a
 2340 00ed 0B       		.uleb128 0xb
 2341 00ee 3B       		.uleb128 0x3b
 2342 00ef 05       		.uleb128 0x5
 2343 00f0 49       		.uleb128 0x49
 2344 00f1 13       		.uleb128 0x13
 2345 00f2 02       		.uleb128 0x2
 2346 00f3 17       		.uleb128 0x17
 2347 00f4 00       		.byte	0
 2348 00f5 00       		.byte	0
 2349 00f6 12       		.uleb128 0x12
 2350 00f7 34       		.uleb128 0x34
 2351 00f8 00       		.byte	0
 2352 00f9 03       		.uleb128 0x3
 2353 00fa 0E       		.uleb128 0xe
 2354 00fb 3A       		.uleb128 0x3a
 2355 00fc 0B       		.uleb128 0xb
 2356 00fd 3B       		.uleb128 0x3b
 2357 00fe 05       		.uleb128 0x5
 2358 00ff 49       		.uleb128 0x49
 2359 0100 13       		.uleb128 0x13
 2360 0101 02       		.uleb128 0x2
 2361 0102 17       		.uleb128 0x17
 2362 0103 00       		.byte	0
 2363 0104 00       		.byte	0
 2364 0105 13       		.uleb128 0x13
 2365 0106 0F       		.uleb128 0xf
 2366 0107 00       		.byte	0
 2367 0108 0B       		.uleb128 0xb
 2368 0109 0B       		.uleb128 0xb
 2369 010a 49       		.uleb128 0x49
 2370 010b 13       		.uleb128 0x13
 2371 010c 00       		.byte	0
 2372 010d 00       		.byte	0
 2373 010e 14       		.uleb128 0x14
 2374 010f 26       		.uleb128 0x26
 2375 0110 00       		.byte	0
 2376 0111 49       		.uleb128 0x49
 2377 0112 13       		.uleb128 0x13
 2378 0113 00       		.byte	0
 2379 0114 00       		.byte	0
 2380 0115 15       		.uleb128 0x15
 2381 0116 2E       		.uleb128 0x2e
 2382 0117 01       		.byte	0x1
 2383 0118 3F       		.uleb128 0x3f
 2384 0119 19       		.uleb128 0x19
 2385 011a 03       		.uleb128 0x3
 2386 011b 0E       		.uleb128 0xe
 2387 011c 3A       		.uleb128 0x3a
 2388 011d 0B       		.uleb128 0xb
 2389 011e 3B       		.uleb128 0x3b
 2390 011f 05       		.uleb128 0x5
 2391 0120 27       		.uleb128 0x27
 2392 0121 19       		.uleb128 0x19
 2393 0122 49       		.uleb128 0x49
 2394 0123 13       		.uleb128 0x13
 2395 0124 11       		.uleb128 0x11
ARM GAS  C:\Users\JEFFSN~1\AppData\Local\Temp\ccznaSP4.s 			page 96


 2396 0125 01       		.uleb128 0x1
 2397 0126 12       		.uleb128 0x12
 2398 0127 06       		.uleb128 0x6
 2399 0128 40       		.uleb128 0x40
 2400 0129 18       		.uleb128 0x18
 2401 012a 9742     		.uleb128 0x2117
 2402 012c 19       		.uleb128 0x19
 2403 012d 01       		.uleb128 0x1
 2404 012e 13       		.uleb128 0x13
 2405 012f 00       		.byte	0
 2406 0130 00       		.byte	0
 2407 0131 16       		.uleb128 0x16
 2408 0132 0B       		.uleb128 0xb
 2409 0133 01       		.byte	0x1
 2410 0134 55       		.uleb128 0x55
 2411 0135 17       		.uleb128 0x17
 2412 0136 01       		.uleb128 0x1
 2413 0137 13       		.uleb128 0x13
 2414 0138 00       		.byte	0
 2415 0139 00       		.byte	0
 2416 013a 17       		.uleb128 0x17
 2417 013b 34       		.uleb128 0x34
 2418 013c 00       		.byte	0
 2419 013d 03       		.uleb128 0x3
 2420 013e 08       		.uleb128 0x8
 2421 013f 3A       		.uleb128 0x3a
 2422 0140 0B       		.uleb128 0xb
 2423 0141 3B       		.uleb128 0x3b
 2424 0142 05       		.uleb128 0x5
 2425 0143 49       		.uleb128 0x49
 2426 0144 13       		.uleb128 0x13
 2427 0145 02       		.uleb128 0x2
 2428 0146 17       		.uleb128 0x17
 2429 0147 00       		.byte	0
 2430 0148 00       		.byte	0
 2431 0149 18       		.uleb128 0x18
 2432 014a 34       		.uleb128 0x34
 2433 014b 00       		.byte	0
 2434 014c 03       		.uleb128 0x3
 2435 014d 0E       		.uleb128 0xe
 2436 014e 3A       		.uleb128 0x3a
 2437 014f 0B       		.uleb128 0xb
 2438 0150 3B       		.uleb128 0x3b
 2439 0151 0B       		.uleb128 0xb
 2440 0152 49       		.uleb128 0x49
 2441 0153 13       		.uleb128 0x13
 2442 0154 3F       		.uleb128 0x3f
 2443 0155 19       		.uleb128 0x19
 2444 0156 02       		.uleb128 0x2
 2445 0157 18       		.uleb128 0x18
 2446 0158 00       		.byte	0
 2447 0159 00       		.byte	0
 2448 015a 19       		.uleb128 0x19
 2449 015b 01       		.uleb128 0x1
 2450 015c 01       		.byte	0x1
 2451 015d 49       		.uleb128 0x49
 2452 015e 13       		.uleb128 0x13
ARM GAS  C:\Users\JEFFSN~1\AppData\Local\Temp\ccznaSP4.s 			page 97


 2453 015f 01       		.uleb128 0x1
 2454 0160 13       		.uleb128 0x13
 2455 0161 00       		.byte	0
 2456 0162 00       		.byte	0
 2457 0163 1A       		.uleb128 0x1a
 2458 0164 21       		.uleb128 0x21
 2459 0165 00       		.byte	0
 2460 0166 49       		.uleb128 0x49
 2461 0167 13       		.uleb128 0x13
 2462 0168 2F       		.uleb128 0x2f
 2463 0169 0B       		.uleb128 0xb
 2464 016a 00       		.byte	0
 2465 016b 00       		.byte	0
 2466 016c 1B       		.uleb128 0x1b
 2467 016d 34       		.uleb128 0x34
 2468 016e 00       		.byte	0
 2469 016f 03       		.uleb128 0x3
 2470 0170 0E       		.uleb128 0xe
 2471 0171 3A       		.uleb128 0x3a
 2472 0172 0B       		.uleb128 0xb
 2473 0173 3B       		.uleb128 0x3b
 2474 0174 0B       		.uleb128 0xb
 2475 0175 49       		.uleb128 0x49
 2476 0176 13       		.uleb128 0x13
 2477 0177 3F       		.uleb128 0x3f
 2478 0178 19       		.uleb128 0x19
 2479 0179 3C       		.uleb128 0x3c
 2480 017a 19       		.uleb128 0x19
 2481 017b 00       		.byte	0
 2482 017c 00       		.byte	0
 2483 017d 1C       		.uleb128 0x1c
 2484 017e 2E       		.uleb128 0x2e
 2485 017f 00       		.byte	0
 2486 0180 3F       		.uleb128 0x3f
 2487 0181 19       		.uleb128 0x19
 2488 0182 3C       		.uleb128 0x3c
 2489 0183 19       		.uleb128 0x19
 2490 0184 6E       		.uleb128 0x6e
 2491 0185 0E       		.uleb128 0xe
 2492 0186 03       		.uleb128 0x3
 2493 0187 0E       		.uleb128 0xe
 2494 0188 3A       		.uleb128 0x3a
 2495 0189 0B       		.uleb128 0xb
 2496 018a 3B       		.uleb128 0x3b
 2497 018b 05       		.uleb128 0x5
 2498 018c 00       		.byte	0
 2499 018d 00       		.byte	0
 2500 018e 1D       		.uleb128 0x1d
 2501 018f 2E       		.uleb128 0x2e
 2502 0190 00       		.byte	0
 2503 0191 3F       		.uleb128 0x3f
 2504 0192 19       		.uleb128 0x19
 2505 0193 3C       		.uleb128 0x3c
 2506 0194 19       		.uleb128 0x19
 2507 0195 6E       		.uleb128 0x6e
 2508 0196 0E       		.uleb128 0xe
 2509 0197 03       		.uleb128 0x3
ARM GAS  C:\Users\JEFFSN~1\AppData\Local\Temp\ccznaSP4.s 			page 98


 2510 0198 0E       		.uleb128 0xe
 2511 0199 3A       		.uleb128 0x3a
 2512 019a 0B       		.uleb128 0xb
 2513 019b 3B       		.uleb128 0x3b
 2514 019c 0B       		.uleb128 0xb
 2515 019d 00       		.byte	0
 2516 019e 00       		.byte	0
 2517 019f 00       		.byte	0
 2518              		.section	.debug_loc,"",%progbits
 2519              	.Ldebug_loc0:
 2520              	.LLST0:
 2521 0000 18000000 		.4byte	.LVL5
 2522 0004 46000000 		.4byte	.LVL13
 2523 0008 0100     		.2byte	0x1
 2524 000a 55       		.byte	0x55
 2525 000b 00000000 		.4byte	0
 2526 000f 00000000 		.4byte	0
 2527              	.LLST1:
 2528 0013 1E000000 		.4byte	.LVL6
 2529 0017 34000000 		.4byte	.LVL8
 2530 001b 0100     		.2byte	0x1
 2531 001d 54       		.byte	0x54
 2532 001e 36000000 		.4byte	.LVL9
 2533 0022 38000000 		.4byte	.LVL10
 2534 0026 0100     		.2byte	0x1
 2535 0028 54       		.byte	0x54
 2536 0029 3A000000 		.4byte	.LVL11
 2537 002d 3E000000 		.4byte	.LVL12
 2538 0031 0100     		.2byte	0x1
 2539 0033 54       		.byte	0x54
 2540 0034 00000000 		.4byte	0
 2541 0038 00000000 		.4byte	0
 2542              	.LLST2:
 2543 003c 00000000 		.4byte	.LVL17
 2544 0040 34000000 		.4byte	.LVL25
 2545 0044 0100     		.2byte	0x1
 2546 0046 50       		.byte	0x50
 2547 0047 34000000 		.4byte	.LVL25
 2548 004b 4E000000 		.4byte	.LVL26
 2549 004f 0400     		.2byte	0x4
 2550 0051 F3       		.byte	0xf3
 2551 0052 01       		.uleb128 0x1
 2552 0053 50       		.byte	0x50
 2553 0054 9F       		.byte	0x9f
 2554 0055 4E000000 		.4byte	.LVL26
 2555 0059 5E000000 		.4byte	.LVL28
 2556 005d 0100     		.2byte	0x1
 2557 005f 50       		.byte	0x50
 2558 0060 5E000000 		.4byte	.LVL28
 2559 0064 72000000 		.4byte	.LVL30
 2560 0068 0400     		.2byte	0x4
 2561 006a F3       		.byte	0xf3
 2562 006b 01       		.uleb128 0x1
 2563 006c 50       		.byte	0x50
 2564 006d 9F       		.byte	0x9f
 2565 006e 72000000 		.4byte	.LVL30
 2566 0072 7A000000 		.4byte	.LVL32
ARM GAS  C:\Users\JEFFSN~1\AppData\Local\Temp\ccznaSP4.s 			page 99


 2567 0076 0100     		.2byte	0x1
 2568 0078 50       		.byte	0x50
 2569 0079 7A000000 		.4byte	.LVL32
 2570 007d 8E000000 		.4byte	.LVL34
 2571 0081 0400     		.2byte	0x4
 2572 0083 F3       		.byte	0xf3
 2573 0084 01       		.uleb128 0x1
 2574 0085 50       		.byte	0x50
 2575 0086 9F       		.byte	0x9f
 2576 0087 8E000000 		.4byte	.LVL34
 2577 008b 96000000 		.4byte	.LVL36
 2578 008f 0100     		.2byte	0x1
 2579 0091 50       		.byte	0x50
 2580 0092 96000000 		.4byte	.LVL36
 2581 0096 AA000000 		.4byte	.LVL38
 2582 009a 0400     		.2byte	0x4
 2583 009c F3       		.byte	0xf3
 2584 009d 01       		.uleb128 0x1
 2585 009e 50       		.byte	0x50
 2586 009f 9F       		.byte	0x9f
 2587 00a0 AA000000 		.4byte	.LVL38
 2588 00a4 B6000000 		.4byte	.LVL40
 2589 00a8 0100     		.2byte	0x1
 2590 00aa 50       		.byte	0x50
 2591 00ab B6000000 		.4byte	.LVL40
 2592 00af CA000000 		.4byte	.LVL42
 2593 00b3 0400     		.2byte	0x4
 2594 00b5 F3       		.byte	0xf3
 2595 00b6 01       		.uleb128 0x1
 2596 00b7 50       		.byte	0x50
 2597 00b8 9F       		.byte	0x9f
 2598 00b9 CA000000 		.4byte	.LVL42
 2599 00bd D2000000 		.4byte	.LVL44
 2600 00c1 0100     		.2byte	0x1
 2601 00c3 50       		.byte	0x50
 2602 00c4 D2000000 		.4byte	.LVL44
 2603 00c8 16010000 		.4byte	.LVL47
 2604 00cc 0400     		.2byte	0x4
 2605 00ce F3       		.byte	0xf3
 2606 00cf 01       		.uleb128 0x1
 2607 00d0 50       		.byte	0x50
 2608 00d1 9F       		.byte	0x9f
 2609 00d2 16010000 		.4byte	.LVL47
 2610 00d6 2A010000 		.4byte	.LVL49
 2611 00da 0100     		.2byte	0x1
 2612 00dc 50       		.byte	0x50
 2613 00dd 2A010000 		.4byte	.LVL49
 2614 00e1 6C010000 		.4byte	.LVL52
 2615 00e5 0400     		.2byte	0x4
 2616 00e7 F3       		.byte	0xf3
 2617 00e8 01       		.uleb128 0x1
 2618 00e9 50       		.byte	0x50
 2619 00ea 9F       		.byte	0x9f
 2620 00eb 6C010000 		.4byte	.LVL52
 2621 00ef 70010000 		.4byte	.LVL54
 2622 00f3 0100     		.2byte	0x1
 2623 00f5 50       		.byte	0x50
ARM GAS  C:\Users\JEFFSN~1\AppData\Local\Temp\ccznaSP4.s 			page 100


 2624 00f6 70010000 		.4byte	.LVL54
 2625 00fa B2010000 		.4byte	.LVL57
 2626 00fe 0400     		.2byte	0x4
 2627 0100 F3       		.byte	0xf3
 2628 0101 01       		.uleb128 0x1
 2629 0102 50       		.byte	0x50
 2630 0103 9F       		.byte	0x9f
 2631 0104 B2010000 		.4byte	.LVL57
 2632 0108 B6010000 		.4byte	.LVL59
 2633 010c 0100     		.2byte	0x1
 2634 010e 50       		.byte	0x50
 2635 010f B6010000 		.4byte	.LVL59
 2636 0113 00020000 		.4byte	.LFE5
 2637 0117 0400     		.2byte	0x4
 2638 0119 F3       		.byte	0xf3
 2639 011a 01       		.uleb128 0x1
 2640 011b 50       		.byte	0x50
 2641 011c 9F       		.byte	0x9f
 2642 011d 00000000 		.4byte	0
 2643 0121 00000000 		.4byte	0
 2644              	.LLST3:
 2645 0125 00000000 		.4byte	.LVL17
 2646 0129 12000000 		.4byte	.LVL22
 2647 012d 0100     		.2byte	0x1
 2648 012f 51       		.byte	0x51
 2649 0130 12000000 		.4byte	.LVL22
 2650 0134 4E000000 		.4byte	.LVL26
 2651 0138 0400     		.2byte	0x4
 2652 013a F3       		.byte	0xf3
 2653 013b 01       		.uleb128 0x1
 2654 013c 51       		.byte	0x51
 2655 013d 9F       		.byte	0x9f
 2656 013e 4E000000 		.4byte	.LVL26
 2657 0142 0A010000 		.4byte	.LVL46
 2658 0146 0100     		.2byte	0x1
 2659 0148 51       		.byte	0x51
 2660 0149 0A010000 		.4byte	.LVL46
 2661 014d 16010000 		.4byte	.LVL47
 2662 0151 0400     		.2byte	0x4
 2663 0153 F3       		.byte	0xf3
 2664 0154 01       		.uleb128 0x1
 2665 0155 51       		.byte	0x51
 2666 0156 9F       		.byte	0x9f
 2667 0157 16010000 		.4byte	.LVL47
 2668 015b 2E010000 		.4byte	.LVL50
 2669 015f 0100     		.2byte	0x1
 2670 0161 51       		.byte	0x51
 2671 0162 2E010000 		.4byte	.LVL50
 2672 0166 6C010000 		.4byte	.LVL52
 2673 016a 0400     		.2byte	0x4
 2674 016c F3       		.byte	0xf3
 2675 016d 01       		.uleb128 0x1
 2676 016e 51       		.byte	0x51
 2677 016f 9F       		.byte	0x9f
 2678 0170 6C010000 		.4byte	.LVL52
 2679 0174 74010000 		.4byte	.LVL55
 2680 0178 0100     		.2byte	0x1
ARM GAS  C:\Users\JEFFSN~1\AppData\Local\Temp\ccznaSP4.s 			page 101


 2681 017a 51       		.byte	0x51
 2682 017b 74010000 		.4byte	.LVL55
 2683 017f B2010000 		.4byte	.LVL57
 2684 0183 0400     		.2byte	0x4
 2685 0185 F3       		.byte	0xf3
 2686 0186 01       		.uleb128 0x1
 2687 0187 51       		.byte	0x51
 2688 0188 9F       		.byte	0x9f
 2689 0189 B2010000 		.4byte	.LVL57
 2690 018d BA010000 		.4byte	.LVL60
 2691 0191 0100     		.2byte	0x1
 2692 0193 51       		.byte	0x51
 2693 0194 BA010000 		.4byte	.LVL60
 2694 0198 00020000 		.4byte	.LFE5
 2695 019c 0400     		.2byte	0x4
 2696 019e F3       		.byte	0xf3
 2697 019f 01       		.uleb128 0x1
 2698 01a0 51       		.byte	0x51
 2699 01a1 9F       		.byte	0x9f
 2700 01a2 00000000 		.4byte	0
 2701 01a6 00000000 		.4byte	0
 2702              	.LLST4:
 2703 01aa 00000000 		.4byte	.LVL17
 2704 01ae 0C000000 		.4byte	.LVL20
 2705 01b2 0100     		.2byte	0x1
 2706 01b4 52       		.byte	0x52
 2707 01b5 0C000000 		.4byte	.LVL20
 2708 01b9 4E000000 		.4byte	.LVL26
 2709 01bd 0400     		.2byte	0x4
 2710 01bf F3       		.byte	0xf3
 2711 01c0 01       		.uleb128 0x1
 2712 01c1 52       		.byte	0x52
 2713 01c2 9F       		.byte	0x9f
 2714 01c3 4E000000 		.4byte	.LVL26
 2715 01c7 5C000000 		.4byte	.LVL27
 2716 01cb 0100     		.2byte	0x1
 2717 01cd 52       		.byte	0x52
 2718 01ce 5C000000 		.4byte	.LVL27
 2719 01d2 72000000 		.4byte	.LVL30
 2720 01d6 0400     		.2byte	0x4
 2721 01d8 F3       		.byte	0xf3
 2722 01d9 01       		.uleb128 0x1
 2723 01da 52       		.byte	0x52
 2724 01db 9F       		.byte	0x9f
 2725 01dc 72000000 		.4byte	.LVL30
 2726 01e0 78000000 		.4byte	.LVL31
 2727 01e4 0100     		.2byte	0x1
 2728 01e6 52       		.byte	0x52
 2729 01e7 78000000 		.4byte	.LVL31
 2730 01eb 8E000000 		.4byte	.LVL34
 2731 01ef 0400     		.2byte	0x4
 2732 01f1 F3       		.byte	0xf3
 2733 01f2 01       		.uleb128 0x1
 2734 01f3 52       		.byte	0x52
 2735 01f4 9F       		.byte	0x9f
 2736 01f5 8E000000 		.4byte	.LVL34
 2737 01f9 94000000 		.4byte	.LVL35
ARM GAS  C:\Users\JEFFSN~1\AppData\Local\Temp\ccznaSP4.s 			page 102


 2738 01fd 0100     		.2byte	0x1
 2739 01ff 52       		.byte	0x52
 2740 0200 94000000 		.4byte	.LVL35
 2741 0204 AA000000 		.4byte	.LVL38
 2742 0208 0400     		.2byte	0x4
 2743 020a F3       		.byte	0xf3
 2744 020b 01       		.uleb128 0x1
 2745 020c 52       		.byte	0x52
 2746 020d 9F       		.byte	0x9f
 2747 020e AA000000 		.4byte	.LVL38
 2748 0212 B4000000 		.4byte	.LVL39
 2749 0216 0100     		.2byte	0x1
 2750 0218 52       		.byte	0x52
 2751 0219 B4000000 		.4byte	.LVL39
 2752 021d CA000000 		.4byte	.LVL42
 2753 0221 0400     		.2byte	0x4
 2754 0223 F3       		.byte	0xf3
 2755 0224 01       		.uleb128 0x1
 2756 0225 52       		.byte	0x52
 2757 0226 9F       		.byte	0x9f
 2758 0227 CA000000 		.4byte	.LVL42
 2759 022b D0000000 		.4byte	.LVL43
 2760 022f 0100     		.2byte	0x1
 2761 0231 52       		.byte	0x52
 2762 0232 D0000000 		.4byte	.LVL43
 2763 0236 16010000 		.4byte	.LVL47
 2764 023a 0400     		.2byte	0x4
 2765 023c F3       		.byte	0xf3
 2766 023d 01       		.uleb128 0x1
 2767 023e 52       		.byte	0x52
 2768 023f 9F       		.byte	0x9f
 2769 0240 16010000 		.4byte	.LVL47
 2770 0244 28010000 		.4byte	.LVL48
 2771 0248 0100     		.2byte	0x1
 2772 024a 52       		.byte	0x52
 2773 024b 28010000 		.4byte	.LVL48
 2774 024f 6C010000 		.4byte	.LVL52
 2775 0253 0400     		.2byte	0x4
 2776 0255 F3       		.byte	0xf3
 2777 0256 01       		.uleb128 0x1
 2778 0257 52       		.byte	0x52
 2779 0258 9F       		.byte	0x9f
 2780 0259 6C010000 		.4byte	.LVL52
 2781 025d 6E010000 		.4byte	.LVL53
 2782 0261 0100     		.2byte	0x1
 2783 0263 52       		.byte	0x52
 2784 0264 6E010000 		.4byte	.LVL53
 2785 0268 B2010000 		.4byte	.LVL57
 2786 026c 0400     		.2byte	0x4
 2787 026e F3       		.byte	0xf3
 2788 026f 01       		.uleb128 0x1
 2789 0270 52       		.byte	0x52
 2790 0271 9F       		.byte	0x9f
 2791 0272 B2010000 		.4byte	.LVL57
 2792 0276 B4010000 		.4byte	.LVL58
 2793 027a 0100     		.2byte	0x1
 2794 027c 52       		.byte	0x52
ARM GAS  C:\Users\JEFFSN~1\AppData\Local\Temp\ccznaSP4.s 			page 103


 2795 027d B4010000 		.4byte	.LVL58
 2796 0281 00020000 		.4byte	.LFE5
 2797 0285 0400     		.2byte	0x4
 2798 0287 F3       		.byte	0xf3
 2799 0288 01       		.uleb128 0x1
 2800 0289 52       		.byte	0x52
 2801 028a 9F       		.byte	0x9f
 2802 028b 00000000 		.4byte	0
 2803 028f 00000000 		.4byte	0
 2804              	.LLST5:
 2805 0293 00000000 		.4byte	.LVL17
 2806 0297 16000000 		.4byte	.LVL23
 2807 029b 0100     		.2byte	0x1
 2808 029d 53       		.byte	0x53
 2809 029e 16000000 		.4byte	.LVL23
 2810 02a2 4E000000 		.4byte	.LVL26
 2811 02a6 0400     		.2byte	0x4
 2812 02a8 F3       		.byte	0xf3
 2813 02a9 01       		.uleb128 0x1
 2814 02aa 53       		.byte	0x53
 2815 02ab 9F       		.byte	0x9f
 2816 02ac 4E000000 		.4byte	.LVL26
 2817 02b0 64000000 		.4byte	.LVL29
 2818 02b4 0100     		.2byte	0x1
 2819 02b6 53       		.byte	0x53
 2820 02b7 64000000 		.4byte	.LVL29
 2821 02bb 72000000 		.4byte	.LVL30
 2822 02bf 0400     		.2byte	0x4
 2823 02c1 F3       		.byte	0xf3
 2824 02c2 01       		.uleb128 0x1
 2825 02c3 53       		.byte	0x53
 2826 02c4 9F       		.byte	0x9f
 2827 02c5 72000000 		.4byte	.LVL30
 2828 02c9 80000000 		.4byte	.LVL33
 2829 02cd 0100     		.2byte	0x1
 2830 02cf 53       		.byte	0x53
 2831 02d0 80000000 		.4byte	.LVL33
 2832 02d4 8E000000 		.4byte	.LVL34
 2833 02d8 0400     		.2byte	0x4
 2834 02da F3       		.byte	0xf3
 2835 02db 01       		.uleb128 0x1
 2836 02dc 53       		.byte	0x53
 2837 02dd 9F       		.byte	0x9f
 2838 02de 8E000000 		.4byte	.LVL34
 2839 02e2 9C000000 		.4byte	.LVL37
 2840 02e6 0100     		.2byte	0x1
 2841 02e8 53       		.byte	0x53
 2842 02e9 9C000000 		.4byte	.LVL37
 2843 02ed AA000000 		.4byte	.LVL38
 2844 02f1 0400     		.2byte	0x4
 2845 02f3 F3       		.byte	0xf3
 2846 02f4 01       		.uleb128 0x1
 2847 02f5 53       		.byte	0x53
 2848 02f6 9F       		.byte	0x9f
 2849 02f7 AA000000 		.4byte	.LVL38
 2850 02fb BC000000 		.4byte	.LVL41
 2851 02ff 0100     		.2byte	0x1
ARM GAS  C:\Users\JEFFSN~1\AppData\Local\Temp\ccznaSP4.s 			page 104


 2852 0301 53       		.byte	0x53
 2853 0302 BC000000 		.4byte	.LVL41
 2854 0306 CA000000 		.4byte	.LVL42
 2855 030a 0400     		.2byte	0x4
 2856 030c F3       		.byte	0xf3
 2857 030d 01       		.uleb128 0x1
 2858 030e 53       		.byte	0x53
 2859 030f 9F       		.byte	0x9f
 2860 0310 CA000000 		.4byte	.LVL42
 2861 0314 D8000000 		.4byte	.LVL45
 2862 0318 0100     		.2byte	0x1
 2863 031a 53       		.byte	0x53
 2864 031b D8000000 		.4byte	.LVL45
 2865 031f 16010000 		.4byte	.LVL47
 2866 0323 0400     		.2byte	0x4
 2867 0325 F3       		.byte	0xf3
 2868 0326 01       		.uleb128 0x1
 2869 0327 53       		.byte	0x53
 2870 0328 9F       		.byte	0x9f
 2871 0329 16010000 		.4byte	.LVL47
 2872 032d 32010000 		.4byte	.LVL51
 2873 0331 0100     		.2byte	0x1
 2874 0333 53       		.byte	0x53
 2875 0334 32010000 		.4byte	.LVL51
 2876 0338 6C010000 		.4byte	.LVL52
 2877 033c 0400     		.2byte	0x4
 2878 033e F3       		.byte	0xf3
 2879 033f 01       		.uleb128 0x1
 2880 0340 53       		.byte	0x53
 2881 0341 9F       		.byte	0x9f
 2882 0342 6C010000 		.4byte	.LVL52
 2883 0346 78010000 		.4byte	.LVL56
 2884 034a 0100     		.2byte	0x1
 2885 034c 53       		.byte	0x53
 2886 034d 78010000 		.4byte	.LVL56
 2887 0351 B2010000 		.4byte	.LVL57
 2888 0355 0400     		.2byte	0x4
 2889 0357 F3       		.byte	0xf3
 2890 0358 01       		.uleb128 0x1
 2891 0359 53       		.byte	0x53
 2892 035a 9F       		.byte	0x9f
 2893 035b B2010000 		.4byte	.LVL57
 2894 035f BE010000 		.4byte	.LVL61
 2895 0363 0100     		.2byte	0x1
 2896 0365 53       		.byte	0x53
 2897 0366 BE010000 		.4byte	.LVL61
 2898 036a 00020000 		.4byte	.LFE5
 2899 036e 0400     		.2byte	0x4
 2900 0370 F3       		.byte	0xf3
 2901 0371 01       		.uleb128 0x1
 2902 0372 53       		.byte	0x53
 2903 0373 9F       		.byte	0x9f
 2904 0374 00000000 		.4byte	0
 2905 0378 00000000 		.4byte	0
 2906              	.LLST6:
 2907 037c 04000000 		.4byte	.LVL18
 2908 0380 F6010000 		.4byte	.LVL63
ARM GAS  C:\Users\JEFFSN~1\AppData\Local\Temp\ccznaSP4.s 			page 105


 2909 0384 0100     		.2byte	0x1
 2910 0386 55       		.byte	0x55
 2911 0387 00000000 		.4byte	0
 2912 038b 00000000 		.4byte	0
 2913              	.LLST7:
 2914 038f 06000000 		.4byte	.LVL19
 2915 0393 0E000000 		.4byte	.LVL21
 2916 0397 0100     		.2byte	0x1
 2917 0399 54       		.byte	0x54
 2918 039a 0E000000 		.4byte	.LVL21
 2919 039e 12000000 		.4byte	.LVL22
 2920 03a2 0200     		.2byte	0x2
 2921 03a4 71       		.byte	0x71
 2922 03a5 01       		.sleb128 1
 2923 03a6 12000000 		.4byte	.LVL22
 2924 03aa 18000000 		.4byte	.LVL24
 2925 03ae 0500     		.2byte	0x5
 2926 03b0 F3       		.byte	0xf3
 2927 03b1 01       		.uleb128 0x1
 2928 03b2 51       		.byte	0x51
 2929 03b3 23       		.byte	0x23
 2930 03b4 01       		.uleb128 0x1
 2931 03b5 4E000000 		.4byte	.LVL26
 2932 03b9 F4010000 		.4byte	.LVL62
 2933 03bd 0100     		.2byte	0x1
 2934 03bf 54       		.byte	0x54
 2935 03c0 00000000 		.4byte	0
 2936 03c4 00000000 		.4byte	0
 2937              	.LLST8:
 2938 03c8 00000000 		.4byte	.LVL64
 2939 03cc 2B000000 		.4byte	.LVL68-1
 2940 03d0 0100     		.2byte	0x1
 2941 03d2 50       		.byte	0x50
 2942 03d3 2B000000 		.4byte	.LVL68-1
 2943 03d7 66000000 		.4byte	.LVL70
 2944 03db 0400     		.2byte	0x4
 2945 03dd F3       		.byte	0xf3
 2946 03de 01       		.uleb128 0x1
 2947 03df 50       		.byte	0x50
 2948 03e0 9F       		.byte	0x9f
 2949 03e1 66000000 		.4byte	.LVL70
 2950 03e5 74000000 		.4byte	.LVL72
 2951 03e9 0100     		.2byte	0x1
 2952 03eb 54       		.byte	0x54
 2953 03ec 76000000 		.4byte	.LVL73
 2954 03f0 DC000000 		.4byte	.LVL79
 2955 03f4 0100     		.2byte	0x1
 2956 03f6 54       		.byte	0x54
 2957 03f7 DC000000 		.4byte	.LVL79
 2958 03fb E0000000 		.4byte	.LVL80
 2959 03ff 0400     		.2byte	0x4
 2960 0401 F3       		.byte	0xf3
 2961 0402 01       		.uleb128 0x1
 2962 0403 50       		.byte	0x50
 2963 0404 9F       		.byte	0x9f
 2964 0405 00000000 		.4byte	0
 2965 0409 00000000 		.4byte	0
ARM GAS  C:\Users\JEFFSN~1\AppData\Local\Temp\ccznaSP4.s 			page 106


 2966              	.LLST9:
 2967 040d 00000000 		.4byte	.LVL64
 2968 0411 0E000000 		.4byte	.LVL66
 2969 0415 0100     		.2byte	0x1
 2970 0417 51       		.byte	0x51
 2971 0418 0E000000 		.4byte	.LVL66
 2972 041c E6000000 		.4byte	.LVL81
 2973 0420 0100     		.2byte	0x1
 2974 0422 56       		.byte	0x56
 2975 0423 E6000000 		.4byte	.LVL81
 2976 0427 F4000000 		.4byte	.LFE4
 2977 042b 0400     		.2byte	0x4
 2978 042d F3       		.byte	0xf3
 2979 042e 01       		.uleb128 0x1
 2980 042f 51       		.byte	0x51
 2981 0430 9F       		.byte	0x9f
 2982 0431 00000000 		.4byte	0
 2983 0435 00000000 		.4byte	0
 2984              	.LLST10:
 2985 0439 00000000 		.4byte	.LVL64
 2986 043d 1A000000 		.4byte	.LVL67
 2987 0441 0100     		.2byte	0x1
 2988 0443 52       		.byte	0x52
 2989 0444 1A000000 		.4byte	.LVL67
 2990 0448 F4000000 		.4byte	.LFE4
 2991 044c 0400     		.2byte	0x4
 2992 044e F3       		.byte	0xf3
 2993 044f 01       		.uleb128 0x1
 2994 0450 52       		.byte	0x52
 2995 0451 9F       		.byte	0x9f
 2996 0452 00000000 		.4byte	0
 2997 0456 00000000 		.4byte	0
 2998              	.LLST11:
 2999 045a 0A000000 		.4byte	.LVL65
 3000 045e C8000000 		.4byte	.LVL77
 3001 0462 0200     		.2byte	0x2
 3002 0464 30       		.byte	0x30
 3003 0465 9F       		.byte	0x9f
 3004 0466 C8000000 		.4byte	.LVL77
 3005 046a DC000000 		.4byte	.LVL79
 3006 046e 0100     		.2byte	0x1
 3007 0470 58       		.byte	0x58
 3008 0471 DC000000 		.4byte	.LVL79
 3009 0475 E0000000 		.4byte	.LVL80
 3010 0479 0200     		.2byte	0x2
 3011 047b 30       		.byte	0x30
 3012 047c 9F       		.byte	0x9f
 3013 047d E0000000 		.4byte	.LVL80
 3014 0481 E6000000 		.4byte	.LVL81
 3015 0485 0100     		.2byte	0x1
 3016 0487 58       		.byte	0x58
 3017 0488 00000000 		.4byte	0
 3018 048c 00000000 		.4byte	0
 3019              	.LLST12:
 3020 0490 66000000 		.4byte	.LVL70
 3021 0494 78000000 		.4byte	.LVL74
 3022 0498 0100     		.2byte	0x1
ARM GAS  C:\Users\JEFFSN~1\AppData\Local\Temp\ccznaSP4.s 			page 107


 3023 049a 55       		.byte	0x55
 3024 049b 7A000000 		.4byte	.LVL75
 3025 049f DC000000 		.4byte	.LVL79
 3026 04a3 0100     		.2byte	0x1
 3027 04a5 55       		.byte	0x55
 3028 04a6 00000000 		.4byte	0
 3029 04aa 00000000 		.4byte	0
 3030              		.section	.debug_aranges,"",%progbits
 3031 0000 44000000 		.4byte	0x44
 3032 0004 0200     		.2byte	0x2
 3033 0006 00000000 		.4byte	.Ldebug_info0
 3034 000a 04       		.byte	0x4
 3035 000b 00       		.byte	0
 3036 000c 0000     		.2byte	0
 3037 000e 0000     		.2byte	0
 3038 0010 00000000 		.4byte	.LFB0
 3039 0014 3C000000 		.4byte	.LFE0-.LFB0
 3040 0018 00000000 		.4byte	.LFB1
 3041 001c 50000000 		.4byte	.LFE1-.LFB1
 3042 0020 00000000 		.4byte	.LFB2
 3043 0024 30000000 		.4byte	.LFE2-.LFB2
 3044 0028 00000000 		.4byte	.LFB3
 3045 002c 08000000 		.4byte	.LFE3-.LFB3
 3046 0030 00000000 		.4byte	.LFB5
 3047 0034 00020000 		.4byte	.LFE5-.LFB5
 3048 0038 00000000 		.4byte	.LFB4
 3049 003c F4000000 		.4byte	.LFE4-.LFB4
 3050 0040 00000000 		.4byte	0
 3051 0044 00000000 		.4byte	0
 3052              		.section	.debug_ranges,"",%progbits
 3053              	.Ldebug_ranges0:
 3054 0000 66000000 		.4byte	.LBB2
 3055 0004 BE000000 		.4byte	.LBE2
 3056 0008 C2000000 		.4byte	.LBB3
 3057 000c DC000000 		.4byte	.LBE3
 3058 0010 00000000 		.4byte	0
 3059 0014 00000000 		.4byte	0
 3060 0018 00000000 		.4byte	.LFB0
 3061 001c 3C000000 		.4byte	.LFE0
 3062 0020 00000000 		.4byte	.LFB1
 3063 0024 50000000 		.4byte	.LFE1
 3064 0028 00000000 		.4byte	.LFB2
 3065 002c 30000000 		.4byte	.LFE2
 3066 0030 00000000 		.4byte	.LFB3
 3067 0034 08000000 		.4byte	.LFE3
 3068 0038 00000000 		.4byte	.LFB5
 3069 003c 00020000 		.4byte	.LFE5
 3070 0040 00000000 		.4byte	.LFB4
 3071 0044 F4000000 		.4byte	.LFE4
 3072 0048 00000000 		.4byte	0
 3073 004c 00000000 		.4byte	0
 3074              		.section	.debug_line,"",%progbits
 3075              	.Ldebug_line0:
 3076 0000 63010000 		.section	.debug_str,"MS",%progbits,1
 3076      02006900 
 3076      00000201 
 3076      FB0E0D00 
ARM GAS  C:\Users\JEFFSN~1\AppData\Local\Temp\ccznaSP4.s 			page 108


 3076      01010101 
 3077              	.LASF29:
 3078 0000 6F757450 		.ascii	"outPointer\000"
 3078      6F696E74 
 3078      657200
 3079              	.LASF13:
 3080 000b 63686172 		.ascii	"char\000"
 3080      00
 3081              	.LASF53:
 3082 0010 47656E65 		.ascii	"Generated_Source\\PSoC5\\USB_midi.c\000"
 3082      72617465 
 3082      645F536F 
 3082      75726365 
 3082      5C50536F 
 3083              	.LASF46:
 3084 0032 5553425F 		.ascii	"USB_LoadInEP\000"
 3084      4C6F6164 
 3084      496E4550 
 3084      00
 3085              	.LASF35:
 3086 003f 6361626C 		.ascii	"cable\000"
 3086      6500
 3087              	.LASF30:
 3088 0045 5553425F 		.ascii	"USB_MIDI_IN_EP_Service\000"
 3088      4D494449 
 3088      5F494E5F 
 3088      45505F53 
 3088      65727669 
 3089              	.LASF54:
 3090 005c 433A5C55 		.ascii	"C:\\Users\\JeffSnyder\\dev\\Electrobass_embedded\\P"
 3090      73657273 
 3090      5C4A6566 
 3090      66536E79 
 3090      6465725C 
 3091 008a 534F4335 		.ascii	"SOC5_electrobass_stringsensors\\CE210514_PSOC3_5_Th"
 3091      5F656C65 
 3091      6374726F 
 3091      62617373 
 3091      5F737472 
 3092 00bc 65726D69 		.ascii	"ermistor.cydsn\000"
 3092      73746F72 
 3092      2E637964 
 3092      736E00
 3093              	.LASF27:
 3094 00cb 5553425F 		.ascii	"USB_MIDI_OUT_Service\000"
 3094      4D494449 
 3094      5F4F5554 
 3094      5F536572 
 3094      76696365 
 3095              	.LASF3:
 3096 00e0 73686F72 		.ascii	"short unsigned int\000"
 3096      7420756E 
 3096      7369676E 
 3096      65642069 
 3096      6E7400
 3097              	.LASF45:
 3098 00f3 5553425F 		.ascii	"USB_EP\000"
ARM GAS  C:\Users\JEFFSN~1\AppData\Local\Temp\ccznaSP4.s 			page 109


 3098      455000
 3099              	.LASF26:
 3100 00fa 5553425F 		.ascii	"USB_MIDI_Init\000"
 3100      4D494449 
 3100      5F496E69 
 3100      7400
 3101              	.LASF31:
 3102 0108 5553425F 		.ascii	"USB_MIDI_IN_Service\000"
 3102      4D494449 
 3102      5F494E5F 
 3102      53657276 
 3102      69636500 
 3103              	.LASF40:
 3104 011c 5553425F 		.ascii	"USB_midiInPointer\000"
 3104      6D696469 
 3104      496E506F 
 3104      696E7465 
 3104      7200
 3105              	.LASF11:
 3106 012e 666C6F61 		.ascii	"float\000"
 3106      7400
 3107              	.LASF19:
 3108 0134 6570546F 		.ascii	"epToggle\000"
 3108      67676C65 
 3108      00
 3109              	.LASF1:
 3110 013d 756E7369 		.ascii	"unsigned char\000"
 3110      676E6564 
 3110      20636861 
 3110      7200
 3111              	.LASF42:
 3112 014b 5553425F 		.ascii	"USB_midiInBuffer\000"
 3112      6D696469 
 3112      496E4275 
 3112      66666572 
 3112      00
 3113              	.LASF47:
 3114 015c 5553425F 		.ascii	"USB_ReadOutEP\000"
 3114      52656164 
 3114      4F757445 
 3114      5000
 3115              	.LASF5:
 3116 016a 6C6F6E67 		.ascii	"long unsigned int\000"
 3116      20756E73 
 3116      69676E65 
 3116      6420696E 
 3116      7400
 3117              	.LASF20:
 3118 017c 61646472 		.ascii	"addr\000"
 3118      00
 3119              	.LASF48:
 3120 0181 5553425F 		.ascii	"USB_EnableOutEP\000"
 3120      456E6162 
 3120      6C654F75 
 3120      74455000 
 3121              	.LASF32:
 3122 0191 5553425F 		.ascii	"USB_PrepareInBuffer\000"
ARM GAS  C:\Users\JEFFSN~1\AppData\Local\Temp\ccznaSP4.s 			page 110


 3122      50726570 
 3122      61726549 
 3122      6E427566 
 3122      66657200 
 3123              	.LASF36:
 3124 01a5 73726342 		.ascii	"srcBuffZero\000"
 3124      7566665A 
 3124      65726F00 
 3125              	.LASF12:
 3126 01b1 646F7562 		.ascii	"double\000"
 3126      6C6500
 3127              	.LASF16:
 3128 01b8 61747472 		.ascii	"attrib\000"
 3128      696200
 3129              	.LASF22:
 3130 01bf 62756666 		.ascii	"buffOffset\000"
 3130      4F666673 
 3130      657400
 3131              	.LASF10:
 3132 01ca 75696E74 		.ascii	"uint16\000"
 3132      313600
 3133              	.LASF17:
 3134 01d1 61706945 		.ascii	"apiEpState\000"
 3134      70537461 
 3134      746500
 3135              	.LASF39:
 3136 01dc 72657445 		.ascii	"retError\000"
 3136      72726F72 
 3136      00
 3137              	.LASF44:
 3138 01e5 5553425F 		.ascii	"USB_midiOutBuffer\000"
 3138      6D696469 
 3138      4F757442 
 3138      75666665 
 3138      7200
 3139              	.LASF8:
 3140 01f7 756E7369 		.ascii	"unsigned int\000"
 3140      676E6564 
 3140      20696E74 
 3140      00
 3141              	.LASF52:
 3142 0204 474E5520 		.ascii	"GNU C11 5.4.1 20160609 (release) [ARM/embedded-5-br"
 3142      43313120 
 3142      352E342E 
 3142      31203230 
 3142      31363036 
 3143 0237 616E6368 		.ascii	"anch revision 237715] -mcpu=cortex-m3 -mthumb -g -O"
 3143      20726576 
 3143      6973696F 
 3143      6E203233 
 3143      37373135 
 3144 026a 67202D66 		.ascii	"g -ffunction-sections -ffat-lto-objects -finline-fu"
 3144      66756E63 
 3144      74696F6E 
 3144      2D736563 
 3144      74696F6E 
 3145 029d 6E637469 		.ascii	"nctions -flto\000"
ARM GAS  C:\Users\JEFFSN~1\AppData\Local\Temp\ccznaSP4.s 			page 111


 3145      6F6E7320 
 3145      2D666C74 
 3145      6F00
 3146              	.LASF43:
 3147 02ab 5553425F 		.ascii	"USB_midi_out_ep\000"
 3147      6D696469 
 3147      5F6F7574 
 3147      5F657000 
 3148              	.LASF7:
 3149 02bb 6C6F6E67 		.ascii	"long long unsigned int\000"
 3149      206C6F6E 
 3149      6720756E 
 3149      7369676E 
 3149      65642069 
 3150              	.LASF37:
 3151 02d2 73726342 		.ascii	"srcBuffOne\000"
 3151      7566664F 
 3151      6E6500
 3152              	.LASF18:
 3153 02dd 68774570 		.ascii	"hwEpState\000"
 3153      53746174 
 3153      6500
 3154              	.LASF49:
 3155 02e7 5553425F 		.ascii	"USB_GetEPState\000"
 3155      47657445 
 3155      50537461 
 3155      746500
 3156              	.LASF33:
 3157 02f6 73726342 		.ascii	"srcBuff\000"
 3157      75666600 
 3158              	.LASF34:
 3159 02fe 6576656E 		.ascii	"eventLen\000"
 3159      744C656E 
 3159      00
 3160              	.LASF15:
 3161 0307 73697A65 		.ascii	"sizetype\000"
 3161      74797065 
 3161      00
 3162              	.LASF28:
 3163 0310 6F75744C 		.ascii	"outLength\000"
 3163      656E6774 
 3163      6800
 3164              	.LASF21:
 3165 031a 65704D6F 		.ascii	"epMode\000"
 3165      646500
 3166              	.LASF6:
 3167 0321 6C6F6E67 		.ascii	"long long int\000"
 3167      206C6F6E 
 3167      6720696E 
 3167      7400
 3168              	.LASF41:
 3169 032f 5553425F 		.ascii	"USB_midi_in_ep\000"
 3169      6D696469 
 3169      5F696E5F 
 3169      657000
 3170              	.LASF51:
 3171 033e 5553425F 		.ascii	"USB_callbackLocalMidiEvent\000"
ARM GAS  C:\Users\JEFFSN~1\AppData\Local\Temp\ccznaSP4.s 			page 112


 3171      63616C6C 
 3171      6261636B 
 3171      4C6F6361 
 3171      6C4D6964 
 3172              	.LASF23:
 3173 0359 62756666 		.ascii	"bufferSize\000"
 3173      65725369 
 3173      7A6500
 3174              	.LASF38:
 3175 0364 6D696469 		.ascii	"midiMsg\000"
 3175      4D736700 
 3176              	.LASF2:
 3177 036c 73686F72 		.ascii	"short int\000"
 3177      7420696E 
 3177      7400
 3178              	.LASF9:
 3179 0376 75696E74 		.ascii	"uint8\000"
 3179      3800
 3180              	.LASF55:
 3181 037c 5553425F 		.ascii	"USB_PutUsbMidiIn\000"
 3181      50757455 
 3181      73624D69 
 3181      6469496E 
 3181      00
 3182              	.LASF24:
 3183 038d 696E7465 		.ascii	"interface\000"
 3183      72666163 
 3183      6500
 3184              	.LASF4:
 3185 0397 6C6F6E67 		.ascii	"long int\000"
 3185      20696E74 
 3185      00
 3186              	.LASF25:
 3187 03a0 545F5553 		.ascii	"T_USB_EP_CTL_BLOCK\000"
 3187      425F4550 
 3187      5F43544C 
 3187      5F424C4F 
 3187      434B00
 3188              	.LASF14:
 3189 03b3 6C6F6E67 		.ascii	"long double\000"
 3189      20646F75 
 3189      626C6500 
 3190              	.LASF0:
 3191 03bf 7369676E 		.ascii	"signed char\000"
 3191      65642063 
 3191      68617200 
 3192              	.LASF50:
 3193 03cb 5553425F 		.ascii	"USB_GetEPCount\000"
 3193      47657445 
 3193      50436F75 
 3193      6E7400
 3194              		.comm	__gnu_lto_v1,1,1
 3195              		.ident	"GCC: (GNU Tools for ARM Embedded Processors) 5.4.1 20160609 (release) [ARM/embedded-5-bran
