ARM GAS  C:\Users\JEFFSN~1\AppData\Local\Temp\ccfGGWxh.s 			page 1


   1              		.syntax unified
   2              		.cpu cortex-m3
   3              		.fpu softvfp
   4              		.eabi_attribute 20, 1
   5              		.eabi_attribute 21, 1
   6              		.eabi_attribute 23, 3
   7              		.eabi_attribute 24, 1
   8              		.eabi_attribute 25, 1
   9              		.eabi_attribute 26, 1
  10              		.eabi_attribute 30, 1
  11              		.eabi_attribute 34, 1
  12              		.eabi_attribute 18, 4
  13              		.thumb
  14              		.syntax unified
  15              		.file	"USB_ep2_dma.c"
  16              		.text
  17              	.Ltext0:
  18              		.section	.gnu.lto_.profile.c72413c7,"",%progbits
  19 0000 789C6361 		.ascii	"x\234ca`d`a`\000\222\266\342\000\000\373\000_"
  19      60646061 
  19      600092B6 
  19      E20000FB 
  19      005F
  20              		.text
  21              		.section	.gnu.lto_.inline.c72413c7,"",%progbits
  22 0000 789C6361 		.ascii	"x\234ca`d\000\001\177\006\004`b`\020\325gd`\3428`\307"
  22      60640001 
  22      7F060460 
  22      626010D5 
  22      676460E2 
  23 0017 C0B6409E 		.ascii	"\300\266@\236\011$\306\314\003\024\237\340\307\300\302"
  23      0924C6CC 
  23      03149FE0 
  23      C7C0C2
  24 0026 0B644FF0 		.ascii	"\013dO\360\003Av\001\006\0066\006\020\013\254\207\215"
  24      03417601 
  24      06063606 
  24      100BAC87 
  24      8D
  25 0037 0FA885E9 		.ascii	"\017\250\205\351\002?\\\013\0237\003\003#P\022\000\264"
  25      023F5C0B 
  25      13370303 
  25      23501200 
  25      B4
  26 0048 960A8E   		.ascii	"\226\012\216"
  27              		.text
  28              		.section	.gnu.lto_.jmpfuncs.c72413c7,"",%progbits
  29 0000 789C6361 		.ascii	"x\234ca`d\000\001\036\006\004`B\242\000\002\000\000"
  29      60640001 
  29      1E060460 
  29      42A20002 
  29      0000
  30 0012 16       		.ascii	"\026"
  31              		.text
  32              		.section	.gnu.lto_.pureconst.c72413c7,"",%progbits
  33 0000 789C6361 		.ascii	"x\234ca`d`e```b\220`\222\000\000\000\347\000?"
  33      60646065 
ARM GAS  C:\Users\JEFFSN~1\AppData\Local\Temp\ccfGGWxh.s 			page 2


  33      60606062 
  33      90609200 
  33      0000E700 
  34              		.text
  35              		.section	.gnu.lto_USB_ep2_DmaInitialize.c72413c7,"",%progbits
  36 0000 789C9592 		.ascii	"x\234\225\222OL\023A\024\306\347\315\264\335\272\264"
  36      4F4C1341 
  36      14C6E7CD 
  36      B4DDBAB4 
  37 0010 859B077B 		.ascii	"\205\233\007{\360b\012\027c$&^\005\023\257\244\0157"
  37      F0620A17 
  37      6324265E 
  37      0513AFA4 
  37      0D37
  38 0022 0CC1768F 		.ascii	"\014\301v\217B\335\226s\007jQ\022\017\222\360G\016\330"
  38      42DD9673 
  38      076A5112 
  38      0F92F047 
  38      0ED8
  39 0034 A821A082 		.ascii	"\250!\240\202\025\305?E\305\242\030L$\022\025Op0\036"
  39      15C53F45 
  39      C5A2184C 
  39      2412154F 
  39      70301E
  40 0047 88699AD0 		.ascii	"\210i\232\320\222\002\321\244\256\357M+\232\320\013"
  40      9202D1A4 
  40      AEEF4D2B 
  40      9AD00B
  41 0056 9B6C76F6 		.ascii	"\233lv\366\355\373\276\357\367f\307\306\200\3215-\030"
  41      EDFBBEEF 
  41      F766C7C6 
  41      80D1352D 
  41      18
  42 0067 BB80CF23 		.ascii	"\273\200\317#x\203`\300\257\177d\254\307\311\001h!\235"
  42      788360C0 
  42      AF7F64AC 
  42      C7C90168 
  42      219D
  43 0079 C0621C62 		.ascii	"\300b\034b\260\315K\034>\354\276\277\2467LH\331+\277"
  43      B0CD4B1C 
  43      3EECBEBF 
  43      A6374C48 
  43      D92BBF
  44 008c 8D6F9D1E 		.ascii	"\215o\235\036\231\314@\002\345\026g\320\350\205\023"
  44      99CC4002 
  44      E51667D0 
  44      E88513
  45 009b 5EB29880 		.ascii	"^\262\230\200\006\354\\\235Z\351\367\210z`\270\2769"
  45      06EC5C9D 
  45      5AE9F788 
  45      7A60B8BE 
  45      39
  46 00ac B85C14BE 		.ascii	"\270\\\024\276qR\311\221\363R\240\004&A\374S\221\007"
  46      7152C991 
  46      F352A004 
  46      2641FC53 
  46      9107
ARM GAS  C:\Users\JEFFSN~1\AppData\Local\Temp\ccfGGWxh.s 			page 3


  47 00be DC051FF6 		.ascii	"\334\005\037\366n~\271}X4*\331@r)k\257\310\326*\262"
  47      6E7EB97D 
  47      58342AD9 
  47      4072296B 
  47      AFC8D62A 
  48 00d3 7BFB64F7 		.ascii	"{\373d\367\225\354\235\265\233\251-\362\204\000 \316"
  48      95EC9DB5 
  48      9BA92DF2 
  48      840020CE 
  49 00e3 CFF9E5B1 		.ascii	"\317\371\345\261\032z\345P\207\257\271;\267V]\242I\271"
  49      1A7AE550 
  49      87AFB93B 
  49      B7565DA2 
  49      49B9
  50 00f5 F696B6E6 		.ascii	"\366\226\266\346=\025\327t\237K\266$\204\200\007e\333"
  50      3D15D774 
  50      9F4BB624 
  50      84800765 
  50      DB
  51 0106 69F0C214 		.ascii	"i\360\302\024\2201F\245\224\361\334\257\215M\217\360"
  51      903146A5 
  51      94F1DCAF 
  51      8D4D8FF0 
  52 0116 2BE9E0DB 		.ascii	"+\351\340\333\264\365\027h\364JE\372\260\212t\006|\324"
  52      B4F51768 
  52      F44A45FA 
  52      B08A7406 
  52      7CD4
  53 0128 FF7DE6F7 		.ascii	"\377}\346\367\220\333qY\342u\224\366\010i\037\201\203"
  53      90DB7159 
  53      E27594F6 
  53      08691F81 
  53      83
  54 0139 763DE5CF 		.ascii	"v=\345\317H\313\212\313\314\220\266\260\256\271\221"
  54      48CB8ACB 
  54      CC90B6B0 
  54      AEB991
  55 0148 1AA7B701 		.ascii	"\032\247\267\001\015\343@\013\233\006\024\357\004r\322"
  55      0DE3400B 
  55      9B0614EF 
  55      0472D2
  56 0157 A9E052C3 		.ascii	"\251\340R\303\262<\232\320_)pNO\261\001\275\305\374"
  56      B23C9AD0 
  56      5F29704E 
  56      4FB101BD 
  56      C5FC
  57 0169 46C14EBE 		.ascii	"F\301N\276\0308\234x\263\242\321\330v\305\233N\347\326"
  57      18389C78 
  57      B3A2D1D8 
  57      76C59B4E 
  57      E7D6
  58 017b B458495E 		.ascii	"\264XI^\225\262\016k\375\344\200\345\354\362\327E=\011"
  58      95B20E6B 
  58      FDE480E5 
  58      ECF2D745 
  58      3D09
  59 018d 633D52D5 		.ascii	"c=R\325\031\314\342\357}\214\354\014\236@\022\260cv"
ARM GAS  C:\Users\JEFFSN~1\AppData\Local\Temp\ccfGGWxh.s 			page 4


  59      19CCE2EF 
  59      7D8CEC0C 
  59      9E4012B0 
  59      6376
  60 019f 71A9CF49 		.ascii	"q\251\317I>\210\004O\361\313\017\030\2257v\352)f\277"
  60      3E88044F 
  60      F1CB0F18 
  60      953776EA 
  60      2966BF
  61 01b2 B1C3E238 		.ascii	"\261\303\3428\023<\203\030\243\346\270\020q\024\342"
  61      133C8318 
  61      A3E6B810 
  61      7114E2
  62 01c1 0A3B53B9 		.ascii	"\012;S\271\364Ow\331\211\301s\334#\274\023Bc\010><P"
  62      F44F77D9 
  62      89C173DC 
  62      23BC1342 
  62      63083E3C 
  63 01d6 04328C0B 		.ascii	"\0042\214\013\307\001X\323{\254s\310\212`\216\352PN"
  63      C70158D3 
  63      7BAC73C8 
  63      8A608EEA 
  63      504E
  64 01e8 0BB788C1 		.ascii	"\013\267\210\301\013\204\302\200\270\320\342\302\231"
  64      0B84C280 
  64      B8D0E2C2 
  64      99
  65 01f5 108754F0 		.ascii	"\020\207T\360\247\355J\260~\200\340\227{\301\257\312"
  65      A7ED4AB0 
  65      7E80E097 
  65      7BC1AFCA 
  66 0205 C1F6EAC1 		.ascii	"\301\366\352\301\272\305\351X\316\253`\375\377\243i"
  66      BAC5E958 
  66      CEAB60FD 
  66      FFA369
  67 0214 030EAF69 		.ascii	"\003\016\257i\374\032EQ\330Y\020e\014\327\00102{\030"
  67      FC1A4551 
  67      D8591065 
  67      0CD70130 
  67      327B18
  68 0227 0B849145 		.ascii	"\013\204\221E\317\262\007S\307\003\350X\340\340\307"
  68      CFB20753 
  68      C703E858 
  68      E0E0C7
  69 0236 CE199D86 		.ascii	"\316\031\235\206\331\0215B\355\201\256n3h\264\265\004"
  69      D9113542 
  69      ED81AE6E 
  69      3368B4B5 
  69      04
  70 0247 BA9A4FB5 		.ascii	"\272\232O\265\265\006\232\332\215\360\311\366\320\305"
  70      B5069ADA 
  70      8DF0C9F6 
  70      D0C5
  71 0255 8EE341A6 		.ascii	"\216\343A\2467u\233\221hsWwg\324\3437.\031\221h\213"
  71      37759B91 
  71      68735777 
  71      67D4E337 
ARM GAS  C:\Users\JEFFSN~1\AppData\Local\Temp\ccfGGWxh.s 			page 5


  71      2E199168 
  72 026a 61AA5A6D 		.ascii	"a\252Zmk8l\230\0013x&\0242\215H\244N\275\237\305\216"
  72      6B386C98 
  72      01337826 
  72      14328D48 
  72      A44EBD9F 
  73 0280 4AE10FCF 		.ascii	"J\341\017\317\003\\\306"
  73      035CC6
  74              		.text
  75              		.section	.gnu.lto_USB_ep2_DmaRelease.c72413c7,"",%progbits
  76 0000 789C654E 		.ascii	"x\234eN=K\003A\024|\263{&\341@\260\327\302F$\215\240"
  76      3D4B0341 
  76      147CB37B 
  76      26E140B0 
  76      D7C24624 
  77 0016 E01FD042 		.ascii	"\340\037\320B\260\222\004\273\300\021\222+5\022\264"
  77      B09204BB 
  77      C011922B 
  77      3512B4
  78 0025 BE4DE2A2 		.ascii	"\276M\342\242v6\246\223t&\032A\304\306\353\316`\351"
  78      7636A693 
  78      74261A41 
  78      C4C6EBCE 
  78      60E9
  79 0037 47656523 		.ascii	"Gee#\026A\202E\002Z\306\363\275\263t`y\313\274y3\343"
  79      16418245 
  79      025AC6F3 
  79      BDB37460 
  79      79CBBC79 
  80 004d 104890E2 		.ascii	"\020H\220\3421\317s\232\0374A\035?\021\3252\012\220"
  80      31CF739A 
  80      1F34411D 
  80      3F11D532 
  80      0A90
  81 005f 8FC98002 		.ascii	"\217\311\200\002\205\000\337j\254\320;\350\207*\333"
  81      8500DF6A 
  81      ACD03BE8 
  81      872ADB
  82 006e 368C377B 		.ascii	"6\2147{\266h:\021\254&\212U\342Dh#K,{\277\3769\231L"
  82      B6683A11 
  82      AC268A55 
  82      E2446823 
  82      4B2C7BBF 
  83 0086 ED8B6CF6 		.ascii	"\355\213l\366o\211\016$\207\256r\221\211\343\206\211"
  83      6F890E24 
  83      87AE7291 
  83      89E38689 
  84 0096 6EDCBB5B 		.ascii	"n\334\273[\327Qd5\323C\226H\330H)\231\272\217zs\364"
  84      D7516435 
  84      D3439648 
  84      D8482999 
  84      BA8F7A73 
  85 00ab 9893A386 		.ascii	"\230\223\243\206\226\334\246\355=\247\277\224\325\012"
  85      96DCA6ED 
  85      3DA7BF94 
  85      D50A
  86 00b9 E21F869F 		.ascii	"\342\037\206\237\257\351`l\016\215\231b\356\210+\010"
ARM GAS  C:\Users\JEFFSN~1\AppData\Local\Temp\ccfGGWxh.s 			page 6


  86      AFE9606C 
  86      0E8D9962 
  86      EE882B08 
  87 00c9 3D7878B9 		.ascii	"=xx\271w[8\255\231\204\327\270\340\336\347\230\341\370"
  87      775B38AD 
  87      9984D7B8 
  87      E0DEE798 
  87      E1F8
  88 00db 2E5AA00F 		.ascii	".Z\240\0178b\371\337\301\211\331\227p\211\2008\317\352"
  88      3862F9DF 
  88      C189D997 
  88      70898038 
  88      CFEA
  89 00ed 091AA01E 		.ascii	"\011\032\240\036\205\353\211Z0\344=\027\343\232sk\376"
  89      85EB895A 
  89      30E43D17 
  89      E39A736B 
  89      FE
  90 00fe B65F2DEE 		.ascii	"\266_-\356\372e/_\331\253\226\374\302F\276\262\272\\"
  90      FA652F5F 
  90      D9AB96FC 
  90      C246BEB2 
  90      BA5C
  91 0110 D8CCAF78 		.ascii	"\330\314\257x\376\316\222W\336*.\224\350\027\227\025"
  91      FECE9257 
  91      DE2A2E94 
  91      E8179715 
  92 0120 68E3     		.ascii	"h\343"
  93              		.text
  94              		.section	.gnu.lto_.symbol_nodes.c72413c7,"",%progbits
  95 0000 789C558C 		.ascii	"x\234U\214\261\015\2000\014\004\317q\222\001\230\000"
  95      B10D8030 
  95      0C04CF71 
  95      92019800 
  96 0010 26759028 		.ascii	"&u\220()\230\2039R3\003,\202pR\221oN\367/}D\330\361"
  96      29988339 
  96      5233032C 
  96      82705291 
  96      6F4EF72F 
  97 0028 0431382E 		.ascii	"\00418.p\234e\201\004\353\324\206`2\014\222,\364\002"
  97      709C6581 
  97      04EBD486 
  97      60320C92 
  97      2CF402
  98 003b 4A99DDA3 		.ascii	"J\231\335\243\351\340jq\360l\351\357\352\327\365~E\211"
  98      E9E06A71 
  98      F06CE9EF 
  98      EAD7F57E 
  98      4589
  99 004d 6C4FA352 		.ascii	"lO\243R\033C\356=\037\276\244\037\006"
  99      1B43EE3D 
  99      1FBEA41F 
  99      06
 100              		.text
 101              		.section	.gnu.lto_.refs.c72413c7,"",%progbits
 102 0000 789C0DC7 		.ascii	"x\234\015\307I\021\000 \000\000!\326c,`\377\254\312"
 102      49110020 
ARM GAS  C:\Users\JEFFSN~1\AppData\Local\Temp\ccfGGWxh.s 			page 7


 102      000021D6 
 102      632C60FF 
 102      ACCA
 103 0012 8F25174B 		.ascii	"\217%\027K\245\251\255\323\370\365\000\003\311\0008"
 103      A5A9ADD3 
 103      F8F50003 
 103      C90038
 104              		.text
 105              		.section	.gnu.lto_.decls.c72413c7,"",%progbits
 106 0000 789C8D54 		.ascii	"x\234\215T}LSW\024\177\347\275ZY)\342\210n,i24Q\370"
 106      7D4C5357 
 106      147FE7BD 
 106      5A5929E2 
 106      886E2C69 
 107 0018 8B8D2D5B 		.ascii	"\213\215-[\374k\211+S\266\304\305\214i\262\304\204\024"
 107      FC6B892B 
 107      53B6C4C5 
 107      8C69B2C4 
 107      8414
 108 002a FA369B60 		.ascii	"\3726\233`1\264,c\177\275\255\270\015M\334\\\334\034"
 108      31B42C63 
 108      7FBDADB8 
 108      0D4DDC5C 
 108      DC1C
 109 003c 7E6C88CE 		.ascii	"~l\210\316\361)PP\207\210\226\241\024\020D\304\017("
 109      F1295050 
 109      878896A1 
 109      141044C4 
 109      0F28
 110 004e 200854C7 		.ascii	" \010T\307\004\204\251sh\030;\367\343\365\275.k\266"
 110      0484A973 
 110      68183BF7 
 110      E3F5BD2E 
 110      6BB6
 111 0060 0BA7F7DE 		.ascii	"\013\247\367\336s\177\367\374\316\357\334\373\256A\000"
 111      737FF7FC 
 111      CEEFDCFB 
 111      AE4100
 112 006f 81B49B8B 		.ascii	"\201\264\233\213\005a9\016\177\305\361\0026\011\373"
 112      0561390E 
 112      7FC5F102 
 112      3609FB
 113 007e CD82D68C 		.ascii	"\315\202\326\214hMh>\264\016\264\313h\375hCh$\302\210"
 113      684D683E 
 113      B40EB4CB 
 113      68FD6843 
 113      6824C288 
 114 0092 10DE08D6 		.ascii	"\020\336\010\326\214v\012-\016m\031Z5\232\005\355\026"
 114      8C760A2D 
 114      0E6D195A 
 114      359A05ED 
 114      16
 115 00a3 DA285A1F 		.ascii	"\332(Z\037\332\030Z7\3328Z;\337k\340\373\3739OG\004"
 115      DA185A37 
 115      DA385A3B 
 115      DF6BE0FB 
 115      FB394F47 
ARM GAS  C:\Users\JEFFSN~1\AppData\Local\Temp\ccfGGWxh.s 			page 8


 116 00b8 0E1FCF6B 		.ascii	"\016\037\317k\263..\341\013\242\015r\214\310q\221\362"
 116      B32E2EE1 
 116      0BA20D72 
 116      8CC87191 
 116      F2
 117 00c9 9C17E160 		.ascii	"\234\027\341`\363\367-\213\006\240\037@\000\332\004"
 117      F3F72D8B 
 117      06A01F40 
 117      00DA04
 118 00d8 5E138178 		.ascii	"^\023\201xxO\006\300&\242\300c\201\012\342h\372\207"
 118      784F06C0 
 118      26A2C063 
 118      810AE268 
 118      FA87
 119 00ea FF22C587 		.ascii	"\377\"\305\207\374*.\304\271\2406\315\005\241\246\""
 119      FC2A2EC4 
 119      B9A036CD 
 119      05A1A622 
 120 00fa 213C2889 		.ascii	"!<(\211\252Mq.j\033t\361x\366\234\037\364\2644\264\244"
 120      AA4D712E 
 120      6A1B74F1 
 120      78F69C1F 
 120      F4B434B4 
 121 010f 8AFEC3DF 		.ascii	"\212\376\303\337\331m\2240&\216\207\347J\327%W*\330"
 121      D96D9430 
 121      268E87E7 
 121      4AD72557 
 121      2AD8
 122 0121 BE521471 		.ascii	"\276R\024q\215V\231\037\037?\231\221\036\210\260\332"
 122      8D56991F 
 122      1F3F9991 
 122      1E88B0DA 
 123 0131 047823D0 		.ascii	"\004x#\320Q=\3310\027\303\034d\275\364pk\235IZA\307"
 123      513DD930 
 123      17C31C64 
 123      BDF4706B 
 123      9D495A41 
 124 0146 17161EF9 		.ascii	"\027\026\036\371bq)\316\004\"N\257\314t\036\212\306"
 124      627129CE 
 124      04224EAF 
 124      CC741E8A 
 124      C6
 125 0157 E932132C 		.ascii	"\3512\023,\235\027\305\351z\177_\014\230\222\276P\224"
 125      9D17C5E9 
 125      7A7F5F0C 
 125      9892BE50 
 125      94
 126 0168 4F15C5A3 		.ascii	"O\025\305\243\230\222\0048\016\026\250\002\213\0005"
 126      98920438 
 126      0E16A802 
 126      8B0035
 127 0177 90442296 		.ascii	"\220D\"\226A\262\000\025\350,G\3471\222\316H\355\304"
 127      41B20015 
 127      E82C47E7 
 127      3192CE48 
 127      EDC4
 128 0189 6B0D8AB2 		.ascii	"k\015\212\262\024\252\301\004\225 Q\010*Ymb\371}w\344"
ARM GAS  C:\Users\JEFFSN~1\AppData\Local\Temp\ccfGGWxh.s 			page 9


 128      14AAC104 
 128      95205108 
 128      2A596D62 
 128      F97D77E4 
 129 019d CB24031E 		.ascii	"\313$\003\036\007]\3174\020Ws\325\355NS\310W\013\324"
 129      075DCF34 
 129      105773D5 
 129      ED4E53C8 
 129      570BD4
 130 01b0 59BD63BC 		.ascii	"Y\275c\274,\012\223\261\240\016\320\311\2600\031E{\306"
 130      2C0A93B1 
 130      A00ED0C9 
 130      B0301945 
 130      7BC6
 131 01c2 FE8A96DE 		.ascii	"\376\212\226\336\"c\261w\254b\302\000I&\312\357\363"
 131      2263B177 
 131      AC62C200 
 131      4926CAEF 
 131      F3
 132 01d3 3EAF8870 		.ascii	">\257\210p\012\003\235\320\310-\204\234\352\230)Q\214"
 132      0A039DD0 
 132      C82D849C 
 132      EA982951 
 132      8C
 133 01e4 F102BC6C 		.ascii	"\361\002\274l\201\027Q\305ITa\341*\352QE\035\252\300"
 133      811751C5 
 133      495461E1 
 133      2AEA5145 
 133      1DAAC0
 134 01f7 E0439FDD 		.ascii	"\340C\237\335/7\323\204H\034/K\350\332\275\006?\204"
 134      2F37D384 
 134      481C2F4B 
 134      E8DABD06 
 134      3F84
 135 0209 9C3F3367 		.ascii	"\234?3gOA\315A\211U\320\200\323\331\256\375cKX\005\023"
 135      4F41CD41 
 135      8955D080 
 135      D3D9AEFD 
 135      634B5805 
 136 021e 70FAC955 		.ascii	"p\372\311U\377\321\230\370o\351)y\224\004\003\335\331"
 136      FFD198F8 
 136      6FE92979 
 136      940403DD 
 136      D9
 137 022f 883CA791 		.ascii	"\210<\247\221G\2003\020\217\277\015``\225\231\272\261"
 137      47803310 
 137      8FBF0D60 
 137      609599BA 
 137      B1
 138 0240 BB5C5A59 		.ascii	"\273\\ZY\254\024\327(#=\255\366Y\257\242\024\342N\003"
 138      AC14D728 
 138      233DADF6 
 138      59AFA214 
 138      E24E03
 139 0253 C141A926 		.ascii	"\301A\251&\006\207\244\373\011\006\360\2664\301J\334"
 139      0687A4FB 
 139      0906F0B6 
ARM GAS  C:\Users\JEFFSN~1\AppData\Local\Temp\ccfGGWxh.s 			page 10


 139      34C14ADC 
 140 0263 3ADDE499 		.ascii	":\335\344\2317K\037\322\312\314\267\037\330/\352I7?"
 140      374B1FD2 
 140      CACCB71F 
 140      D82FEA49 
 140      373F
 141 0275 A3E33C47 		.ascii	"\243\343<G939\345\371~O\002c\364\325\356\224\212\024"
 141      393339E5 
 141      F97E4F02 
 141      63F4D5EE 
 141      948A14
 142 0288 5F01EE12 		.ascii	"_\001\356\022\011\010\316j\204g\365\204>J\330VT^g\220"
 142      0908CE6A 
 142      8467F584 
 142      3E4AD856 
 142      545E6790 
 143 029c 0A813206 		.ascii	"\012\2012\006\367\375p\327\030\252\014;\323?\317\034"
 143      F7FD70D7 
 143      18AA0C3B 
 143      D33FCF1C 
 144 02ac 0A8821DF 		.ascii	"\012\210!\337/\254ZCme\025\244Z\211\344n.,\304\352\216"
 144      2FAC5A43 
 144      6D6515A4 
 144      5A89E46E 
 144      2E2CC4EA 
 145 02c1 35911DEB 		.ascii	"5\221\035\353\265\223;&\243\245\"\032W\274w\264\264"
 145      B5933B26 
 145      A3A5221A 
 145      57BC77B4 
 145      B4
 146 02d2 264ABD80 		.ascii	"&J\275\200\250%.M\010)\2016<\272D~t\027\320y^\273\200"
 146      A8252E4D 
 146      08298136 
 146      3CBA447E 
 146      7417D079 
 147 02e9 53EFD67E 		.ascii	"S\357\326~Nd\370\221\271U\223\221\310o\240g\304\333"
 147      4E64F891 
 147      B9559391 
 147      C86FA067 
 147      C4DB
 148 02fb 61D617C8 		.ascii	"a\326\027\310\037v*\355\264B-\352\251\2349]\223\215"
 148      1F762AED 
 148      B4422DEA 
 148      A99C395D 
 148      938D
 149 030d 251AC1C0 		.ascii	"%\032\301\300\337\354J\336\357U\012\236\"\020h\326\002"
 149      DFEC4ADE 
 149      EF550A9E 
 149      221068D6 
 149      02
 150 031e 3703FB44 		.ascii	"7\003\373D\241\203\326\346v\360a\377b\251\205\325\346"
 150      A183D6E6 
 150      76F061FF 
 150      62A985D5 
 150      E6
 151 032f 3FAF7B27 		.ascii	"?\257{'/M\330\225\353b\316\335\023\277/H\2213\355\246"
 151      2F4DD895 
ARM GAS  C:\Users\JEFFSN~1\AppData\Local\Temp\ccfGGWxh.s 			page 11


 151      EB62CEDD 
 151      13BF2F48 
 151      9133EDA6 
 152 0343 995E5233 		.ascii	"\231^R3\255\362\3766i`\251\372N\313\230&\256\303E-\315"
 152      ADF2FE36 
 152      6960A9FA 
 152      4ECB9826 
 152      AEC3452D 
 153 0358 8B6A9A97 		.ascii	"\213j\232\227i\232ew&\246b\244\241\377{\204WXJ\205\236"
 153      699A6577 
 153      26A662A4 
 153      A1FF7B84 
 153      57584A85 
 154 036d FBC5A690 		.ascii	"\373\305\246\220\263\2279\333\002\225O4\344U\346\354"
 154      B39739DB 
 154      02954F34 
 154      E455E6EC 
 155 037d AADABB21 		.ascii	"\252\332\273!\344\273\306|\203m\205\215\332\356\353"
 155      E4BBC67C 
 155      836D858D 
 155      DAEEEB
 156 038c CC59E71F 		.ascii	"\314Y\347\037\336\033\023Ye\037UyCUyi\360\3169#Wy\235"
 156      DE1B1359 
 156      651F5579 
 156      43557969 
 156      F0CE3923 
 157 03a3 A8C475E8 		.ascii	"\250\304u\350\321T\366\250*\373\251J\177\355\345\251"
 157      D154F6A8 
 157      2AFBA94A 
 157      7FEDE5A9 
 158 03b3 68E96164 		.ascii	"h\351ad\225%\263\323]\206\310\354\203\224}@e\337wh\340"
 158      9525B3D3 
 158      5D86C8EC 
 158      83947D40 
 158      65DF7768 
 159 03c8 6E1467AF 		.ascii	"n\024g\257'\354\270\016\001\215=\240\262\017Q\366\341"
 159      27ECB80E 
 159      018D3DA0 
 159      B20F51F6 
 159      E1
 160 03d9 5DA3C78C 		.ascii	"]\243\307\214\017\330sD_\261='J\372\242\244\002\366"
 160      0FD87344 
 160      5FB13D27 
 160      4AFAA2A4 
 160      02F6
 161 03eb 863FF6F6 		.ascii	"\206?\366\366\026.YuD).!\037\374\272\331\343\212\"Q"
 161      162E5975 
 161      44292E21 
 161      1FFCBAD9 
 161      E38A2251 
 162 03ff E8300BC8 		.ascii	"\3500\013\310_)\201\316o\222K?\002\253\310\263r\340"
 162      5F2981CE 
 162      6F924B3F 
 162      02ABC8B3 
 162      72E0
 163 0411 F0D7B1E6 		.ascii	"\360\327\261\346\235\241\257\342\037\317\312-0\323\024"
 163      9DA1AFE2 
ARM GAS  C:\Users\JEFFSN~1\AppData\Local\Temp\ccfGGWxh.s 			page 12


 163      1FCFCA2D 
 163      30D314
 164 0420 B047F0D5 		.ascii	"\260G\360\325` \000z0\251\227\006\036\345\340Q\012\236"
 164      6020007A 
 164      30A99706 
 164      1EE5E051 
 164      0A9E
 165 0432 BBF1F094 		.ascii	"\273\361\360\224Y\017\356\016\003\217q\360\030\005w"
 165      590FEE0E 
 165      038F71F0 
 165      180577
 166 0441 071A838B 		.ascii	"\007\032\203\213\364\340\3660\3608\007\217SpG\335\243"
 166      F4E0F630 
 166      F038078F 
 166      537047DD 
 166      A3
 167 0452 46510F1E 		.ascii	"FQ\017\036\014\003\0079\230\364\3137\245\277\236!o\177"
 167      0C030739 
 167      98F4CB37 
 167      A5BF9E21 
 167      6F7F
 168 0464 2923759B 		.ascii	")#u\233\355M\247\303\355\260e;>\226\243\326\277\275"
 168      ED4DA7C3 
 168      EDB0653B 
 168      3E96A3D6 
 168      BFBD
 169 0476 29C19A92 		.ascii	")\301\232\222\"\030\363\034Nw\312\253+\326\313N9\327"
 169      2218F31C 
 169      4E77CAAB 
 169      2BD6CB4E 
 169      39D7
 170 0488 E696ED19 		.ascii	"\346\226\355\031\3519y\271Y\362\226\215\3519\326W^\310"
 170      E93979B9 
 170      59F2968D 
 170      E939D657 
 170      5EC8
 171 049a CA77E76F 		.ascii	"\312w\347o\227]\311[\205E\004\270f\325\277\343\266\250"
 171      975DC95B 
 171      854504B8 
 171      66D5BFE3 
 171      B6A8
 172 04ac 24F66DB6 		.ascii	"$\366m\266\344,!N\307\371\216\234-\333\\r\2545\037'"
 172      E42C214E 
 172      C7F98E9C 
 172      2DDB5C72 
 172      AC351F27 
 173 04c0 D6AD1B73 		.ascii	"\326\255\033s\0359\271\016w~TV\276\313ms\347\271\022"
 173      1D39B90E 
 173      777E5456 
 173      BECB6D73 
 173      E7B912
 174 04d3 22305BDF 		.ascii	"\"0[\337K\335\260\326\232\234&<\307w\246\313\3567>r"
 174      4BDDB0D6 
 174      9A9C263C 
 174      C777A6CB 
 174      EE373E72 
 175 04e7 CB4EBB6C 		.ascii	"\313N\273l_k\267\347\312.\327\263\332\2125\307\371\276"
ARM GAS  C:\Users\JEFFSN~1\AppData\Local\Temp\ccfGGWxh.s 			page 13


 175      5F6BB7E7 
 175      CA2ED7B3 
 175      DA8A35C7 
 175      F9BE
 176 04f9 E3833C8C 		.ascii	"\343\203<\214\343\310q.\341\376T\207\313\226\231-?\255"
 176      E3C8712E 
 176      E1FE5487 
 176      CB96992D 
 176      3FAD
 177 050b CB26CDE6 		.ascii	"\313&\315\346\264g\313\177\003Z \253Z"
 177      B467CB7F 
 177      035A20AB 
 177      5A
 178              		.text
 179              		.section	.gnu.lto_.symtab.c72413c7,"",%progbits
 180 0000 5553425F 		.ascii	"USB_ep2_DmaInitialize\000"
 180      6570325F 
 180      446D6149 
 180      6E697469 
 180      616C697A 
 181 0016 00       		.ascii	"\000"
 182 0017 00       		.ascii	"\000"
 183 0018 00       		.ascii	"\000"
 184 0019 00000000 		.ascii	"\000\000\000\000\000\000\000\000"
 184      00000000 
 185 0021 BD000000 		.ascii	"\275\000\000\000"
 186 0025 5553425F 		.ascii	"USB_ep2_DmaHandle\000"
 186      6570325F 
 186      446D6148 
 186      616E646C 
 186      6500
 187 0037 00       		.ascii	"\000"
 188 0038 00       		.ascii	"\000"
 189 0039 00       		.ascii	"\000"
 190 003a 00000000 		.ascii	"\000\000\000\000\000\000\000\000"
 190      00000000 
 191 0042 E0000000 		.ascii	"\340\000\000\000"
 192 0046 5553425F 		.ascii	"USB_ep2_DmaRelease\000"
 192      6570325F 
 192      446D6152 
 192      656C6561 
 192      736500
 193 0059 00       		.ascii	"\000"
 194 005a 00       		.ascii	"\000"
 195 005b 00       		.ascii	"\000"
 196 005c 00000000 		.ascii	"\000\000\000\000\000\000\000\000"
 196      00000000 
 197 0064 C0000000 		.ascii	"\300\000\000\000"
 198 0068 4379446D 		.ascii	"CyDmaChPriority\000"
 198      61436850 
 198      72696F72 
 198      69747900 
 199 0078 00       		.ascii	"\000"
 200 0079 02       		.ascii	"\002"
 201 007a 00       		.ascii	"\000"
 202 007b 00000000 		.ascii	"\000\000\000\000\000\000\000\000"
 202      00000000 
ARM GAS  C:\Users\JEFFSN~1\AppData\Local\Temp\ccfGGWxh.s 			page 14


 203 0083 CA000000 		.ascii	"\312\000\000\000"
 204 0087 4379446D 		.ascii	"CyDmaChSetExtendedAddress\000"
 204      61436853 
 204      65744578 
 204      74656E64 
 204      65644164 
 205 00a1 00       		.ascii	"\000"
 206 00a2 02       		.ascii	"\002"
 207 00a3 00       		.ascii	"\000"
 208 00a4 00000000 		.ascii	"\000\000\000\000\000\000\000\000"
 208      00000000 
 209 00ac D0000000 		.ascii	"\320\000\000\000"
 210 00b0 4379446D 		.ascii	"CyDmaChSetConfiguration\000"
 210      61436853 
 210      6574436F 
 210      6E666967 
 210      75726174 
 211 00c8 00       		.ascii	"\000"
 212 00c9 02       		.ascii	"\002"
 213 00ca 00       		.ascii	"\000"
 214 00cb 00000000 		.ascii	"\000\000\000\000\000\000\000\000"
 214      00000000 
 215 00d3 D9000000 		.ascii	"\331\000\000\000"
 216 00d7 4379446D 		.ascii	"CyDmaChDisable\000"
 216      61436844 
 216      69736162 
 216      6C6500
 217 00e6 00       		.ascii	"\000"
 218 00e7 02       		.ascii	"\002"
 219 00e8 00       		.ascii	"\000"
 220 00e9 00000000 		.ascii	"\000\000\000\000\000\000\000\000"
 220      00000000 
 221 00f1 DD000000 		.ascii	"\335\000\000\000"
 222              		.text
 223              		.section	.gnu.lto_.opts,"",%progbits
 224 0000 272D666D 		.ascii	"'-fmath-errno' '-fsigned-zeros' '-ftrapping-math' '"
 224      6174682D 
 224      6572726E 
 224      6F272027 
 224      2D667369 
 225 0033 2D666E6F 		.ascii	"-fno-trapv' '-fno-strict-overflow' '-fno-openmp' '-"
 225      2D747261 
 225      70762720 
 225      272D666E 
 225      6F2D7374 
 226 0066 666E6F2D 		.ascii	"fno-openacc' '-mcpu=cortex-m3' '-mthumb' '-g' '-Og'"
 226      6F70656E 
 226      61636327 
 226      20272D6D 
 226      6370753D 
 227 0099 20272D66 		.ascii	" '-ffunction-sections' '-ffat-lto-objects' '-finlin"
 227      66756E63 
 227      74696F6E 
 227      2D736563 
 227      74696F6E 
 228 00cc 652D6675 		.ascii	"e-functions' '-flto'\000"
 228      6E637469 
ARM GAS  C:\Users\JEFFSN~1\AppData\Local\Temp\ccfGGWxh.s 			page 15


 228      6F6E7327 
 228      20272D66 
 228      6C746F27 
 229              		.text
 230              		.cfi_sections	.debug_frame
 231              		.section	.text.USB_ep2_DmaInitialize,"ax",%progbits
 232              		.align	2
 233              		.global	USB_ep2_DmaInitialize
 234              		.thumb
 235              		.thumb_func
 236              		.type	USB_ep2_DmaInitialize, %function
 237              	USB_ep2_DmaInitialize:
 238              	.LFB0:
 239              		.file 1 "Generated_Source\\PSoC5\\USB_ep2_dma.c"
   1:Generated_Source\PSoC5/USB_ep2_dma.c **** /***************************************************************************
   2:Generated_Source\PSoC5/USB_ep2_dma.c **** * File Name: USB_ep2_dma.c  
   3:Generated_Source\PSoC5/USB_ep2_dma.c **** * Version 1.70
   4:Generated_Source\PSoC5/USB_ep2_dma.c **** *
   5:Generated_Source\PSoC5/USB_ep2_dma.c **** *  Description:
   6:Generated_Source\PSoC5/USB_ep2_dma.c **** *   Provides an API for the DMAC component. The API includes functions
   7:Generated_Source\PSoC5/USB_ep2_dma.c **** *   for the DMA controller, DMA channels and Transfer Descriptors.
   8:Generated_Source\PSoC5/USB_ep2_dma.c **** *
   9:Generated_Source\PSoC5/USB_ep2_dma.c **** *
  10:Generated_Source\PSoC5/USB_ep2_dma.c **** *   Note:
  11:Generated_Source\PSoC5/USB_ep2_dma.c **** *     This module requires the developer to finish or fill in the auto
  12:Generated_Source\PSoC5/USB_ep2_dma.c **** *     generated funcions and setup the dma channel and TD's.
  13:Generated_Source\PSoC5/USB_ep2_dma.c **** *
  14:Generated_Source\PSoC5/USB_ep2_dma.c **** ********************************************************************************
  15:Generated_Source\PSoC5/USB_ep2_dma.c **** * Copyright 2008-2010, Cypress Semiconductor Corporation.  All rights reserved.
  16:Generated_Source\PSoC5/USB_ep2_dma.c **** * You may use this file only in accordance with the license, terms, conditions, 
  17:Generated_Source\PSoC5/USB_ep2_dma.c **** * disclaimers, and limitations in the end user license agreement accompanying 
  18:Generated_Source\PSoC5/USB_ep2_dma.c **** * the software package with which this file was provided.
  19:Generated_Source\PSoC5/USB_ep2_dma.c **** ********************************************************************************/
  20:Generated_Source\PSoC5/USB_ep2_dma.c **** #include <CYLIB.H>
  21:Generated_Source\PSoC5/USB_ep2_dma.c **** #include <CYDMAC.H>
  22:Generated_Source\PSoC5/USB_ep2_dma.c **** #include <USB_ep2_dma.H>
  23:Generated_Source\PSoC5/USB_ep2_dma.c **** 
  24:Generated_Source\PSoC5/USB_ep2_dma.c **** 
  25:Generated_Source\PSoC5/USB_ep2_dma.c **** 
  26:Generated_Source\PSoC5/USB_ep2_dma.c **** /****************************************************************************
  27:Generated_Source\PSoC5/USB_ep2_dma.c **** * 
  28:Generated_Source\PSoC5/USB_ep2_dma.c **** * The following defines are available in Cyfitter.h
  29:Generated_Source\PSoC5/USB_ep2_dma.c **** * 
  30:Generated_Source\PSoC5/USB_ep2_dma.c **** * 
  31:Generated_Source\PSoC5/USB_ep2_dma.c **** * 
  32:Generated_Source\PSoC5/USB_ep2_dma.c **** * USB_ep2__DRQ_CTL_REG
  33:Generated_Source\PSoC5/USB_ep2_dma.c **** * 
  34:Generated_Source\PSoC5/USB_ep2_dma.c **** * 
  35:Generated_Source\PSoC5/USB_ep2_dma.c **** * USB_ep2__DRQ_NUMBER
  36:Generated_Source\PSoC5/USB_ep2_dma.c **** * 
  37:Generated_Source\PSoC5/USB_ep2_dma.c **** * Number of TD's used by this channel.
  38:Generated_Source\PSoC5/USB_ep2_dma.c **** * USB_ep2__NUMBEROF_TDS
  39:Generated_Source\PSoC5/USB_ep2_dma.c **** * 
  40:Generated_Source\PSoC5/USB_ep2_dma.c **** * Priority of this channel.
  41:Generated_Source\PSoC5/USB_ep2_dma.c **** * USB_ep2__PRIORITY
  42:Generated_Source\PSoC5/USB_ep2_dma.c **** * 
  43:Generated_Source\PSoC5/USB_ep2_dma.c **** * True if USB_ep2_TERMIN_SEL is used.
ARM GAS  C:\Users\JEFFSN~1\AppData\Local\Temp\ccfGGWxh.s 			page 16


  44:Generated_Source\PSoC5/USB_ep2_dma.c **** * USB_ep2__TERMIN_EN
  45:Generated_Source\PSoC5/USB_ep2_dma.c **** * 
  46:Generated_Source\PSoC5/USB_ep2_dma.c **** * TERMIN interrupt line to signal terminate.
  47:Generated_Source\PSoC5/USB_ep2_dma.c **** * USB_ep2__TERMIN_SEL
  48:Generated_Source\PSoC5/USB_ep2_dma.c **** * 
  49:Generated_Source\PSoC5/USB_ep2_dma.c **** * 
  50:Generated_Source\PSoC5/USB_ep2_dma.c **** * True if USB_ep2_TERMOUT0_SEL is used.
  51:Generated_Source\PSoC5/USB_ep2_dma.c **** * USB_ep2__TERMOUT0_EN
  52:Generated_Source\PSoC5/USB_ep2_dma.c **** * 
  53:Generated_Source\PSoC5/USB_ep2_dma.c **** * 
  54:Generated_Source\PSoC5/USB_ep2_dma.c **** * TERMOUT0 interrupt line to signal completion.
  55:Generated_Source\PSoC5/USB_ep2_dma.c **** * USB_ep2__TERMOUT0_SEL
  56:Generated_Source\PSoC5/USB_ep2_dma.c **** * 
  57:Generated_Source\PSoC5/USB_ep2_dma.c **** * 
  58:Generated_Source\PSoC5/USB_ep2_dma.c **** * True if USB_ep2_TERMOUT1_SEL is used.
  59:Generated_Source\PSoC5/USB_ep2_dma.c **** * USB_ep2__TERMOUT1_EN
  60:Generated_Source\PSoC5/USB_ep2_dma.c **** * 
  61:Generated_Source\PSoC5/USB_ep2_dma.c **** * 
  62:Generated_Source\PSoC5/USB_ep2_dma.c **** * TERMOUT1 interrupt line to signal completion.
  63:Generated_Source\PSoC5/USB_ep2_dma.c **** * USB_ep2__TERMOUT1_SEL
  64:Generated_Source\PSoC5/USB_ep2_dma.c **** * 
  65:Generated_Source\PSoC5/USB_ep2_dma.c **** ****************************************************************************/
  66:Generated_Source\PSoC5/USB_ep2_dma.c **** 
  67:Generated_Source\PSoC5/USB_ep2_dma.c **** 
  68:Generated_Source\PSoC5/USB_ep2_dma.c **** /* Zero based index of USB_ep2 dma channel */
  69:Generated_Source\PSoC5/USB_ep2_dma.c **** uint8 USB_ep2_DmaHandle = DMA_INVALID_CHANNEL;
  70:Generated_Source\PSoC5/USB_ep2_dma.c **** 
  71:Generated_Source\PSoC5/USB_ep2_dma.c **** /*********************************************************************
  72:Generated_Source\PSoC5/USB_ep2_dma.c **** * Function Name: uint8 USB_ep2_DmaInitalize
  73:Generated_Source\PSoC5/USB_ep2_dma.c **** **********************************************************************
  74:Generated_Source\PSoC5/USB_ep2_dma.c **** * Summary:
  75:Generated_Source\PSoC5/USB_ep2_dma.c **** *   Allocates and initialises a channel of the DMAC to be used by the
  76:Generated_Source\PSoC5/USB_ep2_dma.c **** *   caller.
  77:Generated_Source\PSoC5/USB_ep2_dma.c **** *
  78:Generated_Source\PSoC5/USB_ep2_dma.c **** * Parameters:
  79:Generated_Source\PSoC5/USB_ep2_dma.c **** *   BurstCount.
  80:Generated_Source\PSoC5/USB_ep2_dma.c **** *       
  81:Generated_Source\PSoC5/USB_ep2_dma.c **** *       
  82:Generated_Source\PSoC5/USB_ep2_dma.c **** *   ReqestPerBurst.
  83:Generated_Source\PSoC5/USB_ep2_dma.c **** *       
  84:Generated_Source\PSoC5/USB_ep2_dma.c **** *       
  85:Generated_Source\PSoC5/USB_ep2_dma.c **** *   UpperSrcAddress.
  86:Generated_Source\PSoC5/USB_ep2_dma.c **** *       
  87:Generated_Source\PSoC5/USB_ep2_dma.c **** *       
  88:Generated_Source\PSoC5/USB_ep2_dma.c **** *   UpperDestAddress.
  89:Generated_Source\PSoC5/USB_ep2_dma.c **** *       
  90:Generated_Source\PSoC5/USB_ep2_dma.c **** *
  91:Generated_Source\PSoC5/USB_ep2_dma.c **** * Return:
  92:Generated_Source\PSoC5/USB_ep2_dma.c **** *   The channel that can be used by the caller for DMA activity.
  93:Generated_Source\PSoC5/USB_ep2_dma.c **** *   DMA_INVALID_CHANNEL (0xFF) if there are no channels left. 
  94:Generated_Source\PSoC5/USB_ep2_dma.c **** *
  95:Generated_Source\PSoC5/USB_ep2_dma.c **** *
  96:Generated_Source\PSoC5/USB_ep2_dma.c **** *******************************************************************/
  97:Generated_Source\PSoC5/USB_ep2_dma.c **** uint8 USB_ep2_DmaInitialize(uint8 BurstCount, uint8 ReqestPerBurst, uint16 UpperSrcAddress, uint16 
  98:Generated_Source\PSoC5/USB_ep2_dma.c **** {
 240              		.loc 1 98 0
 241              		.cfi_startproc
ARM GAS  C:\Users\JEFFSN~1\AppData\Local\Temp\ccfGGWxh.s 			page 17


 242              		@ args = 0, pretend = 0, frame = 0
 243              		@ frame_needed = 0, uses_anonymous_args = 0
 244              	.LVL0:
 245 0000 F0B5     		push	{r4, r5, r6, r7, lr}
 246              		.cfi_def_cfa_offset 20
 247              		.cfi_offset 4, -20
 248              		.cfi_offset 5, -16
 249              		.cfi_offset 6, -12
 250              		.cfi_offset 7, -8
 251              		.cfi_offset 14, -4
 252 0002 83B0     		sub	sp, sp, #12
 253              		.cfi_def_cfa_offset 32
 254 0004 1646     		mov	r6, r2
 255 0006 1F46     		mov	r7, r3
  99:Generated_Source\PSoC5/USB_ep2_dma.c **** 
 100:Generated_Source\PSoC5/USB_ep2_dma.c ****     /* Allocate a DMA channel. */
 101:Generated_Source\PSoC5/USB_ep2_dma.c ****     USB_ep2_DmaHandle = (uint8)USB_ep2__DRQ_NUMBER;
 256              		.loc 1 101 0
 257 0008 0B4C     		ldr	r4, .L3
 258 000a 0125     		movs	r5, #1
 259 000c 2570     		strb	r5, [r4]
 102:Generated_Source\PSoC5/USB_ep2_dma.c **** 
 103:Generated_Source\PSoC5/USB_ep2_dma.c ****     /* Configure the channel. */
 104:Generated_Source\PSoC5/USB_ep2_dma.c ****     (void)CyDmaChSetConfiguration(USB_ep2_DmaHandle,
 260              		.loc 1 104 0
 261 000e 0023     		movs	r3, #0
 262              	.LVL1:
 263 0010 0193     		str	r3, [sp, #4]
 264 0012 0093     		str	r3, [sp]
 265 0014 2B46     		mov	r3, r5
 266 0016 0A46     		mov	r2, r1
 267              	.LVL2:
 268 0018 0146     		mov	r1, r0
 269              	.LVL3:
 270 001a 2846     		mov	r0, r5
 271              	.LVL4:
 272 001c FFF7FEFF 		bl	CyDmaChSetConfiguration
 273              	.LVL5:
 105:Generated_Source\PSoC5/USB_ep2_dma.c ****                                   BurstCount,
 106:Generated_Source\PSoC5/USB_ep2_dma.c ****                                   ReqestPerBurst,
 107:Generated_Source\PSoC5/USB_ep2_dma.c ****                                   (uint8)USB_ep2__TERMOUT0_SEL,
 108:Generated_Source\PSoC5/USB_ep2_dma.c ****                                   (uint8)USB_ep2__TERMOUT1_SEL,
 109:Generated_Source\PSoC5/USB_ep2_dma.c ****                                   (uint8)USB_ep2__TERMIN_SEL);
 110:Generated_Source\PSoC5/USB_ep2_dma.c **** 
 111:Generated_Source\PSoC5/USB_ep2_dma.c ****     /* Set the extended address for the transfers */
 112:Generated_Source\PSoC5/USB_ep2_dma.c ****     (void)CyDmaChSetExtendedAddress(USB_ep2_DmaHandle, UpperSrcAddress, UpperDestAddress);
 274              		.loc 1 112 0
 275 0020 3A46     		mov	r2, r7
 276 0022 3146     		mov	r1, r6
 277 0024 2078     		ldrb	r0, [r4]	@ zero_extendqisi2
 278 0026 FFF7FEFF 		bl	CyDmaChSetExtendedAddress
 279              	.LVL6:
 113:Generated_Source\PSoC5/USB_ep2_dma.c **** 
 114:Generated_Source\PSoC5/USB_ep2_dma.c ****     /* Set the priority for this channel */
 115:Generated_Source\PSoC5/USB_ep2_dma.c ****     (void)CyDmaChPriority(USB_ep2_DmaHandle, (uint8)USB_ep2__PRIORITY);
 280              		.loc 1 115 0
 281 002a 0221     		movs	r1, #2
ARM GAS  C:\Users\JEFFSN~1\AppData\Local\Temp\ccfGGWxh.s 			page 18


 282 002c 2078     		ldrb	r0, [r4]	@ zero_extendqisi2
 283 002e FFF7FEFF 		bl	CyDmaChPriority
 284              	.LVL7:
 116:Generated_Source\PSoC5/USB_ep2_dma.c ****     
 117:Generated_Source\PSoC5/USB_ep2_dma.c ****     return USB_ep2_DmaHandle;
 118:Generated_Source\PSoC5/USB_ep2_dma.c **** }
 285              		.loc 1 118 0
 286 0032 2078     		ldrb	r0, [r4]	@ zero_extendqisi2
 287 0034 03B0     		add	sp, sp, #12
 288              		.cfi_def_cfa_offset 20
 289              		@ sp needed
 290 0036 F0BD     		pop	{r4, r5, r6, r7, pc}
 291              	.L4:
 292              		.align	2
 293              	.L3:
 294 0038 00000000 		.word	.LANCHOR0
 295              		.cfi_endproc
 296              	.LFE0:
 297              		.size	USB_ep2_DmaInitialize, .-USB_ep2_DmaInitialize
 298              		.section	.text.USB_ep2_DmaRelease,"ax",%progbits
 299              		.align	2
 300              		.global	USB_ep2_DmaRelease
 301              		.thumb
 302              		.thumb_func
 303              		.type	USB_ep2_DmaRelease, %function
 304              	USB_ep2_DmaRelease:
 305              	.LFB1:
 119:Generated_Source\PSoC5/USB_ep2_dma.c **** 
 120:Generated_Source\PSoC5/USB_ep2_dma.c **** /*********************************************************************
 121:Generated_Source\PSoC5/USB_ep2_dma.c **** * Function Name: void USB_ep2_DmaRelease
 122:Generated_Source\PSoC5/USB_ep2_dma.c **** **********************************************************************
 123:Generated_Source\PSoC5/USB_ep2_dma.c **** * Summary:
 124:Generated_Source\PSoC5/USB_ep2_dma.c **** *   Frees the channel associated with USB_ep2.
 125:Generated_Source\PSoC5/USB_ep2_dma.c **** *
 126:Generated_Source\PSoC5/USB_ep2_dma.c **** *
 127:Generated_Source\PSoC5/USB_ep2_dma.c **** * Parameters:
 128:Generated_Source\PSoC5/USB_ep2_dma.c **** *   void.
 129:Generated_Source\PSoC5/USB_ep2_dma.c **** *
 130:Generated_Source\PSoC5/USB_ep2_dma.c **** *
 131:Generated_Source\PSoC5/USB_ep2_dma.c **** *
 132:Generated_Source\PSoC5/USB_ep2_dma.c **** * Return:
 133:Generated_Source\PSoC5/USB_ep2_dma.c **** *   void.
 134:Generated_Source\PSoC5/USB_ep2_dma.c **** *
 135:Generated_Source\PSoC5/USB_ep2_dma.c **** *******************************************************************/
 136:Generated_Source\PSoC5/USB_ep2_dma.c **** void USB_ep2_DmaRelease(void) 
 137:Generated_Source\PSoC5/USB_ep2_dma.c **** {
 306              		.loc 1 137 0
 307              		.cfi_startproc
 308              		@ args = 0, pretend = 0, frame = 0
 309              		@ frame_needed = 0, uses_anonymous_args = 0
 310 0000 08B5     		push	{r3, lr}
 311              		.cfi_def_cfa_offset 8
 312              		.cfi_offset 3, -8
 313              		.cfi_offset 14, -4
 138:Generated_Source\PSoC5/USB_ep2_dma.c ****     /* Disable the channel */
 139:Generated_Source\PSoC5/USB_ep2_dma.c ****     (void)CyDmaChDisable(USB_ep2_DmaHandle);
 314              		.loc 1 139 0
ARM GAS  C:\Users\JEFFSN~1\AppData\Local\Temp\ccfGGWxh.s 			page 19


 315 0002 024B     		ldr	r3, .L7
 316 0004 1878     		ldrb	r0, [r3]	@ zero_extendqisi2
 317 0006 FFF7FEFF 		bl	CyDmaChDisable
 318              	.LVL8:
 319 000a 08BD     		pop	{r3, pc}
 320              	.L8:
 321              		.align	2
 322              	.L7:
 323 000c 00000000 		.word	.LANCHOR0
 324              		.cfi_endproc
 325              	.LFE1:
 326              		.size	USB_ep2_DmaRelease, .-USB_ep2_DmaRelease
 327              		.global	USB_ep2_DmaHandle
 328              		.data
 329              		.set	.LANCHOR0,. + 0
 330              		.type	USB_ep2_DmaHandle, %object
 331              		.size	USB_ep2_DmaHandle, 1
 332              	USB_ep2_DmaHandle:
 333 0000 FF       		.byte	-1
 334              		.text
 335              	.Letext0:
 336              		.file 2 "Generated_Source\\PSoC5/cytypes.h"
 337              		.file 3 "Generated_Source\\PSoC5/CYDMAC.H"