ARM GAS  C:\Users\JEFFSN~1\AppData\Local\Temp\ccz53UKs.s 			page 1


   1              		.syntax unified
   2              		.cpu cortex-m3
   3              		.fpu softvfp
   4              		.eabi_attribute 20, 1
   5              		.eabi_attribute 21, 1
   6              		.eabi_attribute 23, 3
   7              		.eabi_attribute 24, 1
   8              		.eabi_attribute 25, 1
   9              		.eabi_attribute 26, 1
  10              		.eabi_attribute 30, 1
  11              		.eabi_attribute 34, 1
  12              		.eabi_attribute 18, 4
  13              		.thumb
  14              		.syntax unified
  15              		.file	"V_H.c"
  16              		.text
  17              	.Ltext0:
  18              		.section	.gnu.lto_.profile.633144d3,"",%progbits
  19 0000 789C6361 		.ascii	"x\234ca`d`a`\000\222\222\242\000\000\261\0009"
  19      60646061 
  19      60009292 
  19      A20000B1 
  19      0039
  20              		.text
  21              		.section	.gnu.lto_.inline.633144d3,"",%progbits
  22 0000 789C6361 		.ascii	"x\234ca`d\000\001?\006\004`a`\340\344`d`\342y\020\313"
  22      60640001 
  22      3F060460 
  22      6160E0E4 
  22      606460E2 
  23 0017 C0B6409E 		.ascii	"\300\266@\236\011$\306\310\300\301\016\024\342\232\340"
  23      0924C6C8 
  23      C0C10E14 
  23      E29AE0
  24 0026 07176262 		.ascii	"\007\027bb`c\005\012\261}\320\203\0131c\0121\000\000"
  24      6063050A 
  24      B17DD083 
  24      0B31630A 
  24      310000
  25 0039 537C0835 		.ascii	"S|\0105"
  26              		.text
  27              		.section	.gnu.lto_.jmpfuncs.633144d3,"",%progbits
  28 0000 789C6361 		.ascii	"x\234ca`d\000\001>\006\004`\001b\240(\023\003\0033\220"
  28      60640001 
  28      3E060460 
  28      0162A028 
  28      13030333 
  29 0015 05000292 		.ascii	"\005\000\002\222\000\036"
  29      001E
  30              		.text
  31              		.section	.gnu.lto_.pureconst.633144d3,"",%progbits
  32 0000 789C6361 		.ascii	"x\234ca`d\340d```a\220b\224b\222b\226\002\000\002\261"
  32      6064E064 
  32      60606061 
  32      90629462 
  32      92629602 
  33 0017 0081     		.ascii	"\000\201"
ARM GAS  C:\Users\JEFFSN~1\AppData\Local\Temp\ccz53UKs.s 			page 2


  34              		.text
  35              		.section	.gnu.lto_V_H_Write.633144d3,"",%progbits
  36 0000 789C5551 		.ascii	"x\234UQ\317K\025a\024\275\347\373f\346\231f\264\367"
  36      CF4B1561 
  36      14BDE7FB 
  36      66E69966 
  36      B4F7
  37 0012 056F6362 		.ascii	"\005ocb\213\020\242\177\240\026\265\224\204V\017\344"
  37      8B10A27F 
  37      A016B594 
  37      84560FE4 
  38 0022 F19A8550 		.ascii	"\361\232\205P\011\372l\353\035\337\017\241Mn\322\215"
  38      09FA6CEB 
  38      1DDF0FA1 
  38      4D6ED28D 
  39 0032 A6BC104D 		.ascii	"\246\274\020M\313\037\265\252\\\014\263\011\012\222"
  39      CB1FB5AA 
  39      5C0CB309 
  39      0A92
  40 0040 C0555484 		.ascii	"\300UT\204\304\004mzQ\217\264\254\327\2753.\362\302"
  40      C4046D7A 
  40      518FB4AC 
  40      D7BD332E 
  40      F2C2
  41 0052 F763EE9C 		.ascii	"\367c\356\234s\356\271\367s\010\244q\306\020\365\311"
  41      73EEB9F7 
  41      7308A471 
  41      C610F5C9 
  42 0062 D9250B96 		.ascii	"\331%\013\226`\246^\023\005m\006\320\013\267\201\306"
  42      60A65E13 
  42      056D06D0 
  42      0BB781C6 
  43 0072 0DC6D134 		.ascii	"\015\306\3214\177\014\242\311\370\251\351]b\211\217"
  43      7F0CA2C9 
  43      F8A9E95D 
  43      62898F
  44 0081 8BF72C2F 		.ascii	"\213\367,/\207\250Z\242\226I\224\010K\350\025\324\347"
  44      87A85AA2 
  44      96499408 
  44      4BE815D4 
  44      E7
  45 0092 ADC91DD8 		.ascii	"\255\311\035\330\034H\356\265\250\331\350\350Yd\236"
  45      1C48EEB5 
  45      A8D9E8E8 
  45      59649E
  46 00a1 607E9F67 		.ascii	"`~\237g[\265\3002\2540p.\213\276,I\202\360\000=\012"
  46      5BB5C032 
  46      AC30702E 
  46      8BBE2C49 
  46      82F0003D 
  47 00b6 DE7BBBB3 		.ascii	"\336{\273\263v\302\236N\210S\034\327\217w\337Wb\370"
  47      76C29E4E 
  47      88531CD7 
  47      8F77DF57 
  47      62F8
  48 00c8 F3C60C87 		.ascii	"\363\306\014\207AN\271+\377s5\004\272\273\371\367n\247"
  48      414EB92B 
ARM GAS  C:\Users\JEFFSN~1\AppData\Local\Temp\ccz53UKs.s 			page 3


  48      FF733504 
  48      BABBF9F7 
  48      6EA7
  49 00da 57515739 		.ascii	"WQW9\254\242;\365\203\207\360\244Chf\375J\310\255V\231"
  49      ACA23BF5 
  49      8387F0A4 
  49      436866FD 
  49      4AC8AD56 
  50 00ef C3A6DBB4 		.ascii	"\303\246\333\264\307\214\0245\322\251\374p\240\265]"
  50      C78C1435 
  50      D2A9FC70 
  50      A0B55D
  51 00fe 4D78BA65 		.ascii	"Mx\272et#j\310\322\356\277\031\243\247\215\021\375\272"
  51      74236AC8 
  51      D2EEBF19 
  51      A3A78D11 
  51      FDBA
  52 0110 FD6126A3 		.ascii	"\375a&\243\232e\253\223\230\256F\333\231\037\246jm\342"
  52      9A65AB93 
  52      98AE46DB 
  52      991FA66A 
  52      6DE2
  53 0122 9617EEEC 		.ascii	"\226\027\356\354\273\351'\327\003v$\265\277\375l\253"
  53      BBE927D7 
  53      037624B5 
  53      BFFD6CAB 
  54 0132 731E7341 		.ascii	"s\036sAEf\344`\015Y<\202x\306:\346A1\312\007\265wH\005"
  54      4566E460 
  54      0D593C82 
  54      78C63AE6 
  54      4131CA07 
  55 014a 6DAA597F 		.ascii	"m\252Y\1779\027\265\253\010\360\025\330\020\360.L\322"
  55      3917B5AB 
  55      08F015D8 
  55      10F02E4C 
  55      D2
  56 015b 86381594 		.ascii	"\2068\025\224\222\032\265\370\305\241\015\267l\265\316"
  56      921AB5F8 
  56      C5A10DB7 
  56      6CB5CE
  57 016a 9BCAC6AC 		.ascii	"\233\312\306\254U\226\013\007\233BJ\244?\035J+N@\317"
  57      55960B07 
  57      9B424AA4 
  57      3F1D4A2B 
  57      4E40CF
  58 017d BF1FBC32 		.ascii	"\277\037\2742\012rp\022\217S\320\236\227B2\211\001O"
  58      0A727012 
  58      8F53D09E 
  58      97423289 
  58      014F
  59 018f 52D174C2 		.ascii	"R\321t\302:b>`\3568\352\377\211\370\027\026}\301D\370"
  59      3A623E60 
  59      EE38EAFF 
  59      89F81716 
  59      7DC144F8 
  60 01a3 DB5542F2 		.ascii	"\333UB\362\020\015\003\235\225L\356\324%\377\246?R("
  60      100D039D 
ARM GAS  C:\Users\JEFFSN~1\AppData\Local\Temp\ccz53UKs.s 			page 4


  60      954CEED4 
  60      25FFA63F 
  60      5228
  61 01b5 F9D70607 		.ascii	"\371\327\006\007\206\307F\212~\276\177`\370\342\371"
  61      86C7468A 
  61      7EBE7F60 
  61      F8E2F9
  62 01c4 FCD5C1CB 		.ascii	"\374\325\301\313g\213\344\336*\\\037\363\333GK\205\322"
  62      678BE4DE 
  62      2A5C1FF3 
  62      DB474B85 
  62      D2
  63 01d5 50F1C250 		.ascii	"P\361\302Pi\364\037\203\202\301\241"
  63      69F41F83 
  63      82C1A1
  64              		.text
  65              		.section	.gnu.lto_V_H_SetDriveMode.633144d3,"",%progbits
  66 0000 789C7D51 		.ascii	"x\234}QK+Da\030~\237\357;s\316L.\177\300(\013%\033)"
  66      4B2B4461 
  66      187E9FEF 
  66      3B73CE4C 
  66      2E7FC028 
  67 0018 F9050A4B 		.ascii	"\371\005\012K\231\262\232\2228K&b\355\233[B\244\304"
  67      99B29A92 
  67      384B2662 
  67      ED9B5B42 
  67      A4C4
  68 002a 466223F7 		.ascii	"Fb#\367[Vvc\212%\331XXH\026')\032\267\310m\274\3579"
  68      5B567663 
  68      8A25D958 
  68      58481627 
  68      291AB7C8 
  69 0042 16B3F275 		.ascii	"\026\263\362u\276\367\362\364<O\357\373\035\213@rn9"
  69      BEF7F2F4 
  69      3C4FEFFB 
  69      1D8B4072 
  69      6E39
  70 0054 D572AEE2 		.ascii	"\325r\256\342\013MP3\247D\311\260\002\2440a\320\250"
  70      0B4D5033 
  70      A744C9B0 
  70      02A43061 
  70      D0A8
  71 0066 C2285ED5 		.ascii	"\302(^\325\267B~\314;T\365\253\206\317\365\361C\243"
  71      B7427ECC 
  71      3B54F5AB 
  71      86CFF5F1 
  71      43A3
  72 0078 59CB21AB 		.ascii	"Y\313!\253\211\212\312w\"\254\242\236Y\317\007+\263"
  72      898ACA77 
  72      22ACA29E 
  72      59CF072B 
  72      B3
  73 0089 65BA06C4 		.ascii	"e\272\006\304\365\343i\341\252\262n\305\230\2241\237"
  73      F5E369E1 
  73      AAB26EC5 
  73      9894319F 
  74 0099 71A3B31A 		.ascii	"q\243\263\032X\203f\005\232\242h\214\022\003\204u\324"
ARM GAS  C:\Users\JEFFSN~1\AppData\Local\Temp\ccz53UKs.s 			page 5


  74      58836605 
  74      9AA2688C 
  74      12038475 
  74      D4
  75 00aa 09F966FF 		.ascii	"\011\371f\377g\256\302\316\210}M`\212\015\3302\346n"
  75      67AEC2CE 
  75      887D4D60 
  75      8A0DD832 
  75      E66E
  76 00bc 67CE148B 		.ascii	"g\316\024\213i\223{\263\217>\3542\3052\2459hKB\010\342"
  76      69937BB3 
  76      8F3EEC32 
  76      C532A539 
  76      684B4208 
  77 00d1 604BE948 		.ascii	"`K\351H\010K\210\010\207\250\300W\026yTJ\262\366\220"
  77      084B8808 
  77      87A8C057 
  77      1679544A 
  77      B2F690
  78 00e4 FF98F016 		.ascii	"\377\230\360\026,qNkYj>\233?s^TV[\376\304\007\311\373"
  78      2C714E6B 
  78      596A3E9B 
  78      3F735E54 
  78      565BFEC4 
  79 00fb A9F2A0CD 		.ascii	"\251\362\240\315,'\215\305\320\264w>\216%,&3\274n\010"
  79      2C278DC5 
  79      D0B4773E 
  79      8E252C26 
  79      33BC6E08 
  80 010f 5B886213 		.ascii	"[\210b\023Q\236n\233Q\362\220zr\002;\315\216\334\247"
  80      519E6E9B 
  80      51F2907A 
  80      72023BCD 
  80      8EDCA7
  81 0122 BFECA0B7 		.ascii	"\277\354\240\267\030b\375\345\311\344wD,5\006\261\303"
  81      1862FDE5 
  81      C9E47744 
  81      2C3506B1 
  81      C3
  82 0133 CA12097F 		.ascii	"\312\022\011\177\241R\211\303\020K\356/6\267t \251\304"
  82      A15289C3 
  82      104BEE2F 
  82      36B77420 
  82      A9C4
  83 0145 AE2F49BF 		.ascii	"\256/I\277\377Q\302\276\261S\352\022a\224\373\374<\244"
  83      FF51C2BE 
  83      B153EA12 
  83      6194FBFC 
  83      3CA4
  84 0157 FF6FE43D 		.ascii	"\377o\344=F\231OwH\345>[\205\355\377\272\202\202<\017"
  84      46994F77 
  84      48E53E5B 
  84      85EDFFBA 
  84      82823C0F 
  85 016b 3F56759B 		.ascii	"?Vu\233;\340\016\365\014\273}\335\261\304\310P\257\033"
  85      3BE00EF5 
  85      0CBB7DDD 
ARM GAS  C:\Users\JEFFSN~1\AppData\Local\Temp\ccz53UKs.s 			page 6


  85      B1C4C850 
  85      AF1B
  86 017d EF88255A 		.ascii	"\357\210%Z\232\343]\335\355\015\275d\365'\372\334_>"
  86      9AE35DDD 
  86      ED0DBD64 
  86      F527FADC 
  86      5F3E
  87 018f 1FA414   		.ascii	"\037\244\024"
  88              		.text
  89              		.section	.gnu.lto_V_H_Read.633144d3,"",%progbits
  90 0000 789C3D4F 		.ascii	"x\234=O;H\003A\020\235\267{\271\013\212`oD\3334\"\210"
  90      3B480341 
  90      109DB77B 
  90      B90B8A60 
  90      6F44DB34 
  91 0016 20B6825A 		.ascii	" \266\202Z\212\201T\201 \361Z\003A\353\354\345\356\024"
  91      8A815481 
  91      20F15A03 
  91      41EBECE5 
  91      EE14
  92 0028 C4C2466D 		.ascii	"\304\302Fm\374\200 \211F1V\226\306\220BP\024\005\301"
  92      FC802089 
  92      46315696 
  92      C6904250 
  92      1405C1
  93 003b 4A442485 		.ascii	"JD$\205U\014\212\022\3248\353\211\003;\263;\373>3\006"
  93      550C8A12 
  93      D438EB89 
  93      033BB33B 
  93      FB3E3306 
  94 004f 8174C4B9 		.ascii	"\201t\304\271\364p\355\342\003I\020\313\227DNX\000\372"
  94      F470EDE2 
  94      034910CB 
  94      97444E58 
  94      00FA
  95 0061 A2C2A0AC 		.ascii	"\242\302\240\254@\026o\342K\340\374\375l\251-\232W*"
  95      40166FE2 
  95      4BE0FCFD 
  95      6CA92D9A 
  95      572A
  96 0073 A71E769A 		.ascii	"\247\036v\232Ck\2052|I\324\022\204\201\010\372#Z\"\217"
  96      436B8532 
  96      7C49D412 
  96      848108FA 
  96      235A228F 
  97 0087 2831F4F1 		.ascii	"(1\364\361\350{\245\303\364\024G\257\006\360O\001\246"
  97      E87BA5C3 
  97      F41447AF 
  97      06F04F01 
  97      A6
  98 0098 B63C9C2C 		.ascii	"\266<\234,\253V\313U\345[\353\364\316\262@\276d_N\006"
  98      AB56CB55 
  98      E55BEBF4 
  98      CEB240BE 
  98      645F4E06 
  99 00ac 2711D2C9 		.ascii	"'\021\322\311$-Ku\246\351!^\204\320U\326Pi.\336o\016"
  99      242D4B75 
ARM GAS  C:\Users\JEFFSN~1\AppData\Local\Temp\ccz53UKs.s 			page 7


  99      A6E9215E 
  99      84D055D6 
  99      50692EDE 
 100 00c2 6B25574A 		.ascii	"k%WJvY\365+W\326\253\360\245\2046-V}/\024<\235mG\031"
 100      7659F52B 
 100      57D6ABF0 
 100      A584362D 
 100      567D2F14 
 101 00db DC3AFE28 		.ascii	"\334:\376(\235`\013\033\216\307\243\032\330C\004\273"
 101      9D600B1B 
 101      8EC7A31A 
 101      D84304BB 
 102 00eb E04151E4 		.ascii	"\340AQ\344.\325\340~\216\222+\021\310\335\324/6\332"
 102      2ED5E07E 
 102      8E922B11 
 102      C8DDD42F 
 102      36DA
 103 00fd 351FE8C4 		.ascii	"5\037\350\304>\303j\3105\026\236D`h0N3\032\363U#\350"
 103      3EC36AC8 
 103      35169E44 
 103      6068304E 
 103      331AF355 
 104 0113 84B8C9B4 		.ascii	"\204\270\311\264k\257\264.5M\300\300\301?\015\001H\343"
 104      6BAFB42E 
 104      354DC0C0 
 104      C13F0D01 
 104      48E3
 105 0125 E8197F22 		.ascii	"\350\031\177\"&\375.\006\275\020\257\327=f\317\330\231"
 105      26FD2E06 
 105      BD10AFD7 
 105      3D66CFD8 
 105      99
 106 0136 A9597B3A 		.ascii	"\251Y{:\031K\317eRvb\"\226\036\031L\304\223\343})\372"
 106      194BCF65 
 106      52766222 
 106      961E194C 
 106      C493E37D 
 107 014c 013B7C79 		.ascii	"\001;|yU"
 107      55
 108              		.text
 109              		.section	.gnu.lto_V_H_ReadDataReg.633144d3,"",%progbits
 110 0000 789C3D4F 		.ascii	"x\234=OMK\202A\020\236g\367\365\003C\350\236QW/\021"
 110      4D4B8241 
 110      109E67F7 
 110      F50343E8 
 110      9E51572F 
 111 0015 4487BA06 		.ascii	"D\207\272\006\3251\022<\011\022\3465A\352\354\352\253"
 111      D531123C 
 111      0912E635 
 111      41EAECEA 
 111      AB
 112 0026 0511D4A5 		.ascii	"\005\021\324\245\272$F\020j\037T\327(0\351\020\024Y"
 112      BA244610 
 112      6A1F54D7 
 112      2830E910 
 112      1459
 113 0038 FD8288F0 		.ascii	"\375\202\210\360\320\311\244\010\243\264\231\336h`g"
ARM GAS  C:\Users\JEFFSN~1\AppData\Local\Temp\ccz53UKs.s 			page 8


 113      D0C9A408 
 113      A3B499DE 
 113      686067
 114 0047 76679F8F 		.ascii	"vg\237\217\031\213@\022a.}\\{\370@\023\324\332-Q\332"
 114      198B4012 
 114      612E7D5C 
 114      7BF84013 
 114      D4DA2D51 
 115 005c AB00B918 		.ascii	"\253\000\271\030/(\245\220\302\273\372V\270\376\270"
 115      2F28A590 
 115      C2BBFA56 
 115      B8FEB8
 116 006b 5AF1058B 		.ascii	"Z\361\005\213\306d\314\343nqd\263TAN\023u\024a(\200"
 116      C664CCE3 
 116      6E7164B3 
 116      54414E13 
 116      75146128 
 117 0080 C1804814 		.ascii	"\301\200H\024\021$\206>\235\264\327\375\356\254\341"
 117      1124863E 
 117      9DB4D7FD 
 117      EEACE1
 118 008f E81700FF 		.ascii	"\350\027\000\377\224\340\026\313\243\351\212\351tlS"
 118      94E016CB 
 118      A3E98AE9 
 118      746C53
 119 009e 39F75DDC 		.ascii	"9\367]\334\371<\240\234f_N\026'\345\222\344&\221\245"
 119      F93CA09C 
 119      665F4E16 
 119      27E592E4 
 119      2691A5
 120 00b1 06D36488 		.ascii	"\006\323d\210W\245\244\352:\252\237\313\355\362\250"
 120      57A5A4EA 
 120      3AAA9FCB 
 120      EDF2A8
 121 00c0 28D95AB3 		.ascii	"(\331Z\263\313F\256Z\363\274\251\234\326\020S\263\275"
 121      CB46AE5A 
 121      F3BCA99C 
 121      D61053B3 
 121      BD
 122 00d1 DA72394F 		.ascii	"\332r9O\263\2236\026\267Z\265\3233\177\001\371t\226"
 122      B3933616 
 122      B75AB5D3 
 122      337F01F9 
 122      7496
 123 00e3 47B5B087 		.ascii	"G\265\260\207\000\312\340A\261\217\002\250\016\373k"
 123      00CAE041 
 123      B18F02A8 
 123      0EFB6B
 124 00f2 9C6C0D47 		.ascii	"\234l\015G\356\241q\223\357\022>\320\215\003\206\325"
 124      EEA17193 
 124      EF123ED0 
 124      8D0386D5 
 125 0102 91692E3D 		.ascii	"\221i.=+\307\320b\2340\232\213\227\226\323qq\223i\367"
 125      2BC7D062 
 125      9C309A8B 
 125      9796D371 
 125      719369F7 
ARM GAS  C:\Users\JEFFSN~1\AppData\Local\Temp\ccz53UKs.s 			page 9


 126 0116 D9E32D2D 		.ascii	"\331\343--4\005\013\207\37748 \301\321\013\376D\334"
 126      34050B87 
 126      FF343820 
 126      C1D10BFE 
 126      44DC
 127 0128 F4BB1864 		.ascii	"\364\273\030d!^\257w\">\027O\316\314\307g\243\241\304"
 127      215EAF77 
 127      223E174F 
 127      CECCC767 
 127      A3A1C4
 128 013b 4232168F 		.ascii	"B2\026\217L\205\022c\303\221ptr F?\031Iyo"
 128      4C851263 
 128      C3917074 
 128      7220463F 
 128      1949796F 
 129              		.text
 130              		.section	.gnu.lto_.symbol_nodes.633144d3,"",%progbits
 131 0000 789C6361 		.ascii	"x\234ca`dpc\000\002&\206z\006\206\011\347\030@\324\252"
 131      60647063 
 131      00022686 
 131      7A068609 
 131      E71840D4 
 132 0015 0645A000 		.ascii	"\006E\240\000c=#\252\000S=\023\252\000s=3\212\000\003"
 132      633D23AA 
 132      00533D13 
 132      AA00733D 
 132      338A0003 
 133 0029 001ED60E 		.ascii	"\000\036\326\016\374"
 133      FC
 134              		.text
 135              		.section	.gnu.lto_.refs.633144d3,"",%progbits
 136 0000 789C6361 		.ascii	"x\234ca`\004B \000\000\0009\000\007"
 136      60044220 
 136      00000039 
 136      0007
 137              		.text
 138              		.section	.gnu.lto_.decls.633144d3,"",%progbits
 139 0000 789C8D52 		.ascii	"x\234\215R]H\024Q\024\276gfv\265\311?\244\302\207\011"
 139      5D481451 
 139      14BE6766 
 139      76B5C93F 
 139      A4C28709 
 140 0014 CC279F96 		.ascii	"\314'\237\226D\004!\250@I_\312P\264\207\004Yu0!4\266"
 140      440421A8 
 140      40495FCA 
 140      50B48704 
 140      59753021 
 141 002a 35F0EDE6 		.ascii	"5\360\355\346\017h\275\350\203\325\212\371\367\220\232"
 141      0F68BDE8 
 141      83D58AF9 
 141      F7909A
 142 0039 9B5AEBDA 		.ascii	"\233Z\353\332\272e\256Y\006\221\245\010A()\250\017\242"
 142      BA65AE59 
 142      0691A508 
 142      412829A8 
 142      0FA2
 143 004b 84A11116 		.ascii	"\204\241\021\026\266\235{wfg\252\015<p\347\236s\357"
ARM GAS  C:\Users\JEFFSN~1\AppData\Local\Temp\ccz53UKs.s 			page 10


 143      B69D7B77 
 143      6667AA0D 
 143      3C70E79E 
 143      73EF
 144 005d F9BEF39D 		.ascii	"\371\276\363\2353W\"@\230\235\222\010i\306]\3010\210"
 144      33572240 
 144      989D9208 
 144      69C65DC1 
 144      3088
 145 006f 6641BF88 		.ascii	"fA\277\210\030\206\327\304\203\313\213\313\207\313O"
 145      1886D7C4 
 145      83CB8BCB 
 145      87CB4F
 146 007e FE35766F 		.ascii	"\3765vo\325pC\214\013\327$\256\011\\yZ\016hy\177\233"
 146      D570438C 
 146      0BD724AE 
 146      095C795A 
 146      0E68797F 
 147 0093 37023660 		.ascii	"7\0026`\302\353Xo\004,\323c1\341\362\"\340|\021p\376"
 147      C2EB586F 
 147      042CD363 
 147      31E1F222 
 147      E07C1170 
 148 00a8 03E022F5 		.ascii	"\003\340\"\365\271/@\307T\347\264e\021>\001\020\340"
 148      B92F40C7 
 148      54E7B465 
 148      113E0110 
 148      E0
 149 00b9 46B43912 		.ascii	"F\2649\022v\242\355\314\201P \350|\240'\351%x:\020\201"
 149      76A2EDCC 
 149      815020E8 
 149      7CA027E9 
 149      25783A10 
 150 00ce E787CFF5 		.ascii	"\347\207\317\365\274p\315\240n\306\021\204M\317\204"
 150      BC70CDA0 
 150      6EC61184 
 150      4DCF84
 151 00dd 3F4919AB 		.ascii	"?I\031\253\021b,\030\000\023\237\246^\253\017\346\262"
 151      11622C18 
 151      00139FA6 
 151      5EAB0FE6 
 151      B2
 152 00ee 9C5AD49B 		.ascii	"\234Z\324\233\366\314M\271d\0219\321_\336\353?gsS\264"
 152      F6CC4DB9 
 152      641139D1 
 152      5FDEEB3F 
 152      677353B4 
 153 0102 164A05C5 		.ascii	"\026J\005\305\230\314p\343\332@\364\256\000\212\014"
 153      98CC70E3 
 153      DA40F4AE 
 153      008A0C
 154 0111 4160F1D6 		.ascii	"A`\361\326\370^l(f\327\256\326\325_\207\305\243\314"
 154      F85E6C28 
 154      66D7AED6 
 154      D55F87C5 
 154      A3CC
 155 0123 17165607 		.ascii	"\027\026V\0077$H\225\0370\232\225\357k\247\307)M\200"
ARM GAS  C:\Users\JEFFSN~1\AppData\Local\Temp\ccz53UKs.s 			page 11


 155      37244895 
 155      1F309A95 
 155      EF6BA7C7 
 155      294D80
 156 0136 2190C10D 		.ascii	"!\220\301\015\"\014\200\215)Pd\3746QZG\267{\2515\211"
 156      220C808D 
 156      295064FC 
 156      36515A47 
 156      B77BA935 
 157 014b 40BA0227 		.ascii	"@\272\002'\025\002\217 \225q\262,\030\004\005\036\202"
 157      15028F20 
 157      9571B22C 
 157      1804051E 
 157      82
 158 015c C2F8D7EF 		.ascii	"\302\370\327\357vmZ%\0347\347)\225\330\331|\303H\207"
 158      766D5A25 
 158      1C37E729 
 158      95D8D97C 
 158      C34887
 159 016f 88121265 		.ascii	"\210\022\022e\2200\374:\333\276\032\207\341\021\031"
 159      9030FC3A 
 159      DBBE1A87 
 159      E11119
 160 017e 923174FB 		.ascii	"\2221t\373\227\266\254Iwx+\3654Y\202\242c\360\030\011"
 160      97B6AC49 
 160      77782BF5 
 160      345982A2 
 160      63F01809 
 161 0192 479090C0 		.ascii	"G\220\220\300\023H\302\3570H\241\356\276\265v\276\217"
 161      1348C2EF 
 161      3048A1EE 
 161      BEB576BE 
 161      8F
 162 01a3 4DE9A6DD 		.ascii	"M\351\246\335#t\345\347z\272\213\006\032\020'\2604\350"
 162      2374E5E7 
 162      7ABA8B06 
 162      1A1027B0 
 162      34E8
 163 01b5 3744A3CB 		.ascii	"7D\243\313\266>X\304\201z \005\2213;\275\037\342\304"
 163      B63E58C4 
 163      817A2005 
 163      91333BBD 
 163      1FE2C4
 164 01c8 CB7C089B 		.ascii	"\313|\010\233\315\035\031!\222\300\356L\014m\271I\351"
 164      CD1D1921 
 164      92C0EE4C 
 164      0C6DB949 
 164      E9
 165 01d9 594E316A 		.ascii	"YN1jP\214\232)\274\234\242\311\333w/^\274\312)\346n"
 165      508C9A29 
 165      BC9CA2C9 
 165      DB772F5E 
 165      BCCA29E6 
 166 01ee BFAE8F37 		.ascii	"\277\256\2177\253f\355\032\262\237r\331\245\232j\337"
 166      AB66ED1A 
 166      B29F72D9 
 166      A59A6ADF 
ARM GAS  C:\Users\JEFFSN~1\AppData\Local\Temp\ccz53UKs.s 			page 12


 167 01fe 67D77294 		.ascii	"g\327r\224Vp\341\215\030V\215Y0f\224\0343\227\364\361"
 167      5670E18D 
 167      18568D59 
 167      3066941C 
 167      3397F4F1 
 168 0212 92EF823F 		.ascii	"\222\357\202?\226@\254\341%\273F\357\367h\275\007\374"
 168      9640ACE1 
 168      25BB46EF 
 168      F768BD07 
 168      FC
 169 0223 6F75D98C 		.ascii	"ou\331\214c\334\340\0307s\3709\307n\303\316G\253\214"
 169      63DCE018 
 169      3773F839 
 169      C76EC3CE 
 169      47AB8C
 170 0236 BFB0FE60 		.ascii	"\277\260\376`\277pv\243'\030%6\002\177#\2366W[\024\310"
 170      BF7076A3 
 170      27182536 
 170      027F239E 
 170      36575B14 
 171 024b A911E02F 		.ascii	"\251\021\340/\"\300\265\247\344.lmf\015N\340P\236\033"
 171      22C0B5A7 
 171      E42E6C6D 
 171      660D4EE0 
 171      509E1B
 172 025e E29E811C 		.ascii	"\342\236\201\034\032\310\300\227\351\000\304\334b\257"
 172      1AC8C097 
 172      E900C4DC 
 172      62AF
 173 026c 0AA79798 		.ascii	"\012\247\227\230\313\023\215\351MB\014\177\375\270\357"
 173      CB138DE9 
 173      4D420C7F 
 173      FDB8EF
 174 027b 0BE2AB85 		.ascii	"\013\342\253\205\341I\031d\005\360\036\232X\201\355"
 174      E1491964 
 174      05F01E9A 
 174      5881ED
 175 028a 3A930E02 		.ascii	":\223\016\002\001F\013Sx\375\022\341\355\224\345\314"
 175      01460B53 
 175      78FD12E1 
 175      ED94E5CC 
 176 029a 033FE6C1 		.ascii	"\003?\346\301\366\031\356\363\317\241\242\222\334\222"
 176      F619EEF3 
 176      CFA1A292 
 176      DC92
 177 02a8 4B8E4AA7 		.ascii	"K\216J\247\032\235s\24109+-\215Xj*\253\234\231'r\324"
 177      1A9D73A1 
 177      30392B2D 
 177      8D586A2A 
 177      AB9C9927 
 178 02be 2AD56177 		.ascii	"*\325aw\252\345%\005\3255\2162\265\370bAuVFqY\255\263"
 178      AAE52505 
 178      D5358E32 
 178      B5F86241 
 178      75564671 
 179 02d5 F69A7ADD 		.ascii	"\366\232z\335v\205\034\377O\0062\332\312H\002#.P\235"
 179      76851CFF 
ARM GAS  C:\Users\JEFFSN~1\AppData\Local\Temp\ccz53UKs.s 			page 13


 179      4F0632DA 
 179      CA480223 
 179      2E509D
 180 02e8 D98ECA1B 		.ascii	"\331\216\312\033\352\371\352r5\232\035\344\253\366\362"
 180      EAF9EA72 
 180      359A1DE4 
 180      ABF6F2
 181 02f7 78DDC9B6 		.ascii	"x\335\311\266;\355\371j\205\344P+2\177\0036\177[v"
 181      3BEDF96A 
 181      85E4502B 
 181      327F0336 
 181      7F5B76
 182              		.text
 183              		.section	.gnu.lto_.symtab.633144d3,"",%progbits
 184 0000 565F485F 		.ascii	"V_H_Write\000"
 184      57726974 
 184      6500
 185 000a 00       		.ascii	"\000"
 186 000b 00       		.ascii	"\000"
 187 000c 00       		.ascii	"\000"
 188 000d 00000000 		.ascii	"\000\000\000\000\000\000\000\000"
 188      00000000 
 189 0015 B3000000 		.ascii	"\263\000\000\000"
 190 0019 565F485F 		.ascii	"V_H_SetDriveMode\000"
 190      53657444 
 190      72697665 
 190      4D6F6465 
 190      00
 191 002a 00       		.ascii	"\000"
 192 002b 00       		.ascii	"\000"
 193 002c 00       		.ascii	"\000"
 194 002d 00000000 		.ascii	"\000\000\000\000\000\000\000\000"
 194      00000000 
 195 0035 B5000000 		.ascii	"\265\000\000\000"
 196 0039 565F485F 		.ascii	"V_H_Read\000"
 196      52656164 
 196      00
 197 0042 00       		.ascii	"\000"
 198 0043 00       		.ascii	"\000"
 199 0044 00       		.ascii	"\000"
 200 0045 00000000 		.ascii	"\000\000\000\000\000\000\000\000"
 200      00000000 
 201 004d B8000000 		.ascii	"\270\000\000\000"
 202 0051 565F485F 		.ascii	"V_H_ReadDataReg\000"
 202      52656164 
 202      44617461 
 202      52656700 
 203 0061 00       		.ascii	"\000"
 204 0062 00       		.ascii	"\000"
 205 0063 00       		.ascii	"\000"
 206 0064 00000000 		.ascii	"\000\000\000\000\000\000\000\000"
 206      00000000 
 207 006c BA000000 		.ascii	"\272\000\000\000"
 208              		.text
 209              		.section	.gnu.lto_.opts,"",%progbits
 210 0000 272D666D 		.ascii	"'-fmath-errno' '-fsigned-zeros' '-ftrapping-math' '"
 210      6174682D 
ARM GAS  C:\Users\JEFFSN~1\AppData\Local\Temp\ccz53UKs.s 			page 14


 210      6572726E 
 210      6F272027 
 210      2D667369 
 211 0033 2D666E6F 		.ascii	"-fno-trapv' '-fno-strict-overflow' '-fno-openmp' '-"
 211      2D747261 
 211      70762720 
 211      272D666E 
 211      6F2D7374 
 212 0066 666E6F2D 		.ascii	"fno-openacc' '-mcpu=cortex-m3' '-mthumb' '-g' '-Og'"
 212      6F70656E 
 212      61636327 
 212      20272D6D 
 212      6370753D 
 213 0099 20272D66 		.ascii	" '-ffunction-sections' '-ffat-lto-objects' '-finlin"
 213      66756E63 
 213      74696F6E 
 213      2D736563 
 213      74696F6E 
 214 00cc 652D6675 		.ascii	"e-functions' '-flto'\000"
 214      6E637469 
 214      6F6E7327 
 214      20272D66 
 214      6C746F27 
 215              		.text
 216              		.cfi_sections	.debug_frame
 217              		.section	.text.V_H_Write,"ax",%progbits
 218              		.align	2
 219              		.global	V_H_Write
 220              		.thumb
 221              		.thumb_func
 222              		.type	V_H_Write, %function
 223              	V_H_Write:
 224              	.LFB0:
 225              		.file 1 "Generated_Source\\PSoC5\\V_H.c"
   1:Generated_Source\PSoC5/V_H.c **** /*******************************************************************************
   2:Generated_Source\PSoC5/V_H.c **** * File Name: V_H.c  
   3:Generated_Source\PSoC5/V_H.c **** * Version 2.20
   4:Generated_Source\PSoC5/V_H.c **** *
   5:Generated_Source\PSoC5/V_H.c **** * Description:
   6:Generated_Source\PSoC5/V_H.c **** *  This file contains API to enable firmware control of a Pins component.
   7:Generated_Source\PSoC5/V_H.c **** *
   8:Generated_Source\PSoC5/V_H.c **** * Note:
   9:Generated_Source\PSoC5/V_H.c **** *
  10:Generated_Source\PSoC5/V_H.c **** ********************************************************************************
  11:Generated_Source\PSoC5/V_H.c **** * Copyright 2008-2015, Cypress Semiconductor Corporation.  All rights reserved.
  12:Generated_Source\PSoC5/V_H.c **** * You may use this file only in accordance with the license, terms, conditions, 
  13:Generated_Source\PSoC5/V_H.c **** * disclaimers, and limitations in the end user license agreement accompanying 
  14:Generated_Source\PSoC5/V_H.c **** * the software package with which this file was provided.
  15:Generated_Source\PSoC5/V_H.c **** *******************************************************************************/
  16:Generated_Source\PSoC5/V_H.c **** 
  17:Generated_Source\PSoC5/V_H.c **** #include "cytypes.h"
  18:Generated_Source\PSoC5/V_H.c **** #include "V_H.h"
  19:Generated_Source\PSoC5/V_H.c **** 
  20:Generated_Source\PSoC5/V_H.c **** /* APIs are not generated for P15[7:6] on PSoC 5 */
  21:Generated_Source\PSoC5/V_H.c **** #if !(CY_PSOC5A &&\
  22:Generated_Source\PSoC5/V_H.c **** 	 V_H__PORT == 15 && ((V_H__MASK & 0xC0) != 0))
  23:Generated_Source\PSoC5/V_H.c **** 
ARM GAS  C:\Users\JEFFSN~1\AppData\Local\Temp\ccz53UKs.s 			page 15


  24:Generated_Source\PSoC5/V_H.c **** 
  25:Generated_Source\PSoC5/V_H.c **** /*******************************************************************************
  26:Generated_Source\PSoC5/V_H.c **** * Function Name: V_H_Write
  27:Generated_Source\PSoC5/V_H.c **** ****************************************************************************//**
  28:Generated_Source\PSoC5/V_H.c **** *
  29:Generated_Source\PSoC5/V_H.c **** * \brief Writes the value to the physical port (data output register), masking
  30:Generated_Source\PSoC5/V_H.c **** *  and shifting the bits appropriately. 
  31:Generated_Source\PSoC5/V_H.c **** *
  32:Generated_Source\PSoC5/V_H.c **** * The data output register controls the signal applied to the physical pin in 
  33:Generated_Source\PSoC5/V_H.c **** * conjunction with the drive mode parameter. This function avoids changing 
  34:Generated_Source\PSoC5/V_H.c **** * other bits in the port by using the appropriate method (read-modify-write or
  35:Generated_Source\PSoC5/V_H.c **** * bit banding).
  36:Generated_Source\PSoC5/V_H.c **** *
  37:Generated_Source\PSoC5/V_H.c **** * <b>Note</b> This function should not be used on a hardware digital output pin 
  38:Generated_Source\PSoC5/V_H.c **** * as it is driven by the hardware signal attached to it.
  39:Generated_Source\PSoC5/V_H.c **** *
  40:Generated_Source\PSoC5/V_H.c **** * \param value
  41:Generated_Source\PSoC5/V_H.c **** *  Value to write to the component instance.
  42:Generated_Source\PSoC5/V_H.c **** *
  43:Generated_Source\PSoC5/V_H.c **** * \return 
  44:Generated_Source\PSoC5/V_H.c **** *  None 
  45:Generated_Source\PSoC5/V_H.c **** *
  46:Generated_Source\PSoC5/V_H.c **** * \sideeffect
  47:Generated_Source\PSoC5/V_H.c **** *  If you use read-modify-write operations that are not atomic; the Interrupt 
  48:Generated_Source\PSoC5/V_H.c **** *  Service Routines (ISR) can cause corruption of this function. An ISR that 
  49:Generated_Source\PSoC5/V_H.c **** *  interrupts this function and performs writes to the Pins component data 
  50:Generated_Source\PSoC5/V_H.c **** *  register can cause corrupted port data. To avoid this issue, you should 
  51:Generated_Source\PSoC5/V_H.c **** *  either use the Per-Pin APIs (primary method) or disable interrupts around 
  52:Generated_Source\PSoC5/V_H.c **** *  this function.
  53:Generated_Source\PSoC5/V_H.c **** *
  54:Generated_Source\PSoC5/V_H.c **** * \funcusage
  55:Generated_Source\PSoC5/V_H.c **** *  \snippet V_H_SUT.c usage_V_H_Write
  56:Generated_Source\PSoC5/V_H.c **** *******************************************************************************/
  57:Generated_Source\PSoC5/V_H.c **** void V_H_Write(uint8 value)
  58:Generated_Source\PSoC5/V_H.c **** {
 226              		.loc 1 58 0
 227              		.cfi_startproc
 228              		@ args = 0, pretend = 0, frame = 0
 229              		@ frame_needed = 0, uses_anonymous_args = 0
 230              		@ link register save eliminated.
 231              	.LVL0:
  59:Generated_Source\PSoC5/V_H.c ****     uint8 staticBits = (V_H_DR & (uint8)(~V_H_MASK));
 232              		.loc 1 59 0
 233 0000 044A     		ldr	r2, .L2
 234 0002 1378     		ldrb	r3, [r2]	@ zero_extendqisi2
 235 0004 03F0EF03 		and	r3, r3, #239
 236              	.LVL1:
  60:Generated_Source\PSoC5/V_H.c ****     V_H_DR = staticBits | ((uint8)(value << V_H_SHIFT) & V_H_MASK);
 237              		.loc 1 60 0
 238 0008 0001     		lsls	r0, r0, #4
 239              	.LVL2:
 240 000a 00F01000 		and	r0, r0, #16
 241 000e 1843     		orrs	r0, r0, r3
 242 0010 1070     		strb	r0, [r2]
 243 0012 7047     		bx	lr
 244              	.L3:
 245              		.align	2
ARM GAS  C:\Users\JEFFSN~1\AppData\Local\Temp\ccz53UKs.s 			page 16


 246              	.L2:
 247 0014 00510040 		.word	1073762560
 248              		.cfi_endproc
 249              	.LFE0:
 250              		.size	V_H_Write, .-V_H_Write
 251              		.section	.text.V_H_SetDriveMode,"ax",%progbits
 252              		.align	2
 253              		.global	V_H_SetDriveMode
 254              		.thumb
 255              		.thumb_func
 256              		.type	V_H_SetDriveMode, %function
 257              	V_H_SetDriveMode:
 258              	.LFB1:
  61:Generated_Source\PSoC5/V_H.c **** }
  62:Generated_Source\PSoC5/V_H.c **** 
  63:Generated_Source\PSoC5/V_H.c **** 
  64:Generated_Source\PSoC5/V_H.c **** /*******************************************************************************
  65:Generated_Source\PSoC5/V_H.c **** * Function Name: V_H_SetDriveMode
  66:Generated_Source\PSoC5/V_H.c **** ****************************************************************************//**
  67:Generated_Source\PSoC5/V_H.c **** *
  68:Generated_Source\PSoC5/V_H.c **** * \brief Sets the drive mode for each of the Pins component's pins.
  69:Generated_Source\PSoC5/V_H.c **** * 
  70:Generated_Source\PSoC5/V_H.c **** * <b>Note</b> This affects all pins in the Pins component instance. Use the
  71:Generated_Source\PSoC5/V_H.c **** * Per-Pin APIs if you wish to control individual pin's drive modes.
  72:Generated_Source\PSoC5/V_H.c **** *
  73:Generated_Source\PSoC5/V_H.c **** * \param mode
  74:Generated_Source\PSoC5/V_H.c **** *  Mode for the selected signals. Valid options are documented in 
  75:Generated_Source\PSoC5/V_H.c **** *  \ref driveMode.
  76:Generated_Source\PSoC5/V_H.c **** *
  77:Generated_Source\PSoC5/V_H.c **** * \return
  78:Generated_Source\PSoC5/V_H.c **** *  None
  79:Generated_Source\PSoC5/V_H.c **** *
  80:Generated_Source\PSoC5/V_H.c **** * \sideeffect
  81:Generated_Source\PSoC5/V_H.c **** *  If you use read-modify-write operations that are not atomic, the ISR can
  82:Generated_Source\PSoC5/V_H.c **** *  cause corruption of this function. An ISR that interrupts this function 
  83:Generated_Source\PSoC5/V_H.c **** *  and performs writes to the Pins component Drive Mode registers can cause 
  84:Generated_Source\PSoC5/V_H.c **** *  corrupted port data. To avoid this issue, you should either use the Per-Pin
  85:Generated_Source\PSoC5/V_H.c **** *  APIs (primary method) or disable interrupts around this function.
  86:Generated_Source\PSoC5/V_H.c **** *
  87:Generated_Source\PSoC5/V_H.c **** * \funcusage
  88:Generated_Source\PSoC5/V_H.c **** *  \snippet V_H_SUT.c usage_V_H_SetDriveMode
  89:Generated_Source\PSoC5/V_H.c **** *******************************************************************************/
  90:Generated_Source\PSoC5/V_H.c **** void V_H_SetDriveMode(uint8 mode)
  91:Generated_Source\PSoC5/V_H.c **** {
 259              		.loc 1 91 0
 260              		.cfi_startproc
 261              		@ args = 0, pretend = 0, frame = 0
 262              		@ frame_needed = 0, uses_anonymous_args = 0
 263              		@ link register save eliminated.
 264              	.LVL3:
  92:Generated_Source\PSoC5/V_H.c **** 	CyPins_SetPinDriveMode(V_H_0, mode);
 265              		.loc 1 92 0
 266 0000 044A     		ldr	r2, .L5
 267 0002 1378     		ldrb	r3, [r2]	@ zero_extendqisi2
 268 0004 03F0F103 		and	r3, r3, #241
 269 0008 00F00E00 		and	r0, r0, #14
 270              	.LVL4:
ARM GAS  C:\Users\JEFFSN~1\AppData\Local\Temp\ccz53UKs.s 			page 17


 271 000c 1843     		orrs	r0, r0, r3
 272 000e 1070     		strb	r0, [r2]
 273 0010 7047     		bx	lr
 274              	.L6:
 275 0012 00BF     		.align	2
 276              	.L5:
 277 0014 04500040 		.word	1073762308
 278              		.cfi_endproc
 279              	.LFE1:
 280              		.size	V_H_SetDriveMode, .-V_H_SetDriveMode
 281              		.section	.text.V_H_Read,"ax",%progbits
 282              		.align	2
 283              		.global	V_H_Read
 284              		.thumb
 285              		.thumb_func
 286              		.type	V_H_Read, %function
 287              	V_H_Read:
 288              	.LFB2:
  93:Generated_Source\PSoC5/V_H.c **** }
  94:Generated_Source\PSoC5/V_H.c **** 
  95:Generated_Source\PSoC5/V_H.c **** 
  96:Generated_Source\PSoC5/V_H.c **** /*******************************************************************************
  97:Generated_Source\PSoC5/V_H.c **** * Function Name: V_H_Read
  98:Generated_Source\PSoC5/V_H.c **** ****************************************************************************//**
  99:Generated_Source\PSoC5/V_H.c **** *
 100:Generated_Source\PSoC5/V_H.c **** * \brief Reads the associated physical port (pin status register) and masks 
 101:Generated_Source\PSoC5/V_H.c **** *  the required bits according to the width and bit position of the component
 102:Generated_Source\PSoC5/V_H.c **** *  instance. 
 103:Generated_Source\PSoC5/V_H.c **** *
 104:Generated_Source\PSoC5/V_H.c **** * The pin's status register returns the current logic level present on the 
 105:Generated_Source\PSoC5/V_H.c **** * physical pin.
 106:Generated_Source\PSoC5/V_H.c **** *
 107:Generated_Source\PSoC5/V_H.c **** * \return 
 108:Generated_Source\PSoC5/V_H.c **** *  The current value for the pins in the component as a right justified number.
 109:Generated_Source\PSoC5/V_H.c **** *
 110:Generated_Source\PSoC5/V_H.c **** * \funcusage
 111:Generated_Source\PSoC5/V_H.c **** *  \snippet V_H_SUT.c usage_V_H_Read  
 112:Generated_Source\PSoC5/V_H.c **** *******************************************************************************/
 113:Generated_Source\PSoC5/V_H.c **** uint8 V_H_Read(void)
 114:Generated_Source\PSoC5/V_H.c **** {
 289              		.loc 1 114 0
 290              		.cfi_startproc
 291              		@ args = 0, pretend = 0, frame = 0
 292              		@ frame_needed = 0, uses_anonymous_args = 0
 293              		@ link register save eliminated.
 115:Generated_Source\PSoC5/V_H.c ****     return (V_H_PS & V_H_MASK) >> V_H_SHIFT;
 294              		.loc 1 115 0
 295 0000 024B     		ldr	r3, .L8
 296 0002 1878     		ldrb	r0, [r3]	@ zero_extendqisi2
 116:Generated_Source\PSoC5/V_H.c **** }
 297              		.loc 1 116 0
 298 0004 C0F30010 		ubfx	r0, r0, #4, #1
 299 0008 7047     		bx	lr
 300              	.L9:
 301 000a 00BF     		.align	2
 302              	.L8:
 303 000c 01510040 		.word	1073762561
ARM GAS  C:\Users\JEFFSN~1\AppData\Local\Temp\ccz53UKs.s 			page 18


 304              		.cfi_endproc
 305              	.LFE2:
 306              		.size	V_H_Read, .-V_H_Read
 307              		.section	.text.V_H_ReadDataReg,"ax",%progbits
 308              		.align	2
 309              		.global	V_H_ReadDataReg
 310              		.thumb
 311              		.thumb_func
 312              		.type	V_H_ReadDataReg, %function
 313              	V_H_ReadDataReg:
 314              	.LFB3:
 117:Generated_Source\PSoC5/V_H.c **** 
 118:Generated_Source\PSoC5/V_H.c **** 
 119:Generated_Source\PSoC5/V_H.c **** /*******************************************************************************
 120:Generated_Source\PSoC5/V_H.c **** * Function Name: V_H_ReadDataReg
 121:Generated_Source\PSoC5/V_H.c **** ****************************************************************************//**
 122:Generated_Source\PSoC5/V_H.c **** *
 123:Generated_Source\PSoC5/V_H.c **** * \brief Reads the associated physical port's data output register and masks 
 124:Generated_Source\PSoC5/V_H.c **** *  the correct bits according to the width and bit position of the component 
 125:Generated_Source\PSoC5/V_H.c **** *  instance. 
 126:Generated_Source\PSoC5/V_H.c **** *
 127:Generated_Source\PSoC5/V_H.c **** * The data output register controls the signal applied to the physical pin in 
 128:Generated_Source\PSoC5/V_H.c **** * conjunction with the drive mode parameter. This is not the same as the 
 129:Generated_Source\PSoC5/V_H.c **** * preferred V_H_Read() API because the 
 130:Generated_Source\PSoC5/V_H.c **** * V_H_ReadDataReg() reads the data register instead of the status 
 131:Generated_Source\PSoC5/V_H.c **** * register. For output pins this is a useful function to determine the value 
 132:Generated_Source\PSoC5/V_H.c **** * just written to the pin.
 133:Generated_Source\PSoC5/V_H.c **** *
 134:Generated_Source\PSoC5/V_H.c **** * \return 
 135:Generated_Source\PSoC5/V_H.c **** *  The current value of the data register masked and shifted into a right 
 136:Generated_Source\PSoC5/V_H.c **** *  justified number for the component instance.
 137:Generated_Source\PSoC5/V_H.c **** *
 138:Generated_Source\PSoC5/V_H.c **** * \funcusage
 139:Generated_Source\PSoC5/V_H.c **** *  \snippet V_H_SUT.c usage_V_H_ReadDataReg 
 140:Generated_Source\PSoC5/V_H.c **** *******************************************************************************/
 141:Generated_Source\PSoC5/V_H.c **** uint8 V_H_ReadDataReg(void)
 142:Generated_Source\PSoC5/V_H.c **** {
 315              		.loc 1 142 0
 316              		.cfi_startproc
 317              		@ args = 0, pretend = 0, frame = 0
 318              		@ frame_needed = 0, uses_anonymous_args = 0
 319              		@ link register save eliminated.
 143:Generated_Source\PSoC5/V_H.c ****     return (V_H_DR & V_H_MASK) >> V_H_SHIFT;
 320              		.loc 1 143 0
 321 0000 024B     		ldr	r3, .L11
 322 0002 1878     		ldrb	r0, [r3]	@ zero_extendqisi2
 144:Generated_Source\PSoC5/V_H.c **** }
 323              		.loc 1 144 0
 324 0004 C0F30010 		ubfx	r0, r0, #4, #1
 325 0008 7047     		bx	lr
 326              	.L12:
 327 000a 00BF     		.align	2
 328              	.L11:
 329 000c 00510040 		.word	1073762560
 330              		.cfi_endproc
 331              	.LFE3:
 332              		.size	V_H_ReadDataReg, .-V_H_ReadDataReg
ARM GAS  C:\Users\JEFFSN~1\AppData\Local\Temp\ccz53UKs.s 			page 19


 333              		.text
 334              	.Letext0:
 335              		.file 2 "Generated_Source\\PSoC5\\cytypes.h"