ARM GAS  C:\Users\JEFFSN~1\AppData\Local\Temp\cc2coS0E.s 			page 1


   1              		.syntax unified
   2              		.cpu cortex-m3
   3              		.fpu softvfp
   4              		.eabi_attribute 20, 1
   5              		.eabi_attribute 21, 1
   6              		.eabi_attribute 23, 3
   7              		.eabi_attribute 24, 1
   8              		.eabi_attribute 25, 1
   9              		.eabi_attribute 26, 1
  10              		.eabi_attribute 30, 2
  11              		.eabi_attribute 34, 1
  12              		.eabi_attribute 18, 4
  13              		.thumb
  14              		.syntax unified
  15              		.file	"V_T_1_2.c"
  16              		.text
  17              	.Ltext0:
  18              		.section	.gnu.lto_.profile.807d5a1e,"",%progbits
  19 0000 789C6361 		.ascii	"x\234ca`d`a`\000\222bB\000\000\250\0003"
  19      60646061 
  19      60009262 
  19      420000A8 
  19      0033
  20              		.text
  21              		.section	.gnu.lto_.icf.807d5a1e,"",%progbits
  22 0000 789C6361 		.ascii	"x\234ca`d\000\001)\006\004`ax\261\355\304+6\306\307"
  22      60640001 
  22      29060460 
  22      6178B1ED 
  22      C42B36C6 
  23 0015 975BB672 		.ascii	"\227[\266r3\265<Z\264\212\221\271\271\351y+;\003\000"
  23      33B53C5A 
  23      B48A91B9 
  23      B9E9792B 
  23      3B0300
  24 0028 A90B0BA5 		.ascii	"\251\013\013\245"
  25              		.text
  26              		.section	.gnu.lto_.jmpfuncs.807d5a1e,"",%progbits
  27 0000 789C6361 		.ascii	"x\234ca`d\000\001!\006\004`a`dd\254g\004\021L\014\014"
  27      60640001 
  27      21060460 
  27      61606464 
  27      AC670411 
  28 0017 CC401100 		.ascii	"\314@\021\000\016\"\001&"
  28      0E220126 
  29              		.text
  30              		.section	.gnu.lto_.inline.807d5a1e,"",%progbits
  31 0000 789C6361 		.ascii	"x\234ca`d\000\201$\006\004`a`\340`gdd\340\000J1s\034"
  31      60640081 
  31      24060460 
  31      6160E060 
  31      676464E0 
  32 0019 B063605B 		.ascii	"\260c`[ \317\304\300t\201\237\005$\313\210O\222\211"
  32      20CFC4C0 
  32      74819F05 
  32      24CB884F 
  32      9289
ARM GAS  C:\Users\JEFFSN~1\AppData\Local\Temp\cc2coS0E.s 			page 2


  33 002b 81958591 		.ascii	"\201\225\205\221\201\211e\201<D\034\010\2301\205\030"
  33      81896581 
  33      3C441C08 
  33      98318518 
  34 003b 00DE5809 		.ascii	"\000\336X\011<"
  34      3C
  35              		.text
  36              		.section	.gnu.lto_.pureconst.807d5a1e,"",%progbits
  37 0000 789C6361 		.ascii	"x\234ca`d\340d```a\220b\224b\222b\226\002\000\002\261"
  37      6064E064 
  37      60606061 
  37      90629462 
  37      92629602 
  38 0017 0081     		.ascii	"\000\201"
  39              		.text
  40              		.section	.gnu.lto_V_T_1_2_Write.807d5a1e,"",%progbits
  41 0000 789C5550 		.ascii	"x\234UP\317KTQ\024>\337\275\363\306A\233\376\201f\241"
  41      CF4B5451 
  41      143EDFBD 
  41      F3C6419B 
  41      FE8166A1 
  42 0014 90882EA2 		.ascii	"\220\210.\242\262\376\201\\\264\025\215V\003\3030\275"
  42      B2FE815C 
  42      B4158D56 
  42      03C330BD 
  43 0024 8590093A 		.ascii	"\205\220\011:\266\365<\307q@\027\271(]\225\241\210\366"
  43      B6F53CC7 
  43      714017B9 
  43      285D95A1 
  43      88F6
  44 0036 4B9BA045 		.ascii	"K\233\240E\341\342\361\326\221\033iQ\021\341\342\005"
  44      E1E2F1D6 
  44      911B6951 
  44      11E1E205 
  45 0046 AD26E891 		.ascii	"\255&\350\221Z9\235\363\356&\017\334_\347~\337w\276"
  45      5A399DF3 
  45      EE260FDC 
  45      5FE77EDF 
  45      77BE
  46 0058 7332044A 		.ascii	"s2\004J\303\020]\221\343\234,X\202YzO\024\344\014\240"
  46      C3105D91 
  46      E39C2C58 
  46      82597A4F 
  46      14E40CA0 
  47 006c 17CE8166 		.ascii	"\027\316\201f\014f\220\230\277\006Q#~c\3727Y\342\353"
  47      0C669098 
  47      BF065123 
  47      7E63FA37 
  47      59E2EB
  48 007f C623CB5B 		.ascii	"\306#\313[!\352\226\250m\234\0226\321/\250o\273\215"
  48      21EA96A8 
  48      6D9C1236 
  48      D12FA86F 
  48      BB8D
  49 0091 7DD8F320 		.ascii	"}\330\363 \271\317GI\253\253o\203y\2269)\262\255[`\013"
  49      B9CF4749 
  49      ABAB6F83 
ARM GAS  C:\Users\JEFFSN~1\AppData\Local\Temp\cc2coS0E.s 			page 3


  49      79963929 
  49      B2AD5B60 
  50 00a6 5618182C 		.ascii	"V\030\030,\340b\201$Ax\202>\005\037~\334\337>k\007R"
  50      E0628124 
  50      4178823E 
  50      051F7EDC 
  50      DF3E6B07 
  51 00bb E212C76B 		.ascii	"\342\022\307kgz\327\225\030\376\032_\3410\350V\356\323"
  51      677AD795 
  51      18FE1A5F 
  51      E130E856 
  51      EED3
  52 00cd FFB91A02 		.ascii	"\377\271\032\002=h\236<\310g\347\324U7\236\241\327\371"
  52      3D689E3C 
  52      C867E7D4 
  52      55379EA1 
  52      D7F9
  53 00df C17364A5 		.ascii	"\301sd\245Chfg$\344v\273\306a\342%6g\244\250\221N\345"
  53      43686667 
  53      24E476BB 
  53      C661E225 
  53      3667A4A8 
  54 00f6 2303ADED 		.ascii	"#\003\255\355i\"\253\033QK\2266\376\303\030=m\214\350"
  54      6922AB1B 
  54      514B9636 
  54      FEC3183D 
  54      6D8CE8
  55 0109 78E1CB4A 		.ascii	"x\341\313J\207\312\325\254\016a\271\036\355u\3744uk"
  55      87CAD5AC 
  55      0E61B91E 
  55      ED75FC34 
  55      756B
  56 011b 53A3FCF8 		.ascii	"S\243\374\370\336\221\347\236\274\026pFRG{ow\363\253"
  56      DE91E79E 
  56      BC167046 
  56      52477B6F 
  56      77F3AB
  57 012e 7818CCC9 		.ascii	"x\030\314\311x2\330F\001/ v\261\203UP\214\332\237\371"
  57      7832D846 
  57      012F2076 
  57      B1835550 
  57      8CDA9FF9 
  58 0142 CF7082D6 		.ascii	"\317p\202\326i~Z\374p?\257\"\300\011\360R\300\0070i"
  58      697E5AFC 
  58      703FAF22 
  58      C009F052 
  58      C0073069 
  59 0156 07625250 		.ascii	"\007bRP\216\0247<\307\362jV\353\274n\274kv*K\332@SH"
  59      8E14373C 
  59      C7F26A56 
  59      EBBC6EBC 
  59      6B762A4B 
  60 016e 823ACC3A 		.ascii	"\202:\314:\210\323\366$\025-\247\265N\371\012\230\273"
  60      88D3F624 
  60      152DA7B5 
  60      4EF90A98 
  60      BB
ARM GAS  C:\Users\JEFFSN~1\AppData\Local\Temp\cc2coS0E.s 			page 4


  61 017f 4E5B7B25 		.ascii	"N[{%\326\204E\3371\033\376N\313\244\343m\031\350\030"
  61      D68445DF 
  61      311BFE4E 
  61      CBA4E36D 
  61      19E818
  62 0192 64283DD7 		.ascii	"d(=\327\375;\376d\271\352\337*\215NLOV\374\342\360\350"
  62      FD3BFE64 
  62      B9EADF2A 
  62      8D4E4C4F 
  62      56FCE2F0 
  63 01a7 C4D0D5E2 		.ascii	"\304\320\325\342\315\322\215\322\245\322\345\013\025"
  63      CDD28DD2 
  63      A5D2E50B 
  63      15
  64 01b4 F2EE966F 		.ascii	"\362\356\226oO\373\235S\325ru\254rm\254:\365\017\033"
  64      4FFB9D53 
  64      D57275AC 
  64      726DAC3A 
  64      F50F1B
  65 01c7 7CB5BC   		.ascii	"|\265\274"
  66              		.text
  67              		.section	.gnu.lto_V_T_1_2_SetDriveMode.807d5a1e,"",%progbits
  68 0000 789C7D51 		.ascii	"x\234}QM+DQ\030>\3179w\356\275\223\360\003\314\202R"
  68      4D2B4451 
  68      183ECF39 
  68      77EEBD93 
  68      F003CC82 
  69 0015 D8C8477E 		.ascii	"\330\310G~\201b+#+\232\304]2\021kgfL\212\215\222\261"
  69      81622B23 
  69      2B9AC45D 
  69      32116B67 
  69      664C8A8D 
  70 002b 90D84CBE 		.ascii	"\220\330L\276\206!+Vc\212%;\013E\262\230\244h|\345s"
  70      86212B56 
  70      638A253B 
  70      0B45B298 
  70      A4687CE5 
  71 0040 8CF7BDD7 		.ascii	"\214\367\275\327bVN\347\274_=\317\323\373\276\307\020"
  71      62564EE7 
  71      BC5F3DCF 
  71      D3FBBEC7 
  71      10
  72 0051 107C72E4 		.ascii	"\020|r\344\352\311W\321\203\022\220s\247BDl\011p\240"
  72      EAC957D1 
  72      83129073 
  72      A742446C 
  72      0970A0
  73 0064 6D884989 		.ascii	"m\210I\211I\274\312\202Dv:w \033\3264\235\353\343\207"
  73      49BCCA82 
  73      44763A77 
  73      201BD634 
  73      9DEBE387 
  74 0078 26BD9E41 		.ascii	"&\275\236A\\\011Q\224\256\222\300\032\032\010\365\274"
  74      5C095194 
  74      AE92C01A 
  74      1A08F5BC 
  75 0088 9F9C2F53 		.ascii	"\237\234/S\265\020\024?\236\346\257*\352\222ZG\265\236"
ARM GAS  C:\Users\JEFFSN~1\AppData\Local\Temp\cc2coS0E.s 			page 5


  75      B510143F 
  75      9EE6AF2A 
  75      EA925A47 
  75      B59E
  76 009a EFD72AAE 		.ascii	"\357\327*\256\200u(b\2405\200\246\200\240\202\300\006"
  76      80752862 
  76      A03580A6 
  76      80A082C0 
  76      06
  77 00ab EA187CB3 		.ascii	"\352\030|\263\367\263PnN\261|\265'\212M\230\334f\272"
  77      F7B3506E 
  77      4EB17CB5 
  77      278A4D98 
  77      DC66BA
  78 00be 3BA38BC5 		.ascii	";\243\213\305\230\316\274\231G\237f\231$\232Td\224\301"
  78      98CEBC99 
  78      479F6699 
  78      249A5464 
  78      94C1
  79 00d0 C6075630 		.ascii	"\306\007V09\264\330\330l\374\214\021\"O\217\007y\224"
  79      39B4D8D8 
  79      6CFC8C11 
  79      224F8F07 
  79      7994
  80 00e2 92BDCA21 		.ascii	"\222\275\312!\3739\223[2X9\246x\250D<{f\275\310\270"
  80      FB39935B 
  80      325839A6 
  80      78A8443C 
  80      7B66BDC8 
  81 00f7 32DC8E3F 		.ascii	"2\334\216?\026\027\013\225^\252W#\332\240\322\345\355"
  81      16170B95 
  81      5EAA5723 
  81      DAA0D2E5 
  81      ED
  82 0108 A1BD82E5 		.ascii	"\241\275\202\345\310\024M\353C\012\001l!@\315mc\005"
  82      C8144DEB 
  82      430A016C 
  82      2140CD6D 
  82      6305
  83 011a B4BFE893 		.ascii	"\264\277\350\223\345\251)\022\244<\366mz\271A%\242_"
  83      E5A92912 
  83      A43CF66D 
  83      7AB94125 
  83      A25F
  84 012c 9CCC16FC 		.ascii	"\234\314\026\374\254\2500\212\035b\226P\350\372J)\026"
  84      ACA8308A 
  84      1D629650 
  84      E8FA4A29 
  84      16
  85 013d 9588727F 		.ascii	"\225\210r\177\276\225R\036\245\002i\227\022{\377\203"
  85      BE95521E 
  85      A5026997 
  85      127BFF83 
  86 014d D8AEB055 		.ascii	"\330\256\260U\252\342\247*\345\331\0048\377\247\343"
  86      AAE2A72A 
  86      E5D90438 
  86      FFA7E3
ARM GAS  C:\Users\JEFFSN~1\AppData\Local\Temp\cc2coS0E.s 			page 6


  87 015c 5DEA98E0 		.ascii	"]\352\230\340\342\016\321\314W\007\203\335\217\313K"
  87      E20ED1CC 
  87      570783DD 
  87      8FCB4B
  88 016b F0726855 		.ascii	"\360rhU5\235\316\210360\356\014\205\202\341\211\261"
  88      359DCE88 
  88      333630EE 
  88      0C8582E1 
  88      89B1
  89 017d 41A7AF2B 		.ascii	"A\247\257+\030no\353\353\015\365\204\232C-\215\203\302"
  89      186E6FEB 
  89      EB0DF584 
  89      9A432D8D 
  89      83C2
  90 018f 180E0F39 		.ascii	"\030\016\0179\277cO\244\311"
  90      BF634FA4 
  90      C9
  91              		.text
  92              		.section	.gnu.lto_V_T_1_2_Read.807d5a1e,"",%progbits
  93 0000 789C6361 		.ascii	"x\234ca`d\000\001f \245\014\244\245\201\230\221\231"
  93      60640001 
  93      6620A50C 
  93      A4A58198 
  93      9199
  94 0012 819169C2 		.ascii	"\201\221i\3029\006\206F\016&FF\020\243\201\203\221\241"
  94      39068646 
  94      0E264646 
  94      10A38183 
  94      91A1
  95 0024 9E89B19E 		.ascii	"\236\211\261\236\361+\323_&\306\323\337O\364pi.ohhj"
  95      F12BD35F 
  95      26C6D3DF 
  95      4FF47069 
  95      2E6F6868 
  96 0039 78B0F497 		.ascii	"x\260\364\227\305\364\025\007\030[\231\031\030\3763"
  96      C5F41507 
  96      185B9919 
  96      18FE33
  97 0048 31301ACB 		.ascii	"10\032\3130\032\310\200\214X\316\250\311\000T\372h\343"
  97      301AC880 
  97      8C58CEA8 
  97      C90054FA 
  97      68E3
  98 005a BFA9BC6C 		.ascii	"\277\251\274l-\015@\240\000R\000\224Y\301\310\006\262"
  98      2D0D40A0 
  98      00520094 
  98      59C1C806 
  98      B2
  99 006b 727DD081 		.ascii	"r}\320\201\206\377\377\233\033\016\\e?x\203\235\205"
  99      86FFFF9B 
  99      1B0E5C65 
  99      3F78839D 
  99      85
 100 007c 89A19519 		.ascii	"\211\241\225\031h/\310\034\206\017@u [?21\201h\346g"
 100      682FC81C 
 100      860F4075 
 100      205B3F32 
ARM GAS  C:\Users\JEFFSN~1\AppData\Local\Temp\cc2coS0E.s 			page 7


 100      318168E6 
 101 0091 8C877E75 		.ascii	"\214\207~u\335\233g\005\322\332\314\014r\301\264\326"
 101      DD9B6705 
 101      D2DACC0C 
 101      72C1B4D6 
 102 00a1 43E7D9BF 		.ascii	"C\347\331\2770\265231\202lY}\244\265\205\025\302m\\"
 102      30B53233 
 102      31826C59 
 102      7DA4B585 
 102      15C26D5C 
 103 00b5 D4D8C002 		.ascii	"\324\330\300\002\024\332\376c\303~\306\371\214s\033"
 103      14DAFE63 
 103      C37EC6F9 
 103      8C731B
 104 00c4 5B806E63 		.ascii	"[\200ncf\\\305(\303\270\222\021\3502\306\325@Q\206g"
 104      665CC528 
 104      C3B89211 
 104      E832C6D5 
 104      40518667 
 105 00d8 8CCD7FDA 		.ascii	"\214\315\177\332\2360B\014d\206\230\271\265\375\314"
 105      9E30420C 
 105      648698B9 
 105      B5FDCC
 106 00e7 462E9021 		.ascii	"F.\220!\014\214\214\214k\200j_12A\0250\200\035\305\010"
 106      0C8C8C8C 
 106      6B806A5F 
 106      31324115 
 106      30801DC5 
 107 00fc 720CD069 		.ascii	"r\014\320i\212\356\251y\251E\211%\251)\361\301\371\245"
 107      8AEEA979 
 107      A9458925 
 107      A929F1C1 
 107      F9A5
 108 010e 45C9A931 		.ascii	"E\311\2511\001\301\371\316\2461a\361!\361\206\361Fz"
 108      01C1F9CE 
 108      A63161F1 
 108      21F186F1 
 108      467A
 109 0120 C90C007D 		.ascii	"\311\014\000}Jc["
 109      4A635B
 110              		.text
 111              		.section	.gnu.lto_V_T_1_2_ReadDataReg.807d5a1e,"",%progbits
 112 0000 789C2D8E 		.ascii	"x\234-\216;K\003A\024\205\357\231YcX\310/p\013\305*"
 112      3B4B0341 
 112      1485EF99 
 112      596358C8 
 112      2F700BC5 
 113 0015 8DF8C042 		.ascii	"\215\370\300B[\013[1b\025X$nk h\235Y7\253 \2026j%\021"
 113      5B0B5B31 
 113      62155824 
 113      6E6B2068 
 113      9D5937AB 
 114 002f 4192A820 		.ascii	"A\222\250 )lD!\246\022\024\343O\020\221\024V\012\212"
 114      296C4421 
 114      A61214E3 
 114      4F109114 
 114      560A8A
ARM GAS  C:\Users\JEFFSN~1\AppData\Local\Temp\cc2coS0E.s 			page 8


 115 0042 4434EBBD 		.ascii	"D4\353\275\256\027\2063\2173\347|\026\201d4\313 k\037"
 115      AE178633 
 115      8F33E77C 
 115      16816434 
 115      CB206B1F 
 116 0056 2F6882DA 		.ascii	"/h\202\332\276'\362\223\012\220\215I\202\212\012E|\250"
 116      BE27F293 
 116      0A908D49 
 116      828A0A45 
 116      7CA8
 117 0068 1F85DBCF 		.ascii	"\037\205\333\317\233M;]1f\325<\036U&\366\252\015\204"
 117      9B4D3B5D 
 117      3166D53C 
 117      1E5526F6 
 117      AA0D84
 118 007b 9A285284 		.ascii	"\232(R\2041\007\303\216DT\220&\266>\325\273;\251D\311"
 118      3107C38E 
 118      44549026 
 118      B63ED5BB 
 118      3BA944C9 
 119 008f F0F48B81 		.ascii	"\360\364\213\201_\252HH\345\331l\303DQ`\032W\366\365"
 119      5FAA4848 
 119      E5D96CC3 
 119      4451601A 
 119      57F6F5
 120 00a2 836D290A 		.ascii	"\203m)\0125\367J\016\275\262OZ\337\224\022\325m4\277"
 120      35F74A0E 
 120      BDB24F5A 
 120      DF9412D5 
 120      6D34BF
 121 00b5 36BAB549 		.ascii	"6\272\265I\371\032h!\330\015\233\255\336w\025j\005i"
 121      F91A6821 
 121      D80D9BAD 
 121      DE77156A 
 121      0569
 122 00c7 31075B9D 		.ascii	"1\007[\235\236\370h\016}c\361U\247uq\231*c\337/1\233"
 122      9EF8680E 
 122      7D63F155 
 122      A7757199 
 122      2A63DF2F 
 123 00dd C6311CD4 		.ascii	"\3061\034\324\300d8A\031\324F\360\275\366\2148P\307"
 123      C0643841 
 123      19D446F0 
 123      BDF68C38 
 123      50C7
 124 00ef 99E7EB77 		.ascii	"\231\347\353wu[B\010\300){_\240\376\015\364\007\005"
 124      755B4208 
 124      C0297B5F 
 124      A0FE0DF4 
 124      0705
 125 0101 8161B481 		.ascii	"\201a\264\201io\311+,,{\213n&\277R\310y\331\231L~j<"
 125      696FC92B 
 125      2C2C7B8B 
 125      6E26BF52 
 125      C879D999 
 126 0119 3BEFCEB9 		.ascii	";\357\316\271#\356\350P\216~\001Z\353cu"
 126      23EEE850 
ARM GAS  C:\Users\JEFFSN~1\AppData\Local\Temp\cc2coS0E.s 			page 9


 126      8E7E015A 
 126      EB6375
 127              		.text
 128              		.section	.gnu.lto_.symbol_nodes.807d5a1e,"",%progbits
 129 0000 789C6361 		.ascii	"x\234ca`dpc\000\002&\206z\006\206\011\347\030@\324\256"
 129      60647063 
 129      00022686 
 129      7A068609 
 129      E71840D4 
 130 0015 0645A000 		.ascii	"\006E\240\000c=#\252\000S=\023\252\000s=3\212\000\003"
 130      633D23AA 
 130      00533D13 
 130      AA00733D 
 130      338A0003 
 131 0029 0026B60F 		.ascii	"\000&\266\017<"
 131      3C
 132              		.text
 133              		.section	.gnu.lto_.refs.807d5a1e,"",%progbits
 134 0000 789C6361 		.ascii	"x\234ca`\004B \000\000\0009\000\007"
 134      60044220 
 134      00000039 
 134      0007
 135              		.text
 136              		.section	.gnu.lto_.decls.807d5a1e,"",%progbits
 137 0000 789C8D53 		.ascii	"x\234\215S]H\024Q\024\276gf\\\227I\315L\302`\037\314"
 137      5D481451 
 137      14BE6766 
 137      5C9749CD 
 137      4CC2601F 
 138 0015 279F962C 		.ascii	"'\237\226,\002\037\302\002%\237\212P\263\027aY\327\301"
 138      021FC202 
 138      259F8A50 
 138      B3176159 
 138      D7C1
 139 0027 7CD1D8D6 		.ascii	"|\321\330\326\310\267\253\273Be\260Jhi\212&T\376\345"
 139      C8B7ABBB 
 139      4265B04A 
 139      68698A26 
 139      54FEE5
 140 003a AEBADAEE 		.ascii	"\256\272\332\356\346_B&\201\240\010B(dh\201d\240$\224"
 140      E65F4226 
 140      81A00842 
 140      28646881 
 140      64A02494 
 141 004e 0FB69D7B 		.ascii	"\017\266\235{g\246Yl\245\016sf\316\271\367|\337\371"
 141      67A6596C 
 141      A50E7366 
 141      CEB9F77C 
 141      DFF9
 142 0060 EE991989 		.ascii	"\356\231\031\211\000a\226#\021\322\201\317dL#hq\030"
 142      00619623 
 142      11D281CF 
 142      644C2368 
 142      7118
 143 0072 1713C370 		.ascii	"\027\023\303p\233\214\240\217\242\007\321\303\344oc"
 143      9B8CA08F 
 143      A207D1C3 
ARM GAS  C:\Users\JEFFSN~1\AppData\Local\Temp\cc2coS0E.s 			page 10


 143      E46F63
 144 0081 FB3A6E10 		.ascii	"\373:n\020\335\202>\205>\241\355\203Vs\320\030\247\351"
 144      DD823E85 
 144      3EA1ED83 
 144      5673D018 
 144      A7E9
 145 0093 006E2606 		.ascii	"\000n&\006v4\0066\250i;\254_0\006&\374\017L\254\263"
 145      76340636 
 145      A8693BAC 
 145      5F300626 
 145      FC0F4CAC 
 146 00a8 ED0B10E9 		.ascii	"\355\013\020\351\014x\315+\360\001D\242\015\215\000"
 146      0C78CD2B 
 146      F00144A2 
 146      0D8D00
 147 00b7 A877E04E 		.ascii	"\250w\340NT\347)\006\002Q\003}\351\217\021\255D\320"
 147      54E72906 
 147      0251037D 
 147      E98F11AD 
 147      44D0
 148 00c9 43838C5F 		.ascii	"C\203\214_\032\036\"\272q\022\203\0354\220\232\353\272"
 148      1A1E22BA 
 148      7112831D 
 148      34909AEB 
 148      BA
 149 00da 35100846 		.ascii	"5\020\010F\003PS\035\021\305w@\221\256YoC\004\375\320"
 149      0350531D 
 149      11C57740 
 149      91AE596F 
 149      4304FDD0 
 150 00ee BE8D800F 		.ascii	"\276\215\200\017D\001X\374q\257\347\222u\200\2425R*"
 150      440158FC 
 150      71AFE792 
 150      7580A235 
 150      522A
 151 0100 641A93F1 		.ascii	"d\032\223\361\325o\364\232w\005\260\310\020\001\226"
 151      D56FF49A 
 151      7705B0C8 
 151      100196
 152 010f 6F85F612 		.ascii	"o\205\366\022\325\234m\2676\255\377:\"\236d\261\260"
 152      D59C6DB7 
 152      36ADFF3A 
 152      229E64B1 
 152      B0
 153 0120 B4DEBF29 		.ascii	"\264\336\277)A\246\374\234\321\254E\3749!J\223a\020"
 153      41A6FC9C 
 153      D1AC45FC 
 153      39214A93 
 153      6110
 154 0132 64180011 		.ascii	"d\030\000\021z\301\3124Xd\274\337\245\264\216nwSS\032"
 154      7AC1CA34 
 154      5864BCDF 
 154      A5B48E6E 
 154      7753531A 
 155 0146 81B31638 		.ascii	"\201\263\0268m!\360\0222\031'\253\202~\260@\037X\030"
 155      6D21F012 
 155      321927AB 
ARM GAS  C:\Users\JEFFSN~1\AppData\Local\Temp\cc2coS0E.s 			page 11


 155      827EB040 
 155      1F5818
 156 0159 FFE7479D 		.ascii	"\377\347G\235_M\022J\346<\245\022[[\364\370\333E\224"
 156      5F4D124A 
 156      E63CA512 
 156      5B5BF4F8 
 156      DB4594
 157 016c 90228384 		.ascii	"\220\"\203\204\351\316|\333z\022\246\2512\244c:\020"
 157      E9CE7CDB 
 157      7A12A6A9 
 157      32A4633A 
 157      10
 158 017d 5EDD32A5 		.ascii	"^\3352\245\265\360\243\270i\272\004\305'`\010\011\375"
 158      B5F0A3B8 
 158      69BA04C5 
 158      27600809 
 158      FD
 159 018e 48486018 		.ascii	"HH`\030\322\360\356\003I=\335\372\227\035\2579\243\213"
 159      D2F0EE03 
 159      493DDDFA 
 159      971DAF39 
 159      A38B
 160 01a0 76F9E9DA 		.ascii	"v\371\351\332\303\331\363-n:\207\270tV\006=\206\350"
 160      C3D9F32D 
 160      6E3A87B8 
 160      7456063D 
 160      86E8
 161 01b2 1EF65D10 		.ascii	"\036\366]\020x\001+8\303\021\310@d\243\327\273\225("
 161      78012B38 
 161      C311C840 
 161      64A3D7BB 
 161      9528
 162 01c4 3AF81036 		.ascii	":\370\0206'\037\314\313*\313\364\356l\002m\254\245\364"
 162      271FCCCB 
 162      2ACBF4EE 
 162      6C026DAC 
 162      A5F4
 163 01d6 22E70818 		.ascii	"\"\347\010\030\034\201h\216Q\316\321\327\321\370L\026"
 163      1C81688E 
 163      51CED1D7 
 163      D1F84C16 
 164 01e6 EF708E85 		.ascii	"\357p\216\205\206\267\356\243\321\262\331y\015\335\257"
 164      86B7EEA3 
 164      D1B2D979 
 164      0DDDAF
 165 01f5 B8EE524D 		.ascii	"\270\356RMv\355\352\217!Ak\270\364Nl\245\323\036\304"
 165      76EDEA8F 
 165      21416BB8 
 165      F44E6CA5 
 165      D31EC4
 166 0208 09AC0AC6 		.ascii	"\011\254\012\306\214\226c\321-\203\274e\367p\3031\261"
 166      8C9663D1 
 166      2D83BC65 
 166      F770C331 
 166      B1
 167 0219 1E78CB8E 		.ascii	"\036x\313\216&\317'\235%\374^\227\3158B\006G(\232#\314"
 167      26CF279D 
ARM GAS  C:\Users\JEFFSN~1\AppData\Local\Temp\cc2coS0E.s 			page 12


 167      25FC5E97 
 167      CD384206 
 167      47289A23 
 168 022e 39763DDF 		.ascii	"9v=\337\227M2\276C\367\377\275\303\371\315\247\221x"
 168      974D32BE 
 168      43F7FFBD 
 168      C3F9CDA7 
 168      9178
 169 0240 B1953715 		.ascii	"\261\2257\025F\232[\233\343A\316\214\001\237\214\001"
 169      469A5B9B 
 169      E341CE8C 
 169      019F8C01 
 170 0250 D7BEA59F 		.ascii	"\327\276\245\237EM\367\330\001'p(\343\206\270\327 \253"
 170      454DF7D8 
 170      01277028 
 170      E386B8D7 
 170      20AB
 171 0262 03092C7C 		.ascii	"\003\011,|\363\305%\334g\237\025N/e.\211W\032\343\233"
 171      F3C525DC 
 171      679F154E 
 171      2F652E89 
 171      571AE39B 
 172 0276 8204FE07 		.ascii	"\202\004\376\007\340s_\020\307\227\237\264\213\270\307"
 172      E0735F10 
 172      C7979FB4 
 172      8BB8C7
 173 0285 2EB98DA2 		.ascii	".\271\215\242\024\272\0100\203d<\331\276\300c\266L\267"
 173      14BA0830 
 173      83643CD9 
 173      BEC063B6 
 173      4CB7
 174 0297 EBA8E971 		.ascii	"\353\250\351q\222.\221\360\015\002\323\210|\203\304"
 174      922E91F0 
 174      0D02D388 
 174      7C83C4
 175 02a6 3C4D2CB6 		.ascii	"<M,\266\025\331\262lgl\327\235\025.\305\234\177\345"
 175      15D9B26C 
 175      676CD79D 
 175      152EC59C 
 175      7FE5
 176 02b8 5A7A6E56 		.ascii	"ZznV\026\211\253\256\250te\237\312W*\025\247\335\245"
 176      1689ABAE 
 176      A874659F 
 176      CA572A15 
 176      A7DDA5
 177 02cb 94D90AAB 		.ascii	"\224\331\012\253\252\235\016\245\344jaU\356\271\022"
 177      AA9D0EA5 
 177      E46A6155 
 177      EEB912
 178 02da 478DABE6 		.ascii	"G\215\253\346\246r\313z\203\034V\241\261Z\035$UoP\250"
 178      A672CB7A 
 178      831C56A1 
 178      B15A1D24 
 178      556F50A8 
 179 02ee B8F29C15 		.ascii	"\270\362\234\025\267\225\313UeJ\202\276X\240\330\313"
 179      B795CB55 
 179      654A82BE 
ARM GAS  C:\Users\JEFFSN~1\AppData\Local\Temp\cc2coS0E.s 			page 13


 179      58A0D8CB 
 180 02fe 8E472779 		.ascii	"\216G'yv\227\275@)\227\234Jy\366o:{`\243"
 180      7697BD40 
 180      29979C4A 
 180      79F66F3A 
 180      7B60A3
 181              		.text
 182              		.section	.gnu.lto_.symtab.807d5a1e,"",%progbits
 183 0000 565F545F 		.ascii	"V_T_1_2_Write\000"
 183      315F325F 
 183      57726974 
 183      6500
 184 000e 00       		.ascii	"\000"
 185 000f 00       		.ascii	"\000"
 186 0010 00       		.ascii	"\000"
 187 0011 00000000 		.ascii	"\000\000\000\000\000\000\000\000"
 187      00000000 
 188 0019 B3000000 		.ascii	"\263\000\000\000"
 189 001d 565F545F 		.ascii	"V_T_1_2_SetDriveMode\000"
 189      315F325F 
 189      53657444 
 189      72697665 
 189      4D6F6465 
 190 0032 00       		.ascii	"\000"
 191 0033 00       		.ascii	"\000"
 192 0034 00       		.ascii	"\000"
 193 0035 00000000 		.ascii	"\000\000\000\000\000\000\000\000"
 193      00000000 
 194 003d B5000000 		.ascii	"\265\000\000\000"
 195 0041 565F545F 		.ascii	"V_T_1_2_Read\000"
 195      315F325F 
 195      52656164 
 195      00
 196 004e 00       		.ascii	"\000"
 197 004f 00       		.ascii	"\000"
 198 0050 00       		.ascii	"\000"
 199 0051 00000000 		.ascii	"\000\000\000\000\000\000\000\000"
 199      00000000 
 200 0059 B8000000 		.ascii	"\270\000\000\000"
 201 005d 565F545F 		.ascii	"V_T_1_2_ReadDataReg\000"
 201      315F325F 
 201      52656164 
 201      44617461 
 201      52656700 
 202 0071 00       		.ascii	"\000"
 203 0072 00       		.ascii	"\000"
 204 0073 00       		.ascii	"\000"
 205 0074 00000000 		.ascii	"\000\000\000\000\000\000\000\000"
 205      00000000 
 206 007c BA000000 		.ascii	"\272\000\000\000"
 207              		.text
 208              		.section	.gnu.lto_.opts,"",%progbits
 209 0000 272D666D 		.ascii	"'-fmath-errno' '-fsigned-zeros' '-ftrapping-math' '"
 209      6174682D 
 209      6572726E 
 209      6F272027 
 209      2D667369 
ARM GAS  C:\Users\JEFFSN~1\AppData\Local\Temp\cc2coS0E.s 			page 14


 210 0033 2D666E6F 		.ascii	"-fno-trapv' '-fno-openmp' '-fno-openacc' '-mcpu=cor"
 210      2D747261 
 210      70762720 
 210      272D666E 
 210      6F2D6F70 
 211 0066 7465782D 		.ascii	"tex-m3' '-mthumb' '-g' '-O3' '-ffunction-sections' "
 211      6D332720 
 211      272D6D74 
 211      68756D62 
 211      2720272D 
 212 0099 272D6666 		.ascii	"'-ffat-lto-objects' '-finline-functions' '-flto'\000"
 212      61742D6C 
 212      746F2D6F 
 212      626A6563 
 212      74732720 
 213              		.text
 214              		.cfi_sections	.debug_frame
 215              		.section	.text.V_T_1_2_Write,"ax",%progbits
 216              		.align	2
 217              		.global	V_T_1_2_Write
 218              		.thumb
 219              		.thumb_func
 220              		.type	V_T_1_2_Write, %function
 221              	V_T_1_2_Write:
 222              	.LFB0:
 223              		.file 1 "Generated_Source\\PSoC5\\V_T_1_2.c"
   1:Generated_Source\PSoC5/V_T_1_2.c **** /*******************************************************************************
   2:Generated_Source\PSoC5/V_T_1_2.c **** * File Name: V_T_1_2.c  
   3:Generated_Source\PSoC5/V_T_1_2.c **** * Version 2.20
   4:Generated_Source\PSoC5/V_T_1_2.c **** *
   5:Generated_Source\PSoC5/V_T_1_2.c **** * Description:
   6:Generated_Source\PSoC5/V_T_1_2.c **** *  This file contains API to enable firmware control of a Pins component.
   7:Generated_Source\PSoC5/V_T_1_2.c **** *
   8:Generated_Source\PSoC5/V_T_1_2.c **** * Note:
   9:Generated_Source\PSoC5/V_T_1_2.c **** *
  10:Generated_Source\PSoC5/V_T_1_2.c **** ********************************************************************************
  11:Generated_Source\PSoC5/V_T_1_2.c **** * Copyright 2008-2015, Cypress Semiconductor Corporation.  All rights reserved.
  12:Generated_Source\PSoC5/V_T_1_2.c **** * You may use this file only in accordance with the license, terms, conditions, 
  13:Generated_Source\PSoC5/V_T_1_2.c **** * disclaimers, and limitations in the end user license agreement accompanying 
  14:Generated_Source\PSoC5/V_T_1_2.c **** * the software package with which this file was provided.
  15:Generated_Source\PSoC5/V_T_1_2.c **** *******************************************************************************/
  16:Generated_Source\PSoC5/V_T_1_2.c **** 
  17:Generated_Source\PSoC5/V_T_1_2.c **** #include "cytypes.h"
  18:Generated_Source\PSoC5/V_T_1_2.c **** #include "V_T_1_2.h"
  19:Generated_Source\PSoC5/V_T_1_2.c **** 
  20:Generated_Source\PSoC5/V_T_1_2.c **** /* APIs are not generated for P15[7:6] on PSoC 5 */
  21:Generated_Source\PSoC5/V_T_1_2.c **** #if !(CY_PSOC5A &&\
  22:Generated_Source\PSoC5/V_T_1_2.c **** 	 V_T_1_2__PORT == 15 && ((V_T_1_2__MASK & 0xC0) != 0))
  23:Generated_Source\PSoC5/V_T_1_2.c **** 
  24:Generated_Source\PSoC5/V_T_1_2.c **** 
  25:Generated_Source\PSoC5/V_T_1_2.c **** /*******************************************************************************
  26:Generated_Source\PSoC5/V_T_1_2.c **** * Function Name: V_T_1_2_Write
  27:Generated_Source\PSoC5/V_T_1_2.c **** ****************************************************************************//**
  28:Generated_Source\PSoC5/V_T_1_2.c **** *
  29:Generated_Source\PSoC5/V_T_1_2.c **** * \brief Writes the value to the physical port (data output register), masking
  30:Generated_Source\PSoC5/V_T_1_2.c **** *  and shifting the bits appropriately. 
  31:Generated_Source\PSoC5/V_T_1_2.c **** *
ARM GAS  C:\Users\JEFFSN~1\AppData\Local\Temp\cc2coS0E.s 			page 15


  32:Generated_Source\PSoC5/V_T_1_2.c **** * The data output register controls the signal applied to the physical pin in 
  33:Generated_Source\PSoC5/V_T_1_2.c **** * conjunction with the drive mode parameter. This function avoids changing 
  34:Generated_Source\PSoC5/V_T_1_2.c **** * other bits in the port by using the appropriate method (read-modify-write or
  35:Generated_Source\PSoC5/V_T_1_2.c **** * bit banding).
  36:Generated_Source\PSoC5/V_T_1_2.c **** *
  37:Generated_Source\PSoC5/V_T_1_2.c **** * <b>Note</b> This function should not be used on a hardware digital output pin 
  38:Generated_Source\PSoC5/V_T_1_2.c **** * as it is driven by the hardware signal attached to it.
  39:Generated_Source\PSoC5/V_T_1_2.c **** *
  40:Generated_Source\PSoC5/V_T_1_2.c **** * \param value
  41:Generated_Source\PSoC5/V_T_1_2.c **** *  Value to write to the component instance.
  42:Generated_Source\PSoC5/V_T_1_2.c **** *
  43:Generated_Source\PSoC5/V_T_1_2.c **** * \return 
  44:Generated_Source\PSoC5/V_T_1_2.c **** *  None 
  45:Generated_Source\PSoC5/V_T_1_2.c **** *
  46:Generated_Source\PSoC5/V_T_1_2.c **** * \sideeffect
  47:Generated_Source\PSoC5/V_T_1_2.c **** *  If you use read-modify-write operations that are not atomic; the Interrupt 
  48:Generated_Source\PSoC5/V_T_1_2.c **** *  Service Routines (ISR) can cause corruption of this function. An ISR that 
  49:Generated_Source\PSoC5/V_T_1_2.c **** *  interrupts this function and performs writes to the Pins component data 
  50:Generated_Source\PSoC5/V_T_1_2.c **** *  register can cause corrupted port data. To avoid this issue, you should 
  51:Generated_Source\PSoC5/V_T_1_2.c **** *  either use the Per-Pin APIs (primary method) or disable interrupts around 
  52:Generated_Source\PSoC5/V_T_1_2.c **** *  this function.
  53:Generated_Source\PSoC5/V_T_1_2.c **** *
  54:Generated_Source\PSoC5/V_T_1_2.c **** * \funcusage
  55:Generated_Source\PSoC5/V_T_1_2.c **** *  \snippet V_T_1_2_SUT.c usage_V_T_1_2_Write
  56:Generated_Source\PSoC5/V_T_1_2.c **** *******************************************************************************/
  57:Generated_Source\PSoC5/V_T_1_2.c **** void V_T_1_2_Write(uint8 value)
  58:Generated_Source\PSoC5/V_T_1_2.c **** {
 224              		.loc 1 58 0
 225              		.cfi_startproc
 226              		@ args = 0, pretend = 0, frame = 0
 227              		@ frame_needed = 0, uses_anonymous_args = 0
 228              		@ link register save eliminated.
 229              	.LVL0:
  59:Generated_Source\PSoC5/V_T_1_2.c ****     uint8 staticBits = (V_T_1_2_DR & (uint8)(~V_T_1_2_MASK));
 230              		.loc 1 59 0
 231 0000 044A     		ldr	r2, .L2
  60:Generated_Source\PSoC5/V_T_1_2.c ****     V_T_1_2_DR = staticBits | ((uint8)(value << V_T_1_2_SHIFT) & V_T_1_2_MASK);
 232              		.loc 1 60 0
 233 0002 00F00100 		and	r0, r0, #1
 234              	.LVL1:
  59:Generated_Source\PSoC5/V_T_1_2.c ****     uint8 staticBits = (V_T_1_2_DR & (uint8)(~V_T_1_2_MASK));
 235              		.loc 1 59 0
 236 0006 1378     		ldrb	r3, [r2]	@ zero_extendqisi2
 237              	.LVL2:
 238              		.loc 1 60 0
 239 0008 03F0FE03 		and	r3, r3, #254
 240              	.LVL3:
 241 000c 1843     		orrs	r0, r0, r3
 242 000e 1070     		strb	r0, [r2]
 243 0010 7047     		bx	lr
 244              	.L3:
 245 0012 00BF     		.align	2
 246              	.L2:
 247 0014 00510040 		.word	1073762560
 248              		.cfi_endproc
 249              	.LFE0:
 250              		.size	V_T_1_2_Write, .-V_T_1_2_Write
ARM GAS  C:\Users\JEFFSN~1\AppData\Local\Temp\cc2coS0E.s 			page 16


 251              		.section	.text.V_T_1_2_SetDriveMode,"ax",%progbits
 252              		.align	2
 253              		.global	V_T_1_2_SetDriveMode
 254              		.thumb
 255              		.thumb_func
 256              		.type	V_T_1_2_SetDriveMode, %function
 257              	V_T_1_2_SetDriveMode:
 258              	.LFB1:
  61:Generated_Source\PSoC5/V_T_1_2.c **** }
  62:Generated_Source\PSoC5/V_T_1_2.c **** 
  63:Generated_Source\PSoC5/V_T_1_2.c **** 
  64:Generated_Source\PSoC5/V_T_1_2.c **** /*******************************************************************************
  65:Generated_Source\PSoC5/V_T_1_2.c **** * Function Name: V_T_1_2_SetDriveMode
  66:Generated_Source\PSoC5/V_T_1_2.c **** ****************************************************************************//**
  67:Generated_Source\PSoC5/V_T_1_2.c **** *
  68:Generated_Source\PSoC5/V_T_1_2.c **** * \brief Sets the drive mode for each of the Pins component's pins.
  69:Generated_Source\PSoC5/V_T_1_2.c **** * 
  70:Generated_Source\PSoC5/V_T_1_2.c **** * <b>Note</b> This affects all pins in the Pins component instance. Use the
  71:Generated_Source\PSoC5/V_T_1_2.c **** * Per-Pin APIs if you wish to control individual pin's drive modes.
  72:Generated_Source\PSoC5/V_T_1_2.c **** *
  73:Generated_Source\PSoC5/V_T_1_2.c **** * \param mode
  74:Generated_Source\PSoC5/V_T_1_2.c **** *  Mode for the selected signals. Valid options are documented in 
  75:Generated_Source\PSoC5/V_T_1_2.c **** *  \ref driveMode.
  76:Generated_Source\PSoC5/V_T_1_2.c **** *
  77:Generated_Source\PSoC5/V_T_1_2.c **** * \return
  78:Generated_Source\PSoC5/V_T_1_2.c **** *  None
  79:Generated_Source\PSoC5/V_T_1_2.c **** *
  80:Generated_Source\PSoC5/V_T_1_2.c **** * \sideeffect
  81:Generated_Source\PSoC5/V_T_1_2.c **** *  If you use read-modify-write operations that are not atomic, the ISR can
  82:Generated_Source\PSoC5/V_T_1_2.c **** *  cause corruption of this function. An ISR that interrupts this function 
  83:Generated_Source\PSoC5/V_T_1_2.c **** *  and performs writes to the Pins component Drive Mode registers can cause 
  84:Generated_Source\PSoC5/V_T_1_2.c **** *  corrupted port data. To avoid this issue, you should either use the Per-Pin
  85:Generated_Source\PSoC5/V_T_1_2.c **** *  APIs (primary method) or disable interrupts around this function.
  86:Generated_Source\PSoC5/V_T_1_2.c **** *
  87:Generated_Source\PSoC5/V_T_1_2.c **** * \funcusage
  88:Generated_Source\PSoC5/V_T_1_2.c **** *  \snippet V_T_1_2_SUT.c usage_V_T_1_2_SetDriveMode
  89:Generated_Source\PSoC5/V_T_1_2.c **** *******************************************************************************/
  90:Generated_Source\PSoC5/V_T_1_2.c **** void V_T_1_2_SetDriveMode(uint8 mode)
  91:Generated_Source\PSoC5/V_T_1_2.c **** {
 259              		.loc 1 91 0
 260              		.cfi_startproc
 261              		@ args = 0, pretend = 0, frame = 0
 262              		@ frame_needed = 0, uses_anonymous_args = 0
 263              		@ link register save eliminated.
 264              	.LVL4:
  92:Generated_Source\PSoC5/V_T_1_2.c **** 	CyPins_SetPinDriveMode(V_T_1_2_0, mode);
 265              		.loc 1 92 0
 266 0000 044A     		ldr	r2, .L5
 267 0002 00F00E00 		and	r0, r0, #14
 268              	.LVL5:
 269 0006 1378     		ldrb	r3, [r2]	@ zero_extendqisi2
 270 0008 03F0F103 		and	r3, r3, #241
 271 000c 1843     		orrs	r0, r0, r3
 272 000e 1070     		strb	r0, [r2]
 273 0010 7047     		bx	lr
 274              	.L6:
 275 0012 00BF     		.align	2
ARM GAS  C:\Users\JEFFSN~1\AppData\Local\Temp\cc2coS0E.s 			page 17


 276              	.L5:
 277 0014 00500040 		.word	1073762304
 278              		.cfi_endproc
 279              	.LFE1:
 280              		.size	V_T_1_2_SetDriveMode, .-V_T_1_2_SetDriveMode
 281              		.section	.text.V_T_1_2_Read,"ax",%progbits
 282              		.align	2
 283              		.global	V_T_1_2_Read
 284              		.thumb
 285              		.thumb_func
 286              		.type	V_T_1_2_Read, %function
 287              	V_T_1_2_Read:
 288              	.LFB2:
  93:Generated_Source\PSoC5/V_T_1_2.c **** }
  94:Generated_Source\PSoC5/V_T_1_2.c **** 
  95:Generated_Source\PSoC5/V_T_1_2.c **** 
  96:Generated_Source\PSoC5/V_T_1_2.c **** /*******************************************************************************
  97:Generated_Source\PSoC5/V_T_1_2.c **** * Function Name: V_T_1_2_Read
  98:Generated_Source\PSoC5/V_T_1_2.c **** ****************************************************************************//**
  99:Generated_Source\PSoC5/V_T_1_2.c **** *
 100:Generated_Source\PSoC5/V_T_1_2.c **** * \brief Reads the associated physical port (pin status register) and masks 
 101:Generated_Source\PSoC5/V_T_1_2.c **** *  the required bits according to the width and bit position of the component
 102:Generated_Source\PSoC5/V_T_1_2.c **** *  instance. 
 103:Generated_Source\PSoC5/V_T_1_2.c **** *
 104:Generated_Source\PSoC5/V_T_1_2.c **** * The pin's status register returns the current logic level present on the 
 105:Generated_Source\PSoC5/V_T_1_2.c **** * physical pin.
 106:Generated_Source\PSoC5/V_T_1_2.c **** *
 107:Generated_Source\PSoC5/V_T_1_2.c **** * \return 
 108:Generated_Source\PSoC5/V_T_1_2.c **** *  The current value for the pins in the component as a right justified number.
 109:Generated_Source\PSoC5/V_T_1_2.c **** *
 110:Generated_Source\PSoC5/V_T_1_2.c **** * \funcusage
 111:Generated_Source\PSoC5/V_T_1_2.c **** *  \snippet V_T_1_2_SUT.c usage_V_T_1_2_Read  
 112:Generated_Source\PSoC5/V_T_1_2.c **** *******************************************************************************/
 113:Generated_Source\PSoC5/V_T_1_2.c **** uint8 V_T_1_2_Read(void)
 114:Generated_Source\PSoC5/V_T_1_2.c **** {
 289              		.loc 1 114 0
 290              		.cfi_startproc
 291              		@ args = 0, pretend = 0, frame = 0
 292              		@ frame_needed = 0, uses_anonymous_args = 0
 293              		@ link register save eliminated.
 115:Generated_Source\PSoC5/V_T_1_2.c ****     return (V_T_1_2_PS & V_T_1_2_MASK) >> V_T_1_2_SHIFT;
 294              		.loc 1 115 0
 295 0000 024B     		ldr	r3, .L8
 296 0002 1878     		ldrb	r0, [r3]	@ zero_extendqisi2
 116:Generated_Source\PSoC5/V_T_1_2.c **** }
 297              		.loc 1 116 0
 298 0004 00F00100 		and	r0, r0, #1
 299 0008 7047     		bx	lr
 300              	.L9:
 301 000a 00BF     		.align	2
 302              	.L8:
 303 000c 01510040 		.word	1073762561
 304              		.cfi_endproc
 305              	.LFE2:
 306              		.size	V_T_1_2_Read, .-V_T_1_2_Read
 307              		.section	.text.V_T_1_2_ReadDataReg,"ax",%progbits
 308              		.align	2
ARM GAS  C:\Users\JEFFSN~1\AppData\Local\Temp\cc2coS0E.s 			page 18


 309              		.global	V_T_1_2_ReadDataReg
 310              		.thumb
 311              		.thumb_func
 312              		.type	V_T_1_2_ReadDataReg, %function
 313              	V_T_1_2_ReadDataReg:
 314              	.LFB3:
 117:Generated_Source\PSoC5/V_T_1_2.c **** 
 118:Generated_Source\PSoC5/V_T_1_2.c **** 
 119:Generated_Source\PSoC5/V_T_1_2.c **** /*******************************************************************************
 120:Generated_Source\PSoC5/V_T_1_2.c **** * Function Name: V_T_1_2_ReadDataReg
 121:Generated_Source\PSoC5/V_T_1_2.c **** ****************************************************************************//**
 122:Generated_Source\PSoC5/V_T_1_2.c **** *
 123:Generated_Source\PSoC5/V_T_1_2.c **** * \brief Reads the associated physical port's data output register and masks 
 124:Generated_Source\PSoC5/V_T_1_2.c **** *  the correct bits according to the width and bit position of the component 
 125:Generated_Source\PSoC5/V_T_1_2.c **** *  instance. 
 126:Generated_Source\PSoC5/V_T_1_2.c **** *
 127:Generated_Source\PSoC5/V_T_1_2.c **** * The data output register controls the signal applied to the physical pin in 
 128:Generated_Source\PSoC5/V_T_1_2.c **** * conjunction with the drive mode parameter. This is not the same as the 
 129:Generated_Source\PSoC5/V_T_1_2.c **** * preferred V_T_1_2_Read() API because the 
 130:Generated_Source\PSoC5/V_T_1_2.c **** * V_T_1_2_ReadDataReg() reads the data register instead of the status 
 131:Generated_Source\PSoC5/V_T_1_2.c **** * register. For output pins this is a useful function to determine the value 
 132:Generated_Source\PSoC5/V_T_1_2.c **** * just written to the pin.
 133:Generated_Source\PSoC5/V_T_1_2.c **** *
 134:Generated_Source\PSoC5/V_T_1_2.c **** * \return 
 135:Generated_Source\PSoC5/V_T_1_2.c **** *  The current value of the data register masked and shifted into a right 
 136:Generated_Source\PSoC5/V_T_1_2.c **** *  justified number for the component instance.
 137:Generated_Source\PSoC5/V_T_1_2.c **** *
 138:Generated_Source\PSoC5/V_T_1_2.c **** * \funcusage
 139:Generated_Source\PSoC5/V_T_1_2.c **** *  \snippet V_T_1_2_SUT.c usage_V_T_1_2_ReadDataReg 
 140:Generated_Source\PSoC5/V_T_1_2.c **** *******************************************************************************/
 141:Generated_Source\PSoC5/V_T_1_2.c **** uint8 V_T_1_2_ReadDataReg(void)
 142:Generated_Source\PSoC5/V_T_1_2.c **** {
 315              		.loc 1 142 0
 316              		.cfi_startproc
 317              		@ args = 0, pretend = 0, frame = 0
 318              		@ frame_needed = 0, uses_anonymous_args = 0
 319              		@ link register save eliminated.
 143:Generated_Source\PSoC5/V_T_1_2.c ****     return (V_T_1_2_DR & V_T_1_2_MASK) >> V_T_1_2_SHIFT;
 320              		.loc 1 143 0
 321 0000 024B     		ldr	r3, .L11
 322 0002 1878     		ldrb	r0, [r3]	@ zero_extendqisi2
 144:Generated_Source\PSoC5/V_T_1_2.c **** }
 323              		.loc 1 144 0
 324 0004 00F00100 		and	r0, r0, #1
 325 0008 7047     		bx	lr
 326              	.L12:
 327 000a 00BF     		.align	2
 328              	.L11:
 329 000c 00510040 		.word	1073762560
 330              		.cfi_endproc
 331              	.LFE3:
 332              		.size	V_T_1_2_ReadDataReg, .-V_T_1_2_ReadDataReg
 333              		.text
 334              	.Letext0:
 335              		.file 2 "Generated_Source\\PSoC5\\cytypes.h"