ARM GAS  C:\Users\JEFFSN~1\AppData\Local\Temp\ccFFCamX.s 			page 1


   1              		.syntax unified
   2              		.cpu cortex-m3
   3              		.fpu softvfp
   4              		.eabi_attribute 20, 1
   5              		.eabi_attribute 21, 1
   6              		.eabi_attribute 23, 3
   7              		.eabi_attribute 24, 1
   8              		.eabi_attribute 25, 1
   9              		.eabi_attribute 26, 1
  10              		.eabi_attribute 30, 6
  11              		.eabi_attribute 34, 1
  12              		.eabi_attribute 18, 4
  13              		.thumb
  14              		.syntax unified
  15              		.file	"vBusPin.c"
  16              		.text
  17              	.Ltext0:
  18              		.cfi_sections	.debug_frame
  19              		.section	.text.vBusPin_Write,"ax",%progbits
  20              		.align	2
  21              		.global	vBusPin_Write
  22              		.thumb
  23              		.thumb_func
  24              		.type	vBusPin_Write, %function
  25              	vBusPin_Write:
  26              	.LFB0:
  27              		.file 1 "Generated_Source\\PSoC5\\vBusPin.c"
   1:Generated_Source\PSoC5/vBusPin.c **** /*******************************************************************************
   2:Generated_Source\PSoC5/vBusPin.c **** * File Name: vBusPin.c  
   3:Generated_Source\PSoC5/vBusPin.c **** * Version 2.20
   4:Generated_Source\PSoC5/vBusPin.c **** *
   5:Generated_Source\PSoC5/vBusPin.c **** * Description:
   6:Generated_Source\PSoC5/vBusPin.c **** *  This file contains API to enable firmware control of a Pins component.
   7:Generated_Source\PSoC5/vBusPin.c **** *
   8:Generated_Source\PSoC5/vBusPin.c **** * Note:
   9:Generated_Source\PSoC5/vBusPin.c **** *
  10:Generated_Source\PSoC5/vBusPin.c **** ********************************************************************************
  11:Generated_Source\PSoC5/vBusPin.c **** * Copyright 2008-2015, Cypress Semiconductor Corporation.  All rights reserved.
  12:Generated_Source\PSoC5/vBusPin.c **** * You may use this file only in accordance with the license, terms, conditions, 
  13:Generated_Source\PSoC5/vBusPin.c **** * disclaimers, and limitations in the end user license agreement accompanying 
  14:Generated_Source\PSoC5/vBusPin.c **** * the software package with which this file was provided.
  15:Generated_Source\PSoC5/vBusPin.c **** *******************************************************************************/
  16:Generated_Source\PSoC5/vBusPin.c **** 
  17:Generated_Source\PSoC5/vBusPin.c **** #include "cytypes.h"
  18:Generated_Source\PSoC5/vBusPin.c **** #include "vBusPin.h"
  19:Generated_Source\PSoC5/vBusPin.c **** 
  20:Generated_Source\PSoC5/vBusPin.c **** /* APIs are not generated for P15[7:6] on PSoC 5 */
  21:Generated_Source\PSoC5/vBusPin.c **** #if !(CY_PSOC5A &&\
  22:Generated_Source\PSoC5/vBusPin.c **** 	 vBusPin__PORT == 15 && ((vBusPin__MASK & 0xC0) != 0))
  23:Generated_Source\PSoC5/vBusPin.c **** 
  24:Generated_Source\PSoC5/vBusPin.c **** 
  25:Generated_Source\PSoC5/vBusPin.c **** /*******************************************************************************
  26:Generated_Source\PSoC5/vBusPin.c **** * Function Name: vBusPin_Write
  27:Generated_Source\PSoC5/vBusPin.c **** ****************************************************************************//**
  28:Generated_Source\PSoC5/vBusPin.c **** *
  29:Generated_Source\PSoC5/vBusPin.c **** * \brief Writes the value to the physical port (data output register), masking
  30:Generated_Source\PSoC5/vBusPin.c **** *  and shifting the bits appropriately. 
ARM GAS  C:\Users\JEFFSN~1\AppData\Local\Temp\ccFFCamX.s 			page 2


  31:Generated_Source\PSoC5/vBusPin.c **** *
  32:Generated_Source\PSoC5/vBusPin.c **** * The data output register controls the signal applied to the physical pin in 
  33:Generated_Source\PSoC5/vBusPin.c **** * conjunction with the drive mode parameter. This function avoids changing 
  34:Generated_Source\PSoC5/vBusPin.c **** * other bits in the port by using the appropriate method (read-modify-write or
  35:Generated_Source\PSoC5/vBusPin.c **** * bit banding).
  36:Generated_Source\PSoC5/vBusPin.c **** *
  37:Generated_Source\PSoC5/vBusPin.c **** * <b>Note</b> This function should not be used on a hardware digital output pin 
  38:Generated_Source\PSoC5/vBusPin.c **** * as it is driven by the hardware signal attached to it.
  39:Generated_Source\PSoC5/vBusPin.c **** *
  40:Generated_Source\PSoC5/vBusPin.c **** * \param value
  41:Generated_Source\PSoC5/vBusPin.c **** *  Value to write to the component instance.
  42:Generated_Source\PSoC5/vBusPin.c **** *
  43:Generated_Source\PSoC5/vBusPin.c **** * \return 
  44:Generated_Source\PSoC5/vBusPin.c **** *  None 
  45:Generated_Source\PSoC5/vBusPin.c **** *
  46:Generated_Source\PSoC5/vBusPin.c **** * \sideeffect
  47:Generated_Source\PSoC5/vBusPin.c **** *  If you use read-modify-write operations that are not atomic; the Interrupt 
  48:Generated_Source\PSoC5/vBusPin.c **** *  Service Routines (ISR) can cause corruption of this function. An ISR that 
  49:Generated_Source\PSoC5/vBusPin.c **** *  interrupts this function and performs writes to the Pins component data 
  50:Generated_Source\PSoC5/vBusPin.c **** *  register can cause corrupted port data. To avoid this issue, you should 
  51:Generated_Source\PSoC5/vBusPin.c **** *  either use the Per-Pin APIs (primary method) or disable interrupts around 
  52:Generated_Source\PSoC5/vBusPin.c **** *  this function.
  53:Generated_Source\PSoC5/vBusPin.c **** *
  54:Generated_Source\PSoC5/vBusPin.c **** * \funcusage
  55:Generated_Source\PSoC5/vBusPin.c **** *  \snippet vBusPin_SUT.c usage_vBusPin_Write
  56:Generated_Source\PSoC5/vBusPin.c **** *******************************************************************************/
  57:Generated_Source\PSoC5/vBusPin.c **** void vBusPin_Write(uint8 value)
  58:Generated_Source\PSoC5/vBusPin.c **** {
  28              		.loc 1 58 0
  29              		.cfi_startproc
  30              		@ args = 0, pretend = 0, frame = 16
  31              		@ frame_needed = 1, uses_anonymous_args = 0
  32              		@ link register save eliminated.
  33 0000 80B4     		push	{r7}
  34              		.cfi_def_cfa_offset 4
  35              		.cfi_offset 7, -4
  36 0002 85B0     		sub	sp, sp, #20
  37              		.cfi_def_cfa_offset 24
  38 0004 00AF     		add	r7, sp, #0
  39              		.cfi_def_cfa_register 7
  40 0006 0346     		mov	r3, r0
  41 0008 FB71     		strb	r3, [r7, #7]
  59:Generated_Source\PSoC5/vBusPin.c ****     uint8 staticBits = (vBusPin_DR & (uint8)(~vBusPin_MASK));
  42              		.loc 1 59 0
  43 000a 094B     		ldr	r3, .L2
  44 000c 1B78     		ldrb	r3, [r3]
  45 000e DBB2     		uxtb	r3, r3
  46 0010 03F07F03 		and	r3, r3, #127
  47 0014 FB73     		strb	r3, [r7, #15]
  60:Generated_Source\PSoC5/vBusPin.c ****     vBusPin_DR = staticBits | ((uint8)(value << vBusPin_SHIFT) & vBusPin_MASK);
  48              		.loc 1 60 0
  49 0016 0649     		ldr	r1, .L2
  50 0018 FB79     		ldrb	r3, [r7, #7]
  51 001a DB01     		lsls	r3, r3, #7
  52 001c DAB2     		uxtb	r2, r3
  53 001e FB7B     		ldrb	r3, [r7, #15]
  54 0020 1343     		orrs	r3, r3, r2
ARM GAS  C:\Users\JEFFSN~1\AppData\Local\Temp\ccFFCamX.s 			page 3


  55 0022 DBB2     		uxtb	r3, r3
  56 0024 0B70     		strb	r3, [r1]
  61:Generated_Source\PSoC5/vBusPin.c **** }
  57              		.loc 1 61 0
  58 0026 00BF     		nop
  59 0028 1437     		adds	r7, r7, #20
  60              		.cfi_def_cfa_offset 4
  61 002a BD46     		mov	sp, r7
  62              		.cfi_def_cfa_register 13
  63              		@ sp needed
  64 002c 80BC     		pop	{r7}
  65              		.cfi_restore 7
  66              		.cfi_def_cfa_offset 0
  67 002e 7047     		bx	lr
  68              	.L3:
  69              		.align	2
  70              	.L2:
  71 0030 C0510040 		.word	1073762752
  72              		.cfi_endproc
  73              	.LFE0:
  74              		.size	vBusPin_Write, .-vBusPin_Write
  75              		.section	.text.vBusPin_SetDriveMode,"ax",%progbits
  76              		.align	2
  77              		.global	vBusPin_SetDriveMode
  78              		.thumb
  79              		.thumb_func
  80              		.type	vBusPin_SetDriveMode, %function
  81              	vBusPin_SetDriveMode:
  82              	.LFB1:
  62:Generated_Source\PSoC5/vBusPin.c **** 
  63:Generated_Source\PSoC5/vBusPin.c **** 
  64:Generated_Source\PSoC5/vBusPin.c **** /*******************************************************************************
  65:Generated_Source\PSoC5/vBusPin.c **** * Function Name: vBusPin_SetDriveMode
  66:Generated_Source\PSoC5/vBusPin.c **** ****************************************************************************//**
  67:Generated_Source\PSoC5/vBusPin.c **** *
  68:Generated_Source\PSoC5/vBusPin.c **** * \brief Sets the drive mode for each of the Pins component's pins.
  69:Generated_Source\PSoC5/vBusPin.c **** * 
  70:Generated_Source\PSoC5/vBusPin.c **** * <b>Note</b> This affects all pins in the Pins component instance. Use the
  71:Generated_Source\PSoC5/vBusPin.c **** * Per-Pin APIs if you wish to control individual pin's drive modes.
  72:Generated_Source\PSoC5/vBusPin.c **** *
  73:Generated_Source\PSoC5/vBusPin.c **** * \param mode
  74:Generated_Source\PSoC5/vBusPin.c **** *  Mode for the selected signals. Valid options are documented in 
  75:Generated_Source\PSoC5/vBusPin.c **** *  \ref driveMode.
  76:Generated_Source\PSoC5/vBusPin.c **** *
  77:Generated_Source\PSoC5/vBusPin.c **** * \return
  78:Generated_Source\PSoC5/vBusPin.c **** *  None
  79:Generated_Source\PSoC5/vBusPin.c **** *
  80:Generated_Source\PSoC5/vBusPin.c **** * \sideeffect
  81:Generated_Source\PSoC5/vBusPin.c **** *  If you use read-modify-write operations that are not atomic, the ISR can
  82:Generated_Source\PSoC5/vBusPin.c **** *  cause corruption of this function. An ISR that interrupts this function 
  83:Generated_Source\PSoC5/vBusPin.c **** *  and performs writes to the Pins component Drive Mode registers can cause 
  84:Generated_Source\PSoC5/vBusPin.c **** *  corrupted port data. To avoid this issue, you should either use the Per-Pin
  85:Generated_Source\PSoC5/vBusPin.c **** *  APIs (primary method) or disable interrupts around this function.
  86:Generated_Source\PSoC5/vBusPin.c **** *
  87:Generated_Source\PSoC5/vBusPin.c **** * \funcusage
  88:Generated_Source\PSoC5/vBusPin.c **** *  \snippet vBusPin_SUT.c usage_vBusPin_SetDriveMode
  89:Generated_Source\PSoC5/vBusPin.c **** *******************************************************************************/
ARM GAS  C:\Users\JEFFSN~1\AppData\Local\Temp\ccFFCamX.s 			page 4


  90:Generated_Source\PSoC5/vBusPin.c **** void vBusPin_SetDriveMode(uint8 mode)
  91:Generated_Source\PSoC5/vBusPin.c **** {
  83              		.loc 1 91 0
  84              		.cfi_startproc
  85              		@ args = 0, pretend = 0, frame = 8
  86              		@ frame_needed = 1, uses_anonymous_args = 0
  87              		@ link register save eliminated.
  88 0000 80B4     		push	{r7}
  89              		.cfi_def_cfa_offset 4
  90              		.cfi_offset 7, -4
  91 0002 83B0     		sub	sp, sp, #12
  92              		.cfi_def_cfa_offset 16
  93 0004 00AF     		add	r7, sp, #0
  94              		.cfi_def_cfa_register 7
  95 0006 0346     		mov	r3, r0
  96 0008 FB71     		strb	r3, [r7, #7]
  92:Generated_Source\PSoC5/vBusPin.c **** 	CyPins_SetPinDriveMode(vBusPin_0, mode);
  97              		.loc 1 92 0
  98 000a 0B49     		ldr	r1, .L5
  99 000c 0A4B     		ldr	r3, .L5
 100 000e 1B78     		ldrb	r3, [r3]
 101 0010 DBB2     		uxtb	r3, r3
 102 0012 5BB2     		sxtb	r3, r3
 103 0014 23F00E03 		bic	r3, r3, #14
 104 0018 5AB2     		sxtb	r2, r3
 105 001a 97F90730 		ldrsb	r3, [r7, #7]
 106 001e 03F00E03 		and	r3, r3, #14
 107 0022 5BB2     		sxtb	r3, r3
 108 0024 1343     		orrs	r3, r3, r2
 109 0026 5BB2     		sxtb	r3, r3
 110 0028 DBB2     		uxtb	r3, r3
 111 002a 0B70     		strb	r3, [r1]
  93:Generated_Source\PSoC5/vBusPin.c **** }
 112              		.loc 1 93 0
 113 002c 00BF     		nop
 114 002e 0C37     		adds	r7, r7, #12
 115              		.cfi_def_cfa_offset 4
 116 0030 BD46     		mov	sp, r7
 117              		.cfi_def_cfa_register 13
 118              		@ sp needed
 119 0032 80BC     		pop	{r7}
 120              		.cfi_restore 7
 121              		.cfi_def_cfa_offset 0
 122 0034 7047     		bx	lr
 123              	.L6:
 124 0036 00BF     		.align	2
 125              	.L5:
 126 0038 67500040 		.word	1073762407
 127              		.cfi_endproc
 128              	.LFE1:
 129              		.size	vBusPin_SetDriveMode, .-vBusPin_SetDriveMode
 130              		.section	.text.vBusPin_Read,"ax",%progbits
 131              		.align	2
 132              		.global	vBusPin_Read
 133              		.thumb
 134              		.thumb_func
 135              		.type	vBusPin_Read, %function
ARM GAS  C:\Users\JEFFSN~1\AppData\Local\Temp\ccFFCamX.s 			page 5


 136              	vBusPin_Read:
 137              	.LFB2:
  94:Generated_Source\PSoC5/vBusPin.c **** 
  95:Generated_Source\PSoC5/vBusPin.c **** 
  96:Generated_Source\PSoC5/vBusPin.c **** /*******************************************************************************
  97:Generated_Source\PSoC5/vBusPin.c **** * Function Name: vBusPin_Read
  98:Generated_Source\PSoC5/vBusPin.c **** ****************************************************************************//**
  99:Generated_Source\PSoC5/vBusPin.c **** *
 100:Generated_Source\PSoC5/vBusPin.c **** * \brief Reads the associated physical port (pin status register) and masks 
 101:Generated_Source\PSoC5/vBusPin.c **** *  the required bits according to the width and bit position of the component
 102:Generated_Source\PSoC5/vBusPin.c **** *  instance. 
 103:Generated_Source\PSoC5/vBusPin.c **** *
 104:Generated_Source\PSoC5/vBusPin.c **** * The pin's status register returns the current logic level present on the 
 105:Generated_Source\PSoC5/vBusPin.c **** * physical pin.
 106:Generated_Source\PSoC5/vBusPin.c **** *
 107:Generated_Source\PSoC5/vBusPin.c **** * \return 
 108:Generated_Source\PSoC5/vBusPin.c **** *  The current value for the pins in the component as a right justified number.
 109:Generated_Source\PSoC5/vBusPin.c **** *
 110:Generated_Source\PSoC5/vBusPin.c **** * \funcusage
 111:Generated_Source\PSoC5/vBusPin.c **** *  \snippet vBusPin_SUT.c usage_vBusPin_Read  
 112:Generated_Source\PSoC5/vBusPin.c **** *******************************************************************************/
 113:Generated_Source\PSoC5/vBusPin.c **** uint8 vBusPin_Read(void)
 114:Generated_Source\PSoC5/vBusPin.c **** {
 138              		.loc 1 114 0
 139              		.cfi_startproc
 140              		@ args = 0, pretend = 0, frame = 0
 141              		@ frame_needed = 1, uses_anonymous_args = 0
 142              		@ link register save eliminated.
 143 0000 80B4     		push	{r7}
 144              		.cfi_def_cfa_offset 4
 145              		.cfi_offset 7, -4
 146 0002 00AF     		add	r7, sp, #0
 147              		.cfi_def_cfa_register 7
 115:Generated_Source\PSoC5/vBusPin.c ****     return (vBusPin_PS & vBusPin_MASK) >> vBusPin_SHIFT;
 148              		.loc 1 115 0
 149 0004 054B     		ldr	r3, .L9
 150 0006 1B78     		ldrb	r3, [r3]
 151 0008 DBB2     		uxtb	r3, r3
 152 000a 03F08003 		and	r3, r3, #128
 153 000e DB09     		lsrs	r3, r3, #7
 154 0010 DBB2     		uxtb	r3, r3
 116:Generated_Source\PSoC5/vBusPin.c **** }
 155              		.loc 1 116 0
 156 0012 1846     		mov	r0, r3
 157 0014 BD46     		mov	sp, r7
 158              		.cfi_def_cfa_register 13
 159              		@ sp needed
 160 0016 80BC     		pop	{r7}
 161              		.cfi_restore 7
 162              		.cfi_def_cfa_offset 0
 163 0018 7047     		bx	lr
 164              	.L10:
 165 001a 00BF     		.align	2
 166              	.L9:
 167 001c C1510040 		.word	1073762753
 168              		.cfi_endproc
 169              	.LFE2:
ARM GAS  C:\Users\JEFFSN~1\AppData\Local\Temp\ccFFCamX.s 			page 6


 170              		.size	vBusPin_Read, .-vBusPin_Read
 171              		.section	.text.vBusPin_ReadDataReg,"ax",%progbits
 172              		.align	2
 173              		.global	vBusPin_ReadDataReg
 174              		.thumb
 175              		.thumb_func
 176              		.type	vBusPin_ReadDataReg, %function
 177              	vBusPin_ReadDataReg:
 178              	.LFB3:
 117:Generated_Source\PSoC5/vBusPin.c **** 
 118:Generated_Source\PSoC5/vBusPin.c **** 
 119:Generated_Source\PSoC5/vBusPin.c **** /*******************************************************************************
 120:Generated_Source\PSoC5/vBusPin.c **** * Function Name: vBusPin_ReadDataReg
 121:Generated_Source\PSoC5/vBusPin.c **** ****************************************************************************//**
 122:Generated_Source\PSoC5/vBusPin.c **** *
 123:Generated_Source\PSoC5/vBusPin.c **** * \brief Reads the associated physical port's data output register and masks 
 124:Generated_Source\PSoC5/vBusPin.c **** *  the correct bits according to the width and bit position of the component 
 125:Generated_Source\PSoC5/vBusPin.c **** *  instance. 
 126:Generated_Source\PSoC5/vBusPin.c **** *
 127:Generated_Source\PSoC5/vBusPin.c **** * The data output register controls the signal applied to the physical pin in 
 128:Generated_Source\PSoC5/vBusPin.c **** * conjunction with the drive mode parameter. This is not the same as the 
 129:Generated_Source\PSoC5/vBusPin.c **** * preferred vBusPin_Read() API because the 
 130:Generated_Source\PSoC5/vBusPin.c **** * vBusPin_ReadDataReg() reads the data register instead of the status 
 131:Generated_Source\PSoC5/vBusPin.c **** * register. For output pins this is a useful function to determine the value 
 132:Generated_Source\PSoC5/vBusPin.c **** * just written to the pin.
 133:Generated_Source\PSoC5/vBusPin.c **** *
 134:Generated_Source\PSoC5/vBusPin.c **** * \return 
 135:Generated_Source\PSoC5/vBusPin.c **** *  The current value of the data register masked and shifted into a right 
 136:Generated_Source\PSoC5/vBusPin.c **** *  justified number for the component instance.
 137:Generated_Source\PSoC5/vBusPin.c **** *
 138:Generated_Source\PSoC5/vBusPin.c **** * \funcusage
 139:Generated_Source\PSoC5/vBusPin.c **** *  \snippet vBusPin_SUT.c usage_vBusPin_ReadDataReg 
 140:Generated_Source\PSoC5/vBusPin.c **** *******************************************************************************/
 141:Generated_Source\PSoC5/vBusPin.c **** uint8 vBusPin_ReadDataReg(void)
 142:Generated_Source\PSoC5/vBusPin.c **** {
 179              		.loc 1 142 0
 180              		.cfi_startproc
 181              		@ args = 0, pretend = 0, frame = 0
 182              		@ frame_needed = 1, uses_anonymous_args = 0
 183              		@ link register save eliminated.
 184 0000 80B4     		push	{r7}
 185              		.cfi_def_cfa_offset 4
 186              		.cfi_offset 7, -4
 187 0002 00AF     		add	r7, sp, #0
 188              		.cfi_def_cfa_register 7
 143:Generated_Source\PSoC5/vBusPin.c ****     return (vBusPin_DR & vBusPin_MASK) >> vBusPin_SHIFT;
 189              		.loc 1 143 0
 190 0004 054B     		ldr	r3, .L13
 191 0006 1B78     		ldrb	r3, [r3]
 192 0008 DBB2     		uxtb	r3, r3
 193 000a 03F08003 		and	r3, r3, #128
 194 000e DB09     		lsrs	r3, r3, #7
 195 0010 DBB2     		uxtb	r3, r3
 144:Generated_Source\PSoC5/vBusPin.c **** }
 196              		.loc 1 144 0
 197 0012 1846     		mov	r0, r3
 198 0014 BD46     		mov	sp, r7
ARM GAS  C:\Users\JEFFSN~1\AppData\Local\Temp\ccFFCamX.s 			page 7


 199              		.cfi_def_cfa_register 13
 200              		@ sp needed
 201 0016 80BC     		pop	{r7}
 202              		.cfi_restore 7
 203              		.cfi_def_cfa_offset 0
 204 0018 7047     		bx	lr
 205              	.L14:
 206 001a 00BF     		.align	2
 207              	.L13:
 208 001c C0510040 		.word	1073762752
 209              		.cfi_endproc
 210              	.LFE3:
 211              		.size	vBusPin_ReadDataReg, .-vBusPin_ReadDataReg
 212              		.section	.text.vBusPin_SetInterruptMode,"ax",%progbits
 213              		.align	2
 214              		.global	vBusPin_SetInterruptMode
 215              		.thumb
 216              		.thumb_func
 217              		.type	vBusPin_SetInterruptMode, %function
 218              	vBusPin_SetInterruptMode:
 219              	.LFB4:
 145:Generated_Source\PSoC5/vBusPin.c **** 
 146:Generated_Source\PSoC5/vBusPin.c **** 
 147:Generated_Source\PSoC5/vBusPin.c **** /* If interrupt is connected for this Pins component */ 
 148:Generated_Source\PSoC5/vBusPin.c **** #if defined(vBusPin_INTSTAT) 
 149:Generated_Source\PSoC5/vBusPin.c **** 
 150:Generated_Source\PSoC5/vBusPin.c ****     /*******************************************************************************
 151:Generated_Source\PSoC5/vBusPin.c ****     * Function Name: vBusPin_SetInterruptMode
 152:Generated_Source\PSoC5/vBusPin.c ****     ****************************************************************************//**
 153:Generated_Source\PSoC5/vBusPin.c ****     *
 154:Generated_Source\PSoC5/vBusPin.c ****     * \brief Configures the interrupt mode for each of the Pins component's
 155:Generated_Source\PSoC5/vBusPin.c ****     *  pins. Alternatively you may set the interrupt mode for all the pins
 156:Generated_Source\PSoC5/vBusPin.c ****     *  specified in the Pins component.
 157:Generated_Source\PSoC5/vBusPin.c ****     *
 158:Generated_Source\PSoC5/vBusPin.c ****     *  <b>Note</b> The interrupt is port-wide and therefore any enabled pin
 159:Generated_Source\PSoC5/vBusPin.c ****     *  interrupt may trigger it.
 160:Generated_Source\PSoC5/vBusPin.c ****     *
 161:Generated_Source\PSoC5/vBusPin.c ****     * \param position
 162:Generated_Source\PSoC5/vBusPin.c ****     *  The pin position as listed in the Pins component. You may OR these to be 
 163:Generated_Source\PSoC5/vBusPin.c ****     *  able to configure the interrupt mode of multiple pins within a Pins 
 164:Generated_Source\PSoC5/vBusPin.c ****     *  component. Or you may use vBusPin_INTR_ALL to configure the
 165:Generated_Source\PSoC5/vBusPin.c ****     *  interrupt mode of all the pins in the Pins component.       
 166:Generated_Source\PSoC5/vBusPin.c ****     *  - vBusPin_0_INTR       (First pin in the list)
 167:Generated_Source\PSoC5/vBusPin.c ****     *  - vBusPin_1_INTR       (Second pin in the list)
 168:Generated_Source\PSoC5/vBusPin.c ****     *  - ...
 169:Generated_Source\PSoC5/vBusPin.c ****     *  - vBusPin_INTR_ALL     (All pins in Pins component)
 170:Generated_Source\PSoC5/vBusPin.c ****     *
 171:Generated_Source\PSoC5/vBusPin.c ****     * \param mode
 172:Generated_Source\PSoC5/vBusPin.c ****     *  Interrupt mode for the selected pins. Valid options are documented in
 173:Generated_Source\PSoC5/vBusPin.c ****     *  \ref intrMode.
 174:Generated_Source\PSoC5/vBusPin.c ****     *
 175:Generated_Source\PSoC5/vBusPin.c ****     * \return 
 176:Generated_Source\PSoC5/vBusPin.c ****     *  None
 177:Generated_Source\PSoC5/vBusPin.c ****     *  
 178:Generated_Source\PSoC5/vBusPin.c ****     * \sideeffect
 179:Generated_Source\PSoC5/vBusPin.c ****     *  It is recommended that the interrupt be disabled before calling this 
 180:Generated_Source\PSoC5/vBusPin.c ****     *  function to avoid unintended interrupt requests. Note that the interrupt
ARM GAS  C:\Users\JEFFSN~1\AppData\Local\Temp\ccFFCamX.s 			page 8


 181:Generated_Source\PSoC5/vBusPin.c ****     *  type is port wide, and therefore will trigger for any enabled pin on the 
 182:Generated_Source\PSoC5/vBusPin.c ****     *  port.
 183:Generated_Source\PSoC5/vBusPin.c ****     *
 184:Generated_Source\PSoC5/vBusPin.c ****     * \funcusage
 185:Generated_Source\PSoC5/vBusPin.c ****     *  \snippet vBusPin_SUT.c usage_vBusPin_SetInterruptMode
 186:Generated_Source\PSoC5/vBusPin.c ****     *******************************************************************************/
 187:Generated_Source\PSoC5/vBusPin.c ****     void vBusPin_SetInterruptMode(uint16 position, uint16 mode)
 188:Generated_Source\PSoC5/vBusPin.c ****     {
 220              		.loc 1 188 0
 221              		.cfi_startproc
 222              		@ args = 0, pretend = 0, frame = 8
 223              		@ frame_needed = 1, uses_anonymous_args = 0
 224              		@ link register save eliminated.
 225 0000 80B4     		push	{r7}
 226              		.cfi_def_cfa_offset 4
 227              		.cfi_offset 7, -4
 228 0002 83B0     		sub	sp, sp, #12
 229              		.cfi_def_cfa_offset 16
 230 0004 00AF     		add	r7, sp, #0
 231              		.cfi_def_cfa_register 7
 232 0006 0346     		mov	r3, r0
 233 0008 0A46     		mov	r2, r1
 234 000a FB80     		strh	r3, [r7, #6]	@ movhi
 235 000c 1346     		mov	r3, r2	@ movhi
 236 000e BB80     		strh	r3, [r7, #4]	@ movhi
 189:Generated_Source\PSoC5/vBusPin.c **** 		if((position & vBusPin_0_INTR) != 0u) 
 237              		.loc 1 189 0
 238 0010 FB88     		ldrh	r3, [r7, #6]
 239 0012 03F08003 		and	r3, r3, #128
 240 0016 002B     		cmp	r3, #0
 241 0018 03D0     		beq	.L17
 190:Generated_Source\PSoC5/vBusPin.c **** 		{ 
 191:Generated_Source\PSoC5/vBusPin.c **** 			 vBusPin_0_INTTYPE_REG = (uint8)mode; 
 242              		.loc 1 191 0
 243 001a 044B     		ldr	r3, .L18
 244 001c BA88     		ldrh	r2, [r7, #4]	@ movhi
 245 001e D2B2     		uxtb	r2, r2
 246 0020 1A70     		strb	r2, [r3]
 247              	.L17:
 192:Generated_Source\PSoC5/vBusPin.c **** 		}
 193:Generated_Source\PSoC5/vBusPin.c ****     }
 248              		.loc 1 193 0
 249 0022 00BF     		nop
 250 0024 0C37     		adds	r7, r7, #12
 251              		.cfi_def_cfa_offset 4
 252 0026 BD46     		mov	sp, r7
 253              		.cfi_def_cfa_register 13
 254              		@ sp needed
 255 0028 80BC     		pop	{r7}
 256              		.cfi_restore 7
 257              		.cfi_def_cfa_offset 0
 258 002a 7047     		bx	lr
 259              	.L19:
 260              		.align	2
 261              	.L18:
 262 002c 67450040 		.word	1073759591
 263              		.cfi_endproc
ARM GAS  C:\Users\JEFFSN~1\AppData\Local\Temp\ccFFCamX.s 			page 9


 264              	.LFE4:
 265              		.size	vBusPin_SetInterruptMode, .-vBusPin_SetInterruptMode
 266              		.section	.text.vBusPin_ClearInterrupt,"ax",%progbits
 267              		.align	2
 268              		.global	vBusPin_ClearInterrupt
 269              		.thumb
 270              		.thumb_func
 271              		.type	vBusPin_ClearInterrupt, %function
 272              	vBusPin_ClearInterrupt:
 273              	.LFB5:
 194:Generated_Source\PSoC5/vBusPin.c ****     
 195:Generated_Source\PSoC5/vBusPin.c ****     
 196:Generated_Source\PSoC5/vBusPin.c ****     /*******************************************************************************
 197:Generated_Source\PSoC5/vBusPin.c ****     * Function Name: vBusPin_ClearInterrupt
 198:Generated_Source\PSoC5/vBusPin.c ****     ****************************************************************************//**
 199:Generated_Source\PSoC5/vBusPin.c ****     *
 200:Generated_Source\PSoC5/vBusPin.c ****     * \brief Clears any active interrupts attached with the component and returns 
 201:Generated_Source\PSoC5/vBusPin.c ****     *  the value of the interrupt status register allowing determination of which
 202:Generated_Source\PSoC5/vBusPin.c ****     *  pins generated an interrupt event.
 203:Generated_Source\PSoC5/vBusPin.c ****     *
 204:Generated_Source\PSoC5/vBusPin.c ****     * \return 
 205:Generated_Source\PSoC5/vBusPin.c ****     *  The right-shifted current value of the interrupt status register. Each pin 
 206:Generated_Source\PSoC5/vBusPin.c ****     *  has one bit set if it generated an interrupt event. For example, bit 0 is 
 207:Generated_Source\PSoC5/vBusPin.c ****     *  for pin 0 and bit 1 is for pin 1 of the Pins component.
 208:Generated_Source\PSoC5/vBusPin.c ****     *  
 209:Generated_Source\PSoC5/vBusPin.c ****     * \sideeffect
 210:Generated_Source\PSoC5/vBusPin.c ****     *  Clears all bits of the physical port's interrupt status register, not just
 211:Generated_Source\PSoC5/vBusPin.c ****     *  those associated with the Pins component.
 212:Generated_Source\PSoC5/vBusPin.c ****     *
 213:Generated_Source\PSoC5/vBusPin.c ****     * \funcusage
 214:Generated_Source\PSoC5/vBusPin.c ****     *  \snippet vBusPin_SUT.c usage_vBusPin_ClearInterrupt
 215:Generated_Source\PSoC5/vBusPin.c ****     *******************************************************************************/
 216:Generated_Source\PSoC5/vBusPin.c ****     uint8 vBusPin_ClearInterrupt(void)
 217:Generated_Source\PSoC5/vBusPin.c ****     {
 274              		.loc 1 217 0
 275              		.cfi_startproc
 276              		@ args = 0, pretend = 0, frame = 0
 277              		@ frame_needed = 1, uses_anonymous_args = 0
 278              		@ link register save eliminated.
 279 0000 80B4     		push	{r7}
 280              		.cfi_def_cfa_offset 4
 281              		.cfi_offset 7, -4
 282 0002 00AF     		add	r7, sp, #0
 283              		.cfi_def_cfa_register 7
 218:Generated_Source\PSoC5/vBusPin.c ****         return (vBusPin_INTSTAT & vBusPin_MASK) >> vBusPin_SHIFT;
 284              		.loc 1 218 0
 285 0004 054B     		ldr	r3, .L22
 286 0006 1B78     		ldrb	r3, [r3]
 287 0008 DBB2     		uxtb	r3, r3
 288 000a 03F08003 		and	r3, r3, #128
 289 000e DB09     		lsrs	r3, r3, #7
 290 0010 DBB2     		uxtb	r3, r3
 219:Generated_Source\PSoC5/vBusPin.c ****     }
 291              		.loc 1 219 0
 292 0012 1846     		mov	r0, r3
 293 0014 BD46     		mov	sp, r7
 294              		.cfi_def_cfa_register 13
ARM GAS  C:\Users\JEFFSN~1\AppData\Local\Temp\ccFFCamX.s 			page 10


 295              		@ sp needed
 296 0016 80BC     		pop	{r7}
 297              		.cfi_restore 7
 298              		.cfi_def_cfa_offset 0
 299 0018 7047     		bx	lr
 300              	.L23:
 301 001a 00BF     		.align	2
 302              	.L22:
 303 001c 8C450040 		.word	1073759628
 304              		.cfi_endproc
 305              	.LFE5:
 306              		.size	vBusPin_ClearInterrupt, .-vBusPin_ClearInterrupt
 307              		.text
 308              	.Letext0:
 309              		.file 2 "Generated_Source\\PSoC5\\cytypes.h"